	.arch armv8-m.main
	.arch_extension dsp
	.eabi_attribute 20, 1
	.eabi_attribute 21, 1
	.eabi_attribute 23, 3
	.eabi_attribute 24, 1
	.eabi_attribute 25, 1
	.eabi_attribute 26, 1
	.eabi_attribute 30, 4
	.eabi_attribute 34, 1
	.eabi_attribute 18, 4
	.file	"ancs_client.c"
	.text
.Ltext0:
	.cfi_sections	.debug_frame
	.section	.text.ancs_client_notify_ind_cb,"ax",%progbits
	.align	1
	.syntax unified
	.thumb
	.thumb_func
	.fpu softvfp
	.type	ancs_client_notify_ind_cb, %function
ancs_client_notify_ind_cb:
.LFB10:
	.file 1 "../../../component/common/bluetooth/realtek/sdk/src/ble/profile/client/ancs_client.c"
	.loc 1 466 0
	.cfi_startproc
	@ args = 4, pretend = 0, frame = 16
	@ frame_needed = 0, uses_anonymous_args = 0
.LVL0:
	mov	r1, r0
.LVL1:
	push	{r4, r5, lr}
	.cfi_def_cfa_offset 12
	.cfi_offset 4, -12
	.cfi_offset 5, -8
	.cfi_offset 14, -4
	.loc 1 472 0
	movs	r5, #2
	.loc 1 471 0
	ldr	r4, .L11
	.loc 1 466 0
	sub	sp, sp, #20
	.cfi_def_cfa_offset 32
	.loc 1 471 0
	ldr	r4, [r4]
	.loc 1 472 0
	strb	r5, [sp, #4]
	.loc 1 471 0
	add	r4, r4, r1, lsl #4
.LVL2:
	.loc 1 474 0
	ldrh	r5, [r4, #12]
	.loc 1 466 0
	ldr	r0, [sp, #32]
.LVL3:
	.loc 1 474 0
	cmp	r5, r2
	bne	.L2
	.loc 1 476 0
	movs	r2, #0
.LVL4:
.L10:
	.loc 1 483 0
	strh	r3, [sp, #10]	@ movhi
	.loc 1 491 0
	ldr	r3, .L11+4
.LVL5:
	.loc 1 482 0
	strb	r2, [sp, #8]
	.loc 1 491 0
	ldr	r3, [r3]
	.loc 1 484 0
	str	r0, [sp, #12]
	.loc 1 491 0
	cbz	r3, .L6
	.loc 1 493 0
	ldr	r0, .L11+8
	add	r2, sp, #4
	ldrb	r0, [r0]	@ zero_extendqisi2
	blx	r3
.LVL6:
	b	.L5
.LVL7:
.L2:
	.loc 1 480 0
	ldrh	r4, [r4, #8]
.LVL8:
	cmp	r4, r2
	beq	.L4
.LVL9:
.L6:
	.loc 1 488 0
	movs	r0, #0
.LVL10:
.L5:
	.loc 1 497 0
	add	sp, sp, #20
	.cfi_remember_state
	.cfi_def_cfa_offset 12
	@ sp needed
	pop	{r4, r5, pc}
.LVL11:
.L4:
	.cfi_restore_state
	.loc 1 482 0
	movs	r2, #1
.LVL12:
	b	.L10
.L12:
	.align	2
.L11:
	.word	.LANCHOR0
	.word	.LANCHOR1
	.word	.LANCHOR2
	.cfi_endproc
.LFE10:
	.size	ancs_client_notify_ind_cb, .-ancs_client_notify_ind_cb
	.section	.text.ancs_client_write_result_cb,"ax",%progbits
	.align	1
	.syntax unified
	.thumb
	.thumb_func
	.fpu softvfp
	.type	ancs_client_write_result_cb, %function
ancs_client_write_result_cb:
.LFB9:
	.loc 1 408 0
	.cfi_startproc
	@ args = 4, pretend = 0, frame = 16
	@ frame_needed = 0, uses_anonymous_args = 0
.LVL13:
	push	{r4, r5, r6, r7, r8, r9, r10, lr}
	.cfi_def_cfa_offset 32
	.cfi_offset 4, -32
	.cfi_offset 5, -28
	.cfi_offset 6, -24
	.cfi_offset 7, -20
	.cfi_offset 8, -16
	.cfi_offset 9, -12
	.cfi_offset 10, -8
	.cfi_offset 14, -4
	.loc 1 412 0
	mov	r9, #1
	.loc 1 408 0
	mov	r5, r2
	mov	r10, r3
	.loc 1 411 0
	ldr	r7, .L26
	.loc 1 408 0
	sub	sp, sp, #24
	.cfi_def_cfa_offset 56
	.loc 1 411 0
	ldr	r4, [r7]
	lsls	r6, r0, #4
.LBB2:
	.loc 1 414 0
	str	r3, [sp]
.LBE2:
	.loc 1 408 0
	mov	r8, r0
.LBB3:
	.loc 1 414 0
	mov	r3, r2
.LVL14:
.LBE3:
	.loc 1 411 0
	add	r4, r4, r6
.LVL15:
.LBB4:
	.loc 1 414 0
	movs	r2, #2
.LVL16:
	ldr	r1, .L26+4
.LVL17:
	ldr	r0, .L26+8
.LVL18:
.LBE4:
	.loc 1 412 0
	strb	r9, [sp, #12]
.LBB5:
	.loc 1 414 0
	bl	trace_log_buffer
.LVL19:
.LBE5:
	.loc 1 417 0
	ldrh	r3, [r4, #10]
	.loc 1 415 0
	strh	r10, [sp, #18]	@ movhi
	.loc 1 417 0
	cmp	r3, r5
	bne	.L14
	.loc 1 419 0
	ldr	r3, [r7]
	add	r3, r3, r6
	ldrb	r3, [r3, #1]	@ zero_extendqisi2
	cbnz	r3, .L15
	.loc 1 421 0
	strb	r9, [sp, #16]
.L16:
	.loc 1 448 0
	ldr	r3, .L26+12
	ldr	r3, [r3]
	cbz	r3, .L13
	.loc 1 450 0
	ldr	r0, .L26+16
	add	r2, sp, #12
	mov	r1, r8
	ldrb	r0, [r0]	@ zero_extendqisi2
	blx	r3
.LVL20:
.L13:
	.loc 1 453 0
	add	sp, sp, #24
	.cfi_remember_state
	.cfi_def_cfa_offset 32
	@ sp needed
	pop	{r4, r5, r6, r7, r8, r9, r10, pc}
.LVL21:
.L15:
	.cfi_restore_state
	.loc 1 425 0
	movs	r3, #0
.L25:
	.loc 1 441 0
	strb	r3, [sp, #16]
	b	.L16
.L14:
	.loc 1 428 0
	ldrh	r3, [r4, #14]
	cmp	r3, r5
	bne	.L17
	.loc 1 430 0
	ldr	r3, [r7]
	add	r3, r3, r6
	ldrb	r3, [r3, #1]	@ zero_extendqisi2
	cbnz	r3, .L18
	.loc 1 432 0
	movs	r3, #3
	b	.L25
.L18:
	.loc 1 436 0
	movs	r3, #2
	b	.L25
.L17:
	.loc 1 439 0
	ldrh	r3, [r4, #6]
	cmp	r3, r5
	bne	.L13
	.loc 1 441 0
	movs	r3, #4
	b	.L25
.L27:
	.align	2
.L26:
	.word	.LANCHOR0
	.word	.LANCHOR3
	.word	1058025474
	.word	.LANCHOR1
	.word	.LANCHOR2
	.cfi_endproc
.LFE9:
	.size	ancs_client_write_result_cb, .-ancs_client_write_result_cb
	.section	.text.ancs_client_disc_cb,"ax",%progbits
	.align	1
	.syntax unified
	.thumb
	.thumb_func
	.fpu softvfp
	.type	ancs_client_disc_cb, %function
ancs_client_disc_cb:
.LFB11:
	.loc 1 505 0
	.cfi_startproc
	@ args = 0, pretend = 0, frame = 16
	@ frame_needed = 0, uses_anonymous_args = 0
.LVL22:
	push	{r0, r1, r2, r3, r4, lr}
	.cfi_def_cfa_offset 24
	.cfi_offset 4, -8
	.cfi_offset 14, -4
	.loc 1 505 0
	mov	r4, r0
.LBB6:
	.loc 1 506 0
	movs	r2, #0
	ldr	r1, .L33
	ldr	r0, .L33+4
.LVL23:
	bl	trace_log_buffer
.LVL24:
.LBE6:
	.loc 1 507 0
	ldr	r3, .L33+8
	movs	r2, #16
	ldr	r0, [r3]
	movs	r1, #0
	add	r0, r0, r4, lsl #4
	bl	memset
.LVL25:
	.loc 1 508 0
	ldr	r3, .L33+12
	ldr	r3, [r3]
	cbz	r3, .L28
.LBB7:
	.loc 1 511 0
	movs	r1, #3
	.loc 1 512 0
	ldr	r0, .L33+16
	.loc 1 511 0
	add	r2, sp, #16
	strb	r1, [r2, #-12]!
	.loc 1 512 0
	ldrb	r0, [r0]	@ zero_extendqisi2
	mov	r1, r4
	blx	r3
.LVL26:
.L28:
.LBE7:
	.loc 1 515 0
	add	sp, sp, #16
	.cfi_def_cfa_offset 8
	@ sp needed
	pop	{r4, pc}
.L34:
	.align	2
.L33:
	.word	.LANCHOR3+60
	.word	1058025474
	.word	.LANCHOR0
	.word	.LANCHOR1
	.word	.LANCHOR2
	.cfi_endproc
.LFE11:
	.size	ancs_client_disc_cb, .-ancs_client_disc_cb
	.section	.text.ancs_client_discover_result_cb,"ax",%progbits
	.align	1
	.syntax unified
	.thumb
	.thumb_func
	.fpu softvfp
	.type	ancs_client_discover_result_cb, %function
ancs_client_discover_result_cb:
.LFB8:
	.loc 1 351 0
	.cfi_startproc
	@ args = 0, pretend = 0, frame = 0
	@ frame_needed = 0, uses_anonymous_args = 0
.LVL27:
	push	{r3, r4, r5, r6, r7, lr}
	.cfi_def_cfa_offset 24
	.cfi_offset 3, -24
	.cfi_offset 4, -20
	.cfi_offset 5, -16
	.cfi_offset 6, -12
	.cfi_offset 7, -8
	.cfi_offset 14, -4
	.loc 1 351 0
	mov	r4, r0
.LBB8:
	.loc 1 352 0
	mov	r3, r1
	ldr	r0, .L43
.LVL28:
.LBE8:
	.loc 1 351 0
	mov	r7, r1
	mov	r5, r2
.LVL29:
.LBB9:
	.loc 1 352 0
	ldr	r1, .L43+4
.LVL30:
	movs	r2, #1
.LVL31:
	bl	trace_log_buffer
.LVL32:
.LBE9:
	.loc 1 353 0
	ldr	r3, .L43+8
	lsls	r0, r4, #4
	ldr	r3, [r3]
	adds	r6, r3, r0
	ldrb	r3, [r3, r0]	@ zero_extendqisi2
	cmp	r3, #1
	bne	.L35
	.loc 1 355 0
	cmp	r7, #2
	beq	.L38
	cmp	r7, #4
	beq	.L39
	.loc 1 393 0
	pop	{r3, r4, r5, r6, r7, lr}
	.cfi_remember_state
	.cfi_restore 14
	.cfi_restore 7
	.cfi_restore 6
	.cfi_restore 5
	.cfi_restore 4
	.cfi_restore 3
	.cfi_def_cfa_offset 0
.LVL33:
.LBB10:
	.loc 1 387 0
	movs	r2, #0
	ldr	r1, .L43+12
	ldr	r0, .L43+16
	b	trace_log_buffer
.LVL34:
.L38:
	.cfi_restore_state
.LBE10:
	.loc 1 358 0
	ldrh	r3, [r5]
	strh	r3, [r6, #2]	@ movhi
	.loc 1 360 0
	ldrh	r3, [r5, #2]
	strh	r3, [r6, #4]	@ movhi
	.loc 1 362 0
	pop	{r3, r4, r5, r6, r7, pc}
.LVL35:
.L39:
.LBB11:
	.loc 1 366 0
	ldrh	r4, [r5, #4]
.LVL36:
	.loc 1 367 0
	adds	r5, r5, #6
.LVL37:
	movs	r2, #16
	mov	r1, r5
	ldr	r0, .L43+20
	bl	memcmp
.LVL38:
	cbnz	r0, .L40
	.loc 1 369 0
	strh	r4, [r6, #6]	@ movhi
	pop	{r3, r4, r5, r6, r7, pc}
.LVL39:
.L40:
	.loc 1 371 0
	movs	r2, #16
	mov	r1, r5
	ldr	r0, .L43+24
	bl	memcmp
.LVL40:
	cbnz	r0, .L41
	.loc 1 374 0
	strh	r4, [r6, #8]	@ movhi
	.loc 1 375 0
	adds	r4, r4, #1
.LVL41:
	strh	r4, [r6, #10]	@ movhi
	pop	{r3, r4, r5, r6, r7, pc}
.LVL42:
.L41:
	.loc 1 377 0
	movs	r2, #16
	mov	r1, r5
	ldr	r0, .L43+28
	bl	memcmp
.LVL43:
	cbnz	r0, .L35
	.loc 1 380 0
	strh	r4, [r6, #12]	@ movhi
	.loc 1 381 0
	adds	r4, r4, #1
.LVL44:
	strh	r4, [r6, #14]	@ movhi
	pop	{r3, r4, r5, r6, r7, pc}
.LVL45:
.L35:
	pop	{r3, r4, r5, r6, r7, pc}
.LVL46:
.L44:
	.align	2
.L43:
	.word	1058025474
	.word	.LANCHOR3+84
	.word	.LANCHOR0
	.word	.LANCHOR3+136
	.word	1058025472
	.word	.LANCHOR4
	.word	.LANCHOR5
	.word	.LANCHOR6
.LBE11:
	.cfi_endproc
.LFE8:
	.size	ancs_client_discover_result_cb, .-ancs_client_discover_result_cb
	.section	.text.ancs_client_discover_state_cb,"ax",%progbits
	.align	1
	.syntax unified
	.thumb
	.thumb_func
	.fpu softvfp
	.type	ancs_client_discover_state_cb, %function
ancs_client_discover_state_cb:
.LFB7:
	.loc 1 290 0
	.cfi_startproc
	@ args = 0, pretend = 0, frame = 16
	@ frame_needed = 0, uses_anonymous_args = 0
.LVL47:
	push	{r0, r1, r2, r3, r4, r5, r6, r7, r8, lr}
	.cfi_def_cfa_offset 40
	.cfi_offset 4, -24
	.cfi_offset 5, -20
	.cfi_offset 6, -16
	.cfi_offset 7, -12
	.cfi_offset 8, -8
	.cfi_offset 14, -4
	.loc 1 293 0
	mov	r8, #0
	.loc 1 290 0
	mov	r7, r0
	.loc 1 296 0
	ldr	r5, .L65
.LBB17:
	.loc 1 295 0
	mov	r3, r1
	movs	r2, #1
.LBE17:
	.loc 1 290 0
	mov	r6, r1
.LBB18:
	.loc 1 295 0
	ldr	r0, .L65+4
.LVL48:
	ldr	r1, .L65+8
.LVL49:
.LBE18:
	.loc 1 293 0
	strb	r8, [sp, #4]
.LBB19:
	.loc 1 295 0
	bl	trace_log_buffer
.LVL50:
.LBE19:
	.loc 1 296 0
	ldr	r3, [r5]
	lsls	r4, r7, #4
	ldrb	r1, [r3, r4]	@ zero_extendqisi2
	adds	r2, r3, r4
	cmp	r1, #1
	bne	.L45
	.loc 1 298 0
	cmp	r6, #6
	beq	.L49
	cmp	r6, #11
	beq	.L64
	cmp	r6, #2
	bne	.L61
	.loc 1 302 0
	ldrh	r1, [r2, #2]
	cbnz	r1, .L52
	.loc 1 303 0
	ldrh	r2, [r2, #4]
	cbz	r2, .L64
.L52:
.LVL51:
.LBB20:
.LBB21:
.LBB22:
	.loc 1 86 0
	movs	r2, #0
	ldr	r1, .L65+12
	ldr	r0, .L65+4
	bl	trace_log_buffer
.LVL52:
.LBE22:
	.loc 1 87 0
	ldr	r2, [r5]
	.loc 1 89 0
	ldr	r1, .L65+16
	.loc 1 87 0
	add	r2, r2, r4
.LVL53:
	.loc 1 89 0
	ldrh	r3, [r2, #4]
	ldrb	r1, [r1]	@ zero_extendqisi2
	ldrh	r2, [r2, #2]
.LVL54:
	mov	r0, r7
	bl	client_all_char_discovery
.LVL55:
	cbnz	r0, .L62
.LVL56:
.L45:
.LBE21:
.LBE20:
	.loc 1 340 0
	add	sp, sp, #16
	.cfi_remember_state
	.cfi_def_cfa_offset 24
	@ sp needed
	pop	{r4, r5, r6, r7, r8, pc}
.LVL57:
.L49:
	.cfi_restore_state
	.loc 1 319 0
	movs	r2, #2
.L63:
	.loc 1 307 0
	strb	r2, [r3, r4]
.LVL58:
	.loc 1 334 0
	ldr	r3, .L65+20
	ldr	r3, [r3]
	cmp	r3, #0
	beq	.L45
	.loc 1 336 0
	ldr	r2, [r5]
	.loc 1 337 0
	ldr	r0, .L65+16
	.loc 1 336 0
	ldrb	r2, [r2, r4]	@ zero_extendqisi2
	.loc 1 337 0
	mov	r1, r7
	.loc 1 336 0
	strb	r2, [sp, #8]
	.loc 1 337 0
	ldrb	r0, [r0]	@ zero_extendqisi2
	add	r2, sp, #4
	blx	r3
.LVL59:
	.loc 1 339 0
	b	.L45
.LVL60:
.L61:
.LBB23:
	.loc 1 328 0
	mov	r2, r8
	ldr	r1, .L65+24
	ldr	r0, .L65+28
	bl	trace_log_buffer
.LVL61:
.LBE23:
	.loc 1 329 0
	b	.L45
.LVL62:
.L62:
	.loc 1 307 0
	ldr	r3, [r5]
.L64:
	movs	r2, #3
	b	.L63
.L66:
	.align	2
.L65:
	.word	.LANCHOR0
	.word	1058025474
	.word	.LANCHOR3+172
	.word	.LANCHOR3+228
	.word	.LANCHOR2
	.word	.LANCHOR1
	.word	.LANCHOR3+260
	.word	1058025472
	.cfi_endproc
.LFE7:
	.size	ancs_client_discover_state_cb, .-ancs_client_discover_state_cb
	.section	.text.ancs_start_discovery,"ax",%progbits
	.align	1
	.global	ancs_start_discovery
	.syntax unified
	.thumb
	.thumb_func
	.fpu softvfp
	.type	ancs_start_discovery, %function
ancs_start_discovery:
.LFB0:
	.loc 1 56 0
	.cfi_startproc
	@ args = 0, pretend = 0, frame = 0
	@ frame_needed = 0, uses_anonymous_args = 0
.LVL63:
	push	{r4, r5, r6, lr}
	.cfi_def_cfa_offset 16
	.cfi_offset 4, -16
	.cfi_offset 5, -12
	.cfi_offset 6, -8
	.cfi_offset 14, -4
	.loc 1 56 0
	mov	r4, r0
.LBB24:
	.loc 1 57 0
	movs	r2, #0
	ldr	r1, .L70
	ldr	r0, .L70+4
.LVL64:
	bl	trace_log_buffer
.LVL65:
.LBE24:
	.loc 1 58 0
	ldr	r3, .L70+8
	ldrb	r3, [r3]	@ zero_extendqisi2
	cmp	r3, r4
	bhi	.L68
.LBB25:
	.loc 1 60 0
	mov	r3, r4
	movs	r2, #1
	ldr	r1, .L70+12
	ldr	r0, .L70+16
	bl	trace_log_buffer
.LVL66:
.LBE25:
	.loc 1 61 0
	movs	r0, #0
	pop	{r4, r5, r6, pc}
.L68:
	.loc 1 64 0
	ldr	r3, .L70+20
	lsls	r5, r4, #4
	ldr	r6, [r3]
	movs	r2, #14
	adds	r0, r6, r5
	movs	r1, #0
	adds	r0, r0, #2
	bl	memset
.LVL67:
	.loc 1 65 0
	movs	r3, #1
	strb	r3, [r6, r5]
	.loc 1 66 0
	ldr	r3, .L70+24
	ldr	r2, .L70+28
	ldrb	r1, [r3]	@ zero_extendqisi2
	mov	r0, r4
	bl	client_by_uuid128_srv_discovery
.LVL68:
	clz	r0, r0
	lsrs	r0, r0, #5
	.loc 1 72 0
	pop	{r4, r5, r6, pc}
.L71:
	.align	2
.L70:
	.word	.LANCHOR3+288
	.word	1058025474
	.word	.LANCHOR7
	.word	.LANCHOR3+312
	.word	1058025472
	.word	.LANCHOR0
	.word	.LANCHOR2
	.word	.LANCHOR8
	.cfi_endproc
.LFE0:
	.size	ancs_start_discovery, .-ancs_start_discovery
	.section	.text.ancs_set_notification_source_notify,"ax",%progbits
	.align	1
	.global	ancs_set_notification_source_notify
	.syntax unified
	.thumb
	.thumb_func
	.fpu softvfp
	.type	ancs_set_notification_source_notify, %function
ancs_set_notification_source_notify:
.LFB2:
	.loc 1 105 0
	.cfi_startproc
	@ args = 0, pretend = 0, frame = 8
	@ frame_needed = 0, uses_anonymous_args = 0
.LVL69:
	push	{r0, r1, r2, r3, r4, r5, r6, lr}
	.cfi_def_cfa_offset 32
	.cfi_offset 4, -16
	.cfi_offset 5, -12
	.cfi_offset 6, -8
	.cfi_offset 14, -4
	.loc 1 106 0
	ldr	r2, .L77
	.loc 1 105 0
	mov	r3, r0
	.loc 1 106 0
	ldrb	r2, [r2]	@ zero_extendqisi2
	.loc 1 105 0
	mov	r4, r1
	.loc 1 106 0
	cmp	r2, r0
	bhi	.L73
.LBB26:
	.loc 1 108 0
	movs	r2, #1
	ldr	r1, .L77+4
.LVL70:
	ldr	r0, .L77+8
.LVL71:
	bl	trace_log_buffer
.LVL72:
.L75:
.LBE26:
	.loc 1 123 0
	movs	r0, #0
.LBB27:
	b	.L74
.LVL73:
.L73:
.LBE27:
	.loc 1 111 0
	ldr	r6, .L77+12
	lsls	r5, r0, #4
	ldr	r2, [r6]
	add	r2, r2, r5
	ldrh	r3, [r2, #10]
	cbz	r3, .L76
.LVL74:
.LBB28:
	.loc 1 115 0
	add	r2, sp, #16
	strh	r1, [r2, #-2]!	@ movhi
	.loc 1 116 0
	ldr	r1, .L77+16
.LVL75:
	ldrb	r1, [r1]	@ zero_extendqisi2
	str	r2, [sp, #4]
	movs	r2, #2
	str	r2, [sp]
	movs	r2, #1
	bl	client_attr_write
.LVL76:
	cmp	r0, #0
	bne	.L75
	.loc 1 120 0
	movs	r0, #1
	.loc 1 119 0
	ldr	r3, [r6]
	add	r3, r3, r5
	strb	r4, [r3, #1]
.LVL77:
.L74:
.LBE28:
	.loc 1 124 0
	add	sp, sp, #16
	.cfi_remember_state
	.cfi_def_cfa_offset 16
	@ sp needed
	pop	{r4, r5, r6, pc}
.LVL78:
.L76:
	.cfi_restore_state
	.loc 1 123 0
	mov	r0, r3
.LVL79:
	b	.L74
.L78:
	.align	2
.L77:
	.word	.LANCHOR7
	.word	.LANCHOR3+364
	.word	1058025472
	.word	.LANCHOR0
	.word	.LANCHOR2
	.cfi_endproc
.LFE2:
	.size	ancs_set_notification_source_notify, .-ancs_set_notification_source_notify
	.section	.text.ancs_set_data_source_notify,"ax",%progbits
	.align	1
	.global	ancs_set_data_source_notify
	.syntax unified
	.thumb
	.thumb_func
	.fpu softvfp
	.type	ancs_set_data_source_notify, %function
ancs_set_data_source_notify:
.LFB3:
	.loc 1 134 0
	.cfi_startproc
	@ args = 0, pretend = 0, frame = 8
	@ frame_needed = 0, uses_anonymous_args = 0
.LVL80:
	push	{r0, r1, r2, r3, r4, r5, r6, lr}
	.cfi_def_cfa_offset 32
	.cfi_offset 4, -16
	.cfi_offset 5, -12
	.cfi_offset 6, -8
	.cfi_offset 14, -4
	.loc 1 135 0
	ldr	r2, .L84
	.loc 1 134 0
	mov	r3, r0
	.loc 1 135 0
	ldrb	r2, [r2]	@ zero_extendqisi2
	.loc 1 134 0
	mov	r4, r1
	.loc 1 135 0
	cmp	r2, r0
	bhi	.L80
.LBB29:
	.loc 1 137 0
	movs	r2, #1
	ldr	r1, .L84+4
.LVL81:
	ldr	r0, .L84+8
.LVL82:
	bl	trace_log_buffer
.LVL83:
.L82:
.LBE29:
	.loc 1 152 0
	movs	r0, #0
.LBB30:
	b	.L81
.LVL84:
.L80:
.LBE30:
	.loc 1 140 0
	ldr	r6, .L84+12
	lsls	r5, r0, #4
	ldr	r2, [r6]
	add	r2, r2, r5
	ldrh	r3, [r2, #14]
	cbz	r3, .L83
.LVL85:
.LBB31:
	.loc 1 144 0
	add	r2, sp, #16
	strh	r1, [r2, #-2]!	@ movhi
	.loc 1 145 0
	ldr	r1, .L84+16
.LVL86:
	ldrb	r1, [r1]	@ zero_extendqisi2
	str	r2, [sp, #4]
	movs	r2, #2
	str	r2, [sp]
	movs	r2, #1
	bl	client_attr_write
.LVL87:
	cmp	r0, #0
	bne	.L82
	.loc 1 149 0
	movs	r0, #1
	.loc 1 148 0
	ldr	r3, [r6]
	add	r3, r3, r5
	strb	r4, [r3, #1]
.LVL88:
.L81:
.LBE31:
	.loc 1 153 0
	add	sp, sp, #16
	.cfi_remember_state
	.cfi_def_cfa_offset 16
	@ sp needed
	pop	{r4, r5, r6, pc}
.LVL89:
.L83:
	.cfi_restore_state
	.loc 1 152 0
	mov	r0, r3
.LVL90:
	b	.L81
.L85:
	.align	2
.L84:
	.word	.LANCHOR7
	.word	.LANCHOR3+432
	.word	1058025472
	.word	.LANCHOR0
	.word	.LANCHOR2
	.cfi_endproc
.LFE3:
	.size	ancs_set_data_source_notify, .-ancs_set_data_source_notify
	.section	.text.ancs_get_notification_attr,"ax",%progbits
	.align	1
	.global	ancs_get_notification_attr
	.syntax unified
	.thumb
	.thumb_func
	.fpu softvfp
	.type	ancs_get_notification_attr, %function
ancs_get_notification_attr:
.LFB4:
	.loc 1 166 0
	.cfi_startproc
	@ args = 0, pretend = 0, frame = 32
	@ frame_needed = 0, uses_anonymous_args = 0
.LVL91:
	push	{r4, r5, r6, r7, lr}
	.cfi_def_cfa_offset 20
	.cfi_offset 4, -20
	.cfi_offset 5, -16
	.cfi_offset 6, -12
	.cfi_offset 7, -8
	.cfi_offset 14, -4
	mov	r4, r3
.LVL92:
	.loc 1 170 0
	ldr	r3, .L91
.LVL93:
	.loc 1 166 0
	mov	r7, r1
	.loc 1 170 0
	ldrb	r3, [r3]	@ zero_extendqisi2
	.loc 1 166 0
	sub	sp, sp, #44
	.cfi_def_cfa_offset 64
	.loc 1 170 0
	cmp	r3, r0
	.loc 1 166 0
	mov	r5, r0
	mov	r1, r2
.LVL94:
	.loc 1 170 0
	bhi	.L87
.LBB32:
	.loc 1 172 0
	mov	r3, r0
	movs	r2, #1
.LVL95:
	ldr	r1, .L91+4
.LVL96:
	ldr	r0, .L91+8
.LVL97:
	bl	trace_log_buffer
.LVL98:
.L89:
.LBE32:
	.loc 1 177 0
	movs	r0, #0
	b	.L88
.LVL99:
.L87:
	.loc 1 175 0
	cmp	r4, #25
	bhi	.L89
	.loc 1 179 0
	ldr	r3, .L91+12
	ldr	r6, [r3]
	add	r6, r6, r0, lsl #4
	ldrh	r0, [r6, #6]
.LVL100:
	cbz	r0, .L88
.LVL101:
.LBB33:
	.loc 1 183 0
	movs	r3, #0
	.loc 1 187 0
	mov	r2, r4
	add	r0, sp, #13
	.loc 1 183 0
	strb	r3, [sp, #8]
.LVL102:
	.loc 1 185 0
	str	r7, [sp, #9]	@ unaligned
.LVL103:
	.loc 1 187 0
	bl	memcpy
.LVL104:
	.loc 1 188 0
	ldr	r2, .L91+16
	adds	r4, r4, #5
.LVL105:
	ldrb	r1, [r2]	@ zero_extendqisi2
	add	r2, sp, #8
	ldrh	r3, [r6, #6]
	mov	r0, r5
	str	r2, [sp, #4]
	str	r4, [sp]
	movs	r2, #1
	bl	client_attr_write
.LVL106:
	clz	r0, r0
	lsrs	r0, r0, #5
.LVL107:
.L88:
.LBE33:
	.loc 1 196 0
	add	sp, sp, #44
	.cfi_def_cfa_offset 20
	@ sp needed
	pop	{r4, r5, r6, r7, pc}
.LVL108:
.L92:
	.align	2
.L91:
	.word	.LANCHOR7
	.word	.LANCHOR3+492
	.word	1058025472
	.word	.LANCHOR0
	.word	.LANCHOR2
	.cfi_endproc
.LFE4:
	.size	ancs_get_notification_attr, .-ancs_get_notification_attr
	.section	.text.ancs_get_app_attr,"ax",%progbits
	.align	1
	.global	ancs_get_app_attr
	.syntax unified
	.thumb
	.thumb_func
	.fpu softvfp
	.type	ancs_get_app_attr, %function
ancs_get_app_attr:
.LFB5:
	.loc 1 209 0
	.cfi_startproc
	@ args = 0, pretend = 0, frame = 16
	@ frame_needed = 0, uses_anonymous_args = 0
.LVL109:
	push	{r4, r5, r6, r7, r8, r9, r10, fp, lr}
	.cfi_def_cfa_offset 36
	.cfi_offset 4, -36
	.cfi_offset 5, -32
	.cfi_offset 6, -28
	.cfi_offset 7, -24
	.cfi_offset 8, -20
	.cfi_offset 9, -16
	.cfi_offset 10, -12
	.cfi_offset 11, -8
	.cfi_offset 14, -4
	mov	r6, r0
	sub	sp, sp, #28
	.cfi_def_cfa_offset 64
	.loc 1 212 0
	mov	r0, r1
.LVL110:
	.loc 1 209 0
	mov	fp, r3
	mov	r7, r1
	str	r2, [sp, #12]
	.loc 1 212 0
	bl	strlen
.LVL111:
	.loc 1 215 0
	ldr	r3, .L97
	ldrb	r3, [r3]	@ zero_extendqisi2
	cmp	r3, r6
	bhi	.L94
.LBB34:
	.loc 1 217 0
	mov	r3, r6
	movs	r2, #1
	ldr	r1, .L97+4
	ldr	r0, .L97+8
.LVL112:
	bl	trace_log_buffer
.LVL113:
.LBE34:
	.loc 1 218 0
	movs	r4, #0
.LVL114:
.L95:
	.loc 1 244 0
	mov	r0, r4
	add	sp, sp, #28
	.cfi_remember_state
	.cfi_def_cfa_offset 36
	@ sp needed
	pop	{r4, r5, r6, r7, r8, r9, r10, fp, pc}
.LVL115:
.L94:
	.cfi_restore_state
	.loc 1 220 0
	ldr	r10, .L97+20
	lsl	r9, r6, #4
	ldr	r3, [r10]
	add	r3, r3, r9
	ldrh	r4, [r3, #6]
	cmp	r4, #0
	beq	.L95
	.loc 1 212 0
	add	r4, fp, #2
	add	r4, r4, r0
	uxth	r4, r4
.LVL116:
.LBB35:
	.loc 1 223 0
	mov	r1, r4
	ldr	r2, .L97+12
	movs	r3, #223
	movs	r0, #0
.LVL117:
	bl	os_mem_zalloc_intern
.LVL118:
	.loc 1 224 0
	mov	r8, #1
	mov	r3, r0
	.loc 1 223 0
	mov	r5, r0
.LVL119:
	.loc 1 224 0
	strb	r8, [r3], #1
	.loc 1 226 0
	mov	r0, r7
.LVL120:
	.loc 1 224 0
	str	r3, [sp, #16]
	str	r3, [sp, #20]
.LVL121:
	.loc 1 226 0
	bl	strlen
.LVL122:
	ldr	r3, [sp, #16]
	mov	r2, r0
	mov	r1, r7
	mov	r0, r3
	bl	memcpy
.LVL123:
	.loc 1 227 0
	mov	r0, r7
	bl	strlen
.LVL124:
	.loc 1 228 0
	movs	r2, #0
	.loc 1 227 0
	uxth	r0, r0
.LVL125:
	add	r3, r0, r8
	.loc 1 228 0
	uxth	r3, r3
	.loc 1 229 0
	adds	r0, r0, #2
.LVL126:
	.loc 1 228 0
	strb	r2, [r5, r3]
.LVL127:
	.loc 1 230 0
	ldr	r1, [sp, #12]
	mov	r2, fp
	uxtah	r0, r5, r0
	bl	memcpy
.LVL128:
	.loc 1 231 0
	ldr	r3, [r10]
	ldr	r2, .L97+16
	add	r9, r9, r3
	ldrb	r1, [r2]	@ zero_extendqisi2
	ldrh	r3, [r9, #6]
	mov	r2, r8
	stm	sp, {r4, r5}
	mov	r0, r6
	bl	client_attr_write
.LVL129:
	clz	r4, r0
.LBE35:
	.loc 1 240 0
	mov	r0, r5
.LBB36:
	.loc 1 231 0
	lsrs	r4, r4, #5
.LVL130:
.LBE36:
	.loc 1 240 0
	bl	os_mem_free
.LVL131:
	b	.L95
.L98:
	.align	2
.L97:
	.word	.LANCHOR7
	.word	.LANCHOR3+552
	.word	1058025472
	.word	.LANCHOR9
	.word	.LANCHOR2
	.word	.LANCHOR0
	.cfi_endproc
.LFE5:
	.size	ancs_get_app_attr, .-ancs_get_app_attr
	.section	.text.ancs_perform_notification_action,"ax",%progbits
	.align	1
	.global	ancs_perform_notification_action
	.syntax unified
	.thumb
	.thumb_func
	.fpu softvfp
	.type	ancs_perform_notification_action, %function
ancs_perform_notification_action:
.LFB6:
	.loc 1 255 0
	.cfi_startproc
	@ args = 0, pretend = 0, frame = 16
	@ frame_needed = 0, uses_anonymous_args = 0
.LVL132:
	push	{r4, lr}
	.cfi_def_cfa_offset 8
	.cfi_offset 4, -8
	.cfi_offset 14, -4
	.loc 1 259 0
	ldr	r4, .L103
	.loc 1 255 0
	sub	sp, sp, #24
	.cfi_def_cfa_offset 32
	.loc 1 259 0
	ldrb	r4, [r4]	@ zero_extendqisi2
	.loc 1 255 0
	mov	r3, r0
	.loc 1 259 0
	cmp	r4, r0
	bhi	.L100
.LBB37:
	.loc 1 261 0
	ldr	r0, .L103+4
.LVL133:
	movs	r2, #1
.LVL134:
	ldr	r1, .L103+8
.LVL135:
	bl	trace_log_buffer
.LVL136:
.LBE37:
	.loc 1 262 0
	movs	r0, #0
.LVL137:
.L101:
	.loc 1 281 0
	add	sp, sp, #24
	.cfi_remember_state
	.cfi_def_cfa_offset 8
	@ sp needed
	pop	{r4, pc}
.LVL138:
.L100:
	.cfi_restore_state
	.loc 1 264 0
	ldr	r4, .L103+12
	ldr	r4, [r4]
	add	r3, r4, r0, lsl #4
	ldrh	r3, [r3, #6]
	cbz	r3, .L102
.LVL139:
.LBB38:
	.loc 1 272 0
	strb	r2, [sp, #17]
	.loc 1 273 0
	ldr	r2, .L103+16
.LVL140:
	.loc 1 270 0
	str	r1, [sp, #13]	@ unaligned
	.loc 1 273 0
	ldrb	r1, [r2]	@ zero_extendqisi2
.LVL141:
	add	r2, sp, #12
	str	r2, [sp, #4]
	movs	r2, #6
	.loc 1 268 0
	movs	r4, #2
	.loc 1 273 0
	str	r2, [sp]
	movs	r2, #1
	.loc 1 268 0
	strb	r4, [sp, #12]
.LVL142:
	.loc 1 273 0
	bl	client_attr_write
.LVL143:
	clz	r0, r0
	lsrs	r0, r0, #5
.LVL144:
	b	.L101
.LVL145:
.L102:
.LBE38:
	.loc 1 256 0
	mov	r0, r3
.LVL146:
	b	.L101
.L104:
	.align	2
.L103:
	.word	.LANCHOR7
	.word	1058025472
	.word	.LANCHOR3+600
	.word	.LANCHOR0
	.word	.LANCHOR2
	.cfi_endproc
.LFE6:
	.size	ancs_perform_notification_action, .-ancs_perform_notification_action
	.section	.text.ancs_add_client,"ax",%progbits
	.align	1
	.global	ancs_add_client
	.syntax unified
	.thumb
	.thumb_func
	.fpu softvfp
	.type	ancs_add_client, %function
ancs_add_client:
.LFB12:
	.loc 1 547 0
	.cfi_startproc
	@ args = 0, pretend = 0, frame = 0
	@ frame_needed = 0, uses_anonymous_args = 0
.LVL147:
	.loc 1 549 0
	cmp	r1, #4
	.loc 1 547 0
	push	{r4, r5, r6, lr}
	.cfi_def_cfa_offset 16
	.cfi_offset 4, -16
	.cfi_offset 5, -12
	.cfi_offset 6, -8
	.cfi_offset 14, -4
	.loc 1 547 0
	mov	r6, r0
	mov	r5, r1
	.loc 1 549 0
	bls	.L106
.LBB39:
	.loc 1 551 0
	mov	r3, r1
	movs	r2, #1
	ldr	r1, .L110
.LVL148:
	ldr	r0, .L110+4
.LVL149:
	bl	trace_log_buffer
.LVL150:
.LBE39:
	.loc 1 552 0
	movs	r0, #255
	pop	{r4, r5, r6, pc}
.LVL151:
.L106:
	.loc 1 554 0
	ldr	r4, .L110+8
	ldr	r1, .L110+12
.LVL152:
	mov	r0, r4
.LVL153:
	bl	client_register_spec_client_cb
.LVL154:
	.loc 1 554 0
	mov	r2, r0
	cbnz	r0, .L108
	.loc 1 556 0
	movs	r3, #255
.LBB40:
	.loc 1 557 0
	ldr	r1, .L110+16
	ldr	r0, .L110+4
.LBE40:
	.loc 1 556 0
	strb	r3, [r4]
.LBB41:
	.loc 1 557 0
	bl	trace_log_buffer
.LVL155:
.L109:
.LBE41:
	.loc 1 568 0
	ldrb	r0, [r4]	@ zero_extendqisi2
	.loc 1 569 0
	pop	{r4, r5, r6, pc}
.LVL156:
.L108:
.LBB42:
	.loc 1 560 0
	ldrb	r3, [r4]	@ zero_extendqisi2
	movs	r2, #1
	ldr	r1, .L110+20
	ldr	r0, .L110+24
	bl	trace_log_buffer
.LVL157:
.LBE42:
	.loc 1 563 0
	ldr	r3, .L110+28
	.loc 1 566 0
	ldr	r2, .L110+32
	.loc 1 563 0
	str	r6, [r3]
	.loc 1 564 0
	ldr	r3, .L110+36
	.loc 1 566 0
	lsls	r1, r5, #4
	.loc 1 564 0
	strb	r5, [r3]
.LVL158:
	.loc 1 566 0
	movs	r0, #0
	movw	r3, #566
	bl	os_mem_zalloc_intern
.LVL159:
	ldr	r3, .L110+40
	str	r0, [r3]
	b	.L109
.L111:
	.align	2
.L110:
	.word	.LANCHOR3+664
	.word	1058025472
	.word	.LANCHOR2
	.word	.LANCHOR10
	.word	.LANCHOR3+704
	.word	.LANCHOR3+732
	.word	1058025474
	.word	.LANCHOR1
	.word	.LANCHOR11
	.word	.LANCHOR7
	.word	.LANCHOR0
	.cfi_endproc
.LFE12:
	.size	ancs_add_client, .-ancs_add_client
	.global	ancs_cbs
	.global	ANCS_UUID128_CHAR_DATA_SOURCE
	.global	ANCS_UUID128_CHAR_NOTIFICATION_SOURCE
	.global	ANCS_UUID128_CHAR_CONTROL_POINT
	.global	ANCS_UUID128_SRV
	.section	.BTTRACE,"a",%progbits
	.align	2
	.set	.LANCHOR3,. + 0
	.type	format.5578, %object
	.size	format.5578, 57
format.5578:
	.ascii	"!**ancs_client_write_result_cb: handle=0x%x cause ="
	.ascii	" 0x%x\000"
	.space	3
	.type	format.5592, %object
	.size	format.5592, 23
format.5592:
	.ascii	"!**gap_client_disc_cb.\000"
	.space	1
	.type	format.5562, %object
	.size	format.5562, 50
format.5562:
	.ascii	"!**gap_client_discover_result_cb: resultType = %d\000"
	.space	2
	.type	format.5568, %object
	.size	format.5568, 34
format.5568:
	.ascii	"!!!Invalid Discovery Result Type!\000"
	.space	2
	.type	format.5550, %object
	.size	format.5550, 54
format.5550:
	.ascii	"!**ancs_client_discover_state_cb: discoveryState = "
	.ascii	"%d\000"
	.space	2
	.type	format.5491, %object
	.size	format.5491, 29
format.5491:
	.ascii	"!**ancs_start_char_discovery\000"
	.space	3
	.type	format.5556, %object
	.size	format.5556, 28
format.5556:
	.ascii	"!!!Invalid Discovery State!\000"
	.type	format.5484, %object
	.size	format.5484, 24
format.5484:
	.ascii	"!**ancs_start_discovery\000"
	.type	format.5485, %object
	.size	format.5485, 51
format.5485:
	.ascii	"!!!ancs_start_discovery: failed invalid conn_id %d\000"
	.space	1
	.type	format.5496, %object
	.size	format.5496, 66
format.5496:
	.ascii	"!!!ancs_set_notification_source_notify: failed inva"
	.ascii	"lid conn_id %d\000"
	.space	2
	.type	format.5504, %object
	.size	format.5504, 58
format.5504:
	.ascii	"!!!ancs_set_data_source_notify: failed invalid conn"
	.ascii	"_id %d\000"
	.space	2
	.type	format.5517, %object
	.size	format.5517, 57
format.5517:
	.ascii	"!!!ancs_get_notification_attr: failed invalid conn_"
	.ascii	"id %d\000"
	.space	3
	.type	format.5530, %object
	.size	format.5530, 48
format.5530:
	.ascii	"!!!ancs_get_app_attr: failed invalid conn_id %d\000"
	.type	format.5541, %object
	.size	format.5541, 63
format.5541:
	.ascii	"!!!ancs_perform_notification_action: failed invalid"
	.ascii	" conn_id %d\000"
	.space	1
	.type	format.5600, %object
	.size	format.5600, 40
format.5600:
	.ascii	"!!!ancs_add_client: invalid link_num %d\000"
	.type	format.5601, %object
	.size	format.5601, 28
format.5601:
	.ascii	"!!!ancs_add_client Fail !!!\000"
	.type	format.5602, %object
	.size	format.5602, 35
format.5602:
	.ascii	"!**ancs_add_client: client ID = %d\000"
	.section	.bss.ancs_client_cb,"aw",%nobits
	.align	2
	.set	.LANCHOR1,. + 0
	.type	ancs_client_cb, %object
	.size	ancs_client_cb, 4
ancs_client_cb:
	.space	4
	.section	.bss.ancs_link_num,"aw",%nobits
	.set	.LANCHOR7,. + 0
	.type	ancs_link_num, %object
	.size	ancs_link_num, 1
ancs_link_num:
	.space	1
	.section	.bss.ancs_table,"aw",%nobits
	.align	2
	.set	.LANCHOR0,. + 0
	.type	ancs_table, %object
	.size	ancs_table, 4
ancs_table:
	.space	4
	.section	.data.ANCS_UUID128_SRV,"aw",%progbits
	.set	.LANCHOR8,. + 0
	.type	ANCS_UUID128_SRV, %object
	.size	ANCS_UUID128_SRV, 16
ANCS_UUID128_SRV:
	.byte	-48
	.byte	0
	.byte	45
	.byte	18
	.byte	30
	.byte	75
	.byte	15
	.byte	-92
	.byte	-103
	.byte	78
	.byte	-50
	.byte	-75
	.byte	49
	.byte	-12
	.byte	5
	.byte	121
	.section	.data.ancs_client_id,"aw",%progbits
	.set	.LANCHOR2,. + 0
	.type	ancs_client_id, %object
	.size	ancs_client_id, 1
ancs_client_id:
	.byte	-1
	.section	.rodata.ANCS_UUID128_CHAR_CONTROL_POINT,"a",%progbits
	.set	.LANCHOR4,. + 0
	.type	ANCS_UUID128_CHAR_CONTROL_POINT, %object
	.size	ANCS_UUID128_CHAR_CONTROL_POINT, 16
ANCS_UUID128_CHAR_CONTROL_POINT:
	.byte	-39
	.byte	-39
	.byte	-86
	.byte	-3
	.byte	-67
	.byte	-101
	.byte	33
	.byte	-104
	.byte	-88
	.byte	73
	.byte	-31
	.byte	69
	.byte	-13
	.byte	-40
	.byte	-47
	.byte	105
	.section	.rodata.ANCS_UUID128_CHAR_DATA_SOURCE,"a",%progbits
	.set	.LANCHOR6,. + 0
	.type	ANCS_UUID128_CHAR_DATA_SOURCE, %object
	.size	ANCS_UUID128_CHAR_DATA_SOURCE, 16
ANCS_UUID128_CHAR_DATA_SOURCE:
	.byte	-5
	.byte	123
	.byte	124
	.byte	-50
	.byte	106
	.byte	-77
	.byte	68
	.byte	-66
	.byte	-75
	.byte	75
	.byte	-42
	.byte	36
	.byte	-23
	.byte	-58
	.byte	-22
	.byte	34
	.section	.rodata.ANCS_UUID128_CHAR_NOTIFICATION_SOURCE,"a",%progbits
	.set	.LANCHOR5,. + 0
	.type	ANCS_UUID128_CHAR_NOTIFICATION_SOURCE, %object
	.size	ANCS_UUID128_CHAR_NOTIFICATION_SOURCE, 16
ANCS_UUID128_CHAR_NOTIFICATION_SOURCE:
	.byte	-67
	.byte	29
	.byte	-94
	.byte	-103
	.byte	-26
	.byte	37
	.byte	88
	.byte	-116
	.byte	-39
	.byte	66
	.byte	1
	.byte	99
	.byte	13
	.byte	18
	.byte	-65
	.byte	-97
	.section	.rodata.__func__.5532,"a",%progbits
	.set	.LANCHOR9,. + 0
	.type	__func__.5532, %object
	.size	__func__.5532, 18
__func__.5532:
	.ascii	"ancs_get_app_attr\000"
	.section	.rodata.__func__.5603,"a",%progbits
	.set	.LANCHOR11,. + 0
	.type	__func__.5603, %object
	.size	__func__.5603, 16
__func__.5603:
	.ascii	"ancs_add_client\000"
	.section	.rodata.ancs_cbs,"a",%progbits
	.align	2
	.set	.LANCHOR10,. + 0
	.type	ancs_cbs, %object
	.size	ancs_cbs, 24
ancs_cbs:
	.word	ancs_client_discover_state_cb
	.word	ancs_client_discover_result_cb
	.word	0
	.word	ancs_client_write_result_cb
	.word	ancs_client_notify_ind_cb
	.word	ancs_client_disc_cb
	.text
.Letext0:
	.file 2 "/home/ls/8720cf/sdk-ameba-v7.1d/tools/arm-none-eabi-gcc/asdk/linux/newlib/arm-none-eabi/include/machine/_default_types.h"
	.file 3 "/home/ls/8720cf/sdk-ameba-v7.1d/tools/arm-none-eabi-gcc/asdk/linux/newlib/arm-none-eabi/include/sys/lock.h"
	.file 4 "/home/ls/8720cf/sdk-ameba-v7.1d/tools/arm-none-eabi-gcc/asdk/linux/newlib/arm-none-eabi/include/sys/_types.h"
	.file 5 "/home/ls/8720cf/sdk-ameba-v7.1d/tools/arm-none-eabi-gcc/asdk/linux/newlib/lib/gcc/arm-none-eabi/6.5.0/include/stddef.h"
	.file 6 "/home/ls/8720cf/sdk-ameba-v7.1d/tools/arm-none-eabi-gcc/asdk/linux/newlib/arm-none-eabi/include/sys/reent.h"
	.file 7 "/home/ls/8720cf/sdk-ameba-v7.1d/tools/arm-none-eabi-gcc/asdk/linux/newlib/arm-none-eabi/include/sys/_stdint.h"
	.file 8 "/home/ls/8720cf/sdk-ameba-v7.1d/tools/arm-none-eabi-gcc/asdk/linux/newlib/arm-none-eabi/include/time.h"
	.file 9 "../../../component/common/bluetooth/realtek/sdk/inc/bluetooth/gap/gap.h"
	.file 10 "../../../component/common/bluetooth/realtek/sdk/inc/bluetooth/gap/gap_storage_le.h"
	.file 11 "../../../component/common/bluetooth/realtek/sdk/inc/bluetooth/profile/profile_client.h"
	.file 12 "../../../component/common/bluetooth/realtek/sdk/inc/bluetooth/profile/client/ancs_client.h"
	.file 13 "../../../component/common/bluetooth/realtek/sdk/inc/platform/mem_types.h"
	.file 14 "../../../component/common/bluetooth/realtek/sdk/inc/platform/trace.h"
	.file 15 "../../../component/common/bluetooth/realtek/sdk/inc/os/os_mem.h"
	.file 16 "/home/ls/8720cf/sdk-ameba-v7.1d/tools/arm-none-eabi-gcc/asdk/linux/newlib/arm-none-eabi/include/string.h"