	.arch armv8-m.main
	.arch_extension dsp
	.eabi_attribute 20, 1
	.eabi_attribute 21, 1
	.eabi_attribute 23, 3
	.eabi_attribute 24, 1
	.eabi_attribute 25, 1
	.eabi_attribute 26, 1
	.eabi_attribute 30, 4
	.eabi_attribute 34, 1
	.eabi_attribute 18, 4
	.file	"api_msg.c"
	.text
.Ltext0:
	.cfi_sections	.debug_frame
	.section	.text.lwip_netconn_do_dns_found,"ax",%progbits
	.align	1
	.syntax unified
	.thumb
	.thumb_func
	.fpu softvfp
	.type	lwip_netconn_do_dns_found, %function
lwip_netconn_do_dns_found:
.LFB173:
	.file 1 "../../../component/common/network/lwip/lwip_v2.0.2/src/api/api_msg.c"
	.loc 1 1908 0
	.cfi_startproc
	@ args = 0, pretend = 0, frame = 0
	@ frame_needed = 0, uses_anonymous_args = 0
	@ link register save eliminated.
.LVL0:
	ldr	r3, [r2, #12]
	.loc 1 1914 0
	cbnz	r1, .L2
	.loc 1 1916 0
	movs	r1, #250
.LVL1:
	strb	r1, [r3]
.LVL2:
.L3:
	.loc 1 1923 0
	ldr	r0, [r2, #8]
	b	sys_sem_signal
.LVL3:
.L2:
	.loc 1 1919 0
	movs	r0, #0
.LVL4:
	strb	r0, [r3]
	.loc 1 1920 0
	ldr	r3, [r2, #4]
	ldr	r1, [r1]
.LVL5:
	str	r1, [r3]
	b	.L3
	.cfi_endproc
.LFE173:
	.size	lwip_netconn_do_dns_found, .-lwip_netconn_do_dns_found
	.section	.text.recv_udp,"ax",%progbits
	.align	1
	.syntax unified
	.thumb
	.thumb_func
	.fpu softvfp
	.type	recv_udp, %function
recv_udp:
.LFB147:
	.loc 1 168 0
	.cfi_startproc
	@ args = 4, pretend = 0, frame = 0
	@ frame_needed = 0, uses_anonymous_args = 0
.LVL6:
	push	{r4, r5, r6, r7, r8, r9, r10, lr}
	.cfi_def_cfa_offset 32
	.cfi_offset 4, -32
	.cfi_offset 5, -28
	.cfi_offset 6, -24
	.cfi_offset 7, -20
	.cfi_offset 8, -16
	.cfi_offset 9, -12
	.cfi_offset 10, -8
	.cfi_offset 14, -4
	.loc 1 168 0
	mov	r7, r2
	mov	r5, r3
	ldrh	r9, [sp, #32]
	.loc 1 181 0
	mov	r6, r0
	cbnz	r0, .L5
.LVL7:
.L6:
	.loc 1 182 0
	mov	r0, r7
	.loc 1 232 0
	pop	{r4, r5, r6, r7, r8, r9, r10, lr}
	.cfi_remember_state
	.cfi_restore 14
	.cfi_restore 10
	.cfi_restore 9
	.cfi_restore 8
	.cfi_restore 7
	.cfi_restore 6
	.cfi_restore 5
	.cfi_restore 4
	.cfi_def_cfa_offset 0
.LVL8:
	.loc 1 182 0
	b	pbuf_free
.LVL9:
.L5:
	.cfi_restore_state
	.loc 1 193 0
	add	r8, r0, #16
	mov	r0, r8
.LVL10:
	bl	sys_mbox_valid
.LVL11:
	cmp	r0, #0
	beq	.L6
	.loc 1 199 0
	movs	r0, #7
	bl	memp_malloc
.LVL12:
	.loc 1 200 0
	mov	r4, r0
	cmp	r0, #0
	beq	.L6
	.loc 1 204 0
	str	r7, [r0]
	.loc 1 205 0
	str	r7, [r0, #4]
	.loc 1 206 0
	cbz	r5, .L7
	.loc 1 206 0 is_stmt 0 discriminator 1
	ldr	r5, [r5]
.LVL13:
.L7:
	.loc 1 206 0 is_stmt 1 discriminator 4
	str	r5, [r4, #8]
	.loc 1 222 0 discriminator 4
	mov	r1, r4
	.loc 1 207 0 discriminator 4
	strh	r9, [r4, #12]	@ movhi
	.loc 1 222 0 discriminator 4
	mov	r0, r8
.LVL14:
	.loc 1 221 0 discriminator 4
	ldrh	r5, [r7, #8]
.LVL15:
	.loc 1 222 0 discriminator 4
	bl	sys_mbox_trypost
.LVL16:
	mov	r1, r0
	cbz	r0, .L8
	.loc 1 223 0
	mov	r0, r4
	.loc 1 232 0
	pop	{r4, r5, r6, r7, r8, r9, r10, lr}
	.cfi_remember_state
	.cfi_restore 14
	.cfi_restore 10
	.cfi_restore 9
	.cfi_restore 8
	.cfi_restore 7
	.cfi_restore 6
	.cfi_restore 5
	.cfi_restore 4
	.cfi_def_cfa_offset 0
.LVL17:
	.loc 1 223 0
	b	netbuf_delete
.LVL18:
.L8:
	.cfi_restore_state
	.loc 1 230 0
	ldr	r3, [r6, #44]
	cbz	r3, .L4
	.loc 1 230 0 is_stmt 0 discriminator 1
	mov	r2, r5
	mov	r0, r6
	.loc 1 232 0 is_stmt 1 discriminator 1
	pop	{r4, r5, r6, r7, r8, r9, r10, lr}
	.cfi_remember_state
	.cfi_restore 14
	.cfi_restore 10
	.cfi_restore 9
	.cfi_restore 8
	.cfi_restore 7
	.cfi_restore 6
	.cfi_restore 5
	.cfi_restore 4
	.cfi_def_cfa_offset 0
.LVL19:
	.loc 1 230 0 discriminator 1
	bx	r3	@ indirect register sibling call
.LVL20:
.L4:
	.cfi_restore_state
	pop	{r4, r5, r6, r7, r8, r9, r10, pc}
	.cfi_endproc
.LFE147:
	.size	recv_udp, .-recv_udp
	.section	.text.recv_raw,"ax",%progbits
	.align	1
	.syntax unified
	.thumb
	.thumb_func
	.fpu softvfp
	.type	recv_raw, %function
recv_raw:
.LFB146:
	.loc 1 102 0
	.cfi_startproc
	@ args = 0, pretend = 0, frame = 0
	@ frame_needed = 0, uses_anonymous_args = 0
.LVL21:
	push	{r4, r5, r6, r7, r8, lr}
	.cfi_def_cfa_offset 24
	.cfi_offset 4, -24
	.cfi_offset 5, -20
	.cfi_offset 6, -16
	.cfi_offset 7, -12
	.cfi_offset 8, -8
	.cfi_offset 14, -4
	.loc 1 102 0
	mov	r8, r1
	mov	r4, r2
	.loc 1 110 0
	mov	r6, r0
	cbz	r0, .L31
	.loc 1 110 0 discriminator 1
	add	r7, r0, #16
	mov	r0, r7
.LVL22:
	bl	sys_mbox_valid
.LVL23:
	cbz	r0, .L31
	.loc 1 119 0
	movs	r2, #0
	ldrh	r1, [r4, #8]
	movs	r0, #4
	bl	pbuf_alloc
.LVL24:
	.loc 1 120 0
	mov	r5, r0
	cbz	r0, .L31
	.loc 1 121 0
	mov	r1, r4
	bl	pbuf_copy
.LVL25:
	cbz	r0, .L21
.LVL26:
.L23:
.LBB2:
	.loc 1 131 0
	mov	r0, r5
	bl	pbuf_free
.LVL27:
.L31:
.LBE2:
	.loc 1 155 0
	movs	r0, #0
	pop	{r4, r5, r6, r7, r8, pc}
.LVL28:
.L22:
.LBB3:
	.loc 1 149 0
	ldr	r3, [r6, #44]
	cmp	r3, #0
	beq	.L31
	.loc 1 149 0 is_stmt 0 discriminator 1
	mov	r2, r5
	mov	r0, r6
	blx	r3
.LVL29:
	b	.L31
.LVL30:
.L21:
	.loc 1 129 0 is_stmt 1
	movs	r0, #7
	bl	memp_malloc
.LVL31:
	.loc 1 130 0
	mov	r4, r0
.LVL32:
	cmp	r0, #0
	beq	.L23
	.loc 1 137 0
	ldr	r3, .L36
	.loc 1 135 0
	str	r5, [r4]
	.loc 1 137 0
	ldr	r3, [r3, #16]
	.loc 1 136 0
	str	r5, [r4, #4]
	.loc 1 137 0
	str	r3, [r4, #8]
	.loc 1 138 0
	ldrb	r3, [r8, #16]	@ zero_extendqisi2
	.loc 1 141 0
	mov	r1, r4
	.loc 1 138 0
	strh	r3, [r4, #12]	@ movhi
	.loc 1 141 0
	mov	r0, r7
.LVL33:
	.loc 1 140 0
	ldrh	r5, [r5, #8]
.LVL34:
	.loc 1 141 0
	bl	sys_mbox_trypost
.LVL35:
	mov	r1, r0
	cmp	r0, #0
	beq	.L22
	.loc 1 142 0
	mov	r0, r4
	bl	netbuf_delete
.LVL36:
	.loc 1 143 0
	b	.L31
.L37:
	.align	2
.L36:
	.word	ip_data
.LBE3:
	.cfi_endproc
.LFE146:
	.size	recv_raw, .-recv_raw
	.section	.text.setup_tcp,"ax",%progbits
	.align	1
	.syntax unified
	.thumb
	.thumb_func
	.fpu softvfp
	.type	setup_tcp, %function
setup_tcp:
.LFB152:
	.loc 1 457 0
	.cfi_startproc
	@ args = 0, pretend = 0, frame = 0
	@ frame_needed = 0, uses_anonymous_args = 0
.LVL37:
	push	{r4, lr}
	.cfi_def_cfa_offset 8
	.cfi_offset 4, -8
	.cfi_offset 14, -4
	.loc 1 460 0
	ldr	r4, [r0, #4]
.LVL38:
	.loc 1 457 0
	mov	r1, r0
	.loc 1 461 0
	mov	r0, r4
.LVL39:
	bl	tcp_arg
.LVL40:
	.loc 1 462 0
	mov	r0, r4
	ldr	r1, .L39
	bl	tcp_recv
.LVL41:
	.loc 1 463 0
	mov	r0, r4
	ldr	r1, .L39+4
	bl	tcp_sent
.LVL42:
	.loc 1 464 0
	mov	r0, r4
	ldr	r1, .L39+8
	movs	r2, #2
	bl	tcp_poll
.LVL43:
	.loc 1 465 0
	mov	r0, r4
	.loc 1 466 0
	pop	{r4, lr}
	.cfi_restore 14
	.cfi_restore 4
	.cfi_def_cfa_offset 0
.LVL44:
	.loc 1 465 0
	ldr	r1, .L39+12
	b	tcp_err
.LVL45:
.L40:
	.align	2
.L39:
	.word	recv_tcp
	.word	sent_tcp
	.word	poll_tcp
	.word	err_tcp
	.cfi_endproc
.LFE152:
	.size	setup_tcp, .-setup_tcp
	.section	.text.lwip_netconn_do_connected,"ax",%progbits
	.align	1
	.syntax unified
	.thumb
	.thumb_func
	.fpu softvfp
	.type	lwip_netconn_do_connected, %function
lwip_netconn_do_connected:
.LFB162:
	.loc 1 1163 0
	.cfi_startproc
	@ args = 0, pretend = 0, frame = 0
	@ frame_needed = 0, uses_anonymous_args = 0
.LVL46:
	push	{r3, r4, r5, r6, r7, lr}
	.cfi_def_cfa_offset 24
	.cfi_offset 3, -24
	.cfi_offset 4, -20
	.cfi_offset 5, -16
	.cfi_offset 6, -12
	.cfi_offset 7, -8
	.cfi_offset 14, -4
	.loc 1 1172 0
	mov	r4, r0
	cbz	r0, .L47
	.loc 1 1177 0
	ldr	r6, [r0, #40]
	.loc 1 1180 0
	cbz	r6, .L43
	.loc 1 1181 0
	strb	r2, [r6, #4]
	.loc 1 1182 0
	ldr	r6, [r6]
	adds	r6, r6, #12
.LVL47:
.L43:
	.loc 1 1184 0
	ldrb	r3, [r4]	@ zero_extendqisi2
	and	r3, r3, #240
	cmp	r3, #16
	bne	.L44
	.loc 1 1184 0 is_stmt 0 discriminator 1
	cbnz	r2, .L44
	.loc 1 1185 0 is_stmt 1
	mov	r0, r4
.LVL48:
	bl	setup_tcp
.LVL49:
.L44:
	.loc 1 1192 0
	movs	r7, #0
	.loc 1 1187 0
	ldrb	r3, [r4, #32]	@ zero_extendqisi2
	.loc 1 1192 0
	str	r7, [r4, #40]
	and	r5, r3, #4
.LVL50:
	.loc 1 1188 0
	bic	r3, r3, #4
	strb	r3, [r4, #32]
	.loc 1 1193 0
	strb	r7, [r4, #1]
.LBB4:
	.loc 1 1194 0
	bl	sys_arch_protect
.LVL51:
	ldrsb	r3, [r4, #8]
	adds	r3, r3, #12
	it	ge
	strbge	r7, [r4, #8]
	bl	sys_arch_unprotect
.LVL52:
.LBE4:
	.loc 1 1195 0
	ldr	r3, [r4, #44]
	cbz	r3, .L46
	.loc 1 1195 0 is_stmt 0 discriminator 1
	movs	r2, #0
	movs	r1, #2
	mov	r0, r4
	blx	r3
.LVL53:
.L46:
	.loc 1 1197 0 is_stmt 1
	cbnz	r5, .L49
	.loc 1 1198 0
	mov	r0, r6
	bl	sys_sem_signal
.LVL54:
.L49:
	.loc 1 1200 0
	movs	r0, #0
	.loc 1 1201 0
	pop	{r3, r4, r5, r6, r7, pc}
.LVL55:
.L47:
	.loc 1 1173 0
	mvn	r0, #5
.LVL56:
	pop	{r3, r4, r5, r6, r7, pc}
	.cfi_endproc
.LFE162:
	.size	lwip_netconn_do_connected, .-lwip_netconn_do_connected
	.section	.text.err_tcp,"ax",%progbits
	.align	1
	.syntax unified
	.thumb
	.thumb_func
	.fpu softvfp
	.type	err_tcp, %function
err_tcp:
.LFB151:
	.loc 1 383 0
	.cfi_startproc
	@ args = 0, pretend = 0, frame = 0
	@ frame_needed = 0, uses_anonymous_args = 0
.LVL57:
	push	{r3, r4, r5, r6, r7, lr}
	.cfi_def_cfa_offset 24
	.cfi_offset 3, -24
	.cfi_offset 4, -20
	.cfi_offset 5, -16
	.cfi_offset 6, -12
	.cfi_offset 7, -8
	.cfi_offset 14, -4
	.loc 1 390 0
	movs	r6, #0
	.loc 1 393 0
	ldrb	r5, [r0, #1]	@ zero_extendqisi2
.LVL58:
	.loc 1 383 0
	mov	r4, r0
	.loc 1 396 0
	cmp	r5, #4
	.loc 1 383 0
	mov	r7, r1
	.loc 1 390 0
	str	r6, [r0, #4]
	.loc 1 394 0
	strb	r6, [r0, #1]
	.loc 1 396 0
	bne	.L54
.LVL59:
.LBB5:
	.loc 1 399 0 discriminator 1
	bl	sys_arch_protect
.LVL60:
	ldrsb	r3, [r4, #8]
.LBE5:
	.loc 1 398 0 discriminator 1
	movs	r7, #0
.LBB6:
	.loc 1 399 0 discriminator 1
	adds	r3, r3, #12
	it	ge
	strbge	r6, [r4, #8]
	bl	sys_arch_unprotect
.LVL61:
.L56:
.LBE6:
	.loc 1 408 0
	ldr	r3, [r4, #44]
	cbz	r3, .L57
	.loc 1 408 0 is_stmt 0 discriminator 1
	movs	r2, #0
	movs	r1, #4
	mov	r0, r4
	blx	r3
.LVL62:
.L57:
	.loc 1 411 0 is_stmt 1
	ldr	r3, [r4, #44]
	cbz	r3, .L58
	.loc 1 411 0 is_stmt 0 discriminator 1
	movs	r2, #0
	mov	r0, r4
	mov	r1, r2
	blx	r3
.LVL63:
.L58:
	.loc 1 412 0 is_stmt 1
	ldr	r3, [r4, #44]
	cbz	r3, .L59
	.loc 1 412 0 is_stmt 0 discriminator 1
	movs	r2, #0
	movs	r1, #2
	mov	r0, r4
	blx	r3
.LVL64:
.L59:
	.loc 1 415 0 is_stmt 1
	add	r6, r4, #16
	mov	r0, r6
	bl	sys_mbox_valid
.LVL65:
	cbz	r0, .L60
	.loc 1 417 0
	movs	r1, #0
	mov	r0, r6
	bl	sys_mbox_trypost
.LVL66:
.L60:
	.loc 1 420 0
	add	r6, r4, #20
	mov	r0, r6
	bl	sys_mbox_valid
.LVL67:
	cbz	r0, .L61
	.loc 1 422 0
	movs	r1, #0
	mov	r0, r6
	bl	sys_mbox_trypost
.LVL68:
.L61:
	.loc 1 425 0
	cmp	r5, #1
	beq	.L62
	.loc 1 425 0 is_stmt 0 discriminator 2
	subs	r5, r5, #3
.LVL69:
	cmp	r5, #1
	bhi	.L53
.LVL70:
.L62:
.LBB7:
	.loc 1 429 0 is_stmt 1
	ldrb	r3, [r4, #32]	@ zero_extendqisi2
.LVL71:
	.loc 1 430 0
	bic	r2, r3, #4
	.loc 1 432 0
	ands	r5, r3, #4
	.loc 1 430 0
	strb	r2, [r4, #32]
	.loc 1 432 0
	bne	.L53
.LBB8:
	.loc 1 435 0
	ldr	r3, [r4, #40]
.LVL72:
	.loc 1 437 0
	ldr	r6, [r3]
	.loc 1 436 0
	strb	r7, [r3, #4]
	.loc 1 437 0
	adds	r6, r6, #12
.LVL73:
	.loc 1 438 0
	mov	r0, r6
	bl	sys_sem_valid
.LVL74:
	.loc 1 439 0
	str	r5, [r4, #40]
.LBB9:
	.loc 1 441 0
	bl	sys_arch_protect
.LVL75:
	ldrsb	r3, [r4, #8]
	adds	r3, r3, #12
	it	ge
	strbge	r7, [r4, #8]
	bl	sys_arch_unprotect
.LVL76:
.LBE9:
	.loc 1 442 0
	mov	r0, r6
.LBE8:
.LBE7:
	.loc 1 447 0
	pop	{r3, r4, r5, r6, r7, lr}
	.cfi_remember_state
	.cfi_restore 14
	.cfi_restore 7
	.cfi_restore 6
	.cfi_restore 5
	.cfi_restore 4
	.cfi_restore 3
	.cfi_def_cfa_offset 0
.LVL77:
.LBB11:
.LBB10:
	.loc 1 442 0
	b	sys_sem_signal
.LVL78:
.L54:
	.cfi_restore_state
.LBE10:
.LBE11:
.LBB12:
	.loc 1 402 0
	bl	sys_arch_protect
.LVL79:
	strb	r7, [r4, #8]
	bl	sys_arch_unprotect
.LVL80:
	b	.L56
.LVL81:
.L53:
	pop	{r3, r4, r5, r6, r7, pc}
.LBE12:
	.cfi_endproc
.LFE151:
	.size	err_tcp, .-err_tcp
	.section	.text.lwip_netconn_do_writemore,"ax",%progbits
	.align	1
	.syntax unified
	.thumb
	.thumb_func
	.fpu softvfp
	.type	lwip_netconn_do_writemore, %function
lwip_netconn_do_writemore:
.LFB168:
	.loc 1 1498 0
	.cfi_startproc
	@ args = 0, pretend = 0, frame = 0
	@ frame_needed = 0, uses_anonymous_args = 0
.LVL82:
	push	{r3, r4, r5, r6, r7, lr}
	.cfi_def_cfa_offset 24
	.cfi_offset 3, -24
	.cfi_offset 4, -20
	.cfi_offset 5, -16
	.cfi_offset 6, -12
	.cfi_offset 7, -8
	.cfi_offset 14, -4
	.loc 1 1498 0
	mov	r4, r0
	.loc 1 1509 0
	ldr	r1, [r0, #40]
	.loc 1 1511 0
	ldr	r5, [r4, #36]
	ldr	r2, [r1, #12]
	.loc 1 1515 0
	ldrb	r6, [r4, #32]	@ zero_extendqisi2
	.loc 1 1514 0
	ldrb	r3, [r1, #16]	@ zero_extendqisi2
.LVL83:
	.loc 1 1515 0
	lsls	r6, r6, #30
	.loc 1 1535 0
	sub	r2, r2, r5
	.loc 1 1515 0
	ite	pl
	ubfxpl	r7, r3, #2, #1
	movmi	r7, #1
.LVL84:
	.loc 1 1536 0
	cmp	r2, #65536
	.loc 1 1537 0
	it	cs
	movwcs	r2, #65535
	.loc 1 1510 0
	ldr	r0, [r0, #4]
.LVL85:
	.loc 1 1534 0
	ldr	r1, [r1, #8]
	.loc 1 1542 0
	ldrh	r6, [r0, #96]
	.loc 1 1540 0
	ite	cc
	uxthcc	r2, r2
	.loc 1 1538 0
	orrcs	r3, r3, #2
.LVL86:
	.loc 1 1543 0
	cmp	r2, r6
	.loc 1 1534 0
	add	r1, r1, r5
.LVL87:
	.loc 1 1543 0
	bls	.L112
.LVL88:
	.loc 1 1546 0
	cmp	r7, #0
	beq	.L89
	.loc 1 1547 0
	cmp	r6, #0
	beq	.L113
.LVL89:
.L88:
	.loc 1 1556 0
	mov	r2, r6
	bl	tcp_write
.LVL90:
	.loc 1 1558 0
	adds	r3, r0, #1
	uxtb	r3, r3
	cmp	r3, #1
	.loc 1 1556 0
	mov	r5, r0
.LVL91:
	.loc 1 1558 0
	bhi	.L91
.L92:
.LVL92:
	.loc 1 1560 0
	cmp	r7, #0
	beq	.L93
.LVL93:
.L90:
	.loc 1 1560 0 is_stmt 0 discriminator 1
	ldr	r3, [r4, #40]
	ldr	r3, [r3, #12]
	cmp	r6, r3
	bcs	.L93
	.loc 1 1563 0 is_stmt 1
	ldr	r3, [r4, #44]
	cbz	r3, .L94
	.loc 1 1563 0 is_stmt 0 discriminator 1
	mov	r2, r6
	movs	r1, #3
	mov	r0, r4
	blx	r3
.LVL94:
.L94:
	.loc 1 1564 0 is_stmt 1
	ldrb	r3, [r4, #32]	@ zero_extendqisi2
	orr	r3, r3, #16
	strb	r3, [r4, #32]
.L95:
	.loc 1 1573 0
	cmp	r5, #0
	bne	.L97
.LBB13:
	.loc 1 1575 0
	ldr	r3, [r4, #36]
	add	r6, r6, r3
.LVL95:
	.loc 1 1576 0
	ldr	r3, [r4, #40]
	.loc 1 1575 0
	str	r6, [r4, #36]
	.loc 1 1576 0
	ldr	r2, [r3, #12]
	cmp	r6, r2
	beq	.L98
	.loc 1 1576 0 is_stmt 0 discriminator 1
	cmp	r7, #0
	beq	.L114
.L98:
	.loc 1 1578 0 is_stmt 1
	str	r6, [r3, #12]
.LVL96:
	.loc 1 1580 0
	movs	r6, #1
.LVL97:
.L99:
	.loc 1 1582 0
	ldr	r0, [r4, #4]
	bl	tcp_output
.LVL98:
	.loc 1 1583 0
	cmn	r0, #12
	blt	.L100
	.loc 1 1583 0 is_stmt 0 discriminator 1
	adds	r1, r0, #4
	bne	.L101
.L100:
.LVL99:
	.loc 1 1589 0 is_stmt 1
	movs	r2, #0
	.loc 1 1582 0
	mov	r5, r0
	.loc 1 1589 0
	ldr	r3, [r4, #40]
	str	r2, [r3, #12]
.LVL100:
.L102:
.LBE13:
.LBB14:
	.loc 1 1622 0
	ldr	r3, [r4, #40]
	ldr	r6, [r3]
	.loc 1 1623 0
	strb	r5, [r3, #4]
	.loc 1 1624 0
	movs	r3, #0
	.loc 1 1622 0
	adds	r6, r6, #12
.LVL101:
.L125:
	.loc 1 1624 0
	str	r3, [r4, #40]
	.loc 1 1625 0
	str	r3, [r4, #36]
	.loc 1 1626 0
	strb	r3, [r4, #1]
.LVL102:
.LBB15:
	.loc 1 1627 0
	bl	sys_arch_protect
.LVL103:
	ldrsb	r3, [r4, #8]
	adds	r3, r3, #12
	it	ge
	strbge	r5, [r4, #8]
	bl	sys_arch_unprotect
.LVL104:
.LBE15:
	.loc 1 1632 0
	mov	r0, r6
	bl	sys_sem_signal
.LVL105:
.L124:
.LBE14:
	.loc 1 1641 0
	movs	r0, #0
	pop	{r3, r4, r5, r6, r7, pc}
.LVL106:
.L89:
	.loc 1 1552 0
	orr	r3, r3, #2
.LVL107:
	b	.L88
.LVL108:
.L112:
	mov	r6, r2
.LVL109:
	b	.L88
.LVL110:
.L113:
	.loc 1 1548 0
	mvn	r5, #6
	b	.L90
.LVL111:
.L93:
	.loc 1 1565 0
	movw	r2, #3650
	ldr	r3, [r4, #4]
	ldrh	r1, [r3, #96]
	cmp	r1, r2
	bls	.L96
	.loc 1 1565 0 is_stmt 0 discriminator 1
	ldrh	r3, [r3, #98]
	cmp	r3, #9
	bls	.L95
.L96:
	.loc 1 1569 0 is_stmt 1
	ldr	r3, [r4, #44]
	cmp	r3, #0
	beq	.L95
	.loc 1 1569 0 is_stmt 0 discriminator 1
	mov	r2, r6
	movs	r1, #3
	mov	r0, r4
	blx	r3
.LVL112:
	b	.L95
.LVL113:
.L114:
	.loc 1 1502 0 is_stmt 1
	mov	r6, r5
	b	.L99
.LVL114:
.L97:
	.loc 1 1591 0
	adds	r2, r5, #1
	bne	.L91
.LBB16:
	.loc 1 1598 0
	ldr	r0, [r4, #4]
	bl	tcp_output
.LVL115:
	.loc 1 1599 0
	cmn	r0, #12
	.loc 1 1598 0
	mov	r5, r0
.LVL116:
	.loc 1 1599 0
	blt	.L91
	.loc 1 1599 0 is_stmt 0 discriminator 1
	adds	r3, r0, #4
	bne	.L104
.LVL117:
.L91:
.LBE16:
	.loc 1 1616 0 is_stmt 1
	movs	r2, #0
	ldr	r3, [r4, #40]
	str	r2, [r3, #12]
	b	.L102
.LVL118:
.L104:
.LBB17:
	.loc 1 1606 0
	cmp	r7, #0
	beq	.L124
.LVL119:
	.loc 1 1610 0
	movs	r2, #0
	ldr	r3, [r4, #40]
	.loc 1 1608 0
	mvn	r5, #6
	.loc 1 1610 0
	str	r2, [r3, #12]
	b	.L102
.LVL120:
.L101:
.LBE17:
	.loc 1 1619 0
	cmp	r6, #0
	beq	.L124
.LVL121:
.LBB18:
	.loc 1 1623 0
	movs	r3, #0
	.loc 1 1622 0
	ldr	r2, [r4, #40]
	ldr	r6, [r2]
	.loc 1 1623 0
	strb	r3, [r2, #4]
	.loc 1 1622 0
	adds	r6, r6, #12
.LVL122:
	b	.L125
.LBE18:
	.cfi_endproc
.LFE168:
	.size	lwip_netconn_do_writemore, .-lwip_netconn_do_writemore
	.section	.text.lwip_netconn_do_close_internal,"ax",%progbits
	.align	1
	.syntax unified
	.thumb
	.thumb_func
	.fpu softvfp
	.type	lwip_netconn_do_close_internal, %function
lwip_netconn_do_close_internal:
.LFB159:
	.loc 1 826 0
	.cfi_startproc
	@ args = 0, pretend = 0, frame = 0
	@ frame_needed = 0, uses_anonymous_args = 0
.LVL123:
	push	{r4, r5, r6, r7, r8, r9, r10, lr}
	.cfi_def_cfa_offset 32
	.cfi_offset 4, -32
	.cfi_offset 5, -28
	.cfi_offset 6, -24
	.cfi_offset 7, -20
	.cfi_offset 8, -16
	.cfi_offset 9, -12
	.cfi_offset 10, -8
	.cfi_offset 14, -4
	.loc 1 842 0
	ldr	r3, [r0, #40]
	.loc 1 826 0
	mov	r5, r0
	.loc 1 842 0
	ldrb	r3, [r3, #8]	@ zero_extendqisi2
	.loc 1 838 0
	ldr	r4, [r0, #4]
.LVL124:
	.loc 1 847 0
	cmp	r3, #3
	.loc 1 843 0
	and	r9, r3, #1
.LVL125:
	.loc 1 844 0
	and	r8, r3, #2
.LVL126:
	.loc 1 847 0
	beq	.L127
	.loc 1 849 0
	cmp	r9, #0
	beq	.L128
	.loc 1 850 0 discriminator 1
	ldrb	r3, [r4, #20]	@ zero_extendqisi2
.LVL127:
	.loc 1 849 0 discriminator 1
	subs	r2, r3, #5
	cmp	r2, #1
	bls	.L127
	.loc 1 851 0
	cmp	r3, #8
	beq	.L127
.L128:
	.loc 1 854 0
	cmp	r8, #0
	beq	.L151
	.loc 1 854 0 is_stmt 0 discriminator 1
	ldrb	r7, [r4, #26]	@ zero_extendqisi2
	ands	r7, r7, #16
	bne	.L127
.LVL128:
.L129:
	.loc 1 864 0 is_stmt 1
	ldrb	r3, [r4, #20]	@ zero_extendqisi2
	cmp	r3, #1
	bne	.L130
	.loc 1 865 0
	movs	r1, #0
	mov	r0, r4
	bl	tcp_accept
.LVL129:
	.loc 1 881 0
	cbnz	r7, .L131
.L132:
	.loc 1 914 0
	mov	r2, r8
	mov	r1, r9
	mov	r0, r4
	bl	tcp_shutdown
.LVL130:
	b	.L186
.LVL131:
.L151:
	mov	r7, r8
	b	.L129
.LVL132:
.L130:
	.loc 1 868 0
	cmp	r9, #0
	beq	.L133
	.loc 1 869 0
	movs	r1, #0
	mov	r0, r4
	bl	tcp_recv
.LVL133:
	.loc 1 870 0
	movs	r1, #0
	mov	r0, r4
	bl	tcp_accept
.LVL134:
.L133:
	.loc 1 872 0
	cmp	r8, #0
	beq	.L134
	.loc 1 873 0
	movs	r1, #0
	mov	r0, r4
	bl	tcp_sent
.LVL135:
.L134:
	.loc 1 875 0
	cmp	r7, #0
	beq	.L132
	.loc 1 876 0
	movs	r2, #0
	mov	r0, r4
	mov	r1, r2
	bl	tcp_poll
.LVL136:
	.loc 1 877 0
	movs	r1, #0
	mov	r0, r4
	bl	tcp_err
.LVL137:
.L131:
	.loc 1 911 0
	mov	r0, r4
	bl	tcp_close
.LVL138:
.L186:
	.loc 1 914 0
	mov	r6, r0
.LVL139:
	.loc 1 916 0
	cbz	r0, .L136
	.loc 1 926 0
	adds	r3, r0, #1
	bne	.L136
	.loc 1 947 0
	ldr	r3, [r5, #40]
	ldrb	r10, [r3, #9]	@ zero_extendqisi2
	cmp	r10, #0
	bne	.L137
.LVL140:
	.loc 1 950 0
	cbz	r7, .L136
	.loc 1 952 0
	mov	r0, r4
.LVL141:
	bl	tcp_abort
.LVL142:
	.loc 1 953 0
	mov	r6, r10
.LVL143:
.L136:
.LBB19:
	.loc 1 963 0
	ldr	r3, [r5, #40]
	ldr	r4, [r3]
.LVL144:
	.loc 1 964 0
	strb	r6, [r3, #4]
	.loc 1 965 0
	movs	r3, #0
	str	r3, [r5, #40]
	.loc 1 966 0
	strb	r3, [r5, #1]
	.loc 1 967 0
	cbnz	r6, .L143
.LVL145:
	.loc 1 968 0
	cbz	r7, .L139
	.loc 1 973 0
	ldr	r3, [r5, #44]
	.loc 1 970 0
	str	r6, [r5, #4]
	.loc 1 973 0
	cbz	r3, .L139
	.loc 1 973 0 is_stmt 0 discriminator 1
	mov	r2, r6
	movs	r1, #4
	mov	r0, r5
	blx	r3
.LVL146:
.L139:
	.loc 1 975 0 is_stmt 1
	cmp	r9, #0
	beq	.L141
	.loc 1 976 0
	ldr	r3, [r5, #44]
	cbz	r3, .L143
	.loc 1 976 0 is_stmt 0 discriminator 1
	movs	r2, #0
	mov	r0, r5
	mov	r1, r2
	blx	r3
.LVL147:
.L141:
	.loc 1 978 0 is_stmt 1
	cmp	r8, #0
	beq	.L143
	.loc 1 979 0
	ldr	r3, [r5, #44]
	cbz	r3, .L143
	.loc 1 979 0 is_stmt 0 discriminator 1
	movs	r2, #0
	movs	r1, #2
	mov	r0, r5
	blx	r3
.LVL148:
.L143:
.LBB20:
	.loc 1 982 0 is_stmt 1 discriminator 1
	bl	sys_arch_protect
.LVL149:
	ldrsb	r3, [r5, #8]
	adds	r3, r3, #12
	it	ge
	strbge	r6, [r5, #8]
	bl	sys_arch_unprotect
.LVL150:
.LBE20:
	.loc 1 988 0 discriminator 1
	add	r0, r4, #12
	bl	sys_sem_signal
.LVL151:
	.loc 1 990 0 discriminator 1
	movs	r6, #0
.LVL152:
.L185:
.LBE19:
	.loc 1 1009 0
	mov	r0, r6
	pop	{r4, r5, r6, r7, r8, r9, r10, pc}
.LVL153:
.L127:
	.loc 1 862 0
	movs	r1, #0
	mov	r0, r4
.LVL154:
	bl	tcp_arg
.LVL155:
	movs	r7, #1
	b	.L129
.LVL156:
.L137:
	.loc 1 996 0
	cmp	r8, #0
	beq	.L149
	.loc 1 997 0
	ldr	r1, .L187
	mov	r0, r4
	bl	tcp_sent
.LVL157:
.L149:
	.loc 1 1000 0
	movs	r2, #1
	mov	r0, r4
	ldr	r1, .L187+4
	bl	tcp_poll
.LVL158:
	.loc 1 1001 0
	mov	r0, r4
	ldr	r1, .L187+8
	bl	tcp_err
.LVL159:
	.loc 1 1002 0
	mov	r1, r5
	mov	r0, r4
	bl	tcp_arg
.LVL160:
	.loc 1 1008 0
	b	.L185
.L188:
	.align	2
.L187:
	.word	sent_tcp
	.word	poll_tcp
	.word	err_tcp
	.cfi_endproc
.LFE159:
	.size	lwip_netconn_do_close_internal, .-lwip_netconn_do_close_internal
	.section	.text.poll_tcp,"ax",%progbits
	.align	1
	.syntax unified
	.thumb
	.thumb_func
	.fpu softvfp
	.type	poll_tcp, %function
poll_tcp:
.LFB149:
	.loc 1 308 0
	.cfi_startproc
	@ args = 0, pretend = 0, frame = 0
	@ frame_needed = 0, uses_anonymous_args = 0
.LVL161:
	.loc 1 314 0
	ldrb	r3, [r0, #1]	@ zero_extendqisi2
	.loc 1 308 0
	push	{r4, lr}
	.cfi_def_cfa_offset 8
	.cfi_offset 4, -8
	.cfi_offset 14, -4
	.loc 1 314 0
	cmp	r3, #1
	.loc 1 308 0
	mov	r4, r0
	.loc 1 314 0
	bne	.L190
	.loc 1 315 0
	bl	lwip_netconn_do_writemore
.LVL162:
.L191:
	.loc 1 327 0
	ldrb	r3, [r4, #32]	@ zero_extendqisi2
	lsls	r2, r3, #27
	bpl	.L194
	.loc 1 330 0
	ldr	r2, [r4, #4]
	cbz	r2, .L194
	.loc 1 330 0 discriminator 1
	movw	r1, #3650
	ldrh	r0, [r2, #96]
	cmp	r0, r1
	bls	.L194
	.loc 1 330 0 is_stmt 0 discriminator 2
	ldrh	r2, [r2, #98]
	cmp	r2, #9
	bhi	.L194
	.loc 1 332 0 is_stmt 1
	bic	r3, r3, #16
	strb	r3, [r4, #32]
	.loc 1 333 0
	ldr	r3, [r4, #44]
	cbz	r3, .L194
	.loc 1 333 0 is_stmt 0 discriminator 1
	movs	r2, #0
	movs	r1, #2
	mov	r0, r4
	blx	r3
.LVL163:
.L194:
	.loc 1 338 0 is_stmt 1
	movs	r0, #0
	pop	{r4, pc}
.LVL164:
.L190:
	.loc 1 316 0
	cmp	r3, #4
	bne	.L191
	.loc 1 318 0
	ldr	r2, [r0, #40]
	cbz	r2, .L192
	.loc 1 318 0 is_stmt 0 discriminator 1
	ldrb	r3, [r2, #9]	@ zero_extendqisi2
	cbz	r3, .L192
	.loc 1 319 0 is_stmt 1
	subs	r3, r3, #1
	strb	r3, [r2, #9]
.L192:
	.loc 1 322 0
	mov	r0, r4
.LVL165:
	bl	lwip_netconn_do_close_internal
.LVL166:
	b	.L191
	.cfi_endproc
.LFE149:
	.size	poll_tcp, .-poll_tcp
	.section	.text.recv_tcp,"ax",%progbits
	.align	1
	.syntax unified
	.thumb
	.thumb_func
	.fpu softvfp
	.type	recv_tcp, %function
recv_tcp:
.LFB148:
	.loc 1 244 0
	.cfi_startproc
	@ args = 0, pretend = 0, frame = 0
	@ frame_needed = 0, uses_anonymous_args = 0
.LVL167:
	push	{r3, r4, r5, r6, r7, r8, r9, lr}
	.cfi_def_cfa_offset 32
	.cfi_offset 3, -32
	.cfi_offset 4, -28
	.cfi_offset 5, -24
	.cfi_offset 6, -20
	.cfi_offset 7, -16
	.cfi_offset 8, -12
	.cfi_offset 9, -8
	.cfi_offset 14, -4
	.loc 1 244 0
	mov	r9, r1
	mov	r5, r2
	mov	r7, r3
	.loc 1 253 0
	mov	r6, r0
	cbz	r0, .L216
	.loc 1 258 0
	add	r8, r0, #16
	mov	r0, r8
.LVL168:
	bl	sys_mbox_valid
.LVL169:
	mov	r4, r0
	cbnz	r0, .L210
	.loc 1 260 0
	cbnz	r5, .L211
.L215:
	.loc 1 264 0
	movs	r4, #0
.L209:
	.loc 1 293 0
	mov	r0, r4
	pop	{r3, r4, r5, r6, r7, r8, r9, pc}
.LVL170:
.L211:
	.loc 1 261 0
	mov	r0, r9
	ldrh	r1, [r5, #8]
	bl	tcp_recved
.LVL171:
	.loc 1 262 0
	mov	r0, r5
	bl	pbuf_free
.LVL172:
	b	.L209
.L210:
	.loc 1 271 0
	cbz	r7, .L212
.LBB21:
	.loc 1 272 0 discriminator 1
	bl	sys_arch_protect
.LVL173:
	ldrsb	r3, [r6, #8]
	adds	r3, r3, #12
	it	ge
	strbge	r7, [r6, #8]
	bl	sys_arch_unprotect
.LVL174:
.L212:
.LBE21:
	.loc 1 275 0
	cbz	r5, .L217
	.loc 1 276 0
	ldrh	r7, [r5, #8]
.LVL175:
.L214:
	.loc 1 281 0
	mov	r1, r5
	mov	r0, r8
	bl	sys_mbox_trypost
.LVL176:
	mov	r4, r0
	cbnz	r0, .L218
	.loc 1 289 0
	ldr	r3, [r6, #44]
	cmp	r3, #0
	beq	.L215
	.loc 1 289 0 is_stmt 0 discriminator 1
	mov	r1, r0
	mov	r2, r7
	mov	r0, r6
	blx	r3
.LVL177:
	b	.L209
.LVL178:
.L217:
	.loc 1 278 0 is_stmt 1
	mov	r7, r5
	b	.L214
.LVL179:
.L216:
	.loc 1 254 0
	mvn	r4, #5
	b	.L209
.LVL180:
.L218:
	.loc 1 283 0
	mov	r4, #-1
	b	.L209
	.cfi_endproc
.LFE148:
	.size	recv_tcp, .-recv_tcp
	.section	.text.sent_tcp,"ax",%progbits
	.align	1
	.syntax unified
	.thumb
	.thumb_func
	.fpu softvfp
	.type	sent_tcp, %function
sent_tcp:
.LFB150:
	.loc 1 349 0
	.cfi_startproc
	@ args = 0, pretend = 0, frame = 0
	@ frame_needed = 0, uses_anonymous_args = 0
.LVL181:
	push	{r3, r4, r5, lr}
	.cfi_def_cfa_offset 16
	.cfi_offset 3, -16
	.cfi_offset 4, -12
	.cfi_offset 5, -8
	.cfi_offset 14, -4
	.loc 1 349 0
	mov	r5, r2
	.loc 1 355 0
	mov	r4, r0
	cbz	r0, .L227
	.loc 1 356 0
	ldrb	r3, [r0, #1]	@ zero_extendqisi2
	cmp	r3, #1
	bne	.L228
	.loc 1 357 0
	bl	lwip_netconn_do_writemore
.LVL182:
.L229:
	.loc 1 364 0
	ldr	r3, [r4, #4]
	cbz	r3, .L227
	.loc 1 364 0 discriminator 1
	movw	r2, #3650
	ldrh	r1, [r3, #96]
	cmp	r1, r2
	bls	.L227
	.loc 1 364 0 is_stmt 0 discriminator 2
	ldrh	r3, [r3, #98]
	cmp	r3, #9
	bhi	.L227
.LVL183:
.LBB24:
.LBB25:
	.loc 1 366 0 is_stmt 1
	ldrb	r3, [r4, #32]	@ zero_extendqisi2
	bic	r3, r3, #16
	strb	r3, [r4, #32]
	.loc 1 367 0
	ldr	r3, [r4, #44]
	cbz	r3, .L227
	mov	r2, r5
	movs	r1, #2
	mov	r0, r4
	blx	r3
.LVL184:
.L227:
.LBE25:
.LBE24:
	.loc 1 372 0
	movs	r0, #0
	pop	{r3, r4, r5, pc}
.LVL185:
.L228:
	.loc 1 358 0
	cmp	r3, #4
	bne	.L229
	.loc 1 359 0
	bl	lwip_netconn_do_close_internal
.LVL186:
	b	.L229
	.cfi_endproc
.LFE150:
	.size	sent_tcp, .-sent_tcp
	.section	.text.lwip_netconn_do_newconn,"ax",%progbits
	.align	1
	.global	lwip_netconn_do_newconn
	.syntax unified
	.thumb
	.thumb_func
	.fpu softvfp
	.type	lwip_netconn_do_newconn, %function
lwip_netconn_do_newconn:
.LFB155:
	.loc 1 624 0
	.cfi_startproc
	@ args = 0, pretend = 0, frame = 0
	@ frame_needed = 0, uses_anonymous_args = 0
.LVL187:
	push	{r3, r4, r5, lr}
	.cfi_def_cfa_offset 16
	.cfi_offset 3, -16
	.cfi_offset 4, -12
	.cfi_offset 5, -8
	.cfi_offset 14, -4
	.loc 1 627 0
	movs	r3, #0
	.loc 1 628 0
	ldr	r5, [r0]
	.loc 1 627 0
	strb	r3, [r0, #4]
	.loc 1 624 0
	mov	r4, r0
	.loc 1 628 0
	ldr	r0, [r5, #4]
.LVL188:
	cmp	r0, #0
	bne	.L239
.LVL189:
.LBB29:
.LBB30:
	.loc 1 566 0
	ldrb	r3, [r5]	@ zero_extendqisi2
	and	r3, r3, #240
	cmp	r3, #32
	beq	.L241
	cmp	r3, #64
	beq	.L242
	cmp	r3, #16
	bne	.L263
	.loc 1 600 0
	bl	tcp_new_ip_type
.LVL190:
	str	r0, [r5, #4]
	.loc 1 601 0
	ldr	r0, [r4]
	ldr	r3, [r0, #4]
	cbz	r3, .L250
	.loc 1 602 0
	bl	setup_tcp
.LVL191:
	b	.L245
.L242:
	.loc 1 569 0
	ldrb	r1, [r4, #8]	@ zero_extendqisi2
	bl	raw_new_ip_type
.LVL192:
	str	r0, [r5, #4]
	.loc 1 570 0
	ldr	r2, [r4]
	ldr	r0, [r2, #4]
	cbz	r0, .L250
	.loc 1 578 0
	ldr	r1, .L265
	bl	raw_recv
.LVL193:
.L245:
	.loc 1 611 0
	ldr	r3, [r4]
	ldr	r3, [r3, #4]
	cbnz	r3, .L239
.L250:
	.loc 1 612 0
	movs	r3, #255
	b	.L264
.L241:
	.loc 1 584 0
	bl	udp_new_ip_type
.LVL194:
	str	r0, [r5, #4]
	.loc 1 585 0
	ldr	r2, [r4]
	ldr	r0, [r2, #4]
	cmp	r0, #0
	beq	.L250
	.loc 1 591 0
	ldrb	r3, [r2]	@ zero_extendqisi2
	.loc 1 594 0
	ldr	r1, .L265+4
	.loc 1 591 0
	cmp	r3, #34
	.loc 1 592 0
	itt	eq
	moveq	r3, #1
	strbeq	r3, [r0, #16]
	.loc 1 594 0
	bl	udp_recv
.LVL195:
	b	.L245
.L263:
	.loc 1 608 0
	movs	r3, #250
.L264:
	.loc 1 612 0
	strb	r3, [r4, #4]
.LVL196:
.L239:
.LBE30:
.LBE29:
	.loc 1 635 0
	ldr	r3, [r4]
	cbz	r3, .L248
.LBB31:
	.loc 1 635 0 discriminator 1
	bl	sys_arch_protect
.LVL197:
	ldr	r3, [r4]
	ldrsb	r2, [r3, #8]
	adds	r2, r2, #12
	itt	ge
	ldrbge	r2, [r4, #4]	@ zero_extendqisi2
	strbge	r2, [r3, #8]
	bl	sys_arch_unprotect
.LVL198:
.L248:
.LBE31:
	.loc 1 635 0 is_stmt 0 discriminator 6
	ldr	r0, [r4]
	.loc 1 636 0 is_stmt 1 discriminator 6
	pop	{r3, r4, r5, lr}
	.cfi_restore 14
	.cfi_restore 5
	.cfi_restore 4
	.cfi_restore 3
	.cfi_def_cfa_offset 0
.LVL199:
	.loc 1 635 0 discriminator 6
	adds	r0, r0, #12
	b	sys_sem_signal
.LVL200:
.L266:
	.align	2
.L265:
	.word	recv_raw
	.word	recv_udp
	.cfi_endproc
.LFE155:
	.size	lwip_netconn_do_newconn, .-lwip_netconn_do_newconn
	.section	.text.netconn_alloc,"ax",%progbits
	.align	1
	.global	netconn_alloc
	.syntax unified
	.thumb
	.thumb_func
	.fpu softvfp
	.type	netconn_alloc, %function
netconn_alloc:
.LFB156:
	.loc 1 649 0
	.cfi_startproc
	@ args = 0, pretend = 0, frame = 0
	@ frame_needed = 0, uses_anonymous_args = 0
.LVL201:
	push	{r3, r4, r5, r6, r7, lr}
	.cfi_def_cfa_offset 24
	.cfi_offset 3, -24
	.cfi_offset 4, -20
	.cfi_offset 5, -16
	.cfi_offset 6, -12
	.cfi_offset 7, -8
	.cfi_offset 14, -4
	.loc 1 649 0
	mov	r5, r0
	.loc 1 653 0
	movs	r0, #8
.LVL202:
	.loc 1 649 0
	mov	r7, r1
	.loc 1 653 0
	bl	memp_malloc
.LVL203:
	.loc 1 654 0
	mov	r4, r0
	cbz	r0, .L267
	.loc 1 658 0
	movs	r3, #0
	.loc 1 659 0
	strb	r5, [r0]
	.loc 1 658 0
	strb	r3, [r0, #8]
	.loc 1 660 0
	str	r3, [r0, #4]
	.loc 1 663 0
	and	r0, r5, #240
.LVL204:
	cmp	r0, #32
	beq	.L270
	cmp	r0, #64
	beq	.L270
	cmp	r0, #16
	bne	.L269
.L270:
.LVL205:
	.loc 1 684 0
	add	r6, r4, #16
	movs	r1, #6
	mov	r0, r6
	bl	sys_mbox_new
.LVL206:
	mov	r1, r0
	cbnz	r0, .L269
	.loc 1 688 0
	add	r0, r4, #12
	bl	sys_sem_new
.LVL207:
	mov	r5, r0
	cbz	r0, .L271
	.loc 1 689 0
	mov	r0, r6
	bl	sys_mbox_free
.LVL208:
.L269:
	.loc 1 723 0
	mov	r1, r4
	movs	r0, #8
	bl	memp_free
.LVL209:
	.loc 1 724 0
	movs	r4, #0
.LVL210:
	b	.L267
.LVL211:
.L271:
	.loc 1 695 0
	add	r0, r4, #20
	bl	sys_mbox_set_invalid
.LVL212:
	.loc 1 700 0
	mov	r3, #-1
	.loc 1 697 0
	strb	r5, [r4, #1]
	.loc 1 700 0
	str	r3, [r4, #24]
	.loc 1 702 0
	str	r7, [r4, #44]
	.loc 1 704 0
	str	r5, [r4, #40]
	.loc 1 705 0
	str	r5, [r4, #36]
	.loc 1 711 0
	str	r5, [r4, #28]
	.loc 1 720 0
	strb	r5, [r4, #32]
.LVL213:
.L267:
	.loc 1 725 0
	mov	r0, r4
	pop	{r3, r4, r5, r6, r7, pc}
	.cfi_endproc
.LFE156:
	.size	netconn_alloc, .-netconn_alloc
	.section	.text.netconn_free,"ax",%progbits
	.align	1
	.global	netconn_free
	.syntax unified
	.thumb
	.thumb_func
	.fpu softvfp
	.type	netconn_free, %function
netconn_free:
.LFB157:
	.loc 1 735 0
	.cfi_startproc
	@ args = 0, pretend = 0, frame = 0
	@ frame_needed = 0, uses_anonymous_args = 0
.LVL214:
	push	{r3, r4, r5, lr}
	.cfi_def_cfa_offset 16
	.cfi_offset 3, -16
	.cfi_offset 4, -12
	.cfi_offset 5, -8
	.cfi_offset 14, -4
	.loc 1 735 0
	mov	r4, r0
	.loc 1 737 0
	adds	r0, r0, #16
.LVL215:
	bl	sys_mbox_valid
.LVL216:
	.loc 1 745 0
	add	r5, r4, #12
	.loc 1 740 0
	add	r0, r4, #20
	bl	sys_mbox_valid
.LVL217:
	.loc 1 745 0
	mov	r0, r5
	bl	sys_sem_free
.LVL218:
	.loc 1 746 0
	mov	r0, r5
	bl	sys_sem_set_invalid
.LVL219:
	.loc 1 749 0
	mov	r1, r4
	.loc 1 750 0
	pop	{r3, r4, r5, lr}
	.cfi_restore 14
	.cfi_restore 5
	.cfi_restore 4
	.cfi_restore 3
	.cfi_def_cfa_offset 0
.LVL220:
	.loc 1 749 0
	movs	r0, #8
	b	memp_free
.LVL221:
	.cfi_endproc
.LFE157:
	.size	netconn_free, .-netconn_free
	.section	.text.netconn_drain,"ax",%progbits
	.align	1
	.syntax unified
	.thumb
	.thumb_func
	.fpu softvfp
	.type	netconn_drain, %function
netconn_drain:
.LFB158:
	.loc 1 762 0
	.cfi_startproc
	@ args = 0, pretend = 0, frame = 8
	@ frame_needed = 0, uses_anonymous_args = 0
.LVL222:
	push	{r0, r1, r4, r5, r6, lr}
	.cfi_def_cfa_offset 24
	.cfi_offset 4, -16
	.cfi_offset 5, -12
	.cfi_offset 6, -8
	.cfi_offset 14, -4
	.loc 1 771 0
	add	r5, r0, #16
	.loc 1 762 0
	mov	r4, r0
	.loc 1 771 0
	mov	r0, r5
.LVL223:
	bl	sys_mbox_valid
.LVL224:
	cbnz	r0, .L304
.L287:
	.loc 1 795 0
	adds	r4, r4, #20
.LVL225:
	mov	r0, r4
	bl	sys_mbox_valid
.LVL226:
	cmp	r0, #0
	bne	.L292
.L285:
	.loc 1 814 0
	add	sp, sp, #8
	.cfi_remember_state
	.cfi_def_cfa_offset 16
	@ sp needed
	pop	{r4, r5, r6, pc}
.LVL227:
.L291:
	.cfi_restore_state
	.loc 1 774 0
	ldrb	r3, [r4]	@ zero_extendqisi2
	and	r3, r3, #240
	cmp	r3, #16
	bne	.L288
	.loc 1 775 0
	ldr	r6, [sp, #4]
	cbz	r6, .L304
.LVL228:
	.loc 1 778 0
	ldr	r0, [r4, #4]
	cbz	r0, .L290
	.loc 1 779 0
	ldrh	r1, [r6, #8]
	bl	tcp_recved
.LVL229:
.L290:
	.loc 1 781 0
	mov	r0, r6
	bl	pbuf_free
.LVL230:
.L304:
	.loc 1 772 0
	add	r1, sp, #4
	mov	r0, r5
	bl	sys_arch_mbox_tryfetch
.LVL231:
	adds	r0, r0, #1
	bne	.L291
	.loc 1 789 0
	mov	r0, r5
	bl	sys_mbox_free
.LVL232:
	.loc 1 790 0
	mov	r0, r5
	bl	sys_mbox_set_invalid
.LVL233:
	b	.L287
.L288:
	.loc 1 786 0
	ldr	r0, [sp, #4]
	bl	netbuf_delete
.LVL234:
	b	.L304
.LVL235:
.L296:
	.loc 1 797 0
	ldr	r5, [sp, #4]
	cmp	r5, r6
	beq	.L294
.LVL236:
.LBB32:
	.loc 1 802 0
	mov	r0, r5
	bl	netconn_drain
.LVL237:
	.loc 1 803 0
	ldr	r0, [r5, #4]
	cbz	r0, .L295
	.loc 1 804 0
	bl	tcp_abort
.LVL238:
	.loc 1 805 0
	movs	r3, #0
	str	r3, [r5, #4]
.L295:
	.loc 1 807 0
	mov	r0, r5
	bl	netconn_free
.LVL239:
.L294:
.LBE32:
	.loc 1 796 0
	add	r1, sp, #4
	mov	r0, r4
	bl	sys_arch_mbox_tryfetch
.LVL240:
	adds	r0, r0, #1
	bne	.L296
	.loc 1 810 0
	mov	r0, r4
	bl	sys_mbox_free
.LVL241:
	.loc 1 811 0
	mov	r0, r4
	bl	sys_mbox_set_invalid
.LVL242:
	.loc 1 814 0
	b	.L285
.L292:
	.loc 1 797 0
	ldr	r6, .L308
	b	.L294
.L309:
	.align	2
.L308:
	.word	netconn_aborted
	.cfi_endproc
.LFE158:
	.size	netconn_drain, .-netconn_drain
	.section	.text.accept_function,"ax",%progbits
	.align	1
	.syntax unified
	.thumb
	.thumb_func
	.fpu softvfp
	.type	accept_function, %function
accept_function:
.LFB153:
	.loc 1 476 0
	.cfi_startproc
	@ args = 0, pretend = 0, frame = 0
	@ frame_needed = 0, uses_anonymous_args = 0
.LVL243:
	push	{r4, r5, r6, r7, r8, lr}
	.cfi_def_cfa_offset 24
	.cfi_offset 4, -24
	.cfi_offset 5, -20
	.cfi_offset 6, -16
	.cfi_offset 7, -12
	.cfi_offset 8, -8
	.cfi_offset 14, -4
	.loc 1 476 0
	mov	r7, r1
	mov	r8, r2
	.loc 1 480 0
	mov	r5, r0
	cbnz	r0, .L311
.LVL244:
.L328:
	.loc 1 494 0 discriminator 1
	mvn	r4, #5
.L312:
	.loc 1 542 0
	mov	r0, r4
	pop	{r4, r5, r6, r7, r8, pc}
.LVL245:
.L311:
	.loc 1 483 0
	add	r4, r0, #20
	mov	r0, r4
.LVL246:
	bl	sys_mbox_valid
.LVL247:
	cmp	r0, #0
	beq	.L328
	.loc 1 488 0
	cbnz	r7, .L314
	.loc 1 490 0
	ldr	r1, .L329
	mov	r0, r4
	bl	sys_mbox_trypost
.LVL248:
	mov	r2, r0
	cmp	r0, #0
	bne	.L328
	.loc 1 492 0
	ldr	r3, [r5, #44]
	cmp	r3, #0
	beq	.L328
	.loc 1 492 0 is_stmt 0 discriminator 1
	mov	r1, r0
	mov	r0, r5
	blx	r3
.LVL249:
	b	.L328
.L314:
	.loc 1 501 0 is_stmt 1
	ldr	r1, [r5, #44]
	ldrb	r0, [r5]	@ zero_extendqisi2
	bl	netconn_alloc
.LVL250:
	.loc 1 502 0
	mov	r6, r0
	cbnz	r0, .L315
	.loc 1 504 0
	ldr	r1, .L329
	mov	r0, r4
.LVL251:
	bl	sys_mbox_trypost
.LVL252:
	mov	r2, r0
	cbnz	r0, .L318
	.loc 1 506 0
	ldr	r3, [r5, #44]
	cbz	r3, .L318
	.loc 1 506 0 is_stmt 0 discriminator 1
	mov	r1, r0
	mov	r0, r5
	blx	r3
.LVL253:
.L318:
	.loc 1 508 0 is_stmt 1
	mov	r4, #-1
	b	.L312
.LVL254:
.L315:
	.loc 1 510 0
	str	r7, [r0, #4]
	.loc 1 511 0
	bl	setup_tcp
.LVL255:
	.loc 1 519 0
	mov	r0, r4
	.loc 1 514 0
	strb	r8, [r6, #8]
	.loc 1 519 0
	mov	r1, r6
	bl	sys_mbox_trypost
.LVL256:
	mov	r4, r0
	cbz	r0, .L316
.LBB33:
	.loc 1 523 0
	ldr	r4, [r6, #4]
.LVL257:
	.loc 1 524 0
	movs	r1, #0
	mov	r0, r4
	bl	tcp_arg
.LVL258:
	.loc 1 525 0
	mov	r0, r4
	movs	r1, #0
	bl	tcp_recv
.LVL259:
	.loc 1 526 0
	mov	r0, r4
	movs	r1, #0
	bl	tcp_sent
.LVL260:
	.loc 1 527 0
	movs	r2, #0
	mov	r0, r4
	mov	r1, r2
	bl	tcp_poll
.LVL261:
	.loc 1 528 0
	movs	r1, #0
	mov	r0, r4
	bl	tcp_err
.LVL262:
	.loc 1 530 0
	movs	r3, #0
	.loc 1 532 0
	add	r4, r6, #16
.LVL263:
	.loc 1 530 0
	str	r3, [r6, #4]
	.loc 1 532 0
	mov	r0, r4
	bl	sys_mbox_free
.LVL264:
	.loc 1 533 0
	mov	r0, r4
	bl	sys_mbox_set_invalid
.LVL265:
	.loc 1 534 0
	mov	r0, r6
	bl	netconn_free
.LVL266:
	b	.L318
.L316:
.LBE33:
	.loc 1 538 0
	ldr	r3, [r5, #44]
	cmp	r3, #0
	beq	.L312
	.loc 1 538 0 is_stmt 0 discriminator 1
	mov	r2, r0
	mov	r1, r0
	mov	r0, r5
	blx	r3
.LVL267:
	b	.L312
.L330:
	.align	2
.L329:
	.word	netconn_aborted
	.cfi_endproc
.LFE153:
	.size	accept_function, .-accept_function
	.section	.text.lwip_netconn_do_delconn,"ax",%progbits
	.align	1
	.global	lwip_netconn_do_delconn
	.syntax unified
	.thumb
	.thumb_func
	.fpu softvfp
	.type	lwip_netconn_do_delconn, %function
lwip_netconn_do_delconn:
.LFB160:
	.loc 1 1020 0 is_stmt 1
	.cfi_startproc
	@ args = 0, pretend = 0, frame = 0
	@ frame_needed = 0, uses_anonymous_args = 0
.LVL268:
	push	{r3, r4, r5, lr}
	.cfi_def_cfa_offset 16
	.cfi_offset 3, -16
	.cfi_offset 4, -12
	.cfi_offset 5, -8
	.cfi_offset 14, -4
	.loc 1 1020 0
	mov	r4, r0
	.loc 1 1023 0
	ldr	r0, [r0]
.LVL269:
	ldrb	r3, [r0, #1]	@ zero_extendqisi2
.LVL270:
	.loc 1 1044 0
	tst	r3, #253
	beq	.L332
	.loc 1 1045 0
	cmp	r3, #3
	bne	.L333
	.loc 1 1047 0
	ldrb	r3, [r0, #32]	@ zero_extendqisi2
.LVL271:
	lsls	r3, r3, #29
	bmi	.L332
.L333:
	.loc 1 1050 0
	movs	r3, #251
	strb	r3, [r4, #4]
.LVL272:
.L334:
	.loc 1 1108 0
	ldr	r0, [r4]
	adds	r0, r0, #12
	bl	sys_sem_valid
.LVL273:
	cmp	r0, #0
	beq	.L331
	.loc 1 1109 0
	ldr	r3, [r4]
	cbz	r3, .L342
.LBB34:
	.loc 1 1109 0 discriminator 1
	bl	sys_arch_protect
.LVL274:
	ldr	r3, [r4]
	ldrsb	r2, [r3, #8]
	adds	r2, r2, #12
	itt	ge
	ldrbge	r2, [r4, #4]	@ zero_extendqisi2
	strbge	r2, [r3, #8]
	bl	sys_arch_unprotect
.LVL275:
.L342:
.LBE34:
	.loc 1 1109 0 is_stmt 0 discriminator 6
	ldr	r0, [r4]
	.loc 1 1111 0 is_stmt 1 discriminator 6
	pop	{r3, r4, r5, lr}
	.cfi_remember_state
	.cfi_restore 14
	.cfi_restore 5
	.cfi_restore 4
	.cfi_restore 3
	.cfi_def_cfa_offset 0
.LVL276:
	.loc 1 1109 0 discriminator 6
	adds	r0, r0, #12
	b	sys_sem_signal
.LVL277:
.L332:
	.cfi_restore_state
	.loc 1 1056 0
	movs	r5, #0
	strb	r5, [r4, #4]
.LVL278:
	.loc 1 1058 0
	bl	netconn_drain
.LVL279:
	.loc 1 1060 0
	ldr	r3, [r4]
	ldr	r0, [r3, #4]
	cbz	r0, .L335
	.loc 1 1062 0
	ldrb	r2, [r3]	@ zero_extendqisi2
	and	r2, r2, #240
	cmp	r2, #32
	beq	.L337
	cmp	r2, #64
	beq	.L338
	cmp	r2, #16
	bne	.L336
	.loc 1 1078 0
	movs	r2, #4
	strb	r2, [r3, #1]
	.loc 1 1079 0
	movs	r2, #3
	strb	r2, [r4, #8]
	.loc 1 1090 0
	mov	r0, r3
	.loc 1 1080 0
	str	r4, [r3, #40]
	.loc 1 1111 0
	pop	{r3, r4, r5, lr}
	.cfi_remember_state
	.cfi_restore 14
	.cfi_restore 5
	.cfi_restore 4
	.cfi_restore 3
	.cfi_def_cfa_offset 0
.LVL280:
	.loc 1 1090 0
	b	lwip_netconn_do_close_internal
.LVL281:
.L338:
	.cfi_restore_state
	.loc 1 1065 0
	bl	raw_remove
.LVL282:
.L336:
	.loc 1 1099 0
	movs	r2, #0
	ldr	r3, [r4]
	str	r2, [r3, #4]
.L335:
	.loc 1 1105 0
	ldr	r0, [r4]
	ldr	r3, [r0, #44]
	cbz	r3, .L340
	.loc 1 1105 0 is_stmt 0 discriminator 1
	movs	r2, #0
	mov	r1, r2
	blx	r3
.LVL283:
.L340:
	.loc 1 1106 0 is_stmt 1
	ldr	r0, [r4]
	ldr	r3, [r0, #44]
	cmp	r3, #0
	beq	.L334
	.loc 1 1106 0 is_stmt 0 discriminator 1
	movs	r2, #0
	movs	r1, #2
	blx	r3
.LVL284:
	b	.L334
.L337:
	.loc 1 1070 0 is_stmt 1
	str	r5, [r0, #36]
	.loc 1 1071 0
	bl	udp_remove
.LVL285:
	.loc 1 1072 0
	b	.L336
.L331:
	pop	{r3, r4, r5, pc}
	.cfi_endproc
.LFE160:
	.size	lwip_netconn_do_delconn, .-lwip_netconn_do_delconn
	.section	.text.lwip_netconn_do_bind,"ax",%progbits
	.align	1
	.global	lwip_netconn_do_bind
	.syntax unified
	.thumb
	.thumb_func
	.fpu softvfp
	.type	lwip_netconn_do_bind, %function
lwip_netconn_do_bind:
.LFB161:
	.loc 1 1122 0
	.cfi_startproc
	@ args = 0, pretend = 0, frame = 0
	@ frame_needed = 0, uses_anonymous_args = 0
.LVL286:
	push	{r4, lr}
	.cfi_def_cfa_offset 8
	.cfi_offset 4, -8
	.cfi_offset 14, -4
	.loc 1 1125 0
	ldr	r3, [r0]
	.loc 1 1122 0
	mov	r4, r0
	.loc 1 1125 0
	ldrsb	r2, [r3, #8]
	cmn	r2, #12
	bge	.L360
	.loc 1 1126 0
	strb	r2, [r0, #4]
.LVL287:
.L361:
	.loc 1 1151 0
	ldr	r3, [r4]
	cbz	r3, .L365
.LBB35:
	.loc 1 1151 0 discriminator 1
	bl	sys_arch_protect
.LVL288:
	ldr	r3, [r4]
	ldrsb	r2, [r3, #8]
	adds	r2, r2, #12
	itt	ge
	ldrbge	r2, [r4, #4]	@ zero_extendqisi2
	strbge	r2, [r3, #8]
	bl	sys_arch_unprotect
.LVL289:
.L365:
.LBE35:
	.loc 1 1151 0 is_stmt 0 discriminator 6
	ldr	r0, [r4]
	.loc 1 1152 0 is_stmt 1 discriminator 6
	pop	{r4, lr}
	.cfi_remember_state
	.cfi_restore 14
	.cfi_restore 4
	.cfi_def_cfa_offset 0
.LVL290:
	.loc 1 1151 0 discriminator 6
	adds	r0, r0, #12
	b	sys_sem_signal
.LVL291:
.L360:
	.cfi_restore_state
	.loc 1 1128 0
	movs	r2, #250
	strb	r2, [r0, #4]
	.loc 1 1129 0
	ldr	r0, [r3, #4]
.LVL292:
	cmp	r0, #0
	beq	.L361
	.loc 1 1130 0
	ldrb	r3, [r3]	@ zero_extendqisi2
	and	r3, r3, #240
	cmp	r3, #32
	beq	.L362
	cmp	r3, #64
	beq	.L363
	cmp	r3, #16
	bne	.L361
	.loc 1 1143 0
	ldrh	r2, [r4, #12]
	ldr	r1, [r4, #8]
	bl	tcp_bind
.LVL293:
	b	.L373
.L363:
	.loc 1 1133 0
	ldr	r1, [r4, #8]
	bl	raw_bind
.LVL294:
.L373:
	.loc 1 1143 0
	strb	r0, [r4, #4]
	.loc 1 1144 0
	b	.L361
.L362:
	.loc 1 1138 0
	ldrh	r2, [r4, #12]
	ldr	r1, [r4, #8]
	bl	udp_bind
.LVL295:
	b	.L373
	.cfi_endproc
.LFE161:
	.size	lwip_netconn_do_bind, .-lwip_netconn_do_bind
	.section	.text.lwip_netconn_do_connect,"ax",%progbits
	.align	1
	.global	lwip_netconn_do_connect
	.syntax unified
	.thumb
	.thumb_func
	.fpu softvfp
	.type	lwip_netconn_do_connect, %function
lwip_netconn_do_connect:
.LFB163:
	.loc 1 1213 0
	.cfi_startproc
	@ args = 0, pretend = 0, frame = 0
	@ frame_needed = 0, uses_anonymous_args = 0
.LVL296:
	push	{r4, lr}
	.cfi_def_cfa_offset 8
	.cfi_offset 4, -8
	.cfi_offset 14, -4
	.loc 1 1216 0
	ldr	r2, [r0]
	.loc 1 1213 0
	mov	r4, r0
	.loc 1 1216 0
	ldr	r0, [r2, #4]
.LVL297:
	cbnz	r0, .L375
	.loc 1 1218 0
	movs	r3, #241
.L392:
	.loc 1 1266 0 discriminator 1
	strb	r3, [r4, #4]
	.loc 1 1267 0 discriminator 1
	b	.L376
.L375:
	.loc 1 1220 0
	ldrb	r3, [r2]	@ zero_extendqisi2
	and	r3, r3, #240
	cmp	r3, #32
	beq	.L378
	cmp	r3, #64
	beq	.L379
	cmp	r3, #16
	bne	.L390
	.loc 1 1234 0
	ldrb	r3, [r2, #1]	@ zero_extendqisi2
	cmp	r3, #3
	bne	.L381
	.loc 1 1235 0
	movs	r3, #247
	b	.L392
.L379:
	.loc 1 1223 0
	ldr	r1, [r4, #8]
	bl	raw_connect
.LVL298:
.L393:
	.loc 1 1228 0
	strb	r0, [r4, #4]
.L376:
	.loc 1 1272 0
	ldr	r3, [r4]
	cbz	r3, .L385
.LBB36:
	.loc 1 1272 0 discriminator 1
	bl	sys_arch_protect
.LVL299:
	ldr	r3, [r4]
	ldrsb	r2, [r3, #8]
	adds	r2, r2, #12
	itt	ge
	ldrbge	r2, [r4, #4]	@ zero_extendqisi2
	strbge	r2, [r3, #8]
	bl	sys_arch_unprotect
.LVL300:
.L385:
.LBE36:
	.loc 1 1272 0 is_stmt 0 discriminator 6
	ldr	r0, [r4]
	.loc 1 1273 0 is_stmt 1 discriminator 6
	pop	{r4, lr}
	.cfi_remember_state
	.cfi_restore 14
	.cfi_restore 4
	.cfi_def_cfa_offset 0
.LVL301:
	.loc 1 1272 0 discriminator 6
	adds	r0, r0, #12
	b	sys_sem_signal
.LVL302:
.L378:
	.cfi_restore_state
	.loc 1 1228 0
	ldrh	r2, [r4, #12]
	ldr	r1, [r4, #8]
	bl	udp_connect
.LVL303:
	b	.L393
.L381:
	.loc 1 1236 0
	cbz	r3, .L382
	.loc 1 1237 0
	movs	r3, #246
	b	.L392
.L382:
	.loc 1 1239 0
	mov	r0, r2
	bl	setup_tcp
.LVL304:
	.loc 1 1240 0
	ldr	r0, [r4]
	ldr	r3, .L394
	ldrh	r2, [r4, #12]
	ldr	r1, [r4, #8]
	ldr	r0, [r0, #4]
	bl	tcp_connect
.LVL305:
	strb	r0, [r4, #4]
	.loc 1 1242 0
	cmp	r0, #0
	bne	.L376
.LBB37:
	.loc 1 1244 0
	movs	r1, #3
	.loc 1 1243 0
	ldr	r2, [r4]
	ldrb	r3, [r2, #32]	@ zero_extendqisi2
.LVL306:
	.loc 1 1244 0
	strb	r1, [r2, #1]
	.loc 1 1245 0
	lsls	r1, r3, #30
	bpl	.L383
	.loc 1 1245 0 is_stmt 0 discriminator 1
	orr	r3, r3, #4
.LVL307:
	strb	r3, [r2, #32]
.LVL308:
	.loc 1 1247 0 is_stmt 1 discriminator 1
	movs	r3, #251
	b	.L392
.LVL309:
.L383:
	.loc 1 1245 0 discriminator 2
	bic	r3, r3, #4
.LVL310:
	strb	r3, [r2, #32]
.LVL311:
	.loc 1 1249 0 discriminator 2
	str	r4, [r2, #40]
	.loc 1 1259 0 discriminator 2
	pop	{r4, pc}
.LVL312:
.L390:
.LBE37:
	.loc 1 1266 0 discriminator 1
	movs	r3, #250
	b	.L392
.L395:
	.align	2
.L394:
	.word	lwip_netconn_do_connected
	.cfi_endproc
.LFE163:
	.size	lwip_netconn_do_connect, .-lwip_netconn_do_connect
	.section	.text.lwip_netconn_do_disconnect,"ax",%progbits
	.align	1
	.global	lwip_netconn_do_disconnect
	.syntax unified
	.thumb
	.thumb_func
	.fpu softvfp
	.type	lwip_netconn_do_disconnect, %function
lwip_netconn_do_disconnect:
.LFB164:
	.loc 1 1284 0
	.cfi_startproc
	@ args = 0, pretend = 0, frame = 0
	@ frame_needed = 0, uses_anonymous_args = 0
.LVL313:
	.loc 1 1288 0
	ldr	r2, [r0]
	.loc 1 1284 0
	push	{r4, lr}
	.cfi_def_cfa_offset 8
	.cfi_offset 4, -8
	.cfi_offset 14, -4
	.loc 1 1288 0
	ldrb	r3, [r2]	@ zero_extendqisi2
	.loc 1 1284 0
	mov	r4, r0
	.loc 1 1288 0
	and	r3, r3, #240
	cmp	r3, #32
	bne	.L397
	.loc 1 1289 0
	ldr	r0, [r2, #4]
.LVL314:
	bl	udp_disconnect
.LVL315:
	.loc 1 1290 0
	movs	r3, #0
.L404:
	.loc 1 1294 0
	strb	r3, [r4, #4]
	.loc 1 1296 0
	ldr	r3, [r4]
	cbz	r3, .L399
.LBB38:
	.loc 1 1296 0 discriminator 1
	bl	sys_arch_protect
.LVL316:
	ldr	r3, [r4]
	ldrsb	r2, [r3, #8]
	adds	r2, r2, #12
	itt	ge
	ldrbge	r2, [r4, #4]	@ zero_extendqisi2
	strbge	r2, [r3, #8]
	bl	sys_arch_unprotect
.LVL317:
.L399:
.LBE38:
	.loc 1 1296 0 is_stmt 0 discriminator 6
	ldr	r0, [r4]
	.loc 1 1297 0 is_stmt 1 discriminator 6
	pop	{r4, lr}
	.cfi_remember_state
	.cfi_restore 14
	.cfi_restore 4
	.cfi_def_cfa_offset 0
.LVL318:
	.loc 1 1296 0 discriminator 6
	adds	r0, r0, #12
	b	sys_sem_signal
.LVL319:
.L397:
	.cfi_restore_state
	.loc 1 1294 0
	movs	r3, #250
	b	.L404
	.cfi_endproc
.LFE164:
	.size	lwip_netconn_do_disconnect, .-lwip_netconn_do_disconnect
	.section	.text.lwip_netconn_do_listen,"ax",%progbits
	.align	1
	.global	lwip_netconn_do_listen
	.syntax unified
	.thumb
	.thumb_func
	.fpu softvfp
	.type	lwip_netconn_do_listen, %function
lwip_netconn_do_listen:
.LFB165:
	.loc 1 1308 0
	.cfi_startproc
	@ args = 0, pretend = 0, frame = 8
	@ frame_needed = 0, uses_anonymous_args = 0
.LVL320:
	push	{r0, r1, r2, r4, r5, lr}
	.cfi_def_cfa_offset 24
	.cfi_offset 4, -12
	.cfi_offset 5, -8
	.cfi_offset 14, -4
	.loc 1 1311 0
	ldr	r3, [r0]
	.loc 1 1308 0
	mov	r4, r0
	.loc 1 1311 0
	ldrsb	r2, [r3, #8]
	cmn	r2, #12
	bge	.L406
	.loc 1 1312 0
	strb	r2, [r0, #4]
.LVL321:
.L407:
	.loc 1 1380 0
	ldr	r3, [r4]
	cbz	r3, .L416
.LBB39:
	.loc 1 1380 0 discriminator 1
	bl	sys_arch_protect
.LVL322:
	ldr	r3, [r4]
	ldrsb	r2, [r3, #8]
	adds	r2, r2, #12
	itt	ge
	ldrbge	r2, [r4, #4]	@ zero_extendqisi2
	strbge	r2, [r3, #8]
	bl	sys_arch_unprotect
.LVL323:
.L416:
.LBE39:
	.loc 1 1380 0 is_stmt 0 discriminator 6
	ldr	r0, [r4]
	adds	r0, r0, #12
	bl	sys_sem_signal
.LVL324:
	.loc 1 1381 0 is_stmt 1 discriminator 6
	add	sp, sp, #12
	.cfi_remember_state
	.cfi_def_cfa_offset 12
	@ sp needed
	pop	{r4, r5, pc}
.LVL325:
.L406:
	.cfi_restore_state
	.loc 1 1314 0
	movs	r2, #245
	strb	r2, [r0, #4]
	.loc 1 1315 0
	ldr	r0, [r3, #4]
.LVL326:
	cmp	r0, #0
	beq	.L407
	.loc 1 1316 0
	ldrb	r2, [r3]	@ zero_extendqisi2
	and	r2, r2, #240
	cmp	r2, #16
	bne	.L408
	.loc 1 1317 0
	ldrb	r3, [r3, #1]	@ zero_extendqisi2
	cmp	r3, #0
	bne	.L409
.LBB40:
	.loc 1 1319 0
	ldrb	r3, [r0, #20]	@ zero_extendqisi2
	cbz	r3, .L410
	.loc 1 1321 0
	movs	r3, #250
.L427:
.LBE40:
	.loc 1 1376 0
	strb	r3, [r4, #4]
	b	.L407
.L410:
.LVL327:
.LBB42:
.LBB41:
	.loc 1 1342 0
	add	r2, sp, #7
	movs	r1, #255
	bl	tcp_listen_with_backlog_and_err
.LVL328:
	.loc 1 1344 0
	mov	r5, r0
	cbnz	r0, .L411
	.loc 1 1346 0
	ldrb	r3, [sp, #7]	@ zero_extendqisi2
	b	.L427
.L411:
	.loc 1 1349 0
	ldr	r0, [r4]
.LVL329:
	adds	r0, r0, #16
	bl	sys_mbox_valid
.LVL330:
	cbz	r0, .L413
	.loc 1 1351 0
	ldr	r0, [r4]
	adds	r0, r0, #16
	bl	sys_mbox_free
.LVL331:
	.loc 1 1352 0
	ldr	r0, [r4]
	adds	r0, r0, #16
	bl	sys_mbox_set_invalid
.LVL332:
.L413:
	.loc 1 1354 0
	movs	r3, #0
	.loc 1 1355 0
	ldr	r0, [r4]
	.loc 1 1354 0
	strb	r3, [r4, #4]
	.loc 1 1355 0
	adds	r0, r0, #20
	bl	sys_mbox_valid
.LVL333:
	cbnz	r0, .L414
	.loc 1 1356 0
	ldr	r0, [r4]
	movs	r1, #6
	adds	r0, r0, #20
	bl	sys_mbox_new
.LVL334:
	strb	r0, [r4, #4]
.L414:
	.loc 1 1358 0
	ldrsb	r3, [r4, #4]
	cbnz	r3, .L415
	.loc 1 1359 0
	movs	r3, #2
	ldr	r1, [r4]
	.loc 1 1361 0
	mov	r0, r5
	.loc 1 1359 0
	strb	r3, [r1, #1]
	.loc 1 1360 0
	str	r5, [r1, #4]
	.loc 1 1361 0
	bl	tcp_arg
.LVL335:
	.loc 1 1362 0
	ldr	r3, [r4]
	ldr	r1, .L428
	ldr	r0, [r3, #4]
	bl	tcp_accept
.LVL336:
	b	.L407
.L415:
	.loc 1 1365 0
	mov	r0, r5
	bl	tcp_close
.LVL337:
	.loc 1 1366 0
	movs	r2, #0
	ldr	r3, [r4]
	str	r2, [r3, #4]
	b	.L407
.LVL338:
.L409:
.LBE41:
.LBE42:
	.loc 1 1370 0
	cmp	r3, #2
	bne	.L407
	.loc 1 1372 0
	movs	r3, #0
	b	.L427
.L408:
	.loc 1 1376 0
	movs	r3, #240
	b	.L427
.L429:
	.align	2
.L428:
	.word	accept_function
	.cfi_endproc
.LFE165:
	.size	lwip_netconn_do_listen, .-lwip_netconn_do_listen
	.section	.text.lwip_netconn_do_send,"ax",%progbits
	.align	1
	.global	lwip_netconn_do_send
	.syntax unified
	.thumb
	.thumb_func
	.fpu softvfp
	.type	lwip_netconn_do_send, %function
lwip_netconn_do_send:
.LFB166:
	.loc 1 1392 0
	.cfi_startproc
	@ args = 0, pretend = 0, frame = 0
	@ frame_needed = 0, uses_anonymous_args = 0
.LVL339:
	push	{r4, lr}
	.cfi_def_cfa_offset 8
	.cfi_offset 4, -8
	.cfi_offset 14, -4
	.loc 1 1395 0
	ldr	r3, [r0]
	.loc 1 1392 0
	mov	r4, r0
	.loc 1 1395 0
	ldrsb	r2, [r3, #8]
	cmn	r2, #12
	bge	.L431
	.loc 1 1396 0
	strb	r2, [r0, #4]
.LVL340:
.L432:
	.loc 1 1435 0
	ldr	r3, [r4]
	cbz	r3, .L438
.LBB43:
	.loc 1 1435 0 discriminator 1
	bl	sys_arch_protect
.LVL341:
	ldr	r3, [r4]
	ldrsb	r2, [r3, #8]
	adds	r2, r2, #12
	itt	ge
	ldrbge	r2, [r4, #4]	@ zero_extendqisi2
	strbge	r2, [r3, #8]
	bl	sys_arch_unprotect
.LVL342:
.L438:
.LBE43:
	.loc 1 1435 0 is_stmt 0 discriminator 6
	ldr	r0, [r4]
	.loc 1 1436 0 is_stmt 1 discriminator 6
	pop	{r4, lr}
	.cfi_remember_state
	.cfi_restore 14
	.cfi_restore 4
	.cfi_def_cfa_offset 0
.LVL343:
	.loc 1 1435 0 discriminator 6
	adds	r0, r0, #12
	b	sys_sem_signal
.LVL344:
.L431:
	.cfi_restore_state
	.loc 1 1398 0
	movs	r2, #245
	strb	r2, [r0, #4]
	.loc 1 1399 0
	ldr	r0, [r3, #4]
.LVL345:
	cmp	r0, #0
	beq	.L432
	.loc 1 1400 0
	ldrb	r3, [r3]	@ zero_extendqisi2
	and	r3, r3, #240
	cmp	r3, #32
	beq	.L433
	cmp	r3, #64
	bne	.L432
	.loc 1 1403 0
	ldr	r3, [r4, #8]
	adds	r2, r3, #8
	beq	.L435
	.loc 1 1403 0 discriminator 1
	ldr	r1, [r3, #8]
	cbnz	r1, .L436
.L435:
	.loc 1 1404 0
	ldr	r1, [r3]
	bl	raw_send
.LVL346:
.L449:
	.loc 1 1425 0
	strb	r0, [r4, #4]
	b	.L432
.L436:
	.loc 1 1406 0
	ldr	r1, [r3]
	bl	raw_sendto
.LVL347:
	b	.L449
.L433:
	.loc 1 1422 0
	ldr	r1, [r4, #8]
	ldr	r3, [r1, #8]
	cbnz	r3, .L437
	.loc 1 1423 0
	ldr	r1, [r1]
	bl	udp_send
.LVL348:
	b	.L449
.L437:
	.loc 1 1425 0
	ldrh	r3, [r1, #12]
	add	r2, r1, #8
	ldr	r1, [r1]
	bl	udp_sendto
.LVL349:
	b	.L449
	.cfi_endproc
.LFE166:
	.size	lwip_netconn_do_send, .-lwip_netconn_do_send
	.section	.text.lwip_netconn_do_recv,"ax",%progbits
	.align	1
	.global	lwip_netconn_do_recv
	.syntax unified
	.thumb
	.thumb_func
	.fpu softvfp
	.type	lwip_netconn_do_recv, %function
lwip_netconn_do_recv:
.LFB167:
	.loc 1 1447 0
	.cfi_startproc
	@ args = 0, pretend = 0, frame = 0
	@ frame_needed = 0, uses_anonymous_args = 0
.LVL350:
	push	{r3, r4, r5, r6, r7, lr}
	.cfi_def_cfa_offset 24
	.cfi_offset 3, -24
	.cfi_offset 4, -20
	.cfi_offset 5, -16
	.cfi_offset 6, -12
	.cfi_offset 7, -8
	.cfi_offset 14, -4
	.loc 1 1450 0
	movs	r3, #0
	strb	r3, [r0, #4]
	.loc 1 1451 0
	ldr	r3, [r0]
	.loc 1 1447 0
	mov	r4, r0
	.loc 1 1451 0
	ldr	r2, [r3, #4]
	cbnz	r2, .L451
.LVL351:
.L454:
	.loc 1 1461 0
	ldr	r3, [r4]
	cbnz	r3, .L452
.L453:
	.loc 1 1461 0 discriminator 6
	ldr	r0, [r4]
	.loc 1 1462 0 discriminator 6
	pop	{r3, r4, r5, r6, r7, lr}
	.cfi_remember_state
	.cfi_restore 14
	.cfi_restore 7
	.cfi_restore 6
	.cfi_restore 5
	.cfi_restore 4
	.cfi_restore 3
	.cfi_def_cfa_offset 0
.LVL352:
	.loc 1 1461 0 discriminator 6
	adds	r0, r0, #12
	b	sys_sem_signal
.LVL353:
.L451:
	.cfi_restore_state
	.loc 1 1452 0
	ldrb	r3, [r3]	@ zero_extendqisi2
	and	r3, r3, #240
	cmp	r3, #16
	bne	.L454
	movw	r7, #65535
.LBB44:
	.loc 1 1453 0
	ldr	r5, [r0, #8]
.LVL354:
.L455:
	cmp	r5, r7
	mov	r6, r5
	it	cs
	movcs	r6, r7
.LVL355:
.LBB45:
	.loc 1 1456 0
	ldr	r3, [r4]
	uxth	r1, r6
	ldr	r0, [r3, #4]
	bl	tcp_recved
.LVL356:
.LBE45:
	.loc 1 1458 0
	subs	r5, r5, r6
.LVL357:
	bne	.L455
	b	.L454
.LVL358:
.L452:
.LBE44:
.LBB46:
	.loc 1 1461 0 discriminator 1
	bl	sys_arch_protect
.LVL359:
	ldr	r3, [r4]
	ldrsb	r2, [r3, #8]
	adds	r2, r2, #12
	itt	ge
	ldrbge	r2, [r4, #4]	@ zero_extendqisi2
	strbge	r2, [r3, #8]
	bl	sys_arch_unprotect
.LVL360:
	b	.L453
.LBE46:
	.cfi_endproc
.LFE167:
	.size	lwip_netconn_do_recv, .-lwip_netconn_do_recv
	.section	.text.lwip_netconn_do_write,"ax",%progbits
	.align	1
	.global	lwip_netconn_do_write
	.syntax unified
	.thumb
	.thumb_func
	.fpu softvfp
	.type	lwip_netconn_do_write, %function
lwip_netconn_do_write:
.LFB169:
	.loc 1 1652 0
	.cfi_startproc
	@ args = 0, pretend = 0, frame = 0
	@ frame_needed = 0, uses_anonymous_args = 0
.LVL361:
	push	{r4, lr}
	.cfi_def_cfa_offset 8
	.cfi_offset 4, -8
	.cfi_offset 14, -4
	.loc 1 1652 0
	mov	r4, r0
	.loc 1 1655 0
	ldr	r0, [r0]
.LVL362:
	ldrsb	r3, [r0, #8]
	cmn	r3, #12
	bge	.L459
.L465:
	.loc 1 1693 0
	strb	r3, [r4, #4]
.LBB47:
	.loc 1 1697 0
	bl	sys_arch_protect
.LVL363:
	ldr	r3, [r4]
	ldrsb	r2, [r3, #8]
	adds	r2, r2, #12
	itt	ge
	ldrbge	r2, [r4, #4]	@ zero_extendqisi2
	strbge	r2, [r3, #8]
	bl	sys_arch_unprotect
.LVL364:
.LBE47:
	ldr	r0, [r4]
	.loc 1 1698 0
	pop	{r4, lr}
	.cfi_remember_state
	.cfi_restore 14
	.cfi_restore 4
	.cfi_def_cfa_offset 0
.LVL365:
	.loc 1 1697 0
	adds	r0, r0, #12
	b	sys_sem_signal
.LVL366:
.L459:
	.cfi_restore_state
	.loc 1 1658 0
	ldrb	r3, [r0]	@ zero_extendqisi2
	and	r3, r3, #240
	cmp	r3, #16
	bne	.L461
	.loc 1 1660 0
	ldrb	r3, [r0, #1]	@ zero_extendqisi2
	cbz	r3, .L462
	.loc 1 1662 0
	movs	r3, #251
	b	.L465
.L462:
	.loc 1 1663 0
	ldr	r2, [r0, #4]
	cbz	r2, .L463
	.loc 1 1664 0
	movs	r2, #1
	.loc 1 1669 0
	str	r4, [r0, #40]
	.loc 1 1664 0
	strb	r2, [r0, #1]
	.loc 1 1670 0
	str	r3, [r0, #36]
	.loc 1 1698 0
	pop	{r4, lr}
	.cfi_remember_state
	.cfi_restore 14
	.cfi_restore 4
	.cfi_def_cfa_offset 0
.LVL367:
	.loc 1 1680 0
	b	lwip_netconn_do_writemore
.LVL368:
.L463:
	.cfi_restore_state
	.loc 1 1686 0
	movs	r3, #245
	b	.L465
.L461:
	.loc 1 1693 0
	movs	r3, #250
	b	.L465
	.cfi_endproc
.LFE169:
	.size	lwip_netconn_do_write, .-lwip_netconn_do_write
	.section	.text.lwip_netconn_do_getaddr,"ax",%progbits
	.align	1
	.global	lwip_netconn_do_getaddr
	.syntax unified
	.thumb
	.thumb_func
	.fpu softvfp
	.type	lwip_netconn_do_getaddr, %function
lwip_netconn_do_getaddr:
.LFB170:
	.loc 1 1708 0
	.cfi_startproc
	@ args = 0, pretend = 0, frame = 0
	@ frame_needed = 0, uses_anonymous_args = 0
.LVL369:
	push	{r3, r4, r5, lr}
	.cfi_def_cfa_offset 16
	.cfi_offset 3, -16
	.cfi_offset 4, -12
	.cfi_offset 5, -8
	.cfi_offset 14, -4
	.loc 1 1711 0
	ldr	r1, [r0]
	.loc 1 1708 0
	mov	r4, r0
	.loc 1 1711 0
	ldr	r3, [r1, #4]
	cbz	r3, .L467
	.loc 1 1712 0
	ldrb	r2, [r0, #16]	@ zero_extendqisi2
	ldr	r0, [r0, #8]
.LVL370:
	cbz	r2, .L468
	.loc 1 1713 0
	ldr	r5, [r3]
.L488:
	.loc 1 1716 0
	str	r5, [r0]
	.loc 1 1720 0
	movs	r0, #0
	strb	r0, [r4, #4]
	.loc 1 1721 0
	ldrb	r1, [r1]	@ zero_extendqisi2
	and	r1, r1, #240
	cmp	r1, #32
	beq	.L471
	cmp	r1, #64
	beq	.L472
	cmp	r1, #16
	bne	.L470
	.loc 1 1747 0
	cbnz	r2, .L475
	.loc 1 1747 0 is_stmt 0 discriminator 1
	ldrb	r1, [r3, #20]	@ zero_extendqisi2
	cmp	r1, #1
	bls	.L467
.L475:
	.loc 1 1752 0 is_stmt 1
	ldr	r1, [r4, #12]
	cbz	r2, .L476
	.loc 1 1752 0 is_stmt 0 discriminator 1
	ldrh	r3, [r3, #22]
.L477:
	.loc 1 1752 0 discriminator 4
	strh	r3, [r1]	@ movhi
	b	.L470
.L468:
	.loc 1 1716 0 is_stmt 1
	ldr	r5, [r3, #4]
	b	.L488
.L472:
	.loc 1 1724 0
	cbz	r2, .L467
	.loc 1 1725 0
	ldr	r2, [r4, #12]
	ldrb	r3, [r3, #16]	@ zero_extendqisi2
.L489:
	.loc 1 1735 0
	strh	r3, [r2]	@ movhi
	b	.L470
.L467:
	.loc 1 1728 0
	movs	r3, #245
	strb	r3, [r4, #4]
.L470:
.LBB48:
	.loc 1 1763 0
	bl	sys_arch_protect
.LVL371:
	ldr	r3, [r4]
	ldrsb	r2, [r3, #8]
	adds	r2, r2, #12
	itt	ge
	ldrbge	r2, [r4, #4]	@ zero_extendqisi2
	strbge	r2, [r3, #8]
	bl	sys_arch_unprotect
.LVL372:
.LBE48:
	ldr	r0, [r4]
	.loc 1 1764 0
	pop	{r3, r4, r5, lr}
	.cfi_remember_state
	.cfi_restore 14
	.cfi_restore 5
	.cfi_restore 4
	.cfi_restore 3
	.cfi_def_cfa_offset 0
.LVL373:
	.loc 1 1763 0
	adds	r0, r0, #12
	b	sys_sem_signal
.LVL374:
.L471:
	.cfi_restore_state
	.loc 1 1734 0
	cbz	r2, .L474
	.loc 1 1735 0
	ldr	r2, [r4, #12]
	ldrh	r3, [r3, #18]
	b	.L489
.L474:
	.loc 1 1737 0
	ldrb	r2, [r3, #16]	@ zero_extendqisi2
	lsls	r2, r2, #29
	bpl	.L467
	.loc 1 1740 0
	ldr	r2, [r4, #12]
	ldrh	r3, [r3, #20]
	b	.L489
.L476:
	.loc 1 1752 0 discriminator 2
	ldrh	r3, [r3, #24]
	b	.L477
	.cfi_endproc
.LFE170:
	.size	lwip_netconn_do_getaddr, .-lwip_netconn_do_getaddr
	.section	.text.lwip_netconn_do_close,"ax",%progbits
	.align	1
	.global	lwip_netconn_do_close
	.syntax unified
	.thumb
	.thumb_func
	.fpu softvfp
	.type	lwip_netconn_do_close, %function
lwip_netconn_do_close:
.LFB171:
	.loc 1 1775 0
	.cfi_startproc
	@ args = 0, pretend = 0, frame = 0
	@ frame_needed = 0, uses_anonymous_args = 0
.LVL375:
	push	{r4, lr}
	.cfi_def_cfa_offset 8
	.cfi_offset 4, -8
	.cfi_offset 14, -4
	.loc 1 1775 0
	mov	r4, r0
	.loc 1 1779 0
	ldr	r0, [r0]
.LVL376:
	.loc 1 1782 0
	ldr	r3, [r0, #4]
	cbz	r3, .L491
	.loc 1 1782 0 discriminator 1
	ldrb	r3, [r0]	@ zero_extendqisi2
	and	r3, r3, #240
	cmp	r3, #16
	bne	.L491
	.loc 1 1784 0
	ldrb	r2, [r4, #8]	@ zero_extendqisi2
	.loc 1 1779 0
	ldrb	r3, [r0, #1]	@ zero_extendqisi2
	.loc 1 1783 0
	cmp	r2, #3
	beq	.L492
	.loc 1 1784 0
	cmp	r3, #2
	beq	.L491
.L492:
	.loc 1 1786 0
	cmp	r3, #3
	bne	.L493
.L491:
	.loc 1 1788 0
	movs	r3, #245
.L510:
	.loc 1 1812 0
	strb	r3, [r4, #4]
.LVL377:
.LBB49:
	.loc 1 1842 0
	bl	sys_arch_protect
.LVL378:
	ldr	r3, [r4]
	ldrsb	r2, [r3, #8]
	adds	r2, r2, #12
	itt	ge
	ldrbge	r2, [r4, #4]	@ zero_extendqisi2
	strbge	r2, [r3, #8]
	bl	sys_arch_unprotect
.LVL379:
.LBE49:
	ldr	r0, [r4]
	.loc 1 1843 0
	pop	{r4, lr}
	.cfi_remember_state
	.cfi_restore 14
	.cfi_restore 4
	.cfi_def_cfa_offset 0
.LVL380:
	.loc 1 1842 0
	adds	r0, r0, #12
	b	sys_sem_signal
.LVL381:
.L493:
	.cfi_restore_state
	.loc 1 1789 0
	cmp	r3, #1
	bne	.L495
	.loc 1 1812 0
	movs	r3, #251
	b	.L510
.L495:
	.loc 1 1815 0
	lsls	r3, r2, #31
	bpl	.L496
	.loc 1 1817 0
	bl	netconn_drain
.LVL382:
.L496:
	.loc 1 1821 0
	movs	r3, #4
	.loc 1 1819 0
	ldr	r0, [r4]
	.loc 1 1822 0
	str	r4, [r0, #40]
	.loc 1 1821 0
	strb	r3, [r0, #1]
	.loc 1 1843 0
	pop	{r4, lr}
	.cfi_restore 14
	.cfi_restore 4
	.cfi_def_cfa_offset 0
.LVL383:
	.loc 1 1832 0
	b	lwip_netconn_do_close_internal
.LVL384:
	.cfi_endproc
.LFE171:
	.size	lwip_netconn_do_close, .-lwip_netconn_do_close
	.section	.text.lwip_netconn_do_join_leave_group,"ax",%progbits
	.align	1
	.global	lwip_netconn_do_join_leave_group
	.syntax unified
	.thumb
	.thumb_func
	.fpu softvfp
	.type	lwip_netconn_do_join_leave_group, %function
lwip_netconn_do_join_leave_group:
.LFB172:
	.loc 1 1854 0
	.cfi_startproc
	@ args = 0, pretend = 0, frame = 0
	@ frame_needed = 0, uses_anonymous_args = 0
.LVL385:
	push	{r4, lr}
	.cfi_def_cfa_offset 8
	.cfi_offset 4, -8
	.cfi_offset 14, -4
	.loc 1 1857 0
	ldr	r3, [r0]
	.loc 1 1854 0
	mov	r4, r0
	.loc 1 1857 0
	ldrsb	r2, [r3, #8]
	cmn	r2, #12
	bge	.L512
	.loc 1 1858 0
	strb	r2, [r0, #4]
.LVL386:
.L513:
	.loc 1 1896 0
	ldr	r3, [r4]
	cbz	r3, .L517
.LBB50:
	.loc 1 1896 0 discriminator 1
	bl	sys_arch_protect
.LVL387:
	ldr	r3, [r4]
	ldrsb	r2, [r3, #8]
	adds	r2, r2, #12
	itt	ge
	ldrbge	r2, [r4, #4]	@ zero_extendqisi2
	strbge	r2, [r3, #8]
	bl	sys_arch_unprotect
.LVL388:
.L517:
.LBE50:
	.loc 1 1896 0 is_stmt 0 discriminator 6
	ldr	r0, [r4]
	.loc 1 1897 0 is_stmt 1 discriminator 6
	pop	{r4, lr}
	.cfi_remember_state
	.cfi_restore 14
	.cfi_restore 4
	.cfi_def_cfa_offset 0
.LVL389:
	.loc 1 1896 0 discriminator 6
	adds	r0, r0, #12
	b	sys_sem_signal
.LVL390:
.L512:
	.cfi_restore_state
	.loc 1 1860 0
	ldr	r2, [r3, #4]
	cbz	r2, .L514
	.loc 1 1861 0
	ldrb	r3, [r3]	@ zero_extendqisi2
	and	r3, r3, #240
	cmp	r3, #32
	bne	.L515
	.loc 1 1877 0
	ldrb	r3, [r0, #16]	@ zero_extendqisi2
	.loc 1 1878 0
	ldr	r1, [r0, #8]
	ldr	r0, [r0, #12]
.LVL391:
	.loc 1 1877 0
	cbnz	r3, .L516
	.loc 1 1878 0
	bl	igmp_joingroup
.LVL392:
.L522:
	.loc 1 1881 0
	strb	r0, [r4, #4]
	b	.L513
.L516:
	bl	igmp_leavegroup
.LVL393:
	b	.L522
.LVL394:
.L515:
	.loc 1 1889 0
	movs	r3, #250
.L523:
	.loc 1 1893 0
	strb	r3, [r4, #4]
	b	.L513
.L514:
	movs	r3, #245
	b	.L523
	.cfi_endproc
.LFE172:
	.size	lwip_netconn_do_join_leave_group, .-lwip_netconn_do_join_leave_group
	.section	.text.lwip_netconn_do_gethostbyname,"ax",%progbits
	.align	1
	.global	lwip_netconn_do_gethostbyname
	.syntax unified
	.thumb
	.thumb_func
	.fpu softvfp
	.type	lwip_netconn_do_gethostbyname, %function
lwip_netconn_do_gethostbyname:
.LFB174:
	.loc 1 1934 0
	.cfi_startproc
	@ args = 0, pretend = 0, frame = 0
	@ frame_needed = 0, uses_anonymous_args = 0
.LVL395:
	.loc 1 1943 0
	movs	r3, #0
	.loc 1 1934 0
	push	{r0, r1, r2, r4, r5, lr}
	.cfi_def_cfa_offset 24
	.cfi_offset 4, -12
	.cfi_offset 5, -8
	.cfi_offset 14, -4
	.loc 1 1943 0
	ldr	r5, [r0, #12]
	str	r3, [sp]
	.loc 1 1934 0
	mov	r4, r0
	.loc 1 1943 0
	mov	r3, r0
	ldm	r0, {r0, r1}
.LVL396:
	ldr	r2, .L526
	bl	dns_gethostbyname_addrtype
.LVL397:
	strb	r0, [r5]
	.loc 1 1945 0
	ldr	r3, [r4, #12]
	ldrsb	r3, [r3]
	adds	r3, r3, #5
	beq	.L524
	.loc 1 1948 0
	ldr	r0, [r4, #8]
	.loc 1 1950 0
	add	sp, sp, #12
	.cfi_remember_state
	.cfi_def_cfa_offset 12
	@ sp needed
	pop	{r4, r5, lr}
	.cfi_restore 14
	.cfi_restore 5
	.cfi_restore 4
	.cfi_def_cfa_offset 0
.LVL398:
	.loc 1 1948 0
	b	sys_sem_signal
.LVL399:
.L524:
	.cfi_restore_state
	.loc 1 1950 0
	add	sp, sp, #12
	.cfi_def_cfa_offset 12
	@ sp needed
	pop	{r4, r5, pc}
.LVL400:
.L527:
	.align	2
.L526:
	.word	lwip_netconn_do_dns_found
	.cfi_endproc
.LFE174:
	.size	lwip_netconn_do_gethostbyname, .-lwip_netconn_do_gethostbyname
	.comm	netconn_aborted,1,1
	.text
.Letext0:
	.file 2 "/home/ls/8720cf/sdk-ameba-v7.1d/tools/arm-none-eabi-gcc/asdk/linux/newlib/arm-none-eabi/include/machine/_default_types.h"
	.file 3 "/home/ls/8720cf/sdk-ameba-v7.1d/tools/arm-none-eabi-gcc/asdk/linux/newlib/lib/gcc/arm-none-eabi/6.5.0/include/stddef.h"
	.file 4 "/home/ls/8720cf/sdk-ameba-v7.1d/tools/arm-none-eabi-gcc/asdk/linux/newlib/arm-none-eabi/include/sys/lock.h"
	.file 5 "/home/ls/8720cf/sdk-ameba-v7.1d/tools/arm-none-eabi-gcc/asdk/linux/newlib/arm-none-eabi/include/sys/_types.h"
	.file 6 "/home/ls/8720cf/sdk-ameba-v7.1d/tools/arm-none-eabi-gcc/asdk/linux/newlib/arm-none-eabi/include/sys/reent.h"
	.file 7 "<built-in>"
	.file 8 "/home/ls/8720cf/sdk-ameba-v7.1d/tools/arm-none-eabi-gcc/asdk/linux/newlib/arm-none-eabi/include/sys/_stdint.h"
	.file 9 "/home/ls/8720cf/sdk-ameba-v7.1d/tools/arm-none-eabi-gcc/asdk/linux/newlib/arm-none-eabi/include/time.h"
	.file 10 "/home/ls/8720cf/sdk-ameba-v7.1d/tools/arm-none-eabi-gcc/asdk/linux/newlib/lib/gcc/arm-none-eabi/6.5.0/include/stdarg.h"
	.file 11 "/home/ls/8720cf/sdk-ameba-v7.1d/tools/arm-none-eabi-gcc/asdk/linux/newlib/arm-none-eabi/include/stdio.h"
	.file 12 "/home/ls/8720cf/sdk-ameba-v7.1d/tools/arm-none-eabi-gcc/asdk/linux/newlib/arm-none-eabi/include/stdlib.h"
	.file 13 "../../../component/soc/realtek/8710c/cmsis/rtl8710c/include/basic_types.h"
	.file 14 "../../../component/common/network/lwip/lwip_v2.0.2/port/realtek/arch/cc.h"
	.file 15 "../../../component/common/network/lwip/lwip_v2.0.2/src/include/lwip/ip4_addr.h"
	.file 16 "../../../component/common/network/lwip/lwip_v2.0.2/src/include/lwip/ip_addr.h"
	.file 17 "../../../component/common/network/lwip/lwip_v2.0.2/src/include/lwip/err.h"
	.file 18 "../inc/FreeRTOSConfig.h"
	.file 19 "../../../component/soc/realtek/8710c/app/rtl_printf/include/log_buf.h"
	.file 20 "../../../component/soc/realtek/8710c/app/stdio_port/stdio_port.h"
	.file 21 "../../../component/soc/realtek/8710c/app/rtl_printf/include/printf_entry.h"
	.file 22 "../../../component/soc/realtek/8710c/app/rtl_printf/include/rt_printf.h"
	.file 23 "../../../component/soc/realtek/8710c/misc/utilities/include/utility.h"
	.file 24 "../../../component/os/freertos/freertos_v10.0.1/Source/include/queue.h"
	.file 25 "../../../component/os/freertos/freertos_v10.0.1/Source/include/semphr.h"
	.file 26 "../../../component/common/network/lwip/lwip_v2.0.2/port/realtek/arch/sys_arch.h"
	.file 27 "../../../component/common/network/lwip/lwip_v2.0.2/src/include/lwip/pbuf.h"
	.file 28 "../../../component/common/network/lwip/lwip_v2.0.2/src/include/lwip/memp.h"
	.file 29 "../../../component/common/network/lwip/lwip_v2.0.2/src/include/lwip/priv/memp_priv.h"
	.file 30 "../../../component/common/network/lwip/lwip_v2.0.2/src/include/lwip/netif.h"
	.file 31 "../../../component/common/network/lwip/lwip_v2.0.2/src/include/lwip/netbuf.h"
	.file 32 "../../../component/common/network/lwip/lwip_v2.0.2/src/include/lwip/api.h"
	.file 33 "../../../component/common/network/lwip/lwip_v2.0.2/src/include/lwip/ip.h"
	.file 34 "../../../component/common/network/lwip/lwip_v2.0.2/src/include/lwip/tcp.h"
	.file 35 "../../../component/common/network/lwip/lwip_v2.0.2/src/include/lwip/udp.h"
	.file 36 "../../../component/common/network/lwip/lwip_v2.0.2/src/include/lwip/raw.h"
	.file 37 "../../../component/common/network/lwip/lwip_v2.0.2/src/include/lwip/priv/api_msg.h"
	.file 38 "../../../component/common/network/lwip/lwip_v2.0.2/src/include/lwip/timeouts.h"
	.file 39 "../../../component/common/network/lwip/lwip_v2.0.2/src/include/lwip/prot/ip4.h"
	.file 40 "../../../component/common/network/lwip/lwip_v2.0.2/src/include/lwip/dns.h"
	.file 41 "../../../component/common/network/lwip/lwip_v2.0.2/src/include/lwip/sys.h"
	.file 42 "../../../component/common/network/lwip/lwip_v2.0.2/src/include/lwip/igmp.h"