	.arch armv8-m.main
	.arch_extension dsp
	.eabi_attribute 20, 1
	.eabi_attribute 21, 1
	.eabi_attribute 23, 3
	.eabi_attribute 24, 1
	.eabi_attribute 25, 1
	.eabi_attribute 26, 1
	.eabi_attribute 30, 4
	.eabi_attribute 34, 1
	.eabi_attribute 18, 4
	.file	"app_start.c"
	.text
.Ltext0:
	.cfi_sections	.debug_frame
	.section	.text.startup.main,"ax",%progbits
	.align	1
	.weak	main
	.syntax unified
	.thumb
	.thumb_func
	.fpu softvfp
	.type	main, %function
main:
.LFB284:
	.file 1 "../../../component/soc/realtek/8710c/cmsis/rtl8710c/source/ram_s/app_start.c"
	.loc 1 47 0
	.cfi_startproc
	@ args = 0, pretend = 0, frame = 0
	@ frame_needed = 0, uses_anonymous_args = 0
	push	{r3, lr}
	.cfi_def_cfa_offset 8
	.cfi_offset 3, -8
	.cfi_offset 14, -4
.L2:
	.loc 1 49 0 discriminator 1
	bl	shell_task
.LVL0:
	b	.L2
	.cfi_endproc
.LFE284:
	.size	main, .-main
	.section	.text.__iar_data_init3,"ax",%progbits
	.align	1
	.weak	__iar_data_init3
	.syntax unified
	.thumb
	.thumb_func
	.fpu softvfp
	.type	__iar_data_init3, %function
__iar_data_init3:
.LFB289:
	.cfi_startproc
	@ args = 0, pretend = 0, frame = 0
	@ frame_needed = 0, uses_anonymous_args = 0
	@ link register save eliminated.
	bx	lr
	.cfi_endproc
.LFE289:
	.size	__iar_data_init3, .-__iar_data_init3
	.section	.text.__iar_zero_init3,"ax",%progbits
	.align	1
	.weak	__iar_zero_init3
	.syntax unified
	.thumb
	.thumb_func
	.fpu softvfp
	.type	__iar_zero_init3, %function
__iar_zero_init3:
.LFB286:
	.loc 1 61 0
	.cfi_startproc
	@ args = 0, pretend = 0, frame = 0
	@ frame_needed = 0, uses_anonymous_args = 0
	@ link register save eliminated.
	bx	lr
	.cfi_endproc
.LFE286:
	.size	__iar_zero_init3, .-__iar_zero_init3
	.section	.text.app_start,"ax",%progbits
	.align	1
	.global	app_start
	.syntax unified
	.thumb
	.thumb_func
	.fpu softvfp
	.type	app_start, %function
app_start:
.LFB287:
	.loc 1 143 0
	.cfi_startproc
	@ args = 0, pretend = 0, frame = 0
	@ frame_needed = 0, uses_anonymous_args = 0
	.loc 1 143 0
	push	{r3, lr}
	.cfi_def_cfa_offset 8
	.cfi_offset 3, -8
	.cfi_offset 14, -4
	.loc 1 144 0
	ldr	r3, .L6
	ldr	r2, .L6+4
	ldr	r3, [r3, #28]
	ldr	r1, .L6+8
	ldr	r0, .L6+12
	blx	r3
.LVL1:
	.loc 1 160 0
	bl	shell_cmd_init
.LVL2:
	.loc 1 161 0
	bl	main
.LVL3:
	pop	{r3, pc}
.L7:
	.align	2
.L6:
	.word	stdio_printf_stubs
	.word	.LC0
	.word	.LC1
	.word	.LC2
	.cfi_endproc
.LFE287:
	.size	app_start, .-app_start
	.section	.rodata.app_start.str1.1,"aMS",%progbits,1
.LC0:
	.ascii	"Oct 14 2022\000"
.LC1:
	.ascii	"17:28:46\000"
.LC2:
	.ascii	"Build @ %s, %s\015\012\000"
	.text
.Letext0:
	.file 2 "/home/ls/8720cf/sdk-ameba-v7.1d/tools/arm-none-eabi-gcc/asdk/linux/newlib/arm-none-eabi/include/machine/_default_types.h"
	.file 3 "/home/ls/8720cf/sdk-ameba-v7.1d/tools/arm-none-eabi-gcc/asdk/linux/newlib/lib/gcc/arm-none-eabi/6.5.0/include/stddef.h"
	.file 4 "/home/ls/8720cf/sdk-ameba-v7.1d/tools/arm-none-eabi-gcc/asdk/linux/newlib/arm-none-eabi/include/sys/lock.h"
	.file 5 "/home/ls/8720cf/sdk-ameba-v7.1d/tools/arm-none-eabi-gcc/asdk/linux/newlib/arm-none-eabi/include/sys/_types.h"
	.file 6 "/home/ls/8720cf/sdk-ameba-v7.1d/tools/arm-none-eabi-gcc/asdk/linux/newlib/arm-none-eabi/include/sys/reent.h"
	.file 7 "<built-in>"
	.file 8 "/home/ls/8720cf/sdk-ameba-v7.1d/tools/arm-none-eabi-gcc/asdk/linux/newlib/arm-none-eabi/include/sys/_stdint.h"
	.file 9 "/home/ls/8720cf/sdk-ameba-v7.1d/tools/arm-none-eabi-gcc/asdk/linux/newlib/arm-none-eabi/include/time.h"
	.file 10 "../../../component/soc/realtek/8710c/cmsis/rtl8710c/include/basic_types.h"
	.file 11 "../../../component/soc/realtek/8710c/cmsis/cmsis-core/include/core_armv8mml.h"
	.file 12 "../../../component/soc/realtek/8710c/cmsis/rtl8710c/include/system_rtl8710c.h"
	.file 13 "/home/ls/8720cf/sdk-ameba-v7.1d/tools/arm-none-eabi-gcc/asdk/linux/newlib/lib/gcc/arm-none-eabi/6.5.0/include/stdarg.h"
	.file 14 "../../../component/soc/realtek/8710c/app/rtl_printf/include/log_buf.h"
	.file 15 "../../../component/soc/realtek/8710c/app/stdio_port/stdio_port.h"
	.file 16 "../../../component/soc/realtek/8710c/app/rtl_printf/include/printf_entry.h"
	.file 17 "../../../component/soc/realtek/8710c/app/rtl_printf/include/rt_printf.h"
	.file 18 "../../../component/soc/realtek/8710c/misc/utilities/include/utility.h"