	.arch armv8-m.main
	.arch_extension dsp
	.eabi_attribute 20, 1
	.eabi_attribute 21, 1
	.eabi_attribute 23, 3
	.eabi_attribute 24, 1
	.eabi_attribute 25, 1
	.eabi_attribute 26, 1
	.eabi_attribute 30, 4
	.eabi_attribute 34, 1
	.eabi_attribute 18, 4
	.file	"atcmd_lwip.c"
	.text
.Ltext0:
	.cfi_sections	.debug_frame
	.section	.text.socket_close,"ax",%progbits
	.align	1
	.global	socket_close
	.syntax unified
	.thumb
	.thumb_func
	.fpu softvfp
	.type	socket_close, %function
socket_close:
.LFB167:
	.file 1 "../../../component/common/api/at_cmd/atcmd_lwip.c"
	.loc 1 3102 0
	.cfi_startproc
	@ args = 0, pretend = 0, frame = 0
	@ frame_needed = 0, uses_anonymous_args = 0
	push	{r3, r4, r5, lr}
	.cfi_def_cfa_offset 16
	.cfi_offset 3, -16
	.cfi_offset 4, -12
	.cfi_offset 5, -8
	.cfi_offset 14, -4
	.loc 1 3103 0
	ldr	r5, .L10
	.loc 1 3104 0
	ldr	r4, .L10+4
	.loc 1 3103 0
	ldr	r0, [r5]
	bl	lwip_close
.LVL0:
	.loc 1 3104 0
	ldr	r0, [r4]
	cbz	r0, .L2
	.loc 1 3106 0
	bl	vTaskDelete
.LVL1:
	.loc 1 3107 0
	movs	r3, #0
	str	r3, [r4]
.L2:
	.loc 1 3109 0
	ldr	r4, .L10+8
	ldr	r0, [r4]
	cbz	r0, .L3
	.loc 1 3111 0
	bl	vTaskDelete
.LVL2:
	.loc 1 3112 0
	movs	r3, #0
	str	r3, [r4]
.L3:
	.loc 1 3114 0
	movs	r4, #0
	ldr	r3, .L10+12
.LBB4:
.LBB5:
	.loc 1 3093 0
	ldr	r2, .L10+16
.LBE5:
.LBE4:
	.loc 1 3114 0
	str	r4, [r3]
.LBB8:
.LBB6:
	.loc 1 3089 0
	ldr	r3, .L10+20
	.loc 1 3095 0
	mov	r1, r4
	.loc 1 3089 0
	str	r4, [r3]
	.loc 1 3090 0
	ldr	r3, .L10+24
	.loc 1 3095 0
	ldr	r0, .L10+28
	.loc 1 3090 0
	str	r4, [r3]
	.loc 1 3091 0
	ldr	r3, .L10+32
	str	r4, [r3]
	.loc 1 3092 0
	mov	r3, #-1
	str	r3, [r5]
	.loc 1 3093 0
	str	r3, [r2]
	.loc 1 3094 0
	ldr	r3, .L10+36
	.loc 1 3095 0
	movs	r2, #16
	.loc 1 3094 0
	str	r4, [r3]
	.loc 1 3095 0
	bl	rtw_memset
.LVL3:
	.loc 1 3096 0
	mov	r1, r4
	movs	r2, #4
	ldr	r0, .L10+40
	bl	rtw_memset
.LVL4:
	.loc 1 3097 0
	mov	r1, r4
.LBE6:
.LBE8:
	.loc 1 3116 0
	pop	{r3, r4, r5, lr}
	.cfi_restore 14
	.cfi_restore 5
	.cfi_restore 4
	.cfi_restore 3
	.cfi_def_cfa_offset 0
.LBB9:
.LBB7:
	.loc 1 3097 0
	movs	r2, #16
	ldr	r0, .L10+44
	b	rtw_memset
.LVL5:
.L11:
	.align	2
.L10:
	.word	.LANCHOR0
	.word	.LANCHOR1
	.word	.LANCHOR2
	.word	.LANCHOR3
	.word	.LANCHOR7
	.word	.LANCHOR4
	.word	.LANCHOR5
	.word	.LANCHOR9
	.word	.LANCHOR6
	.word	.LANCHOR8
	.word	.LANCHOR10
	.word	.LANCHOR11
.LBE7:
.LBE9:
	.cfi_endproc
.LFE167:
	.size	socket_close, .-socket_close
	.section	.text.server_start_task,"ax",%progbits
	.align	1
	.syntax unified
	.thumb
	.thumb_func
	.fpu softvfp
	.type	server_start_task, %function
server_start_task:
.LFB171:
	.loc 1 3923 0
	.cfi_startproc
	@ args = 0, pretend = 0, frame = 40
	@ frame_needed = 0, uses_anonymous_args = 0
.LVL6:
	push	{r4, r5, r6, r7, r8, r9, lr}
	.cfi_def_cfa_offset 28
	.cfi_offset 4, -28
	.cfi_offset 5, -24
	.cfi_offset 6, -20
	.cfi_offset 7, -16
	.cfi_offset 8, -12
	.cfi_offset 9, -8
	.cfi_offset 14, -4
	.loc 1 3933 0
	ldr	r5, .L75
	.loc 1 3923 0
	sub	sp, sp, #52
	.cfi_def_cfa_offset 80
	.loc 1 3924 0
	mov	r0, #1000
.LVL7:
	bl	vTaskDelay
.LVL8:
	.loc 1 3933 0
	ldr	r6, [r5]
	cbnz	r6, .L13
	.loc 1 3934 0
	ldr	r0, .L75+4
	bl	__wrap_printf
.LVL9:
	.loc 1 3935 0
	ldr	r3, .L75+8
	.loc 1 3936 0
	mov	r0, r6
	.loc 1 3935 0
	str	r6, [r3]
	.loc 1 3936 0
	bl	vTaskDelete
.LVL10:
.L33:
.L14:
	.loc 1 3943 0
	movs	r0, #0
	ldr	r3, .L75+8
	str	r0, [r3]
	.loc 1 3945 0
	bl	vTaskDelete
.LVL11:
	.loc 1 3946 0
	add	sp, sp, #52
	.cfi_remember_state
	.cfi_def_cfa_offset 28
	@ sp needed
	pop	{r4, r5, r6, r7, r8, r9, pc}
.L13:
	.cfi_restore_state
.LBB13:
	.loc 1 3939 0
	ldr	r0, .L75+12
	bl	LwIP_GetIP
.LVL12:
	.loc 1 3940 0
	ldr	r6, [r5]
	ldrb	r3, [r0, #2]	@ zero_extendqisi2
	ldrb	r1, [r0]	@ zero_extendqisi2
	ldrb	r2, [r0, #1]	@ zero_extendqisi2
	str	r6, [sp, #4]
	ldrb	r0, [r0, #3]	@ zero_extendqisi2
.LVL13:
	str	r0, [sp]
	ldr	r0, .L75+16
	bl	__wrap_printf
.LVL14:
.LBB14:
.LBB15:
	.loc 1 3151 0
	movs	r1, #1
	.loc 1 3149 0
	ldr	r3, .L75+20
	.loc 1 3150 0
	ldr	r7, [r5]
	.loc 1 3149 0
	ldr	r6, [r3]
.LVL15:
	.loc 1 3151 0
	str	r1, [sp, #12]
	.loc 1 3173 0
	cmp	r6, r1
	ldr	r5, .L75+24
	bne	.L15
	.loc 1 3174 0
	movs	r2, #0
	movs	r1, #2
.L73:
	.loc 1 3176 0
	movs	r0, #2
	bl	lwip_socket
.LVL16:
	mov	r4, r0
.LVL17:
.L16:
	.loc 1 3180 0
	adds	r3, r4, #1
	bne	.L20
	.loc 1 3181 0
	ldr	r3, [r5]
	lsls	r7, r3, #24
.LVL18:
	bpl	.L21
	ldr	r3, .L75+28
	ldrb	r3, [r3]	@ zero_extendqisi2
	cmp	r3, #1
	bls	.L21
	ldr	r0, .L75+32
	bl	__wrap_printf
.LVL19:
	ldr	r0, .L75+36
	bl	__wrap_printf
.LVL20:
.L21:
	.loc 1 3182 0
	movs	r4, #5
.LVL21:
	b	.L22
.LVL22:
.L15:
	.loc 1 3175 0
	cbnz	r6, .L17
	.loc 1 3176 0
	mov	r2, r6
	b	.L73
.L17:
	.loc 1 3178 0
	ldr	r3, [r5]
	lsls	r2, r3, #24
	bpl	.L19
	ldr	r3, .L75+28
	ldrb	r3, [r3]	@ zero_extendqisi2
	cmp	r3, #1
	bls	.L19
	mov	r1, r6
	ldr	r0, .L75+40
	bl	__wrap_printf
.LVL23:
	ldr	r0, .L75+36
	bl	__wrap_printf
.LVL24:
	b	.L16
.L23:
	.loc 1 3193 0
	movs	r2, #16
	movs	r1, #0
	add	r0, sp, r2
	bl	rtw_memset
.LVL25:
	.loc 1 3194 0
	movs	r3, #2
	.loc 1 3195 0
	movs	r0, #0
	.loc 1 3194 0
	strb	r3, [sp, #17]
	.loc 1 3195 0
	bl	lwip_htonl
.LVL26:
	str	r0, [sp, #20]
	.loc 1 3196 0
	uxth	r0, r7
	bl	lwip_htons
.LVL27:
	.loc 1 3198 0
	movs	r2, #16
	.loc 1 3196 0
	strh	r0, [sp, #18]	@ movhi
	.loc 1 3198 0
	add	r1, sp, r2
	mov	r0, r4
	bl	lwip_bind
.LVL28:
	cmp	r0, #0
	bge	.L25
	.loc 1 3199 0
	ldr	r3, [r5]
	lsls	r5, r3, #24
	bpl	.L26
	ldr	r3, .L75+28
	ldrb	r3, [r3]	@ zero_extendqisi2
	cmp	r3, #1
	bls	.L26
	ldr	r0, .L75+44
	bl	__wrap_printf
.LVL29:
	ldr	r0, .L75+36
	bl	__wrap_printf
.LVL30:
.L26:
	.loc 1 3200 0
	mov	r0, r4
	bl	lwip_close
.LVL31:
	.loc 1 3201 0
	movs	r4, #7
	b	.L22
.LVL32:
.L25:
	.loc 1 3220 0
	movs	r2, #16
	.loc 1 3219 0
	ldr	r3, .L75+48
	.loc 1 3220 0
	add	r1, sp, r2
	ldr	r0, .L75+52
	.loc 1 3219 0
	str	r4, [r3]
	.loc 1 3220 0
	bl	rtw_memcpy
.LVL33:
	.loc 1 3405 0
	cmp	r6, #0
	bne	.L27
	.loc 1 3409 0
	movs	r1, #5
	mov	r0, r4
	bl	lwip_listen
.LVL34:
	cmp	r0, #0
	.loc 1 3410 0
	ldr	r3, [r5]
	.loc 1 3409 0
	bge	.L28
	.loc 1 3410 0
	lsls	r4, r3, #24
	bpl	.L36
	ldr	r3, .L75+28
	ldrb	r3, [r3]	@ zero_extendqisi2
	cmp	r3, #1
	bls	.L36
	ldr	r0, .L75+56
	bl	__wrap_printf
.LVL35:
	ldr	r0, .L75+36
	bl	__wrap_printf
.LVL36:
.L36:
	.loc 1 3411 0
	movs	r4, #8
	b	.L22
.L28:
	.loc 1 3437 0
	lsls	r0, r3, #24
	bpl	.L29
	ldr	r3, .L75+28
	ldrb	r3, [r3]	@ zero_extendqisi2
	cbz	r3, .L29
	ldr	r0, .L75+60
	bl	__wrap_printf
.LVL37:
	ldr	r0, .L75+36
	bl	__wrap_printf
.LVL38:
.L29:
	.loc 1 3438 0
	movs	r3, #16
	.loc 1 3507 0
	ldr	r8, .L75+96
	.loc 1 3508 0
	ldr	r7, .L75+64
.LVL39:
	.loc 1 3509 0
	ldr	r9, .L75+100
	.loc 1 3438 0
	str	r3, [sp, #8]
.LVL40:
.L30:
	.loc 1 3443 0
	add	r2, sp, #8
	add	r1, sp, #32
	mov	r0, r4
	bl	lwip_accept
.LVL41:
	cmp	r0, #0
	bge	.L31
	.loc 1 3453 0
	ldr	r3, [r5]
	lsls	r1, r3, #24
	bpl	.L38
	ldr	r3, .L75+28
	ldrb	r3, [r3]	@ zero_extendqisi2
	cmp	r3, #1
	bls	.L38
	ldr	r0, .L75+68
.LVL42:
	bl	__wrap_printf
.LVL43:
	ldr	r0, .L75+36
	bl	__wrap_printf
.LVL44:
.L38:
	.loc 1 3457 0
	movs	r4, #10
	b	.L22
.LVL45:
.L31:
	.loc 1 3507 0
	str	r0, [r8]
	.loc 1 3508 0
	movs	r2, #16
	add	r1, sp, #32
	ldr	r0, .L75+64
.LVL46:
	bl	rtw_memcpy
.LVL47:
	.loc 1 3509 0
	ldr	r3, [sp, #8]
	str	r3, [r9]
	.loc 1 3510 0
	ldr	r3, [r5]
	lsls	r2, r3, #24
	bpl	.L30
	ldr	r3, .L75+28
	ldrb	r3, [r3]	@ zero_extendqisi2
	cmp	r3, #0
	beq	.L30
	ldrh	r0, [r7, #2]
	bl	lwip_htons
.LVL48:
	mov	r6, r0
	ldr	r0, .L75+72
	bl	ip4addr_ntoa
.LVL49:
	mov	r1, r6
	mov	r2, r0
	ldr	r0, .L75+76
	bl	__wrap_printf
.LVL50:
	ldr	r0, .L75+36
	bl	__wrap_printf
.LVL51:
	b	.L30
.LVL52:
.L27:
	.loc 1 3552 0
	ldr	r3, [r5]
	lsls	r3, r3, #24
	bpl	.L14
	ldr	r3, .L75+28
	ldrb	r3, [r3]	@ zero_extendqisi2
	cmp	r3, #0
	beq	.L14
	ldr	r0, .L75+80
	bl	__wrap_printf
.LVL53:
	ldr	r0, .L75+36
.LVL54:
.L74:
	.loc 1 3574 0
	bl	__wrap_printf
.LVL55:
	b	.L14
.LVL56:
.L19:
	.loc 1 3180 0
	movs	r4, #0
.L20:
	.loc 1 3186 0
	movs	r2, #4
	add	r3, sp, #12
	str	r2, [sp]
	movw	r1, #4095
	mov	r0, r4
	bl	lwip_setsockopt
.LVL57:
	cmp	r0, #0
	bge	.L23
	.loc 1 3187 0
	ldr	r3, [r5]
	lsls	r6, r3, #24
.LVL58:
	bpl	.L24
	ldr	r3, .L75+28
	ldrb	r3, [r3]	@ zero_extendqisi2
	cmp	r3, #1
	bls	.L24
	ldr	r0, .L75+84
	bl	__wrap_printf
.LVL59:
	ldr	r0, .L75+36
	bl	__wrap_printf
.LVL60:
.L24:
	.loc 1 3188 0
	mov	r0, r4
	bl	lwip_close
.LVL61:
	.loc 1 3189 0
	movs	r4, #6
.LVL62:
.L22:
	.loc 1 3567 0
	bl	socket_close
.LVL63:
	.loc 1 3573 0
	mov	r1, r4
	ldr	r0, .L75+88
	bl	__wrap_printf
.LVL64:
	.loc 1 3574 0
	ldr	r0, .L75+92
	b	.L74
.L76:
	.align	2
.L75:
	.word	.LANCHOR5
	.word	.LC0
	.word	.LANCHOR1
	.word	xnetif
	.word	.LC1
	.word	.LANCHOR4
	.word	gDbgFlag
	.word	gDbgLevel
	.word	.LC4
	.word	.LC3
	.word	.LC2
	.word	.LC6
	.word	.LANCHOR0
	.word	.LANCHOR11
	.word	.LC7
	.word	.LC8
	.word	.LANCHOR12
	.word	.LC9
	.word	.LANCHOR12+4
	.word	.LC10
	.word	.LC11
	.word	.LC5
	.word	.LC12
	.word	.LC13
	.word	.LANCHOR7
	.word	.LANCHOR10
.LBE15:
.LBE14:
.LBE13:
	.cfi_endproc
.LFE171:
	.size	server_start_task, .-server_start_task
	.section	.text.client_start_task,"ax",%progbits
	.align	1
	.syntax unified
	.thumb
	.thumb_func
	.fpu softvfp
	.type	client_start_task, %function
client_start_task:
.LFB170:
	.loc 1 3893 0
	.cfi_startproc
	@ args = 0, pretend = 0, frame = 32
	@ frame_needed = 0, uses_anonymous_args = 0
.LVL65:
	push	{r4, r5, r6, r7, r8, r9, lr}
	.cfi_def_cfa_offset 28
	.cfi_offset 4, -28
	.cfi_offset 5, -24
	.cfi_offset 6, -20
	.cfi_offset 7, -16
	.cfi_offset 8, -12
	.cfi_offset 9, -8
	.cfi_offset 14, -4
	.loc 1 3903 0
	ldr	r8, .L127+72
	.loc 1 3893 0
	sub	sp, sp, #36
	.cfi_def_cfa_offset 64
	.loc 1 3894 0
	mov	r0, #1000
.LVL66:
	bl	vTaskDelay
.LVL67:
	.loc 1 3903 0
	ldrb	r5, [r8]	@ zero_extendqisi2
	ldr	r7, .L127
	cbnz	r5, .L78
	.loc 1 3904 0
	ldr	r0, .L127+4
.L125:
	.loc 1 3909 0
	bl	__wrap_printf
.LVL68:
	.loc 1 3911 0
	mov	r0, r5
	.loc 1 3910 0
	str	r5, [r7]
	.loc 1 3911 0
	bl	vTaskDelete
.LVL69:
.L93:
.L79:
	.loc 1 3917 0
	movs	r0, #0
	str	r0, [r7]
	.loc 1 3919 0
	bl	vTaskDelete
.LVL70:
	.loc 1 3920 0
	add	sp, sp, #36
	.cfi_remember_state
	.cfi_def_cfa_offset 28
	@ sp needed
	pop	{r4, r5, r6, r7, r8, r9, pc}
.L78:
	.cfi_restore_state
	.loc 1 3908 0
	ldr	r9, .L127+76
	ldr	r5, [r9]
	cbnz	r5, .L80
	.loc 1 3909 0
	ldr	r0, .L127+8
	b	.L125
.L80:
	.loc 1 3914 0
	mov	r2, r5
	mov	r1, r8
	ldr	r0, .L127+12
	bl	__wrap_printf
.LVL71:
.LBB18:
.LBB19:
	.loc 1 3615 0
	ldr	r3, .L127+16
	.loc 1 3617 0
	movs	r2, #16
	.loc 1 3615 0
	ldr	r6, [r3]
.LVL72:
	.loc 1 3617 0
	mov	r1, r8
	mov	r0, sp
	.loc 1 3616 0
	ldr	r9, [r9]
.LVL73:
	.loc 1 3617 0
	bl	rtw_memcpy
.LVL74:
	.loc 1 3639 0
	cmp	r6, #1
	ldr	r5, .L127+20
	bne	.L81
	.loc 1 3640 0
	movs	r2, #0
	movs	r1, #2
.L123:
	.loc 1 3642 0
	movs	r0, #2
	bl	lwip_socket
.LVL75:
	mov	r4, r0
.LVL76:
.L82:
	.loc 1 3645 0
	adds	r3, r4, #1
	bne	.L86
	.loc 1 3646 0
	ldr	r3, [r5]
	lsls	r4, r3, #24
.LVL77:
	bpl	.L87
	ldr	r3, .L127+24
	ldrb	r3, [r3]	@ zero_extendqisi2
	cmp	r3, #1
	bls	.L87
	ldr	r0, .L127+28
	bl	__wrap_printf
.LVL78:
	ldr	r0, .L127+32
	bl	__wrap_printf
.LVL79:
.L87:
	.loc 1 3647 0
	movs	r4, #7
.L88:
.LVL80:
	.loc 1 3877 0
	bl	socket_close
.LVL81:
	.loc 1 3883 0
	mov	r1, r4
	ldr	r0, .L127+36
	bl	__wrap_printf
.LVL82:
	.loc 1 3884 0
	ldr	r0, .L127+40
	b	.L124
.LVL83:
.L81:
	.loc 1 3641 0
	cbnz	r6, .L83
	.loc 1 3642 0
	mov	r2, r6
	movs	r1, #1
	b	.L123
.L83:
	.loc 1 3644 0
	ldr	r3, [r5]
	lsls	r2, r3, #24
	bpl	.L84
	ldr	r3, .L127+24
	ldrb	r3, [r3]	@ zero_extendqisi2
	cmp	r3, #1
	bls	.L84
	mov	r1, r6
	ldr	r0, .L127+44
	bl	__wrap_printf
.LVL84:
	ldr	r0, .L127+32
	bl	__wrap_printf
.LVL85:
	b	.L82
.L91:
	.loc 1 3790 0
	lsls	r2, r3, #24
	bpl	.L97
	ldr	r3, .L127+24
	ldrb	r3, [r3]	@ zero_extendqisi2
	cmp	r3, #1
	bls	.L97
	ldr	r0, .L127+48
	bl	__wrap_printf
.LVL86:
	ldr	r0, .L127+32
	bl	__wrap_printf
.LVL87:
.L97:
	.loc 1 3793 0
	movs	r4, #9
	b	.L88
.L90:
	.loc 1 3863 0
	ldr	r3, [r5]
	lsls	r3, r3, #24
	bpl	.L79
	ldr	r3, .L127+24
	ldrb	r3, [r3]	@ zero_extendqisi2
	cmp	r3, #0
	beq	.L79
	ldr	r0, .L127+52
	b	.L126
.L84:
	.loc 1 3645 0
	movs	r4, #0
.L86:
	.loc 1 3650 0
	movs	r2, #16
	movs	r1, #0
	add	r0, sp, r2
	bl	rtw_memset
.LVL88:
	.loc 1 3651 0
	movs	r3, #2
	.loc 1 3652 0
	mov	r0, sp
	.loc 1 3651 0
	strb	r3, [sp, #17]
	.loc 1 3652 0
	bl	ipaddr_addr
.LVL89:
	str	r0, [sp, #20]
	.loc 1 3653 0
	uxth	r0, r9
	bl	lwip_htons
.LVL90:
	.loc 1 3655 0
	ldr	r3, [r5]
	.loc 1 3653 0
	strh	r0, [sp, #18]	@ movhi
	.loc 1 3655 0
	lsls	r0, r3, #24
	bpl	.L89
	ldr	r3, .L127+24
	ldrb	r3, [r3]	@ zero_extendqisi2
	cbz	r3, .L89
	ldr	r0, .L127+56
	bl	__wrap_printf
.LVL91:
	ldr	r0, .L127+32
	bl	__wrap_printf
.LVL92:
.L89:
	.loc 1 3669 0
	movs	r2, #16
	.loc 1 3668 0
	ldr	r3, .L127+60
	.loc 1 3669 0
	add	r1, sp, r2
	ldr	r0, .L127+64
	.loc 1 3668 0
	str	r4, [r3]
	.loc 1 3669 0
	bl	rtw_memcpy
.LVL93:
	.loc 1 3753 0
	cmp	r6, #0
	bne	.L90
	.loc 1 3757 0
	movs	r2, #16
	mov	r0, r4
	add	r1, sp, r2
	bl	lwip_connect
.LVL94:
	.loc 1 3758 0
	ldr	r3, [r5]
	.loc 1 3757 0
	cmp	r0, #0
	bne	.L91
	.loc 1 3758 0
	lsls	r1, r3, #24
	bpl	.L79
	ldr	r3, .L127+24
	ldrb	r3, [r3]	@ zero_extendqisi2
	cmp	r3, #0
	beq	.L79
	ldr	r0, .L127+68
.L126:
	.loc 1 3863 0
	bl	__wrap_printf
.LVL95:
	ldr	r0, .L127+32
.LVL96:
.L124:
	.loc 1 3884 0
	bl	__wrap_printf
.LVL97:
	b	.L79
.L128:
	.align	2
.L127:
	.word	.LANCHOR2
	.word	.LC14
	.word	.LC15
	.word	.LC16
	.word	.LANCHOR4
	.word	gDbgFlag
	.word	gDbgLevel
	.word	.LC17
	.word	.LC3
	.word	.LC22
	.word	.LC13
	.word	.LC2
	.word	.LC20
	.word	.LC21
	.word	.LC18
	.word	.LANCHOR0
	.word	.LANCHOR11
	.word	.LC19
	.word	.LANCHOR9
	.word	.LANCHOR6
.LBE19:
.LBE18:
	.cfi_endproc
.LFE170:
	.size	client_start_task, .-client_start_task
	.section	.text.fATP1,"ax",%progbits
	.align	1
	.global	fATP1
	.syntax unified
	.thumb
	.thumb_func
	.fpu softvfp
	.type	fATP1, %function
fATP1:
.LFB172:
	.loc 1 3950 0
	.cfi_startproc
	@ args = 0, pretend = 0, frame = 0
	@ frame_needed = 0, uses_anonymous_args = 0
.LVL98:
	push	{r3, lr}
	.cfi_def_cfa_offset 8
	.cfi_offset 3, -8
	.cfi_offset 14, -4
	.loc 1 3951 0
	cbnz	r0, .L130
	.loc 1 3959 0
	pop	{r3, lr}
	.cfi_remember_state
	.cfi_restore 14
	.cfi_restore 3
	.cfi_def_cfa_offset 0
	.loc 1 3952 0
	ldr	r0, .L132
.LVL99:
	b	__wrap_printf
.LVL100:
.L130:
	.cfi_restore_state
	.loc 1 3955 0
	bl	atoi
.LVL101:
	ldr	r3, .L132+4
	mov	r1, r0
	str	r0, [r3]
	.loc 1 3956 0
	ldr	r0, .L132+8
	.loc 1 3959 0
	pop	{r3, lr}
	.cfi_restore 14
	.cfi_restore 3
	.cfi_def_cfa_offset 0
	.loc 1 3956 0
	b	__wrap_printf
.LVL102:
.L133:
	.align	2
.L132:
	.word	.LC23
	.word	.LANCHOR4
	.word	.LC24
.L131:
	.cfi_endproc
.LFE172:
	.size	fATP1, .-fATP1
	.section	.text.fATP2,"ax",%progbits
	.align	1
	.global	fATP2
	.syntax unified
	.thumb
	.thumb_func
	.fpu softvfp
	.type	fATP2, %function
fATP2:
.LFB173:
	.loc 1 3961 0
	.cfi_startproc
	@ args = 0, pretend = 0, frame = 0
	@ frame_needed = 0, uses_anonymous_args = 0
.LVL103:
	push	{r3, lr}
	.cfi_def_cfa_offset 8
	.cfi_offset 3, -8
	.cfi_offset 14, -4
	.loc 1 3962 0
	cbnz	r0, .L135
	.loc 1 3971 0
	pop	{r3, lr}
	.cfi_remember_state
	.cfi_restore 14
	.cfi_restore 3
	.cfi_def_cfa_offset 0
	.loc 1 3963 0
	ldr	r0, .L137
.LVL104:
	b	__wrap_printf
.LVL105:
.L135:
	.cfi_restore_state
	.loc 1 3966 0
	bl	atoi
.LVL106:
	ldr	r3, .L137+4
	mov	r1, r0
	str	r0, [r3]
	.loc 1 3967 0
	ldr	r0, .L137+8
	.loc 1 3971 0
	pop	{r3, lr}
	.cfi_restore 14
	.cfi_restore 3
	.cfi_def_cfa_offset 0
	.loc 1 3967 0
	b	__wrap_printf
.LVL107:
.L138:
	.align	2
.L137:
	.word	.LC25
	.word	.LANCHOR5
	.word	.LC26
.L136:
	.cfi_endproc
.LFE173:
	.size	fATP2, .-fATP2
	.section	.text.fATP3,"ax",%progbits
	.align	1
	.global	fATP3
	.syntax unified
	.thumb
	.thumb_func
	.fpu softvfp
	.type	fATP3, %function
fATP3:
.LFB174:
	.loc 1 3973 0
	.cfi_startproc
	@ args = 0, pretend = 0, frame = 0
	@ frame_needed = 0, uses_anonymous_args = 0
.LVL108:
	push	{r3, lr}
	.cfi_def_cfa_offset 8
	.cfi_offset 3, -8
	.cfi_offset 14, -4
	.loc 1 3974 0
	mov	r1, r0
	cbnz	r0, .L140
	.loc 1 3983 0
	pop	{r3, lr}
	.cfi_remember_state
	.cfi_restore 14
	.cfi_restore 3
	.cfi_def_cfa_offset 0
	.loc 1 3975 0
	ldr	r0, .L142
.LVL109:
	b	__wrap_printf
.LVL110:
.L140:
	.cfi_restore_state
	.loc 1 3978 0
	ldr	r0, .L142+4
.LVL111:
	bl	strcpy
.LVL112:
	.loc 1 3983 0
	pop	{r3, lr}
	.cfi_restore 14
	.cfi_restore 3
	.cfi_def_cfa_offset 0
	.loc 1 3979 0
	ldr	r1, .L142+4
	ldr	r0, .L142+8
	b	__wrap_printf
.LVL113:
.L143:
	.align	2
.L142:
	.word	.LC27
	.word	.LANCHOR9
	.word	.LC28
.L141:
	.cfi_endproc
.LFE174:
	.size	fATP3, .-fATP3
	.section	.text.fATP4,"ax",%progbits
	.align	1
	.global	fATP4
	.syntax unified
	.thumb
	.thumb_func
	.fpu softvfp
	.type	fATP4, %function
fATP4:
.LFB175:
	.loc 1 3985 0
	.cfi_startproc
	@ args = 0, pretend = 0, frame = 0
	@ frame_needed = 0, uses_anonymous_args = 0
.LVL114:
	push	{r3, lr}
	.cfi_def_cfa_offset 8
	.cfi_offset 3, -8
	.cfi_offset 14, -4
	.loc 1 3986 0
	cbnz	r0, .L145
	.loc 1 3995 0
	pop	{r3, lr}
	.cfi_remember_state
	.cfi_restore 14
	.cfi_restore 3
	.cfi_def_cfa_offset 0
	.loc 1 3987 0
	ldr	r0, .L147
.LVL115:
	b	__wrap_printf
.LVL116:
.L145:
	.cfi_restore_state
	.loc 1 3990 0
	bl	atoi
.LVL117:
	ldr	r3, .L147+4
	mov	r1, r0
	str	r0, [r3]
	.loc 1 3991 0
	ldr	r0, .L147+8
	.loc 1 3995 0
	pop	{r3, lr}
	.cfi_restore 14
	.cfi_restore 3
	.cfi_def_cfa_offset 0
	.loc 1 3991 0
	b	__wrap_printf
.LVL118:
.L148:
	.align	2
.L147:
	.word	.LC29
	.word	.LANCHOR6
	.word	.LC30
.L146:
	.cfi_endproc
.LFE175:
	.size	fATP4, .-fATP4
	.section	.text.fATP5,"ax",%progbits
	.align	1
	.global	fATP5
	.syntax unified
	.thumb
	.thumb_func
	.fpu softvfp
	.type	fATP5, %function
fATP5:
.LFB176:
	.loc 1 3997 0
	.cfi_startproc
	@ args = 0, pretend = 0, frame = 0
	@ frame_needed = 0, uses_anonymous_args = 0
.LVL119:
	push	{r0, r1, r4, lr}
	.cfi_def_cfa_offset 16
	.cfi_offset 4, -8
	.cfi_offset 14, -4
	.loc 1 3999 0
	cbnz	r0, .L150
	.loc 1 4000 0
	ldr	r0, .L174
.LVL120:
.L173:
	.loc 1 4042 0
	add	sp, sp, #8
	.cfi_remember_state
	.cfi_def_cfa_offset 8
	@ sp needed
	pop	{r4, lr}
	.cfi_restore 14
	.cfi_restore 4
	.cfi_def_cfa_offset 0
	.loc 1 4038 0
	b	__wrap_printf
.LVL121:
.L150:
	.cfi_restore_state
	.loc 1 4003 0
	bl	atoi
.LVL122:
	.loc 1 4004 0
	mov	r1, r0
	.loc 1 4003 0
	mov	r4, r0
.LVL123:
	.loc 1 4004 0
	ldr	r0, .L174+4
.LVL124:
	bl	__wrap_printf
.LVL125:
	.loc 1 4005 0
	ldr	r3, .L174+8
	ldr	r3, [r3]
	cbnz	r3, .L151
	.loc 1 4006 0
	cbnz	r4, .L152
.L159:
	.loc 1 4007 0
	bl	socket_close
.LVL126:
	.loc 1 4008 0
	movs	r2, #0
.L172:
	.loc 1 4032 0
	ldr	r3, .L174+12
	str	r2, [r3]
	.loc 1 4042 0
	add	sp, sp, #8
	.cfi_remember_state
	.cfi_def_cfa_offset 8
	@ sp needed
	pop	{r4, pc}
.LVL127:
.L153:
.L152:
	.cfi_restore_state
	.loc 1 4010 0
	cmp	r4, #1
	bne	.L154
	.loc 1 4011 0
	ldr	r2, .L174+16
	ldr	r3, [r2]
	cbnz	r3, .L156
	.loc 1 4013 0
	str	r2, [sp, #4]
	str	r4, [sp]
	mov	r2, #512
	ldr	r1, .L174+20
	ldr	r0, .L174+24
	bl	xTaskCreate
.LVL128:
	cmp	r0, #1
	beq	.L156
	.loc 1 4014 0
	ldr	r0, .L174+28
	bl	__wrap_printf
.LVL129:
.L156:
	.loc 1 4016 0
	movs	r2, #1
	b	.L172
.L154:
	.loc 1 4019 0
	ldr	r0, .L174+32
	b	.L173
.L151:
	.loc 1 4021 0
	cmp	r3, #1
	bne	.L158
	.loc 1 4022 0
	cmp	r4, #0
	beq	.L159
	.loc 1 4026 0
	cmp	r4, #1
	bne	.L154
	.loc 1 4027 0
	ldr	r2, .L174+16
	ldr	r3, [r2]
	cbnz	r3, .L161
	.loc 1 4029 0
	str	r2, [sp, #4]
	str	r4, [sp]
	mov	r2, #512
	ldr	r1, .L174+20
	ldr	r0, .L174+24
	bl	xTaskCreate
.LVL130:
	cmp	r0, #1
	beq	.L161
	.loc 1 4030 0
	ldr	r0, .L174+36
	bl	__wrap_printf
.LVL131:
.L161:
	.loc 1 4032 0
	movs	r2, #3
	b	.L172
.L158:
	.loc 1 4038 0
	ldr	r0, .L174+40
	b	.L173
.L175:
	.align	2
.L174:
	.word	.LC31
	.word	.LC32
	.word	.LANCHOR4
	.word	.LANCHOR3
	.word	.LANCHOR1
	.word	.LC33
	.word	server_start_task
	.word	.LC34
	.word	.LC35
	.word	.LC36
	.word	.LC37
	.cfi_endproc
.LFE176:
	.size	fATP5, .-fATP5
	.section	.text.fATP6,"ax",%progbits
	.align	1
	.global	fATP6
	.syntax unified
	.thumb
	.thumb_func
	.fpu softvfp
	.type	fATP6, %function
fATP6:
.LFB177:
	.loc 1 4044 0
	.cfi_startproc
	@ args = 0, pretend = 0, frame = 0
	@ frame_needed = 0, uses_anonymous_args = 0
.LVL132:
	push	{r0, r1, r4, lr}
	.cfi_def_cfa_offset 16
	.cfi_offset 4, -8
	.cfi_offset 14, -4
	.loc 1 4046 0
	cbnz	r0, .L177
	.loc 1 4047 0
	ldr	r0, .L201
.LVL133:
.L200:
	.loc 1 4090 0
	add	sp, sp, #8
	.cfi_remember_state
	.cfi_def_cfa_offset 8
	@ sp needed
	pop	{r4, lr}
	.cfi_restore 14
	.cfi_restore 4
	.cfi_def_cfa_offset 0
	.loc 1 4086 0
	b	__wrap_printf
.LVL134:
.L177:
	.cfi_restore_state
	.loc 1 4050 0
	bl	atoi
.LVL135:
	.loc 1 4051 0
	mov	r1, r0
	.loc 1 4050 0
	mov	r4, r0
.LVL136:
	.loc 1 4051 0
	ldr	r0, .L201+4
.LVL137:
	bl	__wrap_printf
.LVL138:
	.loc 1 4052 0
	ldr	r3, .L201+8
	ldr	r3, [r3]
	cbnz	r3, .L178
	.loc 1 4053 0
	cbnz	r4, .L179
.L186:
	.loc 1 4054 0
	bl	socket_close
.LVL139:
	.loc 1 4055 0
	movs	r2, #0
.L199:
	.loc 1 4080 0
	ldr	r3, .L201+12
	str	r2, [r3]
	.loc 1 4090 0
	add	sp, sp, #8
	.cfi_remember_state
	.cfi_def_cfa_offset 8
	@ sp needed
	pop	{r4, pc}
.LVL140:
.L180:
.L179:
	.cfi_restore_state
	.loc 1 4057 0
	cmp	r4, #1
	bne	.L181
	.loc 1 4058 0
	ldr	r0, .L201+16
	bl	__wrap_printf
.LVL141:
	.loc 1 4059 0
	ldr	r2, .L201+20
	ldr	r3, [r2]
	cbnz	r3, .L183
	.loc 1 4061 0
	str	r2, [sp, #4]
	str	r4, [sp]
	mov	r2, #512
	ldr	r1, .L201+24
	ldr	r0, .L201+28
	bl	xTaskCreate
.LVL142:
	cmp	r0, #1
	beq	.L183
	.loc 1 4062 0
	ldr	r0, .L201+32
	bl	__wrap_printf
.LVL143:
.L183:
	.loc 1 4064 0
	movs	r2, #2
	b	.L199
.L181:
	.loc 1 4067 0
	ldr	r0, .L201+36
	b	.L200
.L178:
	.loc 1 4069 0
	cmp	r3, #1
	bne	.L185
	.loc 1 4070 0
	cmp	r4, #0
	beq	.L186
	.loc 1 4074 0
	cmp	r4, #1
	bne	.L181
	.loc 1 4075 0
	ldr	r2, .L201+20
	ldr	r3, [r2]
	cbnz	r3, .L188
	.loc 1 4077 0
	str	r2, [sp, #4]
	str	r4, [sp]
	mov	r2, #512
	ldr	r1, .L201+24
	ldr	r0, .L201+28
	bl	xTaskCreate
.LVL144:
	cmp	r0, #1
	beq	.L188
	.loc 1 4078 0
	ldr	r0, .L201+40
	bl	__wrap_printf
.LVL145:
.L188:
	.loc 1 4080 0
	movs	r2, #4
	b	.L199
.L185:
	.loc 1 4086 0
	ldr	r0, .L201+44
	b	.L200
.L202:
	.align	2
.L201:
	.word	.LC38
	.word	.LC39
	.word	.LANCHOR4
	.word	.LANCHOR3
	.word	.LC40
	.word	.LANCHOR2
	.word	.LC41
	.word	client_start_task
	.word	.LC42
	.word	.LC43
	.word	.LC44
	.word	.LC45
	.cfi_endproc
.LFE177:
	.size	fATP6, .-fATP6
	.section	.text.fATPZ,"ax",%progbits
	.align	1
	.global	fATPZ
	.syntax unified
	.thumb
	.thumb_func
	.fpu softvfp
	.type	fATPZ, %function
fATPZ:
.LFB178:
	.loc 1 4092 0
	.cfi_startproc
	@ args = 0, pretend = 0, frame = 0
	@ frame_needed = 0, uses_anonymous_args = 0
.LVL146:
	push	{r0, r1, r2, lr}
	.cfi_def_cfa_offset 16
	.cfi_offset 14, -4
	.loc 1 4097 0
	ldr	r0, .L207
.LVL147:
	bl	__wrap_printf
.LVL148:
	.loc 1 4098 0
	ldr	r0, .L207+4
	bl	__wrap_printf
.LVL149:
	.loc 1 4099 0
	ldr	r3, .L207+8
	ldr	r3, [r3]
	cbnz	r3, .L204
	.loc 1 4100 0
	ldr	r0, .L207+12
.L206:
	.loc 1 4102 0
	bl	__wrap_printf
.LVL150:
.L205:
	.loc 1 4104 0
	ldr	r0, .L207+16
	bl	LwIP_GetIP
.LVL151:
	.loc 1 4105 0
	ldrb	r2, [r0, #1]	@ zero_extendqisi2
	ldrb	r3, [r0, #2]	@ zero_extendqisi2
	ldrb	r1, [r0]	@ zero_extendqisi2
	ldrb	r0, [r0, #3]	@ zero_extendqisi2
.LVL152:
	str	r0, [sp]
	ldr	r0, .L207+20
	bl	__wrap_printf
.LVL153:
	.loc 1 4106 0
	ldr	r3, .L207+24
	ldr	r0, .L207+28
	ldr	r1, [r3]
	bl	__wrap_printf
.LVL154:
	.loc 1 4107 0
	ldr	r1, .L207+32
	ldr	r0, .L207+36
	bl	__wrap_printf
.LVL155:
	.loc 1 4108 0
	ldr	r3, .L207+40
	ldr	r0, .L207+44
	ldr	r1, [r3]
	bl	__wrap_printf
.LVL156:
	.loc 1 4110 0
	ldr	r0, .L207+48
	.loc 1 4111 0
	add	sp, sp, #12
	.cfi_remember_state
	.cfi_def_cfa_offset 4
	@ sp needed
	ldr	lr, [sp], #4
	.cfi_restore 14
	.cfi_def_cfa_offset 0
	.loc 1 4110 0
	b	__wrap_printf
.LVL157:
.L204:
	.cfi_restore_state
	.loc 1 4101 0
	cmp	r3, #1
	bne	.L205
	.loc 1 4102 0
	ldr	r0, .L207+52
	b	.L206
.L208:
	.align	2
.L207:
	.word	.LC46
	.word	.LC47
	.word	.LANCHOR4
	.word	.LC48
	.word	xnetif
	.word	.LC50
	.word	.LANCHOR5
	.word	.LC51
	.word	.LANCHOR9
	.word	.LC52
	.word	.LANCHOR6
	.word	.LC53
	.word	.LC54
	.word	.LC49
	.cfi_endproc
.LFE178:
	.size	fATPZ, .-fATPZ
	.section	.text.fATR0,"ax",%progbits
	.align	1
	.global	fATR0
	.syntax unified
	.thumb
	.thumb_func
	.fpu softvfp
	.type	fATR0, %function
fATR0:
.LFB179:
	.loc 1 4113 0
	.cfi_startproc
	@ args = 0, pretend = 0, frame = 0
	@ frame_needed = 0, uses_anonymous_args = 0
.LVL158:
	push	{r3, r4, r5, lr}
	.cfi_def_cfa_offset 16
	.cfi_offset 3, -16
	.cfi_offset 4, -12
	.cfi_offset 5, -8
	.cfi_offset 14, -4
	.loc 1 4117 0
	ldr	r4, .L217
	ldr	r3, [r4]
	cmp	r3, #0
	bgt	.L210
	.loc 1 4118 0
	movs	r1, #100
	.loc 1 4119 0
	ldr	r0, .L217+4
.LVL159:
	.loc 1 4118 0
	str	r1, [r4]
	.loc 1 4119 0
	bl	__wrap_printf
.LVL160:
.L210:
	.loc 1 4121 0
	movs	r2, #100
	movs	r1, #0
	ldr	r0, .L217+8
	bl	rtw_memset
.LVL161:
	.loc 1 4122 0
	ldr	r3, .L217+12
	ldr	r3, [r3]
	cmp	r3, #1
	bne	.L211
	.loc 1 4123 0
	ldr	r5, .L217+16
	movs	r2, #100
	ldr	r1, .L217+8
	ldr	r0, [r5]
	bl	lwip_read
.LVL162:
	cmp	r0, #0
	ble	.L212
	.loc 1 4124 0
	ldr	r2, [r4]
	ldr	r1, .L217+8
	ldr	r0, .L217+20
	bl	__wrap_printf
.LVL163:
.L213:
	.loc 1 4127 0
	ldr	r0, [r5]
	bl	lwip_close
.LVL164:
	.loc 1 4128 0
	mov	r3, #-1
	str	r3, [r5]
	pop	{r3, r4, r5, pc}
.L212:
	.loc 1 4126 0
	ldr	r0, .L217+24
	bl	__wrap_printf
.LVL165:
	b	.L213
.L211:
	.loc 1 4131 0
	ldr	r3, .L217+28
	movs	r2, #100
	ldr	r1, .L217+8
	ldr	r0, [r3]
	bl	lwip_read
.LVL166:
	cmp	r0, #0
	ble	.L215
	.loc 1 4132 0
	ldr	r2, [r4]
	ldr	r1, .L217+8
	ldr	r0, .L217+20
	.loc 1 4136 0
	pop	{r3, r4, r5, lr}
	.cfi_remember_state
	.cfi_restore 14
	.cfi_restore 5
	.cfi_restore 4
	.cfi_restore 3
	.cfi_def_cfa_offset 0
	.loc 1 4132 0
	b	__wrap_printf
.LVL167:
.L215:
	.cfi_restore_state
	.loc 1 4134 0
	ldr	r0, .L217+24
	.loc 1 4136 0
	pop	{r3, r4, r5, lr}
	.cfi_restore 14
	.cfi_restore 5
	.cfi_restore 4
	.cfi_restore 3
	.cfi_def_cfa_offset 0
	.loc 1 4134 0
	b	__wrap_printf
.LVL168:
.L218:
	.align	2
.L217:
	.word	.LANCHOR8
	.word	.LC55
	.word	.LANCHOR13
	.word	.LANCHOR3
	.word	.LANCHOR7
	.word	.LC56
	.word	.LC57
	.word	.LANCHOR0
	.cfi_endproc
.LFE179:
	.size	fATR0, .-fATR0
	.section	.text.fATR1,"ax",%progbits
	.align	1
	.global	fATR1
	.syntax unified
	.thumb
	.thumb_func
	.fpu softvfp
	.type	fATR1, %function
fATR1:
.LFB180:
	.loc 1 4138 0
	.cfi_startproc
	@ args = 0, pretend = 0, frame = 0
	@ frame_needed = 0, uses_anonymous_args = 0
.LVL169:
	push	{r4, lr}
	.cfi_def_cfa_offset 8
	.cfi_offset 4, -8
	.cfi_offset 14, -4
	.loc 1 4140 0
	cbnz	r0, .L220
	.loc 1 4141 0
	movs	r1, #100
	ldr	r0, .L225
.LVL170:
.L224:
	.loc 1 4154 0
	pop	{r4, lr}
	.cfi_remember_state
	.cfi_restore 14
	.cfi_restore 4
	.cfi_def_cfa_offset 0
	.loc 1 4149 0
	b	__wrap_printf
.LVL171:
.L220:
	.cfi_restore_state
	.loc 1 4144 0
	bl	atoi
.LVL172:
	mov	r4, r0
.LVL173:
	.loc 1 4145 0
	mov	r1, r0
	ldr	r0, .L225+4
.LVL174:
	bl	__wrap_printf
.LVL175:
	.loc 1 4146 0
	cmp	r4, #0
	bgt	.L221
	.loc 1 4147 0
	ldr	r0, .L225+8
	.loc 1 4154 0
	pop	{r4, lr}
	.cfi_remember_state
	.cfi_restore 14
	.cfi_restore 4
	.cfi_def_cfa_offset 0
.LVL176:
	.loc 1 4147 0
	b	__wrap_printf
.LVL177:
.L221:
	.cfi_restore_state
	.loc 1 4148 0
	cmp	r4, #100
	ble	.L222
	.loc 1 4149 0
	movs	r1, #100
	ldr	r0, .L225+12
	b	.L224
.L222:
	.loc 1 4151 0
	ldr	r3, .L225+16
	str	r4, [r3]
	pop	{r4, pc}
.LVL178:
.L226:
	.align	2
.L225:
	.word	.LC58
	.word	.LC59
	.word	.LC60
	.word	.LC61
	.word	.LANCHOR8
.L223:
	.cfi_endproc
.LFE180:
	.size	fATR1, .-fATR1
	.section	.text.fATRA,"ax",%progbits
	.align	1
	.global	fATRA
	.syntax unified
	.thumb
	.thumb_func
	.fpu softvfp
	.type	fATRA, %function
fATRA:
.LFB181:
	.loc 1 4157 0
	.cfi_startproc
	@ args = 0, pretend = 0, frame = 56
	@ frame_needed = 0, uses_anonymous_args = 0
.LVL179:
	push	{r4, r5, lr}
	.cfi_def_cfa_offset 12
	.cfi_offset 4, -12
	.cfi_offset 5, -8
	.cfi_offset 14, -4
	mov	r5, r0
	sub	sp, sp, #68
	.cfi_def_cfa_offset 80
	.loc 1 4159 0
	movs	r2, #48
	movs	r1, #0
	add	r0, sp, #16
.LVL180:
	bl	memset
.LVL181:
	.loc 1 4160 0
	cbnz	r5, .L228
.L231:
	.loc 1 4161 0
	movs	r1, #100
	ldr	r0, .L240
.LVL182:
.L239:
.LBB20:
	.loc 1 4191 0
	bl	__wrap_printf
.LVL183:
.LBE20:
	b	.L227
.LVL184:
.L228:
	.loc 1 4165 0
	ldr	r4, .L240+4
	ldr	r3, [r4]
	cmp	r3, #0
	bgt	.L230
	.loc 1 4166 0
	movs	r1, #100
	.loc 1 4167 0
	ldr	r0, .L240+8
	.loc 1 4166 0
	str	r1, [r4]
	.loc 1 4167 0
	bl	__wrap_printf
.LVL185:
.L230:
	.loc 1 4170 0
	add	r1, sp, #16
	mov	r0, r5
	bl	parse_param
.LVL186:
	cmp	r0, #2
	str	r0, [sp, #12]
	bne	.L231
	.loc 1 4175 0
	ldr	r1, [sp, #20]
	ldr	r0, .L240+12
	bl	__wrap_printf
.LVL187:
	.loc 1 4176 0
	movs	r2, #100
	movs	r1, #0
	ldr	r0, .L240+16
	bl	rtw_memset
.LVL188:
	.loc 1 4177 0
	ldr	r5, [sp, #20]
.LVL189:
	mov	r0, r5
	bl	strlen
.LVL190:
	mov	r1, r5
	mov	r2, r0
	ldr	r0, .L240+16
	bl	rtw_memcpy
.LVL191:
	.loc 1 4179 0
	ldr	r3, .L240+20
	ldr	r3, [r3]
	cmp	r3, #1
	bne	.L232
	.loc 1 4180 0
	ldr	r0, .L240+16
	bl	strlen
.LVL192:
	ldr	r5, .L240+24
	mov	r2, r0
	ldr	r1, .L240+16
	ldr	r0, [r5]
	bl	lwip_write
.LVL193:
	cmp	r0, #0
	ble	.L233
	.loc 1 4181 0
	ldr	r2, [r4]
	ldr	r1, .L240+16
	ldr	r0, .L240+28
	bl	__wrap_printf
.LVL194:
.L234:
	.loc 1 4184 0
	ldr	r0, [r5]
	bl	lwip_close
.LVL195:
	.loc 1 4185 0
	mov	r3, #-1
	str	r3, [r5]
.L229:
.L227:
	.loc 1 4203 0
	add	sp, sp, #68
	.cfi_remember_state
	.cfi_def_cfa_offset 12
	@ sp needed
	pop	{r4, r5, pc}
.L233:
	.cfi_restore_state
	.loc 1 4183 0
	ldr	r0, .L240+32
	bl	__wrap_printf
.LVL196:
	b	.L234
.L232:
	.loc 1 4187 0
	cmp	r3, #4
	bne	.L235
.LVL197:
.LBB21:
	.loc 1 4189 0
	ldr	r0, .L240+16
	bl	strlen
.LVL198:
	movs	r3, #16
	str	r3, [sp, #4]
	ldr	r3, .L240+36
	mov	r2, r0
	ldr	r0, .L240+40
	str	r3, [sp]
	ldr	r1, .L240+16
	movs	r3, #0
	ldr	r0, [r0]
	bl	lwip_sendto
.LVL199:
	.loc 1 4191 0
	mov	r1, r0
	ldr	r0, .L240+44
.LVL200:
	b	.L239
.LVL201:
.L235:
.LBE21:
	.loc 1 4193 0
	cmp	r3, #3
	bne	.L236
	.loc 1 4194 0
	ldr	r0, .L240+48
.L238:
	.loc 1 4199 0
	bl	__wrap_printf
.LVL202:
	b	.L227
.L236:
	.loc 1 4196 0
	ldr	r0, .L240+16
	bl	strlen
.LVL203:
	ldr	r3, .L240+40
	mov	r2, r0
	ldr	r1, .L240+16
	ldr	r0, [r3]
	bl	lwip_write
.LVL204:
	cmp	r0, #0
	ble	.L237
	.loc 1 4197 0
	ldr	r2, [r4]
	ldr	r1, .L240+16
	ldr	r0, .L240+28
	bl	__wrap_printf
.LVL205:
	b	.L227
.L237:
	.loc 1 4199 0
	ldr	r0, .L240+32
	b	.L238
.L241:
	.align	2
.L240:
	.word	.LC62
	.word	.LANCHOR8
	.word	.LC63
	.word	.LC64
	.word	.LANCHOR14
	.word	.LANCHOR3
	.word	.LANCHOR7
	.word	.LC65
	.word	.LC66
	.word	.LANCHOR11
	.word	.LANCHOR0
	.word	.LC67
	.word	.LC68
	.cfi_endproc
.LFE181:
	.size	fATRA, .-fATRA
	.section	.text.fATRB,"ax",%progbits
	.align	1
	.global	fATRB
	.syntax unified
	.thumb
	.thumb_func
	.fpu softvfp
	.type	fATRB, %function
fATRB:
.LFB182:
	.loc 1 4205 0
	.cfi_startproc
	@ args = 0, pretend = 0, frame = 0
	@ frame_needed = 0, uses_anonymous_args = 0
.LVL206:
	push	{r4, lr}
	.cfi_def_cfa_offset 8
	.cfi_offset 4, -8
	.cfi_offset 14, -4
	.loc 1 4207 0
	cbnz	r0, .L243
	.loc 1 4208 0
	movs	r1, #100
	ldr	r0, .L248
.LVL207:
.L247:
	.loc 1 4221 0
	pop	{r4, lr}
	.cfi_remember_state
	.cfi_restore 14
	.cfi_restore 4
	.cfi_def_cfa_offset 0
	.loc 1 4216 0
	b	__wrap_printf
.LVL208:
.L243:
	.cfi_restore_state
	.loc 1 4211 0
	bl	atoi
.LVL209:
	mov	r4, r0
.LVL210:
	.loc 1 4212 0
	mov	r1, r0
	ldr	r0, .L248+4
.LVL211:
	bl	__wrap_printf
.LVL212:
	.loc 1 4213 0
	cmp	r4, #0
	bgt	.L244
	.loc 1 4214 0
	ldr	r0, .L248+8
	.loc 1 4221 0
	pop	{r4, lr}
	.cfi_remember_state
	.cfi_restore 14
	.cfi_restore 4
	.cfi_def_cfa_offset 0
.LVL213:
	.loc 1 4214 0
	b	__wrap_printf
.LVL214:
.L244:
	.cfi_restore_state
	.loc 1 4215 0
	cmp	r4, #100
	ble	.L245
	.loc 1 4216 0
	movs	r1, #100
	ldr	r0, .L248+12
	b	.L247
.L245:
	.loc 1 4218 0
	ldr	r3, .L248+16
	str	r4, [r3]
	pop	{r4, pc}
.LVL215:
.L249:
	.align	2
.L248:
	.word	.LC69
	.word	.LC70
	.word	.LC71
	.word	.LC72
	.word	.LANCHOR8
.L246:
	.cfi_endproc
.LFE182:
	.size	fATRB, .-fATRB
	.global	client_task
	.global	server_task
	.global	rx_buffer_size
	.global	tx_buffer_size
	.section	.bss._rx_buffer,"aw",%nobits
	.set	.LANCHOR13,. + 0
	.type	_rx_buffer, %object
	.size	_rx_buffer, 100
_rx_buffer:
	.space	100
	.section	.bss._tx_buffer,"aw",%nobits
	.set	.LANCHOR14,. + 0
	.type	_tx_buffer, %object
	.size	_tx_buffer, 100
_tx_buffer:
	.space	100
	.section	.bss.cli_addr,"aw",%nobits
	.align	2
	.set	.LANCHOR12,. + 0
	.type	cli_addr, %object
	.size	cli_addr, 16
cli_addr:
	.space	16
	.section	.bss.client,"aw",%nobits
	.align	2
	.set	.LANCHOR10,. + 0
	.type	client, %object
	.size	client, 4
client:
	.space	4
	.section	.bss.client_task,"aw",%nobits
	.align	2
	.set	.LANCHOR2,. + 0
	.type	client_task, %object
	.size	client_task, 4
client_task:
	.space	4
	.section	.bss.local_port,"aw",%nobits
	.align	2
	.set	.LANCHOR5,. + 0
	.type	local_port, %object
	.size	local_port, 4
local_port:
	.space	4
	.section	.bss.mode,"aw",%nobits
	.align	2
	.set	.LANCHOR4,. + 0
	.type	mode, %object
	.size	mode, 4
mode:
	.space	4
	.section	.bss.newsockfd,"aw",%nobits
	.align	2
	.set	.LANCHOR7,. + 0
	.type	newsockfd, %object
	.size	newsockfd, 4
newsockfd:
	.space	4
	.section	.bss.packet_size,"aw",%nobits
	.align	2
	.set	.LANCHOR8,. + 0
	.type	packet_size, %object
	.size	packet_size, 4
packet_size:
	.space	4
	.section	.bss.remote_addr,"aw",%nobits
	.set	.LANCHOR9,. + 0
	.type	remote_addr, %object
	.size	remote_addr, 16
remote_addr:
	.space	16
	.section	.bss.remote_port,"aw",%nobits
	.align	2
	.set	.LANCHOR6,. + 0
	.type	remote_port, %object
	.size	remote_port, 4
remote_port:
	.space	4
	.section	.bss.serv_addr,"aw",%nobits
	.align	2
	.set	.LANCHOR11,. + 0
	.type	serv_addr, %object
	.size	serv_addr, 16
serv_addr:
	.space	16
	.section	.bss.server_task,"aw",%nobits
	.align	2
	.set	.LANCHOR1,. + 0
	.type	server_task, %object
	.size	server_task, 4
server_task:
	.space	4
	.section	.bss.sockfd,"aw",%nobits
	.align	2
	.set	.LANCHOR0,. + 0
	.type	sockfd, %object
	.size	sockfd, 4
sockfd:
	.space	4
	.section	.bss.type,"aw",%nobits
	.align	2
	.set	.LANCHOR3,. + 0
	.type	type, %object
	.size	type, 4
type:
	.space	4
	.section	.data.rx_buffer_size,"aw",%progbits
	.align	2
	.type	rx_buffer_size, %object
	.size	rx_buffer_size, 4
rx_buffer_size:
	.word	100
	.section	.data.tx_buffer_size,"aw",%progbits
	.align	2
	.type	tx_buffer_size, %object
	.size	tx_buffer_size, 4
tx_buffer_size:
	.word	100
	.section	.rodata.client_start_task.str1.1,"aMS",%progbits,1
.LC14:
	.ascii	"\015\012[ERROR] Please using ATP3 to input an valid"
	.ascii	" remote IP address!\015\012\000"
.LC15:
	.ascii	"\015\012[ERROR] Please using ATP4 to input an valid"
	.ascii	" remote PORT!\015\012\000"
.LC16:
	.ascii	"\012\015\011Start Client\015\012\011[IP]: %s\015\012"
	.ascii	"\011[PORT]:%d\012\015\012\015\000"
.LC17:
	.ascii	"Failed to create sock_fd!\000"
.LC18:
	.ascii	"OK to create sock_fd!\000"
.LC19:
	.ascii	"Connect to Server successful!\000"
.LC20:
	.ascii	"Connect to Server failed!\000"
.LC21:
	.ascii	"UDP client starts successful!\000"
.LC22:
	.ascii	"\015\012[ATPC] ERROR:%d\000"
	.section	.rodata.fATP1.str1.1,"aMS",%progbits,1
.LC23:
	.ascii	"[ATP1]Usage: ATP1=MODE\012\015\000"
.LC24:
	.ascii	"[ATP1]: _AT_TRANSPORT_MODE_ [%d]\012\015\000"
	.section	.rodata.fATP2.str1.1,"aMS",%progbits,1
.LC25:
	.ascii	"[ATP2]Usage: ATP2=LOCAL_PORT\012\015\000"
.LC26:
	.ascii	"[ATP2]: _AT_TRANSPORT_LOCAL_PORT_ [%d]\012\015\000"
	.section	.rodata.fATP3.str1.1,"aMS",%progbits,1
.LC27:
	.ascii	"[ATP3]Usage: ATP3=REMOTE_IP\012\015\000"
.LC28:
	.ascii	"[ATP3]: _AT_TRANSPORT_REMOTE_IP_ [%s]\012\015\000"
	.section	.rodata.fATP4.str1.1,"aMS",%progbits,1
.LC29:
	.ascii	"[ATP4]Usage: ATP4=REMOTE_PORT\012\015\000"
.LC30:
	.ascii	"[ATP4]: _AT_TRANSPORT_REMOTE_PORT_ [%d]\012\015\000"
	.section	.rodata.fATP5.str1.1,"aMS",%progbits,1
.LC31:
	.ascii	"[ATP5]Usage: ATP5=0/1(0:server disable; 1: server e"
	.ascii	"nable)\012\015\000"
.LC32:
	.ascii	"[ATP5]: _AT_TRANSPORT_START_SERVER_ [%d]\012\015\000"
.LC33:
	.ascii	"server_start_task\000"
.LC34:
	.ascii	"\015\012[ATP5]ERROR: Create tcp server task failed."
	.ascii	"\015\012\000"
.LC35:
	.ascii	"[ATP5]ERROR: Just support two mode : 0 or 1\012\015"
	.ascii	"\000"
.LC36:
	.ascii	"\015\012[ATP5]ERROR: Create udp server task failed."
	.ascii	"\015\012\000"
.LC37:
	.ascii	"[ATP5]Error: mode(TCP/UDP) can't be empty\012\015\000"
	.section	.rodata.fATP6.str1.1,"aMS",%progbits,1
.LC38:
	.ascii	"[ATP6]Usage: ATP6=0/1(0:Client disable; 1: Client e"
	.ascii	"nable)\012\015\000"
.LC39:
	.ascii	"[ATP6]: _AT_TRANSPORT_START_CLIENT_ [%d]\012\015\000"
.LC40:
	.ascii	"\015\012[ATP6]TCP Client mode will start\015\012\000"
.LC41:
	.ascii	"client_start_task\000"
.LC42:
	.ascii	"\015\012[ATP6]ERROR: Create tcp client task failed."
	.ascii	"\015\012\000"
.LC43:
	.ascii	"[ATP6]ERROR: Just support two mode : 0 or 1\012\015"
	.ascii	"\000"
.LC44:
	.ascii	"\015\012[ATP6]ERROR: Create udp client task failed."
	.ascii	"\015\012\000"
.LC45:
	.ascii	"[ATP6]Error: mode(TCP/UDP) can't be empty\012\015\000"
	.section	.rodata.fATPZ.str1.1,"aMS",%progbits,1
.LC46:
	.ascii	"\012\015\012The current Transport settings:\000"
.LC47:
	.ascii	"\012\015==============================\000"
.LC48:
	.ascii	"\012\015 Protocol: TCP\000"
.LC49:
	.ascii	"\012\015 Protocol: UDP\000"
.LC50:
	.ascii	"\012\015 LOCAL_IP  => %d.%d.%d.%d\000"
.LC51:
	.ascii	"\012\015 LOCAL_PORT => %d\000"
.LC52:
	.ascii	"\012\015 REMOTE_IP  => %s\000"
.LC53:
	.ascii	"\012\015 REMOTE_PORT => %d\000"
.LC54:
	.ascii	"\012\015\000"
	.section	.rodata.fATR0.str1.1,"aMS",%progbits,1
.LC55:
	.ascii	"[ATR0]Notice: Didn't set the value of packet_size, "
	.ascii	"will using the MAX_BUFFER: %d\015\012\000"
.LC56:
	.ascii	"[ATR0]Receive the data:%s\015\012 with packet_size:"
	.ascii	" %d\015\012\000"
.LC57:
	.ascii	"[ATR0]ERROR: Failed to receive data!\015\012\000"
	.section	.rodata.fATR1.str1.1,"aMS",%progbits,1
.LC58:
	.ascii	"[ATR1]Usage: ATR1=packet_size(cannot exceed %d)\012"
	.ascii	"\015\000"
.LC59:
	.ascii	"[ATR1]: _AT_TRANSPORT_RECEIVE_PACKET_SIZE_ [%d]\012"
	.ascii	"\015\000"
.LC60:
	.ascii	"[ATR1]Error: packet size need be larger than 0!\012"
	.ascii	"\015\000"
.LC61:
	.ascii	"[ATR1]Error: packet size exceeds the MAX_BUFFER val"
	.ascii	"ue: %d!\012\015\000"
	.section	.rodata.fATRA.str1.1,"aMS",%progbits,1
.LC62:
	.ascii	"[ATRA]Usage: ATRA=[data](Data size cannot exceed th"
	.ascii	"e MAX_BUFFER SIZE: %d)\012\015\000"
.LC63:
	.ascii	"[ATRA]Notice: Didn't set the value of packet_size, "
	.ascii	"will using the MAX_BUFFER SIZE: %d\015\012\000"
.LC64:
	.ascii	"[ATRA]: _AT_TRANSPORT_WRITE_DATA_ [%s]\012\015\000"
.LC65:
	.ascii	"[ATRA] Sending data:%s\015\012 with packet_size:%d\015"
	.ascii	"\012\000"
.LC66:
	.ascii	"[ATRA]ERROR: Failed to send data\015\012\000"
.LC67:
	.ascii	"\015\012The value of ret is %d\015\012\000"
.LC68:
	.ascii	"\015\012The UDP Server mode not support Sending dat"
	.ascii	"a service!\015\012\000"
	.section	.rodata.fATRB.str1.1,"aMS",%progbits,1
.LC69:
	.ascii	"[ATRB]Usage: ATRB=packet_size(cannot exceed %d)\012"
	.ascii	"\015\000"
.LC70:
	.ascii	"[ATRB]: _AT_TRANSPORT_WRITE_PACKET_SIZE_ [%d]\012\015"
	.ascii	"\000"
.LC71:
	.ascii	"[ATRB]Error: packet size need be larger than 0!\012"
	.ascii	"\015\000"
.LC72:
	.ascii	"[ATRB]Error: packet size exceeds the MAX_BUFFER val"
	.ascii	"ue: %d!\012\015\000"
	.section	.rodata.server_start_task.str1.1,"aMS",%progbits,1
.LC0:
	.ascii	"\015\012[ERROR] Please using ATP2 to input an valid"
	.ascii	" local PORT!\015\012\000"
.LC1:
	.ascii	"\012\015Start Server\015\012\011[IP]: %d.%d.%d.%d\015"
	.ascii	"\012\011[PORT]:%d\012\015\012\015\000"
.LC2:
	.ascii	"Unknown connection type[%d]\000"
.LC3:
	.ascii	"\015\012\000"
.LC4:
	.ascii	"ERROR opening socket\000"
.LC5:
	.ascii	"ERROR on setting socket option\000"
.LC6:
	.ascii	"ERROR on binding\000"
.LC7:
	.ascii	"ERROR on listening\000"
.LC8:
	.ascii	"The TCP SERVER START OK!\000"
.LC9:
	.ascii	"ERROR on accept\000"
.LC10:
	.ascii	"A client connected to this server :\015\012[PORT]: "
	.ascii	"%d\015\012[IP]:%s\000"
.LC11:
	.ascii	"The UDP SERVER START OK!\000"
.LC12:
	.ascii	"\015\012[ATPS] ERROR:%d\000"
.LC13:
	.ascii	"\015\012\012# \000"
	.text
.Letext0:
	.file 2 "/home/ls/8720cf/sdk-ameba-v7.1d/tools/arm-none-eabi-gcc/asdk/linux/newlib/arm-none-eabi/include/machine/_default_types.h"
	.file 3 "/home/ls/8720cf/sdk-ameba-v7.1d/tools/arm-none-eabi-gcc/asdk/linux/newlib/lib/gcc/arm-none-eabi/6.5.0/include/stddef.h"
	.file 4 "/home/ls/8720cf/sdk-ameba-v7.1d/tools/arm-none-eabi-gcc/asdk/linux/newlib/arm-none-eabi/include/sys/lock.h"
	.file 5 "/home/ls/8720cf/sdk-ameba-v7.1d/tools/arm-none-eabi-gcc/asdk/linux/newlib/arm-none-eabi/include/sys/_types.h"
	.file 6 "/home/ls/8720cf/sdk-ameba-v7.1d/tools/arm-none-eabi-gcc/asdk/linux/newlib/arm-none-eabi/include/sys/reent.h"
	.file 7 "<built-in>"
	.file 8 "/home/ls/8720cf/sdk-ameba-v7.1d/tools/arm-none-eabi-gcc/asdk/linux/newlib/arm-none-eabi/include/sys/_stdint.h"
	.file 9 "/home/ls/8720cf/sdk-ameba-v7.1d/tools/arm-none-eabi-gcc/asdk/linux/newlib/arm-none-eabi/include/sys/types.h"
	.file 10 "/home/ls/8720cf/sdk-ameba-v7.1d/tools/arm-none-eabi-gcc/asdk/linux/newlib/arm-none-eabi/include/time.h"
	.file 11 "/home/ls/8720cf/sdk-ameba-v7.1d/tools/arm-none-eabi-gcc/asdk/linux/newlib/lib/gcc/arm-none-eabi/6.5.0/include/stdarg.h"
	.file 12 "/home/ls/8720cf/sdk-ameba-v7.1d/tools/arm-none-eabi-gcc/asdk/linux/newlib/arm-none-eabi/include/stdio.h"
	.file 13 "/home/ls/8720cf/sdk-ameba-v7.1d/tools/arm-none-eabi-gcc/asdk/linux/newlib/arm-none-eabi/include/stdlib.h"
	.file 14 "../../../component/soc/realtek/8710c/cmsis/rtl8710c/include/basic_types.h"
	.file 15 "../../../component/common/api/at_cmd/log_service.h"
	.file 16 "../../../component/common/drivers/wlan/realtek/include/autoconf.h"
	.file 17 "../../../component/common/network/lwip/lwip_v2.0.2/port/realtek/arch/cc.h"
	.file 18 "../../../component/common/network/lwip/lwip_v2.0.2/src/include/lwip/err.h"
	.file 19 "../inc/FreeRTOSConfig.h"
	.file 20 "../../../component/soc/realtek/8710c/app/rtl_printf/include/log_buf.h"
	.file 21 "../../../component/soc/realtek/8710c/app/stdio_port/stdio_port.h"
	.file 22 "../../../component/soc/realtek/8710c/app/rtl_printf/include/printf_entry.h"
	.file 23 "../../../component/soc/realtek/8710c/app/rtl_printf/include/rt_printf.h"
	.file 24 "../../../component/soc/realtek/8710c/misc/utilities/include/utility.h"
	.file 25 "../../../component/os/freertos/freertos_v10.0.1/Source/portable/GCC/ARM_RTL8710C/portmacro.h"
	.file 26 "../../../component/os/freertos/freertos_v10.0.1/Source/include/task.h"
	.file 27 "../../../component/common/network/lwip/lwip_v2.0.2/src/include/lwip/timeouts.h"
	.file 28 "../../../component/common/network/lwip/lwip_v2.0.2/src/include/lwip/ip4_addr.h"
	.file 29 "../../../component/common/network/lwip/lwip_v2.0.2/src/include/lwip/ip_addr.h"
	.file 30 "../../../component/common/network/lwip/lwip_v2.0.2/src/include/lwip/pbuf.h"
	.file 31 "../../../component/common/network/lwip/lwip_v2.0.2/src/include/lwip/memp.h"
	.file 32 "../../../component/common/network/lwip/lwip_v2.0.2/src/include/lwip/priv/memp_priv.h"
	.file 33 "../../../component/common/network/lwip/lwip_v2.0.2/src/include/lwip/netif.h"
	.file 34 "../../../component/common/network/lwip/lwip_v2.0.2/src/include/lwip/inet.h"
	.file 35 "../../../component/common/network/lwip/lwip_v2.0.2/src/include/lwip/errno.h"
	.file 36 "../../../component/common/network/lwip/lwip_v2.0.2/src/include/lwip/sockets.h"
	.file 37 "../../../component/common/network/lwip/lwip_v2.0.2/src/include/lwip/tcp.h"
	.file 38 "../../../component/common/network/lwip/lwip_v2.0.2/src/include/lwip/udp.h"
	.file 39 "../../../component/common/network/lwip/lwip_v2.0.2/src/include/lwip/prot/ip4.h"
	.file 40 "../../../component/common/network/lwip/lwip_v2.0.2/src/include/lwip/ip.h"
	.file 41 "../../../component/common/network/lwip/lwip_v2.0.2/src/include/lwip/netdb.h"
	.file 42 "../../../component/common/api/platform/platform_stdlib_rtl8710c.h"
	.file 43 "/home/ls/8720cf/sdk-ameba-v7.1d/tools/arm-none-eabi-gcc/asdk/linux/newlib/arm-none-eabi/include/string.h"
	.file 44 "../../../component/os/os_dep/include/osdep_service.h"
	.file 45 "../../../component/common/api/lwip_netconf.h"
	.file 46 "../../../component/common/network/lwip/lwip_v2.0.2/src/include/lwip/def.h"