	.arch armv8-m.main
	.arch_extension dsp
	.eabi_attribute 20, 1
	.eabi_attribute 21, 1
	.eabi_attribute 23, 3
	.eabi_attribute 24, 1
	.eabi_attribute 25, 1
	.eabi_attribute 26, 1
	.eabi_attribute 30, 4
	.eabi_attribute 34, 1
	.eabi_attribute 18, 4
	.file	"bas.c"
	.text
.Ltext0:
	.cfi_sections	.debug_frame
	.section	.text.bas_cccd_update_cb,"ax",%progbits
	.align	1
	.global	bas_cccd_update_cb
	.syntax unified
	.thumb
	.thumb_func
	.fpu softvfp
	.type	bas_cccd_update_cb, %function
bas_cccd_update_cb:
.LFB4:
	.file 1 "../../../component/common/bluetooth/realtek/sdk/src/ble/profile/server/bas.c"
	.loc 1 283 0
	.cfi_startproc
	@ args = 0, pretend = 0, frame = 8
	@ frame_needed = 0, uses_anonymous_args = 0
.LVL0:
	push	{r4, r5, r6, r7, lr}
	.cfi_def_cfa_offset 20
	.cfi_offset 4, -20
	.cfi_offset 5, -16
	.cfi_offset 6, -12
	.cfi_offset 7, -8
	.cfi_offset 14, -4
	mov	r6, r2
	.loc 1 285 0
	movs	r4, #1
	.loc 1 283 0
	sub	sp, sp, #20
	.cfi_def_cfa_offset 40
	.loc 1 286 0
	strb	r0, [sp, #12]
.LVL1:
.LBB5:
	.loc 1 288 0
	str	r3, [sp]
.LBE5:
	.loc 1 283 0
	mov	r7, r1
	mov	r5, r3
.LBB6:
	.loc 1 288 0
	ldr	r1, .L14
.LVL2:
	mov	r3, r2
.LVL3:
	ldr	r0, .L14+4
.LVL4:
	movs	r2, #2
.LVL5:
.LBE6:
	.loc 1 285 0
	strb	r4, [sp, #13]
.LBB7:
	.loc 1 288 0
	bl	trace_log_buffer
.LVL6:
.LBE7:
	.loc 1 290 0
	cmp	r6, #3
	bne	.L13
	.loc 1 294 0
	lsls	r3, r5, #31
	.loc 1 300 0
	itet	pl
	movpl	r3, #2
	.loc 1 296 0
	strbmi	r4, [sp, #14]
	.loc 1 300 0
	strbpl	r3, [sp, #14]
.L2:
.LVL7:
	.loc 1 312 0
	ldr	r3, .L14+8
	ldr	r3, [r3]
	cbz	r3, .L1
	.loc 1 312 0 is_stmt 0 discriminator 1
	cbz	r4, .L1
	.loc 1 314 0 is_stmt 1
	add	r1, sp, #12
	mov	r0, r7
	blx	r3
.LVL8:
.L1:
	.loc 1 318 0
	add	sp, sp, #20
	.cfi_remember_state
	.cfi_def_cfa_offset 20
	@ sp needed
	pop	{r4, r5, r6, r7, pc}
.LVL9:
.L13:
	.cfi_restore_state
	.loc 1 306 0
	movs	r4, #0
	b	.L2
.L15:
	.align	2
.L14:
	.word	.LANCHOR0
	.word	1058025474
	.word	.LANCHOR1
	.cfi_endproc
.LFE4:
	.size	bas_cccd_update_cb, .-bas_cccd_update_cb
	.section	.text.bas_attr_read_cb,"ax",%progbits
	.align	1
	.global	bas_attr_read_cb
	.syntax unified
	.thumb
	.thumb_func
	.fpu softvfp
	.type	bas_attr_read_cb, %function
bas_attr_read_cb:
.LFB3:
	.loc 1 238 0
	.cfi_startproc
	@ args = 8, pretend = 0, frame = 8
	@ frame_needed = 0, uses_anonymous_args = 0
.LVL10:
	push	{r4, r5, r6, r7, lr}
	.cfi_def_cfa_offset 20
	.cfi_offset 4, -20
	.cfi_offset 5, -16
	.cfi_offset 6, -12
	.cfi_offset 7, -8
	.cfi_offset 14, -4
	mov	r4, r2
.LVL11:
	.loc 1 240 0
	movs	r2, #0
.LVL12:
	.loc 1 238 0
	sub	sp, sp, #20
	.cfi_def_cfa_offset 40
	.loc 1 238 0
	ldr	r5, [sp, #40]
	mov	r7, r0
	.loc 1 240 0
	strh	r2, [r5]	@ movhi
	.loc 1 238 0
	mov	r6, r1
.LBB15:
	.loc 1 242 0
	str	r3, [sp]
	movs	r2, #2
	mov	r3, r4
.LVL13:
	ldr	r1, .L21
.LVL14:
	ldr	r0, .L21+4
.LVL15:
	bl	trace_log_buffer
.LVL16:
.LBE15:
	.loc 1 244 0
	cmp	r4, #2
	beq	.L18
.LBB16:
	.loc 1 248 0
	ldr	r0, .L21+8
	mov	r3, r4
	movs	r2, #1
	ldr	r1, .L21+12
	bl	trace_log_buffer
.LVL17:
.LBE16:
	.loc 1 249 0
	movw	r0, #1034
.LVL18:
.L19:
	.loc 1 271 0
	add	sp, sp, #20
	.cfi_remember_state
	.cfi_def_cfa_offset 20
	@ sp needed
	pop	{r4, r5, r6, r7, pc}
.LVL19:
.L18:
	.cfi_restore_state
.LBB17:
.LBB18:
.LBB19:
	.loc 1 256 0
	strb	r4, [sp, #13]
	.loc 1 258 0
	movs	r4, #1
	.loc 1 259 0
	ldr	r3, .L21+16
	.loc 1 257 0
	strb	r7, [sp, #12]
	.loc 1 259 0
	ldr	r3, [r3]
	.loc 1 258 0
	strb	r4, [sp, #14]
	.loc 1 259 0
	add	r1, sp, #12
	mov	r0, r6
	blx	r3
.LVL20:
	.loc 1 260 0
	movw	r3, #3329
	cmp	r0, r3
	.loc 1 262 0
	it	eq
	ldreq	r3, .L21+20
	.loc 1 265 0
	ldr	r2, .L21+24
	.loc 1 262 0
	it	eq
	strbeq	r4, [r3]
	.loc 1 265 0
	ldr	r3, [sp, #44]
	str	r2, [r3]
	.loc 1 266 0
	movs	r3, #1
	strh	r3, [r5]	@ movhi
.LVL21:
	b	.L19
.L22:
	.align	2
.L21:
	.word	.LANCHOR0+48
	.word	1058025474
	.word	1058025472
	.word	.LANCHOR0+96
	.word	.LANCHOR1
	.word	.LANCHOR2
	.word	.LANCHOR3
.LBE19:
.LBE18:
.LBE17:
	.cfi_endproc
.LFE3:
	.size	bas_attr_read_cb, .-bas_attr_read_cb
	.section	.text.bas_set_parameter,"ax",%progbits
	.align	1
	.global	bas_set_parameter
	.syntax unified
	.thumb
	.thumb_func
	.fpu softvfp
	.type	bas_set_parameter, %function
bas_set_parameter:
.LFB0:
	.loc 1 137 0
	.cfi_startproc
	@ args = 0, pretend = 0, frame = 0
	@ frame_needed = 0, uses_anonymous_args = 0
.LVL22:
	.loc 1 140 0
	cmp	r0, #1
	.loc 1 137 0
	push	{r3, lr}
	.cfi_def_cfa_offset 8
	.cfi_offset 3, -8
	.cfi_offset 14, -4
	.loc 1 140 0
	beq	.L25
.LVL23:
.LBB20:
	.loc 1 145 0
	movs	r2, #0
.LVL24:
	ldr	r1, .L28
.LVL25:
	ldr	r0, .L28+4
.LVL26:
	bl	trace_log_buffer
.LVL27:
.L27:
.LBE20:
	.loc 1 153 0
	movs	r0, #0
.LVL28:
	.loc 1 164 0
	pop	{r3, pc}
.LVL29:
.L25:
	.loc 1 151 0
	cmp	r1, #1
	bne	.L27
	.loc 1 157 0
	ldrb	r2, [r2]	@ zero_extendqisi2
.LVL30:
	ldr	r3, .L28+8
	.loc 1 138 0
	mov	r0, r1
.LVL31:
	.loc 1 157 0
	strb	r2, [r3]
	pop	{r3, pc}
.L29:
	.align	2
.L28:
	.word	.LANCHOR0+144
	.word	1058025472
	.word	.LANCHOR3
	.cfi_endproc
.LFE0:
	.size	bas_set_parameter, .-bas_set_parameter
	.section	.text.bas_battery_level_value_notify,"ax",%progbits
	.align	1
	.global	bas_battery_level_value_notify
	.syntax unified
	.thumb
	.thumb_func
	.fpu softvfp
	.type	bas_battery_level_value_notify, %function
bas_battery_level_value_notify:
.LFB1:
	.loc 1 186 0
	.cfi_startproc
	@ args = 0, pretend = 0, frame = 8
	@ frame_needed = 0, uses_anonymous_args = 0
.LVL32:
	push	{r0, r1, r2, r3, r4, lr}
	.cfi_def_cfa_offset 24
	.cfi_offset 14, -4
	.loc 1 186 0
	add	r3, sp, #16
	strb	r2, [r3, #-1]!
	.loc 1 187 0
	mov	ip, #0
	movs	r2, #1
.LVL33:
	stm	sp, {r2, ip}
	movs	r2, #2
	bl	server_send_data
.LVL34:
	.loc 1 189 0
	add	sp, sp, #20
	.cfi_def_cfa_offset 4
	@ sp needed
	ldr	pc, [sp], #4
	.cfi_endproc
.LFE1:
	.size	bas_battery_level_value_notify, .-bas_battery_level_value_notify
	.section	.text.bas_battery_level_value_read_confirm,"ax",%progbits
	.align	1
	.global	bas_battery_level_value_read_confirm
	.syntax unified
	.thumb
	.thumb_func
	.fpu softvfp
	.type	bas_battery_level_value_read_confirm, %function
bas_battery_level_value_read_confirm:
.LFB2:
	.loc 1 212 0
	.cfi_startproc
	@ args = 0, pretend = 0, frame = 8
	@ frame_needed = 0, uses_anonymous_args = 0
.LVL35:
	push	{r0, r1, r2, r3, r4, lr}
	.cfi_def_cfa_offset 24
	.cfi_offset 14, -4
	.loc 1 212 0
	strb	r2, [sp, #15]
	.loc 1 213 0
	ldr	r2, .L36
.LVL36:
	ldrb	r3, [r2]	@ zero_extendqisi2
	cbz	r3, .L32
	.loc 1 215 0
	movs	r3, #0
	strb	r3, [r2]
	.loc 1 216 0
	str	r3, [sp, #4]
	movs	r3, #1
	movs	r2, #2
	str	r3, [sp]
	add	r3, sp, #15
.LVL37:
	bl	server_attr_read_confirm
.LVL38:
	mov	r3, r0
.L32:
	.loc 1 223 0
	mov	r0, r3
	add	sp, sp, #20
	.cfi_def_cfa_offset 4
	@ sp needed
	ldr	pc, [sp], #4
.L37:
	.align	2
.L36:
	.word	.LANCHOR2
	.cfi_endproc
.LFE2:
	.size	bas_battery_level_value_read_confirm, .-bas_battery_level_value_read_confirm
	.section	.text.bas_add_service,"ax",%progbits
	.align	1
	.global	bas_add_service
	.syntax unified
	.thumb
	.thumb_func
	.fpu softvfp
	.type	bas_add_service, %function
bas_add_service:
.LFB5:
	.loc 1 349 0
	.cfi_startproc
	@ args = 0, pretend = 0, frame = 8
	@ frame_needed = 0, uses_anonymous_args = 0
.LVL39:
	push	{r0, r1, r2, r3, r4, lr}
	.cfi_def_cfa_offset 24
	.cfi_offset 4, -8
	.cfi_offset 14, -4
	.loc 1 351 0
	ldr	r3, .L40
	.loc 1 349 0
	mov	r4, r0
	.loc 1 351 0
	adds	r2, r3, #4
	ldm	r2, {r0, r1}
.LVL40:
	ldr	r3, [r3]
	stm	sp, {r0, r1}
	movs	r2, #112
	ldr	r1, .L40+4
	add	r0, sp, #15
	bl	server_add_service
.LVL41:
	.loc 1 351 0
	cbnz	r0, .L39
.LBB21:
	.loc 1 356 0
	ldrb	r3, [sp, #15]	@ zero_extendqisi2
	movs	r2, #1
	ldr	r1, .L40+8
	ldr	r0, .L40+12
	bl	trace_log_buffer
.LVL42:
.LBE21:
	.loc 1 357 0
	movs	r3, #255
	strb	r3, [sp, #15]
.L39:
	.loc 1 359 0
	ldr	r3, .L40+16
	.loc 1 361 0
	ldrb	r0, [sp, #15]	@ zero_extendqisi2
	.loc 1 359 0
	str	r4, [r3]
	.loc 1 361 0
	add	sp, sp, #16
	.cfi_def_cfa_offset 8
	@ sp needed
	pop	{r4, pc}
.LVL43:
.L41:
	.align	2
.L40:
	.word	.LANCHOR4
	.word	.LANCHOR5
	.word	.LANCHOR0+172
	.word	1058025472
	.word	.LANCHOR1
	.cfi_endproc
.LFE5:
	.size	bas_add_service, .-bas_add_service
	.global	bas_cbs
	.section	.BTTRACE,"a",%progbits
	.align	2
	.set	.LANCHOR0,. + 0
	.type	format.5337, %object
	.size	format.5337, 45
format.5337:
	.ascii	"!**bas_cccd_update_cb index = %d ccc_bits %x\000"
	.space	3
	.type	format.5323, %object
	.size	format.5323, 48
format.5323:
	.ascii	"!**bas_attr_read_cb attrib_index = %d offset %x\000"
	.type	format.5325, %object
	.size	format.5325, 48
format.5325:
	.ascii	"!!!bas_attr_read_cb attrib_index = %d not found\000"
	.type	format.5301, %object
	.size	format.5301, 28
format.5301:
	.ascii	"!!!bas_set_parameter failed\000"
	.type	format.5346, %object
	.size	format.5346, 34
format.5346:
	.ascii	"!!!bas_add_service: service_id %d\000"
	.section	.bss.bas_read_battery_level_pending,"aw",%nobits
	.set	.LANCHOR2,. + 0
	.type	bas_read_battery_level_pending, %object
	.size	bas_read_battery_level_pending, 1
bas_read_battery_level_pending:
	.space	1
	.section	.bss.battery_level,"aw",%nobits
	.set	.LANCHOR3,. + 0
	.type	battery_level, %object
	.size	battery_level, 1
battery_level:
	.space	1
	.section	.bss.pfn_bas_cb,"aw",%nobits
	.align	2
	.set	.LANCHOR1,. + 0
	.type	pfn_bas_cb, %object
	.size	pfn_bas_cb, 4
pfn_bas_cb:
	.space	4
	.section	.rodata.bas_attr_tbl,"a",%progbits
	.align	2
	.set	.LANCHOR5,. + 0
	.type	bas_attr_tbl, %object
	.size	bas_attr_tbl, 112
bas_attr_tbl:
	.short	2050
	.byte	0
	.byte	40
	.byte	15
	.byte	24
	.space	12
	.short	2
	.word	0
	.word	1
	.short	2
	.byte	3
	.byte	40
	.byte	18
	.space	13
	.short	1
	.word	0
	.word	1
	.short	4
	.byte	25
	.byte	42
	.space	14
	.short	0
	.word	0
	.word	1
	.short	18
	.byte	2
	.byte	41
	.byte	0
	.byte	0
	.space	12
	.short	2
	.word	0
	.word	17
	.section	.rodata.bas_cbs,"a",%progbits
	.align	2
	.set	.LANCHOR4,. + 0
	.type	bas_cbs, %object
	.size	bas_cbs, 12
bas_cbs:
	.word	bas_attr_read_cb
	.word	0
	.word	bas_cccd_update_cb
	.text
.Letext0:
	.file 2 "/home/ls/samba_share/sdk-ameba-v7.1d/tools/arm-none-eabi-gcc/asdk/linux/newlib/arm-none-eabi/include/machine/_default_types.h"
	.file 3 "/home/ls/samba_share/sdk-ameba-v7.1d/tools/arm-none-eabi-gcc/asdk/linux/newlib/arm-none-eabi/include/sys/lock.h"
	.file 4 "/home/ls/samba_share/sdk-ameba-v7.1d/tools/arm-none-eabi-gcc/asdk/linux/newlib/arm-none-eabi/include/sys/_types.h"
	.file 5 "/home/ls/samba_share/sdk-ameba-v7.1d/tools/arm-none-eabi-gcc/asdk/linux/newlib/lib/gcc/arm-none-eabi/6.5.0/include/stddef.h"
	.file 6 "/home/ls/samba_share/sdk-ameba-v7.1d/tools/arm-none-eabi-gcc/asdk/linux/newlib/arm-none-eabi/include/sys/reent.h"
	.file 7 "/home/ls/samba_share/sdk-ameba-v7.1d/tools/arm-none-eabi-gcc/asdk/linux/newlib/arm-none-eabi/include/sys/_stdint.h"
	.file 8 "/home/ls/samba_share/sdk-ameba-v7.1d/tools/arm-none-eabi-gcc/asdk/linux/newlib/arm-none-eabi/include/time.h"
	.file 9 "../../../component/common/bluetooth/realtek/sdk/inc/platform/trace.h"
	.file 10 "../../../component/common/bluetooth/realtek/sdk/inc/bluetooth/profile/gatt.h"
	.file 11 "../../../component/common/bluetooth/realtek/sdk/inc/bluetooth/gap/gap.h"
	.file 12 "../../../component/common/bluetooth/realtek/sdk/inc/bluetooth/gap/gap_storage_le.h"
	.file 13 "../../../component/common/bluetooth/realtek/sdk/inc/bluetooth/profile/profile_server.h"
	.file 14 "../../../component/common/bluetooth/realtek/sdk/inc/bluetooth/profile/server/bas.h"