	.arch armv8-m.main
	.arch_extension dsp
	.eabi_attribute 20, 1
	.eabi_attribute 21, 1
	.eabi_attribute 23, 3
	.eabi_attribute 24, 1
	.eabi_attribute 25, 1
	.eabi_attribute 26, 1
	.eabi_attribute 30, 4
	.eabi_attribute 34, 1
	.eabi_attribute 18, 4
	.file	"ble_scatternet_app_main.c"
	.text
.Ltext0:
	.cfi_sections	.debug_frame
	.section	.text.ble_scatternet_bt_stack_config_init,"ax",%progbits
	.align	1
	.global	ble_scatternet_bt_stack_config_init
	.syntax unified
	.thumb
	.thumb_func
	.fpu softvfp
	.type	ble_scatternet_bt_stack_config_init, %function
ble_scatternet_bt_stack_config_init:
.LFB158:
	.file 1 "../../../component/common/bluetooth/realtek/sdk/example/ble_scatternet/ble_scatternet_app_main.c"
	.loc 1 150 0
	.cfi_startproc
	@ args = 0, pretend = 0, frame = 0
	@ frame_needed = 0, uses_anonymous_args = 0
	@ link register save eliminated.
	.loc 1 151 0
	movs	r0, #2
	b	gap_config_max_le_link_num
.LVL0:
	.cfi_endproc
.LFE158:
	.size	ble_scatternet_bt_stack_config_init, .-ble_scatternet_bt_stack_config_init
	.section	.text.ble_scatternet_app_le_gap_init,"ax",%progbits
	.align	1
	.global	ble_scatternet_app_le_gap_init
	.syntax unified
	.thumb
	.thumb_func
	.fpu softvfp
	.type	ble_scatternet_app_le_gap_init, %function
ble_scatternet_app_le_gap_init:
.LFB159:
	.loc 1 159 0
	.cfi_startproc
	@ args = 0, pretend = 0, frame = 128
	@ frame_needed = 0, uses_anonymous_args = 0
	push	{r4, r5, r6, lr}
	.cfi_def_cfa_offset 16
	.cfi_offset 4, -16
	.cfi_offset 5, -12
	.cfi_offset 6, -8
	.cfi_offset 14, -4
	sub	sp, sp, #128
	.cfi_def_cfa_offset 144
	.loc 1 167 0
	add	r2, sp, #48
	mov	r5, r2
	ldr	r3, .L7
	add	r6, r3, #8
.L3:
	mov	r4, r2
	ldr	r0, [r3]	@ unaligned
	ldr	r1, [r3, #4]	@ unaligned
	adds	r3, r3, #8
	stmia	r4!, {r0, r1}
	cmp	r3, r6
	mov	r2, r4
	bne	.L3
	ldr	r0, [r3]	@ unaligned
	ldrh	r1, [r3, #4]	@ unaligned
	ldrb	r3, [r3, #6]	@ zero_extendqisi2
	str	r0, [r4]
	strh	r1, [r4, #4]	@ unaligned
	strb	r3, [r4, #6]
	movs	r2, #25
	movs	r1, #0
	add	r0, sp, #63
	bl	memset
.LVL1:
	.loc 1 175 0
	movs	r2, #7
	strb	r2, [sp, #7]
	.loc 1 177 0
	mov	r2, #352
	strh	r2, [sp, #20]	@ movhi
	.loc 1 178 0
	mov	r2, #384
	strh	r2, [sp, #22]	@ movhi
	.loc 1 182 0
	mov	r2, #1312
	strh	r2, [sp, #24]	@ movhi
	.loc 1 183 0
	strh	r2, [sp, #26]	@ movhi
	.loc 1 190 0
	movs	r2, #3
	.loc 1 168 0
	movs	r3, #0
	.loc 1 181 0
	movs	r4, #1
	.loc 1 190 0
	strb	r2, [sp, #13]
	.loc 1 200 0
	movs	r1, #40
	mov	r2, r5
	movw	r0, #546
	.loc 1 168 0
	strh	r3, [sp, #18]	@ movhi
	.loc 1 172 0
	strb	r3, [sp, #5]
	.loc 1 173 0
	strb	r3, [sp, #6]
	.loc 1 174 0
	str	r3, [sp, #40]
	strh	r3, [sp, #44]	@ movhi
	.loc 1 176 0
	strb	r3, [sp, #8]
	.loc 1 184 0
	strb	r3, [sp, #10]
	.loc 1 194 0
	strb	r3, [sp, #14]
	.loc 1 195 0
	str	r3, [sp, #32]
	.loc 1 196 0
	strb	r3, [sp, #15]
	.loc 1 181 0
	strb	r4, [sp, #9]
	.loc 1 185 0
	strb	r4, [sp, #11]
	.loc 1 188 0
	strb	r4, [sp, #12]
	.loc 1 189 0
	strh	r4, [sp, #28]	@ movhi
	.loc 1 197 0
	strh	r4, [sp, #30]	@ movhi
	.loc 1 200 0
	bl	le_set_gap_param
.LVL2:
	.loc 1 201 0
	add	r2, sp, #18
	movs	r1, #2
	movw	r0, #545
	bl	le_set_gap_param
.LVL3:
	.loc 1 208 0
	add	r2, sp, #5
	mov	r1, r4
	movw	r0, #611
	bl	le_adv_set_param
.LVL4:
	.loc 1 209 0
	add	r2, sp, #6
	mov	r1, r4
	mov	r0, #612
	bl	le_adv_set_param
.LVL5:
	.loc 1 210 0
	add	r2, sp, #40
	movs	r1, #6
	movw	r0, #613
	bl	le_adv_set_param
.LVL6:
	.loc 1 211 0
	add	r2, sp, #7
	mov	r1, r4
	movw	r0, #614
	bl	le_adv_set_param
.LVL7:
	.loc 1 212 0
	add	r2, sp, #8
	mov	r1, r4
	movw	r0, #615
	bl	le_adv_set_param
.LVL8:
	.loc 1 213 0
	add	r2, sp, #20
	movs	r1, #2
	mov	r0, #616
	bl	le_adv_set_param
.LVL9:
	.loc 1 214 0
	add	r2, sp, #22
	movs	r1, #2
	movw	r0, #617
	bl	le_adv_set_param
.LVL10:
	.loc 1 215 0
	ldr	r2, .L7+4
	movs	r1, #23
	movw	r0, #609
	bl	le_adv_set_param
.LVL11:
	.loc 1 216 0
	ldr	r2, .L7+8
	movs	r1, #4
	movw	r0, #610
	bl	le_adv_set_param
.LVL12:
	.loc 1 219 0
	add	r2, sp, #9
	mov	r1, r4
	movw	r0, #577
	bl	le_scan_set_param
.LVL13:
	.loc 1 220 0
	add	r2, sp, #24
	movs	r1, #2
	movw	r0, #578
	bl	le_scan_set_param
.LVL14:
	.loc 1 221 0
	add	r2, sp, #26
	movs	r1, #2
	movw	r0, #579
	bl	le_scan_set_param
.LVL15:
	.loc 1 222 0
	add	r2, sp, #10
	mov	r1, r4
	mov	r0, #580
	bl	le_scan_set_param
.LVL16:
	.loc 1 224 0
	add	r2, sp, #11
	mov	r1, r4
	movw	r0, #581
	bl	le_scan_set_param
.LVL17:
	.loc 1 228 0
	add	r2, sp, #12
	mov	r1, r4
	movw	r0, #514
	bl	gap_set_param
.LVL18:
	.loc 1 229 0
	add	r2, sp, #28
	movs	r1, #2
	movw	r0, #515
	bl	gap_set_param
.LVL19:
	.loc 1 230 0
	add	r2, sp, #13
	mov	r1, r4
	mov	r0, #516
	bl	gap_set_param
.LVL20:
	.loc 1 234 0
	add	r2, sp, #32
	movs	r1, #4
	movw	r0, #529
	bl	le_bond_set_param
.LVL21:
	.loc 1 235 0
	add	r2, sp, #14
	mov	r1, r4
	movw	r0, #530
	bl	le_bond_set_param
.LVL22:
	.loc 1 237 0
	add	r2, sp, #15
	mov	r1, r4
	movw	r0, #531
	bl	le_bond_set_param
.LVL23:
	.loc 1 238 0
	add	r2, sp, #30
	movs	r1, #2
	mov	r0, #532
	bl	le_bond_set_param
.LVL24:
	.loc 1 242 0
	ldr	r0, .L7+12
	bl	le_register_app_cb
.LVL25:
	.loc 1 274 0
	add	r0, sp, #36
	.loc 1 270 0
	strb	r4, [sp, #16]
	.loc 1 271 0
	strb	r4, [sp, #17]
	.loc 1 274 0
	bl	flash_load_local_appearance
.LVL26:
	cbnz	r0, .L4
	.loc 1 276 0
	add	r2, sp, #36
	movs	r1, #2
	mov	r0, r4
	bl	gaps_set_parameter
.LVL27:
.L4:
	.loc 1 279 0
	add	r0, sp, #88
	bl	flash_load_local_name
.LVL28:
	cbnz	r0, .L5
	.loc 1 281 0
	add	r2, sp, #88
	movs	r1, #40
	bl	gaps_set_parameter
.LVL29:
.L5:
	.loc 1 283 0
	add	r2, sp, #16
	movs	r1, #1
	movs	r0, #3
	bl	gaps_set_parameter
.LVL30:
	.loc 1 284 0
	add	r2, sp, #17
	movs	r1, #1
	movs	r0, #2
	bl	gaps_set_parameter
.LVL31:
	.loc 1 285 0
	ldr	r0, .L7+16
	bl	gatt_register_callback
.LVL32:
	.loc 1 298 0
	add	sp, sp, #128
	.cfi_def_cfa_offset 16
	@ sp needed
	pop	{r4, r5, r6, pc}
.L8:
	.align	2
.L7:
	.word	.LANCHOR0
	.word	.LANCHOR1
	.word	.LANCHOR2
	.word	ble_scatternet_app_gap_callback
	.word	ble_scatternet_gap_service_callback
	.cfi_endproc
.LFE159:
	.size	ble_scatternet_app_le_gap_init, .-ble_scatternet_app_le_gap_init
	.section	.text.ble_scatternet_app_le_profile_init,"ax",%progbits
	.align	1
	.global	ble_scatternet_app_le_profile_init
	.syntax unified
	.thumb
	.thumb_func
	.fpu softvfp
	.type	ble_scatternet_app_le_profile_init, %function
ble_scatternet_app_le_profile_init:
.LFB160:
	.loc 1 305 0
	.cfi_startproc
	@ args = 0, pretend = 0, frame = 0
	@ frame_needed = 0, uses_anonymous_args = 0
	push	{r4, lr}
	.cfi_def_cfa_offset 8
	.cfi_offset 4, -8
	.cfi_offset 14, -4
	.loc 1 306 0
	movs	r0, #1
	bl	client_init
.LVL33:
	.loc 1 307 0
	movs	r2, #40
	movs	r1, #2
	ldr	r0, .L10
	bl	gcs_add_client
.LVL34:
	ldr	r3, .L10+4
	.loc 1 315 0
	ldr	r4, .L10+8
	.loc 1 307 0
	strb	r0, [r3]
	.loc 1 314 0
	movs	r0, #2
	bl	server_init
.LVL35:
	.loc 1 315 0
	mov	r0, r4
	bl	simp_ble_service_add_service
.LVL36:
	ldr	r3, .L10+12
	strb	r0, [r3]
	.loc 1 316 0
	mov	r0, r4
	bl	bas_add_service
.LVL37:
	ldr	r3, .L10+16
	strb	r0, [r3]
	.loc 1 317 0
	mov	r0, r4
	.loc 1 320 0
	pop	{r4, lr}
	.cfi_restore 14
	.cfi_restore 4
	.cfi_def_cfa_offset 0
	.loc 1 317 0
	b	server_register_app_cb
.LVL38:
.L11:
	.align	2
.L10:
	.word	ble_scatternet_gcs_client_callback
	.word	ble_scatternet_gcs_client_id
	.word	app_profile_callback
	.word	simp_srv_id
	.word	bas_srv_id
	.cfi_endproc
.LFE160:
	.size	ble_scatternet_app_le_profile_init, .-ble_scatternet_app_le_profile_init
	.section	.text.ble_scatternet_task_init,"ax",%progbits
	.align	1
	.global	ble_scatternet_task_init
	.syntax unified
	.thumb
	.thumb_func
	.fpu softvfp
	.type	ble_scatternet_task_init, %function
ble_scatternet_task_init:
.LFB161:
	.loc 1 329 0
	.cfi_startproc
	@ args = 0, pretend = 0, frame = 0
	@ frame_needed = 0, uses_anonymous_args = 0
	@ link register save eliminated.
	.loc 1 330 0
	b	ble_scatternet_app_task_init
.LVL39:
	.cfi_endproc
.LFE161:
	.size	ble_scatternet_task_init, .-ble_scatternet_task_init
	.section	.text.ble_scatternet_app_main,"ax",%progbits
	.align	1
	.global	ble_scatternet_app_main
	.syntax unified
	.thumb
	.thumb_func
	.fpu softvfp
	.type	ble_scatternet_app_main, %function
ble_scatternet_app_main:
.LFB162:
	.loc 1 342 0
	.cfi_startproc
	@ args = 0, pretend = 0, frame = 0
	@ frame_needed = 0, uses_anonymous_args = 0
	push	{r3, lr}
	.cfi_def_cfa_offset 8
	.cfi_offset 3, -8
	.cfi_offset 14, -4
	.loc 1 343 0
	bl	bt_trace_init
.LVL40:
	.loc 1 344 0
	bl	ble_scatternet_bt_stack_config_init
.LVL41:
	.loc 1 345 0
	bl	bte_init
.LVL42:
	.loc 1 346 0
	movs	r0, #2
	bl	le_gap_init
.LVL43:
	.loc 1 347 0
	bl	ble_scatternet_app_le_gap_init
.LVL44:
	.loc 1 348 0
	bl	ble_scatternet_app_le_profile_init
.LVL45:
.LBB4:
.LBB5:
	.loc 1 330 0
	bl	ble_scatternet_app_task_init
.LVL46:
.LBE5:
.LBE4:
	.loc 1 352 0
	movs	r0, #0
	pop	{r3, pc}
	.cfi_endproc
.LFE162:
	.size	ble_scatternet_app_main, .-ble_scatternet_app_main
	.section	.text.ble_scatternet_app_init,"ax",%progbits
	.align	1
	.global	ble_scatternet_app_init
	.syntax unified
	.thumb
	.thumb_func
	.fpu softvfp
	.type	ble_scatternet_app_init, %function
ble_scatternet_app_init:
.LFB163:
	.loc 1 399 0
	.cfi_startproc
	@ args = 0, pretend = 0, frame = 8
	@ frame_needed = 0, uses_anonymous_args = 0
	push	{r0, r1, r2, lr}
	.cfi_def_cfa_offset 16
	.cfi_offset 14, -4
.L15:
	.loc 1 409 0
	movs	r0, #0
	bl	wifi_is_up
.LVL47:
	cbz	r0, .L16
.L20:
	.loc 1 432 0
	add	r1, sp, #4
	mov	r0, #544
	bl	le_get_gap_param
.LVL48:
	.loc 1 433 0
	ldrb	r3, [sp, #4]	@ zero_extendqisi2
	lsls	r2, r3, #31
	bpl	.L25
	.loc 1 437 0
	ldr	r0, .L26
	bl	__wrap_printf
.LVL49:
.L21:
	.loc 1 463 0
	movs	r0, #0
	add	sp, sp, #12
	.cfi_remember_state
	.cfi_def_cfa_offset 4
	@ sp needed
	ldr	pc, [sp], #4
.L16:
	.cfi_restore_state
	.loc 1 409 0 discriminator 1
	movs	r0, #1
	bl	wifi_is_up
.LVL50:
	cmp	r0, #0
	bne	.L20
	.loc 1 410 0
	mov	r0, #1000
	bl	vTaskDelay
.LVL51:
	b	.L15
.L25:
	.loc 1 441 0
	bl	ble_scatternet_app_main
.LVL52:
	.loc 1 442 0
	bl	bt_coex_init
.LVL53:
.L22:
	.loc 1 446 0 discriminator 1
	movs	r0, #100
	bl	vTaskDelay
.LVL54:
	.loc 1 447 0 discriminator 1
	add	r1, sp, #4
	mov	r0, #544
	bl	le_get_gap_param
.LVL55:
	.loc 1 448 0 discriminator 1
	ldrb	r3, [sp, #4]	@ zero_extendqisi2
	lsls	r3, r3, #31
	bpl	.L22
	.loc 1 451 0
	bl	wifi_btcoex_set_bt_on
.LVL56:
	.loc 1 461 0
	b	.L21
.L27:
	.align	2
.L26:
	.word	.LC1
	.cfi_endproc
.LFE163:
	.size	ble_scatternet_app_init, .-ble_scatternet_app_init
	.section	.text.ble_scatternet_app_deinit,"ax",%progbits
	.align	1
	.global	ble_scatternet_app_deinit
	.syntax unified
	.thumb
	.thumb_func
	.fpu softvfp
	.type	ble_scatternet_app_deinit, %function
ble_scatternet_app_deinit:
.LFB164:
	.loc 1 467 0
	.cfi_startproc
	@ args = 0, pretend = 0, frame = 8
	@ frame_needed = 0, uses_anonymous_args = 0
	push	{r0, r1, r2, lr}
	.cfi_def_cfa_offset 16
	.cfi_offset 14, -4
	.loc 1 475 0
	bl	ble_scatternet_app_task_deinit
.LVL57:
	.loc 1 477 0
	add	r1, sp, #4
	mov	r0, #544
	bl	le_get_gap_param
.LVL58:
	.loc 1 478 0
	ldrb	r3, [sp, #4]	@ zero_extendqisi2
	lsls	r3, r3, #31
	bmi	.L29
	.loc 1 479 0
	ldr	r0, .L32
.L31:
	.loc 1 486 0
	bl	__wrap_printf
.LVL59:
	.loc 1 489 0
	add	sp, sp, #12
	.cfi_remember_state
	.cfi_def_cfa_offset 4
	@ sp needed
	ldr	pc, [sp], #4
.L29:
	.cfi_restore_state
	.loc 1 483 0
	bl	gcs_delete_client
.LVL60:
	.loc 1 484 0
	bl	bte_deinit
.LVL61:
	.loc 1 485 0
	bl	bt_trace_uninit
.LVL62:
	.loc 1 486 0
	ldr	r0, .L32+4
	b	.L31
.L33:
	.align	2
.L32:
	.word	.LC2
	.word	.LC3
	.cfi_endproc
.LFE164:
	.size	ble_scatternet_app_deinit, .-ble_scatternet_app_deinit
	.section	.rodata
	.set	.LANCHOR0,. + 0
.LC0:
	.ascii	"BLE_SCATTERNET\000"
	.space	25
	.section	.rodata.adv_data,"a",%progbits
	.set	.LANCHOR1,. + 0
	.type	adv_data, %object
	.size	adv_data, 23
adv_data:
	.byte	2
	.byte	1
	.byte	5
	.byte	3
	.byte	3
	.byte	10
	.byte	-96
	.byte	15
	.byte	9
	.byte	66
	.byte	76
	.byte	69
	.byte	95
	.byte	83
	.byte	67
	.byte	65
	.byte	84
	.byte	84
	.byte	69
	.byte	82
	.byte	78
	.byte	69
	.byte	84
	.section	.rodata.ble_scatternet_app_deinit.str1.1,"aMS",%progbits,1
.LC2:
	.ascii	"[BLE Scatternet]BT Stack is not running\012\015\000"
.LC3:
	.ascii	"[BLE Scatternet]BT Stack deinitalized\012\015\000"
	.section	.rodata.ble_scatternet_app_init.str1.1,"aMS",%progbits,1
.LC1:
	.ascii	"[BLE Scatternet]BT Stack already on\012\015\000"
	.section	.rodata.scan_rsp_data,"a",%progbits
	.set	.LANCHOR2,. + 0
	.type	scan_rsp_data, %object
	.size	scan_rsp_data, 4
scan_rsp_data:
	.byte	3
	.byte	25
	.byte	0
	.byte	0
	.text
.Letext0:
	.file 2 "/home/ls/8720cf/sdk-ameba-v7.1d/tools/arm-none-eabi-gcc/asdk/linux/newlib/arm-none-eabi/include/machine/_default_types.h"
	.file 3 "/home/ls/8720cf/sdk-ameba-v7.1d/tools/arm-none-eabi-gcc/asdk/linux/newlib/lib/gcc/arm-none-eabi/6.5.0/include/stddef.h"
	.file 4 "/home/ls/8720cf/sdk-ameba-v7.1d/tools/arm-none-eabi-gcc/asdk/linux/newlib/arm-none-eabi/include/sys/lock.h"
	.file 5 "/home/ls/8720cf/sdk-ameba-v7.1d/tools/arm-none-eabi-gcc/asdk/linux/newlib/arm-none-eabi/include/sys/_types.h"
	.file 6 "/home/ls/8720cf/sdk-ameba-v7.1d/tools/arm-none-eabi-gcc/asdk/linux/newlib/arm-none-eabi/include/sys/reent.h"
	.file 7 "<built-in>"
	.file 8 "/home/ls/8720cf/sdk-ameba-v7.1d/tools/arm-none-eabi-gcc/asdk/linux/newlib/arm-none-eabi/include/sys/_stdint.h"
	.file 9 "/home/ls/8720cf/sdk-ameba-v7.1d/tools/arm-none-eabi-gcc/asdk/linux/newlib/arm-none-eabi/include/time.h"
	.file 10 "../../../component/common/bluetooth/realtek/sdk/inc/bluetooth/gap/gap.h"
	.file 11 "../../../component/common/bluetooth/realtek/sdk/inc/bluetooth/gap/gap_le_types.h"
	.file 12 "../../../component/common/bluetooth/realtek/sdk/inc/bluetooth/gap/gap_storage_le.h"
	.file 13 "../../../component/common/bluetooth/realtek/sdk/inc/bluetooth/gap/gap_le.h"
	.file 14 "../../../component/common/bluetooth/realtek/sdk/inc/bluetooth/gap/gap_bond_le.h"
	.file 15 "../../../component/common/bluetooth/realtek/sdk/inc/bluetooth/gap/gap_scan.h"
	.file 16 "../../../component/common/bluetooth/realtek/sdk/inc/bluetooth/profile/profile_client.h"
	.file 17 "../../../component/common/bluetooth/realtek/sdk/inc/bluetooth/gap/gap_msg.h"
	.file 18 "../../../component/common/bluetooth/realtek/sdk/inc/bluetooth/profile/profile_server.h"
	.file 19 "../../../component/common/bluetooth/realtek/sdk/example/ble_scatternet/ble_scatternet_app.h"
	.file 20 "../../../component/common/bluetooth/realtek/sdk/inc/bluetooth/gap/gap_conn_le.h"
	.file 21 "../../../component/common/bluetooth/realtek/sdk/example/ble_scatternet/ble_scatternet_link_mgr.h"
	.file 22 "/home/ls/8720cf/sdk-ameba-v7.1d/tools/arm-none-eabi-gcc/asdk/linux/newlib/lib/gcc/arm-none-eabi/6.5.0/include/stdarg.h"
	.file 23 "/home/ls/8720cf/sdk-ameba-v7.1d/tools/arm-none-eabi-gcc/asdk/linux/newlib/arm-none-eabi/include/stdio.h"
	.file 24 "../../../component/common/drivers/wlan/realtek/include/wifi_constants.h"
	.file 25 "../inc/FreeRTOSConfig.h"
	.file 26 "../../../component/soc/realtek/8710c/cmsis/rtl8710c/include/basic_types.h"
	.file 27 "../../../component/soc/realtek/8710c/app/rtl_printf/include/log_buf.h"
	.file 28 "../../../component/soc/realtek/8710c/app/stdio_port/stdio_port.h"
	.file 29 "../../../component/soc/realtek/8710c/app/rtl_printf/include/printf_entry.h"
	.file 30 "../../../component/soc/realtek/8710c/app/rtl_printf/include/rt_printf.h"
	.file 31 "../../../component/soc/realtek/8710c/misc/utilities/include/utility.h"
	.file 32 "../../../component/os/freertos/freertos_v10.0.1/Source/portable/GCC/ARM_RTL8710C/portmacro.h"
	.file 33 "../../../component/common/bluetooth/realtek/sdk/inc/bluetooth/gap/gap_adv.h"
	.file 34 "../../../component/common/bluetooth/realtek/sdk/inc/bluetooth/profile/gatt_builtin_services.h"
	.file 35 "../../../component/common/drivers/wlan/realtek/src/osdep/wireless.h"
	.file 36 "../../../component/common/drivers/wlan/realtek/include/autoconf.h"
	.file 37 "../../../component/common/api/wifi/wifi_util.h"
	.file 38 "/home/ls/8720cf/sdk-ameba-v7.1d/tools/arm-none-eabi-gcc/asdk/linux/newlib/arm-none-eabi/include/stdlib.h"
	.file 39 "../../../component/common/bluetooth/realtek/sdk/example/ble_scatternet/ble_scatternet_app_task.h"
	.file 40 "../../../component/common/api/platform/platform_stdlib_rtl8710c.h"
	.file 41 "../../../component/common/bluetooth/realtek/sdk/inc/stack/bte.h"
	.file 42 "../../../component/common/api/wifi/wifi_conf.h"
	.file 43 "../../../component/os/freertos/freertos_v10.0.1/Source/include/task.h"
	.file 44 "../../../component/common/bluetooth/realtek/sdk/board/amebaz2/src/rtk_coex.h"
	.file 45 "../../../component/common/bluetooth/realtek/sdk/inc/platform/trace_app.h"
	.file 46 "../../../component/common/bluetooth/realtek/sdk/inc/bluetooth/profile/client/gcs_client.h"
	.file 47 "../../../component/common/bluetooth/realtek/sdk/inc/bluetooth/profile/server/simple_ble_service.h"
	.file 48 "../../../component/common/bluetooth/realtek/sdk/inc/bluetooth/profile/server/bas.h"
	.file 49 "../../../component/common/bluetooth/realtek/sdk/inc/bluetooth/gap/gap_config.h"