	.arch armv8-m.main
	.arch_extension dsp
	.eabi_attribute 20, 1
	.eabi_attribute 21, 1
	.eabi_attribute 23, 3
	.eabi_attribute 24, 1
	.eabi_attribute 25, 1
	.eabi_attribute 26, 1
	.eabi_attribute 30, 4
	.eabi_attribute 34, 1
	.eabi_attribute 18, 4
	.file	"bt_airsync_config_peripheral_app.c"
	.text
.Ltext0:
	.cfi_sections	.debug_frame
	.section	.text.bt_airsync_config_app_set_adv_data,"ax",%progbits
	.align	1
	.global	bt_airsync_config_app_set_adv_data
	.syntax unified
	.thumb
	.thumb_func
	.fpu softvfp
	.type	bt_airsync_config_app_set_adv_data, %function
bt_airsync_config_app_set_adv_data:
.LFB1:
	.file 1 "../../../component/common/bluetooth/realtek/sdk/example/bt_airsync_config/bt_airsync_config_peripheral_app.c"
	.loc 1 93 0
	.cfi_startproc
	@ args = 0, pretend = 0, frame = 48
	@ frame_needed = 0, uses_anonymous_args = 0
	push	{r4, r5, r6, lr}
	.cfi_def_cfa_offset 16
	.cfi_offset 4, -16
	.cfi_offset 5, -12
	.cfi_offset 6, -8
	.cfi_offset 14, -4
	sub	sp, sp, #56
	.cfi_def_cfa_offset 72
	.loc 1 95 0
	add	r2, sp, #16
	mov	r5, r2
	ldr	r3, .L4
	add	r6, r3, #8
.L2:
	mov	r4, r2
	ldr	r0, [r3]	@ unaligned
	ldr	r1, [r3, #4]	@ unaligned
	adds	r3, r3, #8
	stmia	r4!, {r0, r1}
	cmp	r3, r6
	mov	r2, r4
	bne	.L2
	ldr	r0, [r3]	@ unaligned
	ldrb	r3, [r3, #4]	@ zero_extendqisi2
	str	r0, [r4]
	strb	r3, [r4, #4]
	movs	r2, #27
	movs	r1, #0
	add	r0, sp, #29
	bl	memset
.LVL0:
	.loc 1 96 0
	add	r1, sp, #8
	mov	r0, #512
	bl	gap_get_param
.LVL1:
	.loc 1 98 0
	ldrb	r1, [sp, #8]	@ zero_extendqisi2
	ldrb	r3, [sp, #9]	@ zero_extendqisi2
	ldrb	r2, [sp, #10]	@ zero_extendqisi2
	str	r1, [sp]
	mov	r0, r5
	ldr	r1, .L4+4
	bl	sprintf
.LVL2:
	.loc 1 99 0
	mov	r0, r5
	bl	strlen
.LVL3:
	ldr	r4, .L4+8
	mov	r2, r0
	mov	r1, r5
	adds	r0, r4, #5
	bl	memcpy
.LVL4:
.LBB12:
	.loc 1 101 0
	ldrb	r3, [sp, #13]	@ zero_extendqisi2
.LBE12:
	.loc 1 104 0
	mov	r2, r5
.LBB13:
	.loc 1 101 0
	strb	r3, [r4, #25]
.LVL5:
	ldrb	r3, [sp, #12]	@ zero_extendqisi2
.LBE13:
	.loc 1 104 0
	movs	r1, #40
.LBB14:
	.loc 1 101 0
	strb	r3, [r4, #26]
.LVL6:
	ldrb	r3, [sp, #11]	@ zero_extendqisi2
.LBE14:
	.loc 1 104 0
	movw	r0, #546
.LBB15:
	.loc 1 101 0
	strb	r3, [r4, #27]
.LVL7:
	ldrb	r3, [sp, #10]	@ zero_extendqisi2
	strb	r3, [r4, #28]
.LVL8:
	ldrb	r3, [sp, #9]	@ zero_extendqisi2
	strb	r3, [r4, #29]
.LVL9:
	ldrb	r3, [sp, #8]	@ zero_extendqisi2
	strb	r3, [r4, #30]
.LVL10:
.LBE15:
	.loc 1 104 0
	bl	le_set_gap_param
.LVL11:
	.loc 1 105 0
	mov	r2, r4
	movs	r1, #31
	movw	r0, #609
	bl	le_adv_set_param
.LVL12:
	.loc 1 106 0
	add	sp, sp, #56
	.cfi_def_cfa_offset 16
	@ sp needed
	pop	{r4, r5, r6, pc}
.L5:
	.align	2
.L4:
	.word	.LANCHOR0
	.word	.LC1
	.word	.LANCHOR1
	.cfi_endproc
.LFE1:
	.size	bt_airsync_config_app_set_adv_data, .-bt_airsync_config_app_set_adv_data
	.section	.text.airsync_handle_io_message,"ax",%progbits
	.align	1
	.global	airsync_handle_io_message
	.syntax unified
	.thumb
	.thumb_func
	.fpu softvfp
	.type	airsync_handle_io_message, %function
airsync_handle_io_message:
.LFB2:
	.loc 1 109 0
	.cfi_startproc
	@ args = 0, pretend = 0, frame = 0
	@ frame_needed = 0, uses_anonymous_args = 0
	@ link register save eliminated.
.LVL13:
	.loc 1 111 0
	ldrb	r3, [r0, #2]	@ zero_extendqisi2
	cmp	r3, #28
	beq	.L8
	cmp	r3, #29
	beq	.L9
	bx	lr
.L8:
.LVL14:
.LBB19:
.LBB20:
.LBB21:
	.loc 1 118 0
	ldr	r0, [r0, #4]
.LVL15:
	ldrb	r1, [r0], #1	@ zero_extendqisi2
.LVL16:
	b	airsync_receive_data
.LVL17:
.L9:
.LBE21:
.LBE20:
.LBE19:
	.loc 1 123 0
	movs	r0, #1
.LVL18:
	b	airsync_send_data_event
.LVL19:
	.cfi_endproc
.LFE2:
	.size	airsync_handle_io_message, .-airsync_handle_io_message
	.section	.text.bt_airsync_config_app_handle_dev_state_evt,"ax",%progbits
	.align	1
	.global	bt_airsync_config_app_handle_dev_state_evt
	.syntax unified
	.thumb
	.thumb_func
	.fpu softvfp
	.type	bt_airsync_config_app_handle_dev_state_evt, %function
bt_airsync_config_app_handle_dev_state_evt:
.LFB4:
	.loc 1 178 0
	.cfi_startproc
	@ args = 0, pretend = 0, frame = 0
	@ frame_needed = 0, uses_anonymous_args = 0
.LVL20:
	push	{r0, r1, r4, r5, r6, lr}
	.cfi_def_cfa_offset 24
	.cfi_offset 4, -16
	.cfi_offset 5, -12
	.cfi_offset 6, -8
	.cfi_offset 14, -4
	.loc 1 178 0
	mov	r6, r0
	.loc 1 181 0
	ldr	r5, .L26
.LBB22:
	.loc 1 179 0
	ubfx	r3, r6, #2, #2
	str	r1, [sp, #4]
	str	r3, [sp]
	movs	r2, #3
	and	r3, r6, #1
	ldr	r1, .L26+4
.LVL21:
	ldr	r0, .L26+8
.LVL22:
	bl	trace_log_buffer
.LVL23:
.LBE22:
	.loc 1 181 0
	ldrb	r3, [r5]	@ zero_extendqisi2
	uxtb	r4, r6
	eors	r3, r3, r4
	lsls	r2, r3, #31
	bpl	.L12
	.loc 1 183 0
	lsls	r3, r4, #31
	bpl	.L12
.LBB23:
	.loc 1 185 0
	movs	r2, #0
	ldr	r1, .L26+12
	ldr	r0, .L26+8
	bl	trace_log_buffer
.LVL24:
.LBE23:
	.loc 1 187 0
	bl	bt_airsync_config_app_set_adv_data
.LVL25:
	.loc 1 188 0
	bl	le_adv_start
.LVL26:
.L12:
	.loc 1 192 0
	ldrb	r3, [r5]	@ zero_extendqisi2
	eors	r3, r3, r4
	tst	r3, #12
	beq	.L13
	.loc 1 194 0
	ands	r2, r4, #12
	bne	.L14
	.loc 1 196 0
	ands	r4, r4, #2
.LBB24:
	.loc 1 202 0
	itet	eq
	moveq	r2, r4
.LBE24:
.LBB25:
	.loc 1 198 0
	ldrne	r1, .L26+16
.LBE25:
.LBB26:
	.loc 1 202 0
	ldreq	r1, .L26+20
.L25:
.LBE26:
.LBB27:
	.loc 1 207 0
	ldr	r0, .L26+8
	bl	trace_log_buffer
.LVL27:
.L13:
.LBE27:
	.loc 1 211 0
	strb	r6, [r5]
	.loc 1 212 0
	add	sp, sp, #8
	.cfi_remember_state
	.cfi_def_cfa_offset 16
	@ sp needed
	pop	{r4, r5, r6, pc}
.LVL28:
.L14:
	.cfi_restore_state
	.loc 1 205 0
	cmp	r2, #8
	bne	.L13
.LBB28:
	.loc 1 207 0
	movs	r2, #0
	ldr	r1, .L26+24
	b	.L25
.L27:
	.align	2
.L26:
	.word	.LANCHOR3
	.word	.LANCHOR2
	.word	1058025474
	.word	.LANCHOR2+72
	.word	.LANCHOR2+92
	.word	.LANCHOR2+140
	.word	.LANCHOR2+160
.LBE28:
	.cfi_endproc
.LFE4:
	.size	bt_airsync_config_app_handle_dev_state_evt, .-bt_airsync_config_app_handle_dev_state_evt
	.section	.text.bt_airsync_config_app_handle_conn_state_evt,"ax",%progbits
	.align	1
	.global	bt_airsync_config_app_handle_conn_state_evt
	.syntax unified
	.thumb
	.thumb_func
	.fpu softvfp
	.type	bt_airsync_config_app_handle_conn_state_evt, %function
bt_airsync_config_app_handle_conn_state_evt:
.LFB5:
	.loc 1 224 0
	.cfi_startproc
	@ args = 0, pretend = 0, frame = 16
	@ frame_needed = 0, uses_anonymous_args = 0
.LVL29:
	push	{r4, r5, r6, r7, lr}
	.cfi_def_cfa_offset 20
	.cfi_offset 4, -20
	.cfi_offset 5, -16
	.cfi_offset 6, -12
	.cfi_offset 7, -8
	.cfi_offset 14, -4
	mov	r7, r1
.LBB29:
	.loc 1 225 0
	ldr	r6, .L36
.LBE29:
	.loc 1 224 0
	sub	sp, sp, #36
	.cfi_def_cfa_offset 56
.LBB30:
	.loc 1 225 0
	ldrb	r3, [r6]	@ zero_extendqisi2
.LBE30:
	.loc 1 224 0
	mov	r4, r0
	mov	r5, r2
.LBB31:
	.loc 1 225 0
	str	r2, [sp, #8]
	str	r1, [sp, #4]
	str	r3, [sp]
	movs	r2, #4
.LVL30:
	mov	r3, r0
	ldr	r1, .L36+4
.LVL31:
	ldr	r0, .L36+8
.LVL32:
	bl	trace_log_buffer
.LVL33:
.LBE31:
	.loc 1 227 0
	cbz	r7, .L30
	cmp	r7, #2
	beq	.L31
.L29:
	.loc 1 264 0
	strb	r7, [r6]
	.loc 1 265 0
	add	sp, sp, #36
	.cfi_remember_state
	.cfi_def_cfa_offset 20
	@ sp needed
	pop	{r4, r5, r6, r7, pc}
.L30:
	.cfi_restore_state
	.loc 1 231 0
	movw	r3, #275
	cmp	r5, r3
	beq	.L32
	.loc 1 232 0
	cmp	r5, #278
	beq	.L32
.LBB32:
	.loc 1 234 0
	mov	r3, r5
	movs	r2, #1
	ldr	r1, .L36+12
	ldr	r0, .L36+16
	bl	trace_log_buffer
.LVL34:
.L32:
.LBE32:
	.loc 1 236 0
	movs	r2, #0
	ldr	r3, .L36+20
	strb	r2, [r3]
	.loc 1 237 0
	bl	bt_airsync_config_app_set_adv_data
.LVL35:
	.loc 1 238 0
	bl	le_adv_start
.LVL36:
	.loc 1 240 0
	b	.L29
.L31:
.LBB33:
	.loc 1 250 0
	mov	r2, r4
	add	r1, sp, #18
	movw	r0, #626
	bl	le_get_conn_param
.LVL37:
	.loc 1 251 0
	mov	r2, r4
	add	r1, sp, #20
	movw	r0, #627
	bl	le_get_conn_param
.LVL38:
	.loc 1 252 0
	mov	r2, r4
	add	r1, sp, #22
	mov	r0, #628
	bl	le_get_conn_param
.LVL39:
	.loc 1 253 0
	add	r2, sp, #17
	add	r1, sp, #24
	mov	r0, r4
	bl	le_get_conn_addr
.LVL40:
.LBB34:
	.loc 1 254 0
	add	r1, sp, #24
	ldr	r0, .L36+24
	bl	trace_bdaddr
.LVL41:
	ldrh	r3, [sp, #22]
	movs	r2, #5
	str	r3, [sp, #12]
	ldrh	r3, [sp, #20]
	ldr	r1, .L36+28
	str	r3, [sp, #8]
	ldrh	r3, [sp, #18]
	str	r3, [sp, #4]
	ldrb	r3, [sp, #17]	@ zero_extendqisi2
	str	r3, [sp]
	mov	r3, r0
	ldr	r0, .L36+8
	bl	trace_log_buffer
.LVL42:
.LBE34:
	.loc 1 257 0
	ldr	r3, .L36+20
	strb	r4, [r3]
.LBE33:
	.loc 1 259 0
	b	.L29
.L37:
	.align	2
.L36:
	.word	.LANCHOR4
	.word	.LANCHOR2+180
	.word	1058025474
	.word	.LANCHOR2+264
	.word	1058025472
	.word	.LANCHOR5
	.word	1060110336
	.word	.LANCHOR2+324
	.cfi_endproc
.LFE5:
	.size	bt_airsync_config_app_handle_conn_state_evt, .-bt_airsync_config_app_handle_conn_state_evt
	.section	.text.bt_airsync_config_app_handle_authen_state_evt,"ax",%progbits
	.align	1
	.global	bt_airsync_config_app_handle_authen_state_evt
	.syntax unified
	.thumb
	.thumb_func
	.fpu softvfp
	.type	bt_airsync_config_app_handle_authen_state_evt, %function
bt_airsync_config_app_handle_authen_state_evt:
.LFB6:
	.loc 1 277 0
	.cfi_startproc
	@ args = 0, pretend = 0, frame = 0
	@ frame_needed = 0, uses_anonymous_args = 0
.LVL43:
	push	{r0, r1, r2, r4, r5, lr}
	.cfi_def_cfa_offset 24
	.cfi_offset 4, -12
	.cfi_offset 5, -8
	.cfi_offset 14, -4
	.loc 1 277 0
	mov	r4, r1
	mov	r5, r2
.LBB46:
	.loc 1 278 0
	str	r2, [sp]
	mov	r3, r0
	movs	r2, #2
.LVL44:
	ldr	r1, .L45
.LVL45:
	ldr	r0, .L45+4
.LVL46:
	bl	trace_log_buffer
.LVL47:
.LBE46:
	.loc 1 280 0
	cbz	r4, .L40
	cmp	r4, #1
	beq	.L41
.LBB47:
	.loc 1 304 0
	mov	r3, r4
	movs	r2, #1
	ldr	r1, .L45+8
	ldr	r0, .L45+12
.LBE47:
	.loc 1 308 0
	add	sp, sp, #12
	.cfi_remember_state
	.cfi_def_cfa_offset 12
	@ sp needed
	pop	{r4, r5, lr}
	.cfi_restore 14
	.cfi_restore 5
	.cfi_restore 4
	.cfi_def_cfa_offset 0
.LBB48:
	.loc 1 304 0
	b	trace_log_buffer
.LVL48:
.L40:
	.cfi_restore_state
.LBE48:
.LBB49:
	.loc 1 284 0
	mov	r2, r4
	ldr	r1, .L45+16
.L44:
.LBE49:
.LBB50:
.LBB51:
	.loc 1 292 0
	ldr	r0, .L45+4
.LBE51:
.LBE50:
	.loc 1 308 0
	add	sp, sp, #12
	.cfi_remember_state
	.cfi_def_cfa_offset 12
	@ sp needed
	pop	{r4, r5, lr}
	.cfi_restore 14
	.cfi_restore 5
	.cfi_restore 4
	.cfi_def_cfa_offset 0
.LBB54:
.LBB52:
	.loc 1 292 0
	b	trace_log_buffer
.LVL49:
.L41:
	.cfi_restore_state
.LBE52:
.LBE54:
	.loc 1 290 0
	cbnz	r5, .L42
.LVL50:
.LBB55:
.LBB53:
	.loc 1 292 0
	mov	r2, r5
	ldr	r1, .L45+20
	b	.L44
.LVL51:
.L42:
.LBE53:
.LBE55:
.LBB56:
	.loc 1 297 0
	movs	r2, #0
	ldr	r1, .L45+24
	b	.L44
.L46:
	.align	2
.L45:
	.word	.LANCHOR2+456
	.word	1058025474
	.word	.LANCHOR2+716
	.word	1058025472
	.word	.LANCHOR2+512
	.word	.LANCHOR2+572
	.word	.LANCHOR2+644
.LBE56:
	.cfi_endproc
.LFE6:
	.size	bt_airsync_config_app_handle_authen_state_evt, .-bt_airsync_config_app_handle_authen_state_evt
	.section	.text.bt_airsync_config_app_handle_conn_mtu_info_evt,"ax",%progbits
	.align	1
	.global	bt_airsync_config_app_handle_conn_mtu_info_evt
	.syntax unified
	.thumb
	.thumb_func
	.fpu softvfp
	.type	bt_airsync_config_app_handle_conn_mtu_info_evt, %function
bt_airsync_config_app_handle_conn_mtu_info_evt:
.LFB7:
	.loc 1 318 0
	.cfi_startproc
	@ args = 0, pretend = 0, frame = 0
	@ frame_needed = 0, uses_anonymous_args = 0
.LVL52:
	push	{r0, r1, r2, lr}
	.cfi_def_cfa_offset 16
	.cfi_offset 14, -4
.LBB57:
	.loc 1 319 0
	mov	r3, r0
	str	r1, [sp]
	movs	r2, #2
	ldr	r1, .L48
.LVL53:
	ldr	r0, .L48+4
.LVL54:
	bl	trace_log_buffer
.LVL55:
.LBE57:
	.loc 1 320 0
	add	sp, sp, #12
	.cfi_def_cfa_offset 4
	@ sp needed
	ldr	pc, [sp], #4
.L49:
	.align	2
.L48:
	.word	.LANCHOR2+768
	.word	1058025474
	.cfi_endproc
.LFE7:
	.size	bt_airsync_config_app_handle_conn_mtu_info_evt, .-bt_airsync_config_app_handle_conn_mtu_info_evt
	.section	.text.bt_airsync_config_app_handle_conn_param_update_evt,"ax",%progbits
	.align	1
	.global	bt_airsync_config_app_handle_conn_param_update_evt
	.syntax unified
	.thumb
	.thumb_func
	.fpu softvfp
	.type	bt_airsync_config_app_handle_conn_param_update_evt, %function
bt_airsync_config_app_handle_conn_param_update_evt:
.LFB8:
	.loc 1 331 0
	.cfi_startproc
	@ args = 0, pretend = 0, frame = 8
	@ frame_needed = 0, uses_anonymous_args = 0
.LVL56:
	.loc 1 332 0
	cmp	r1, #1
	.loc 1 331 0
	push	{r0, r1, r2, r3, r4, lr}
	.cfi_def_cfa_offset 24
	.cfi_offset 4, -8
	.cfi_offset 14, -4
	.loc 1 331 0
	mov	r4, r0
	mov	r3, r2
	.loc 1 332 0
	beq	.L52
	bcc	.L53
	cmp	r1, #2
	beq	.L54
.LVL57:
.L50:
	.loc 1 363 0
	add	sp, sp, #16
	.cfi_remember_state
	.cfi_def_cfa_offset 8
	@ sp needed
	pop	{r4, pc}
.LVL58:
.L53:
	.cfi_restore_state
.LBB66:
.LBB67:
.LBB68:
	.loc 1 340 0
	mov	r2, r0
.LVL59:
	add	r1, sp, #10
.LVL60:
	movw	r0, #626
.LVL61:
	bl	le_get_conn_param
.LVL62:
	.loc 1 341 0
	mov	r2, r4
	add	r1, sp, #12
	movw	r0, #627
	bl	le_get_conn_param
.LVL63:
	.loc 1 342 0
	mov	r2, r4
	add	r1, sp, #14
	mov	r0, #628
	bl	le_get_conn_param
.LVL64:
.LBB69:
	.loc 1 343 0
	ldrh	r2, [sp, #14]
	ldrh	r3, [sp, #10]
	str	r2, [sp, #4]
	ldrh	r2, [sp, #12]
	ldr	r1, .L55
	str	r2, [sp]
	ldr	r0, .L55+4
	movs	r2, #3
	bl	trace_log_buffer
.LVL65:
	b	.L50
.LVL66:
.L52:
.LBE69:
.LBE68:
.LBE67:
.LBE66:
.LBB70:
	.loc 1 350 0
	mov	r2, r1
.LVL67:
	ldr	r0, .L55+8
.LVL68:
	ldr	r1, .L55+12
.LVL69:
	bl	trace_log_buffer
.LVL70:
.LBE70:
	.loc 1 352 0
	b	.L50
.LVL71:
.L54:
.LBB71:
	.loc 1 356 0
	movs	r2, #0
.LVL72:
	ldr	r1, .L55+16
.LVL73:
	ldr	r0, .L55+4
.LVL74:
	bl	trace_log_buffer
.LVL75:
.LBE71:
	.loc 1 363 0
	b	.L50
.L56:
	.align	2
.L55:
	.word	.LANCHOR2+828
	.word	1058025474
	.word	1058025472
	.word	.LANCHOR2+956
	.word	.LANCHOR2+1020
	.cfi_endproc
.LFE8:
	.size	bt_airsync_config_app_handle_conn_param_update_evt, .-bt_airsync_config_app_handle_conn_param_update_evt
	.section	.text.bt_airsync_config_app_handle_gap_msg,"ax",%progbits
	.align	1
	.global	bt_airsync_config_app_handle_gap_msg
	.syntax unified
	.thumb
	.thumb_func
	.fpu softvfp
	.type	bt_airsync_config_app_handle_gap_msg, %function
bt_airsync_config_app_handle_gap_msg:
.LFB9:
	.loc 1 373 0
	.cfi_startproc
	@ args = 0, pretend = 0, frame = 8
	@ frame_needed = 0, uses_anonymous_args = 0
.LVL76:
	push	{r0, r1, r4, lr}
	.cfi_def_cfa_offset 16
	.cfi_offset 4, -8
	.cfi_offset 14, -4
	.loc 1 373 0
	mov	r4, r0
	.loc 1 376 0
	ldr	r3, [r0, #4]	@ unaligned
.LBB72:
	.loc 1 378 0
	movs	r2, #1
.LBE72:
	.loc 1 376 0
	str	r3, [sp]
.LBB73:
	.loc 1 378 0
	ldr	r1, .L70
	ldrh	r3, [r0, #2]
	ldr	r0, .L70+4
.LVL77:
	bl	trace_log_buffer
.LVL78:
.LBE73:
	.loc 1 379 0
	ldrh	r3, [r4, #2]
	subs	r2, r3, #1
	cmp	r2, #9
	bhi	.L58
	tbb	[pc, r2]
.L60:
	.byte	(.L59-.L60)/2
	.byte	(.L61-.L60)/2
	.byte	(.L62-.L60)/2
	.byte	(.L63-.L60)/2
	.byte	(.L64-.L60)/2
	.byte	(.L65-.L60)/2
	.byte	(.L66-.L60)/2
	.byte	(.L58-.L60)/2
	.byte	(.L67-.L60)/2
	.byte	(.L68-.L60)/2
	.p2align 1
.L59:
	.loc 1 383 0
	ldrh	r1, [sp, #2]
	ldrb	r0, [sp]	@ zero_extendqisi2
	bl	bt_airsync_config_app_handle_dev_state_evt
.LVL79:
.L57:
	.loc 1 470 0
	add	sp, sp, #8
	.cfi_remember_state
	.cfi_def_cfa_offset 8
	@ sp needed
	pop	{r4, pc}
.LVL80:
.L61:
	.cfi_restore_state
	.loc 1 390 0
	ldrh	r2, [sp, #2]
	ldrb	r1, [sp, #1]	@ zero_extendqisi2
	ldrb	r0, [sp]	@ zero_extendqisi2
	bl	bt_airsync_config_app_handle_conn_state_evt
.LVL81:
	.loc 1 394 0
	b	.L57
.L63:
	.loc 1 398 0
	ldrh	r1, [sp, #2]
	ldrb	r0, [sp]	@ zero_extendqisi2
	bl	bt_airsync_config_app_handle_conn_mtu_info_evt
.LVL82:
	.loc 1 401 0
	b	.L57
.L62:
	.loc 1 405 0
	ldrh	r2, [sp, #2]
	ldrb	r1, [sp, #1]	@ zero_extendqisi2
	ldrb	r0, [sp]	@ zero_extendqisi2
	bl	bt_airsync_config_app_handle_conn_param_update_evt
.LVL83:
	.loc 1 409 0
	b	.L57
.L64:
	.loc 1 413 0
	ldrh	r2, [sp, #2]
	ldrb	r1, [sp, #1]	@ zero_extendqisi2
	ldrb	r0, [sp]	@ zero_extendqisi2
	bl	bt_airsync_config_app_handle_authen_state_evt
.LVL84:
	.loc 1 417 0
	b	.L57
.L68:
.LVL85:
	.loc 1 422 0
	movs	r1, #1
	ldrb	r0, [sp]	@ zero_extendqisi2
	bl	le_bond_just_work_confirm
.LVL86:
.LBB74:
	.loc 1 423 0
	movs	r2, #0
	ldr	r1, .L70+8
	ldr	r0, .L70+12
	bl	trace_log_buffer
.LVL87:
.LBE74:
	.loc 1 425 0
	b	.L57
.LVL88:
.L65:
.LBB75:
	.loc 1 429 0
	movs	r3, #0
	.loc 1 430 0
	ldrb	r4, [sp]	@ zero_extendqisi2
.LVL89:
	.loc 1 431 0
	add	r1, sp, #4
	mov	r0, r4
	.loc 1 429 0
	str	r3, [sp, #4]
	.loc 1 431 0
	bl	le_bond_get_display_key
.LVL90:
.LBB76:
	.loc 1 432 0
	ldr	r3, [sp, #4]
	movs	r2, #1
	ldr	r1, .L70+16
	ldr	r0, .L70+12
	bl	trace_log_buffer
.LVL91:
.LBE76:
	.loc 1 433 0
	movs	r1, #1
	mov	r0, r4
	bl	le_bond_passkey_display_confirm
.LVL92:
.LBE75:
	.loc 1 435 0
	b	.L57
.LVL93:
.L67:
.LBB77:
	.loc 1 439 0 discriminator 2
	movs	r3, #0
	.loc 1 440 0 discriminator 2
	ldrb	r4, [sp]	@ zero_extendqisi2
.LVL94:
	.loc 1 441 0 discriminator 2
	add	r1, sp, #4
	mov	r0, r4
	.loc 1 439 0 discriminator 2
	str	r3, [sp, #4]
	.loc 1 441 0 discriminator 2
	bl	le_bond_get_display_key
.LVL95:
.LBB78:
	.loc 1 442 0 discriminator 2
	ldr	r3, [sp, #4]
	movs	r2, #1
	ldr	r1, .L70+20
	ldr	r0, .L70+12
	bl	trace_log_buffer
.LVL96:
.LBE78:
	.loc 1 443 0 discriminator 2
	movs	r1, #1
	mov	r0, r4
	bl	le_bond_user_confirm
.LVL97:
.LBE77:
	.loc 1 445 0 discriminator 2
	b	.L57
.LVL98:
.L66:
.LBB79:
	.loc 1 450 0
	ldrb	r4, [sp]	@ zero_extendqisi2
.LVL99:
.LBB80:
	.loc 1 451 0
	movs	r2, #1
	mov	r3, r4
	ldr	r1, .L70+24
	ldr	r0, .L70+12
	bl	trace_log_buffer
.LVL100:
.LBE80:
	.loc 1 452 0
	movs	r2, #1
	ldr	r1, .L70+28
	mov	r0, r4
	bl	le_bond_passkey_input_confirm
.LVL101:
.LBE79:
	.loc 1 454 0
	b	.L57
.LVL102:
.L58:
.LBB81:
	.loc 1 467 0
	movs	r2, #1
	ldr	r1, .L70+32
	ldr	r0, .L70+36
	bl	trace_log_buffer
.LVL103:
.LBE81:
	.loc 1 470 0
	b	.L57
.L71:
	.align	2
.L70:
	.word	.LANCHOR2+1072
	.word	1058025475
	.word	.LANCHOR2+1104
	.word	1058025474
	.word	.LANCHOR2+1136
	.word	.LANCHOR2+1184
	.word	.LANCHOR2+1236
	.word	888888
	.word	.LANCHOR2+1284
	.word	1058025472
	.cfi_endproc
.LFE9:
	.size	bt_airsync_config_app_handle_gap_msg, .-bt_airsync_config_app_handle_gap_msg
	.section	.text.bt_airsync_config_app_handle_io_msg,"ax",%progbits
	.align	1
	.global	bt_airsync_config_app_handle_io_msg
	.syntax unified
	.thumb
	.thumb_func
	.fpu softvfp
	.type	bt_airsync_config_app_handle_io_msg, %function
bt_airsync_config_app_handle_io_msg:
.LFB3:
	.loc 1 140 0
	.cfi_startproc
	@ args = 0, pretend = 0, frame = 8
	@ frame_needed = 0, uses_anonymous_args = 0
	push	{r0, r1, r2, lr}
	.cfi_def_cfa_offset 16
	.cfi_offset 14, -4
.LVL104:
	.loc 1 140 0
	stm	sp, {r0, r1}
.LVL105:
	.loc 1 143 0
	ldrh	r2, [sp]
	cmp	r2, #2
	beq	.L74
	cmp	r2, #14
	beq	.L75
	cbnz	r2, .L72
	.loc 1 147 0
	mov	r0, sp
	bl	bt_airsync_config_app_handle_gap_msg
.LVL106:
.L72:
	.loc 1 167 0
	add	sp, sp, #12
	.cfi_remember_state
	.cfi_def_cfa_offset 4
	@ sp needed
	ldr	pc, [sp], #4
.L75:
	.cfi_restore_state
	.loc 1 152 0
	mov	r0, sp
	bl	airsync_handle_io_message
.LVL107:
	.loc 1 154 0
	b	.L72
.L74:
	.loc 1 157 0
	ldrh	r3, [sp, #2]
	cmp	r3, #1
	bne	.L77
	.loc 1 158 0
	bl	le_adv_start
.LVL108:
	b	.L72
.L77:
	.loc 1 159 0
	cmp	r3, #0
	bne	.L72
	.loc 1 160 0
	bl	le_adv_stop
.LVL109:
	.loc 1 167 0
	b	.L72
	.cfi_endproc
.LFE3:
	.size	bt_airsync_config_app_handle_io_msg, .-bt_airsync_config_app_handle_io_msg
	.section	.text.bt_airsync_config_app_gap_callback,"ax",%progbits
	.align	1
	.global	bt_airsync_config_app_gap_callback
	.syntax unified
	.thumb
	.thumb_func
	.fpu softvfp
	.type	bt_airsync_config_app_gap_callback, %function
bt_airsync_config_app_gap_callback:
.LFB10:
	.loc 1 484 0
	.cfi_startproc
	@ args = 0, pretend = 0, frame = 0
	@ frame_needed = 0, uses_anonymous_args = 0
.LVL110:
	.loc 1 488 0
	cmp	r0, #1
	.loc 1 484 0
	push	{r0, r1, r2, lr}
	.cfi_def_cfa_offset 16
	.cfi_offset 14, -4
	.loc 1 484 0
	mov	r3, r0
	.loc 1 488 0
	bne	.L82
.LBB82:
	.loc 1 499 0
	ldr	r2, [r1]
	ldr	r0, .L83
.LVL111:
	ldrb	r3, [r2]	@ zero_extendqisi2
	ldrh	r2, [r2, #2]
	ldr	r1, .L83+4
.LVL112:
	str	r2, [sp]
	movs	r2, #2
	bl	trace_log_buffer
.LVL113:
.L81:
.LBE82:
	.loc 1 509 0
	movs	r0, #0
	add	sp, sp, #12
	.cfi_remember_state
	.cfi_def_cfa_offset 4
	@ sp needed
	ldr	pc, [sp], #4
.LVL114:
.L82:
	.cfi_restore_state
.LBB83:
	.loc 1 505 0
	movs	r2, #1
	ldr	r1, .L83+8
.LVL115:
	ldr	r0, .L83+12
.LVL116:
	bl	trace_log_buffer
.LVL117:
.LBE83:
	.loc 1 506 0
	b	.L81
.L84:
	.align	2
.L83:
	.word	1058025474
	.word	.LANCHOR2+1328
	.word	.LANCHOR2+1388
	.word	1058025472
	.cfi_endproc
.LFE10:
	.size	bt_airsync_config_app_gap_callback, .-bt_airsync_config_app_gap_callback
	.section	.text.bt_airsync_config_app_profile_callback,"ax",%progbits
	.align	1
	.global	bt_airsync_config_app_profile_callback
	.syntax unified
	.thumb
	.thumb_func
	.fpu softvfp
	.type	bt_airsync_config_app_profile_callback, %function
bt_airsync_config_app_profile_callback:
.LFB11:
	.loc 1 527 0
	.cfi_startproc
	@ args = 0, pretend = 0, frame = 8
	@ frame_needed = 0, uses_anonymous_args = 0
.LVL118:
	push	{r4, lr}
	.cfi_def_cfa_offset 8
	.cfi_offset 4, -8
	.cfi_offset 14, -4
	.loc 1 529 0
	cmp	r0, #255
	.loc 1 527 0
	sub	sp, sp, #24
	.cfi_def_cfa_offset 32
	.loc 1 527 0
	mov	r4, r1
	.loc 1 529 0
	bne	.L86
.LVL119:
.LBB84:
	.loc 1 532 0
	ldrb	r3, [r1]	@ zero_extendqisi2
	cbz	r3, .L88
	cmp	r3, #1
	beq	.L89
.LVL120:
.L87:
.LBE84:
	.loc 1 603 0
	movs	r0, #0
	add	sp, sp, #24
	.cfi_remember_state
	.cfi_def_cfa_offset 8
	@ sp needed
	pop	{r4, pc}
.LVL121:
.L88:
	.cfi_restore_state
.LBB89:
.LBB85:
	.loc 1 535 0
	ldrb	r3, [r1, #2]	@ zero_extendqisi2
	movs	r2, #1
	ldr	r1, .L95
.LVL122:
	ldr	r0, .L95+4
.LVL123:
	bl	trace_log_buffer
.LVL124:
.LBE85:
	.loc 1 537 0
	b	.L87
.LVL125:
.L89:
.LBB86:
	.loc 1 540 0
	ldrh	r2, [r1, #2]
	ldrb	r3, [r1, #4]	@ zero_extendqisi2
	str	r2, [sp, #12]
	ldrh	r2, [r1, #6]
	ldr	r0, .L95+4
.LVL126:
	str	r2, [sp, #8]
	ldrb	r2, [r1, #5]	@ zero_extendqisi2
	str	r2, [sp, #4]
	ldrh	r2, [r1, #8]
	ldr	r1, .L95+8
.LVL127:
	str	r2, [sp]
	movs	r2, #5
	bl	trace_log_buffer
.LVL128:
.LBE86:
	.loc 1 546 0
	ldrh	r2, [r4, #8]
	cbnz	r2, .L90
.LBB87:
	.loc 1 548 0
	ldr	r1, .L95+12
	ldr	r0, .L95+4
	bl	trace_log_buffer
.LVL129:
.LBE87:
	.loc 1 549 0
	bl	airsync_tx_complete
.LVL130:
	b	.L87
.L90:
.LBB88:
	.loc 1 553 0
	movs	r2, #0
	ldr	r1, .L95+16
	ldr	r0, .L95+20
.LVL131:
.L94:
.LBE88:
.LBE89:
.LBB90:
.LBB91:
	.loc 1 572 0
	bl	trace_log_buffer
.LVL132:
.LBE91:
	.loc 1 574 0
	b	.L87
.LVL133:
.L86:
.LBE90:
	.loc 1 561 0
	ldr	r3, .L95+24
	ldrb	r3, [r3]	@ zero_extendqisi2
	cmp	r3, r0
	bne	.L87
.LVL134:
.LBB94:
	.loc 1 564 0
	ldrb	r3, [r1, #1]	@ zero_extendqisi2
	cmp	r3, #1
	beq	.L91
	cmp	r3, #3
	bne	.L87
	.loc 1 568 0
	ldrb	r3, [r1, #4]	@ zero_extendqisi2
	cmp	r3, #2
	bne	.L87
.LBB92:
	.loc 1 572 0
	movs	r2, #0
	ldr	r1, .L95+28
.LVL135:
	ldr	r0, .L95+4
.LVL136:
	b	.L94
.LVL137:
.L91:
.LBE92:
	.loc 1 582 0
	ldrb	r3, [r1, #4]	@ zero_extendqisi2
	cmp	r3, #1
	bne	.L87
.LBB93:
	.loc 1 586 0
	movs	r3, #14
	strh	r3, [sp, #16]	@ movhi
	.loc 1 587 0
	movs	r3, #29
	.loc 1 589 0
	add	r0, sp, #16
.LVL138:
	.loc 1 587 0
	strh	r3, [sp, #18]	@ movhi
	.loc 1 589 0
	bl	bt_airsync_config_app_send_msg_to_apptask
.LVL139:
.LBE93:
	b	.L87
.L96:
	.align	2
.L95:
	.word	.LANCHOR2+1432
	.word	1058025474
	.word	.LANCHOR2+1476
	.word	.LANCHOR2+1580
	.word	.LANCHOR2+1624
	.word	1058025472
	.word	bt_airsync_config_srv_id
	.word	.LANCHOR2+1668
.LBE94:
	.cfi_endproc
.LFE11:
	.size	bt_airsync_config_app_profile_callback, .-bt_airsync_config_app_profile_callback
	.global	bt_airsync_config_conn_id
	.global	bt_airsync_config_gap_conn_state
	.global	bt_airsync_config_gap_dev_state
	.comm	bt_airsync_config_srv_id,1,1
	.section	.rodata
	.set	.LANCHOR0,. + 0
.LC0:
	.ascii	"AMEBA_XXYYZZ\000"
	.space	27
	.section	.BTTRACE,"a",%progbits
	.align	2
	.set	.LANCHOR2,. + 0
	.type	format.7265, %object
	.size	format.7265, 69
format.7265:
	.ascii	"!**app_handle_dev_state_evt: init state %d, adv sta"
	.ascii	"te %d, cause 0x%x\000"
	.space	3
	.type	format.7266, %object
	.size	format.7266, 19
format.7266:
	.ascii	"!**GAP stack ready\000"
	.space	1
	.type	format.7267, %object
	.size	format.7267, 46
format.7267:
	.ascii	"!**GAP adv stoped: because connection created\000"
	.space	2
	.type	format.7268, %object
	.size	format.7268, 18
format.7268:
	.ascii	"!**GAP adv stoped\000"
	.space	2
	.type	format.7269, %object
	.size	format.7269, 17
format.7269:
	.ascii	"!**GAP adv start\000"
	.space	3
	.type	format.7275, %object
	.size	format.7275, 84
format.7275:
	.ascii	"!**app_handle_conn_state_evt: conn_id %d old_state "
	.ascii	"%d new_state %d, disc_cause 0x%x\000"
	.type	format.7277, %object
	.size	format.7277, 57
format.7277:
	.ascii	"!!!app_handle_conn_state_evt: connection lost cause"
	.ascii	" 0x%x\000"
	.space	3
	.type	format.7285, %object
	.size	format.7285, 132
format.7285:
	.ascii	"!**GAP_CONN_STATE_CONNECTED:remote_bd %s, remote_ad"
	.ascii	"dr_type %d, conn_interval 0x%x, conn_latency 0x%x, "
	.ascii	"conn_supervision_timeout 0x%x\000"
	.type	format.7292, %object
	.size	format.7292, 54
format.7292:
	.ascii	"!**app_handle_authen_state_evt:conn_id %d, cause 0x"
	.ascii	"%x\000"
	.space	2
	.type	format.7294, %object
	.size	format.7294, 57
format.7294:
	.ascii	"!**app_handle_authen_state_evt: GAP_AUTHEN_STATE_ST"
	.ascii	"ARTED\000"
	.space	3
	.type	format.7297, %object
	.size	format.7297, 71
format.7297:
	.ascii	"!**app_handle_authen_state_evt: GAP_AUTHEN_STATE_CO"
	.ascii	"MPLETE pair success\000"
	.space	1
	.type	format.7298, %object
	.size	format.7298, 70
format.7298:
	.ascii	"!**app_handle_authen_state_evt: GAP_AUTHEN_STATE_CO"
	.ascii	"MPLETE pair failed\000"
	.space	2
	.type	format.7300, %object
	.size	format.7300, 52
format.7300:
	.ascii	"!!!app_handle_authen_state_evt: unknown newstate %d"
	.ascii	"\000"
	.type	format.7305, %object
	.size	format.7305, 57
format.7305:
	.ascii	"!**app_handle_conn_mtu_info_evt: conn_id %d, mtu_si"
	.ascii	"ze %d\000"
	.space	3
	.type	format.7315, %object
	.size	format.7315, 126
format.7315:
	.ascii	"!**app_handle_conn_param_update_evt update success:"
	.ascii	"conn_interval 0x%x, conn_slave_latency 0x%x, conn_s"
	.ascii	"upervision_timeout 0x%x\000"
	.space	2
	.type	format.7318, %object
	.size	format.7318, 62
format.7318:
	.ascii	"!!!app_handle_conn_param_update_evt update failed: "
	.ascii	"cause 0x%x\000"
	.space	2
	.type	format.7320, %object
	.size	format.7320, 52
format.7320:
	.ascii	"!**app_handle_conn_param_update_evt update pending."
	.ascii	"\000"
	.type	format.7327, %object
	.size	format.7327, 31
format.7327:
	.ascii	"app_handle_gap_msg: subtype %d\000"
	.space	1
	.type	format.7335, %object
	.size	format.7335, 29
format.7335:
	.ascii	"!**GAP_MSG_LE_BOND_JUST_WORK\000"
	.space	3
	.type	format.7338, %object
	.size	format.7338, 46
format.7338:
	.ascii	"!**GAP_MSG_LE_BOND_PASSKEY_DISPLAY:passkey %d\000"
	.space	2
	.type	format.7341, %object
	.size	format.7341, 49
format.7341:
	.ascii	"!**GAP_MSG_LE_BOND_USER_CONFIRMATION: passkey %d\000"
	.space	3
	.type	format.7344, %object
	.size	format.7344, 45
format.7344:
	.ascii	"!**GAP_MSG_LE_BOND_PASSKEY_INPUT: conn_id %d\000"
	.space	3
	.type	format.7346, %object
	.size	format.7346, 42
format.7346:
	.ascii	"!!!app_handle_gap_msg: unknown subtype %d\000"
	.space	2
	.type	format.7354, %object
	.size	format.7354, 58
format.7354:
	.ascii	"!**GAP_MSG_LE_MODIFY_WHITE_LIST: operation %d, caus"
	.ascii	"e 0x%x\000"
	.space	2
	.type	format.7357, %object
	.size	format.7357, 44
format.7357:
	.ascii	"!!!app_gap_callback: unhandled cb_type 0x%x\000"
	.type	format.7365, %object
	.size	format.7365, 43
format.7365:
	.ascii	"!**PROFILE_EVT_SRV_REG_COMPLETE: result %d\000"
	.space	1
	.type	format.7368, %object
	.size	format.7368, 102
format.7368:
	.ascii	"!**PROFILE_EVT_SEND_DATA_COMPLETE: conn_id %d, caus"
	.ascii	"e 0x%x, service_id %d, attrib_idx 0x%x, credits %d\000"
	.space	2
	.type	format.7369, %object
	.size	format.7369, 42
format.7369:
	.ascii	"!**PROFILE_EVT_SEND_DATA_COMPLETE success\000"
	.space	2
	.type	format.7370, %object
	.size	format.7370, 41
format.7370:
	.ascii	"!!!PROFILE_EVT_SEND_DATA_COMPLETE failed\000"
	.space	3
	.type	format.7375, %object
	.size	format.7375, 57
format.7375:
	.ascii	"!**do nothing SERVICE_CALLBACK_TYPE_WRITE_CHAR_VALU"
	.ascii	"E... \000"
	.section	.bss.bt_airsync_config_conn_id,"aw",%nobits
	.set	.LANCHOR5,. + 0
	.type	bt_airsync_config_conn_id, %object
	.size	bt_airsync_config_conn_id, 1
bt_airsync_config_conn_id:
	.space	1
	.section	.bss.bt_airsync_config_gap_conn_state,"aw",%nobits
	.set	.LANCHOR4,. + 0
	.type	bt_airsync_config_gap_conn_state, %object
	.size	bt_airsync_config_gap_conn_state, 1
bt_airsync_config_gap_conn_state:
	.space	1
	.section	.bss.bt_airsync_config_gap_dev_state,"aw",%nobits
	.set	.LANCHOR3,. + 0
	.type	bt_airsync_config_gap_dev_state, %object
	.size	bt_airsync_config_gap_dev_state, 1
bt_airsync_config_gap_dev_state:
	.space	1
	.section	.data.adv_data,"aw",%progbits
	.set	.LANCHOR1,. + 0
	.type	adv_data, %object
	.size	adv_data, 31
adv_data:
	.byte	2
	.byte	1
	.byte	6
	.byte	13
	.byte	9
	.byte	65
	.byte	77
	.byte	69
	.byte	66
	.byte	65
	.byte	95
	.byte	88
	.byte	88
	.byte	89
	.byte	89
	.byte	90
	.byte	90
	.byte	3
	.byte	3
	.byte	-25
	.byte	-2
	.byte	9
	.byte	-1
	.byte	-59
	.byte	-2
	.byte	-1
	.byte	-1
	.byte	-1
	.byte	-1
	.byte	-1
	.byte	-1
	.section	.rodata.bt_airsync_config_app_set_adv_data.str1.1,"aMS",%progbits,1
.LC1:
	.ascii	"AMEBA_%02X%02X%02X\000"
	.text
.Letext0:
	.file 2 "/home/ls/8720cf/sdk-ameba-v7.1d/tools/arm-none-eabi-gcc/asdk/linux/newlib/arm-none-eabi/include/machine/_default_types.h"
	.file 3 "/home/ls/8720cf/sdk-ameba-v7.1d/tools/arm-none-eabi-gcc/asdk/linux/newlib/arm-none-eabi/include/sys/lock.h"
	.file 4 "/home/ls/8720cf/sdk-ameba-v7.1d/tools/arm-none-eabi-gcc/asdk/linux/newlib/arm-none-eabi/include/sys/_types.h"
	.file 5 "/home/ls/8720cf/sdk-ameba-v7.1d/tools/arm-none-eabi-gcc/asdk/linux/newlib/lib/gcc/arm-none-eabi/6.5.0/include/stddef.h"
	.file 6 "/home/ls/8720cf/sdk-ameba-v7.1d/tools/arm-none-eabi-gcc/asdk/linux/newlib/arm-none-eabi/include/sys/reent.h"
	.file 7 "/home/ls/8720cf/sdk-ameba-v7.1d/tools/arm-none-eabi-gcc/asdk/linux/newlib/arm-none-eabi/include/sys/_stdint.h"
	.file 8 "/home/ls/8720cf/sdk-ameba-v7.1d/tools/arm-none-eabi-gcc/asdk/linux/newlib/arm-none-eabi/include/time.h"
	.file 9 "/home/ls/8720cf/sdk-ameba-v7.1d/tools/arm-none-eabi-gcc/asdk/linux/newlib/arm-none-eabi/include/stdlib.h"
	.file 10 "../../../component/common/bluetooth/realtek/sdk/inc/platform/trace.h"
	.file 11 "../../../component/common/bluetooth/realtek/sdk/inc/bluetooth/gap/gap.h"
	.file 12 "../../../component/common/bluetooth/realtek/sdk/inc/bluetooth/gap/gap_le_types.h"
	.file 13 "../../../component/common/bluetooth/realtek/sdk/inc/bluetooth/gap/gap_storage_le.h"
	.file 14 "../../../component/common/bluetooth/realtek/sdk/inc/bluetooth/gap/gap_callback_le.h"
	.file 15 "../../../component/common/bluetooth/realtek/sdk/inc/bluetooth/gap/gap_le.h"
	.file 16 "../../../component/common/bluetooth/realtek/sdk/inc/bluetooth/gap/gap_adv.h"
	.file 17 "../../../component/common/bluetooth/realtek/sdk/inc/bluetooth/profile/profile_server.h"
	.file 18 "../../../component/common/bluetooth/realtek/sdk/inc/bluetooth/gap/gap_msg.h"
	.file 19 "../../../component/common/bluetooth/realtek/sdk/inc/app/app_msg.h"
	.file 20 "../../../component/common/bluetooth/realtek/sdk/inc/bluetooth/gap/gap_conn_le.h"
	.file 21 "../../../component/common/bluetooth/realtek/sdk/example/bt_airsync_config/bt_airsync_config_peripheral_app.h"
	.file 22 "../../../component/common/application/airsync/1.0.4/wechat_airsync_protocol.h"
	.file 23 "../../../component/common/application/airsync/1.0.4/airsync_ble_service.h"
	.file 24 "../../../component/common/bluetooth/realtek/sdk/inc/bluetooth/gap/gap_bond_le.h"
	.file 25 "/home/ls/8720cf/sdk-ameba-v7.1d/tools/arm-none-eabi-gcc/asdk/linux/newlib/arm-none-eabi/include/stdio.h"
	.file 26 "/home/ls/8720cf/sdk-ameba-v7.1d/tools/arm-none-eabi-gcc/asdk/linux/newlib/arm-none-eabi/include/string.h"