	.arch armv8-m.main
	.arch_extension dsp
	.eabi_attribute 20, 1
	.eabi_attribute 21, 1
	.eabi_attribute 23, 3
	.eabi_attribute 24, 1
	.eabi_attribute 25, 1
	.eabi_attribute 26, 1
	.eabi_attribute 30, 4
	.eabi_attribute 34, 1
	.eabi_attribute 18, 4
	.file	"bt_config_peripheral_app.c"
	.text
.Ltext0:
	.cfi_sections	.debug_frame
	.section	.text.bt_config_app_set_adv_data,"ax",%progbits
	.align	1
	.global	bt_config_app_set_adv_data
	.syntax unified
	.thumb
	.thumb_func
	.fpu softvfp
	.type	bt_config_app_set_adv_data, %function
bt_config_app_set_adv_data:
.LFB159:
	.file 1 "../../../component/common/bluetooth/realtek/sdk/example/bt_config/bt_config_peripheral_app.c"
	.loc 1 123 0
	.cfi_startproc
	@ args = 0, pretend = 0, frame = 48
	@ frame_needed = 0, uses_anonymous_args = 0
	push	{r4, r5, r6, lr}
	.cfi_def_cfa_offset 16
	.cfi_offset 4, -16
	.cfi_offset 5, -12
	.cfi_offset 6, -8
	.cfi_offset 14, -4
	sub	sp, sp, #56
	.cfi_def_cfa_offset 72
	.loc 1 125 0
	add	r2, sp, #16
	mov	r4, r2
	ldr	r3, .L4
	add	r6, r3, #8
.L2:
	mov	r5, r2
	ldr	r0, [r3]	@ unaligned
	ldr	r1, [r3, #4]	@ unaligned
	adds	r3, r3, #8
	stmia	r5!, {r0, r1}
	cmp	r3, r6
	mov	r2, r5
	bne	.L2
	ldr	r0, [r3]	@ unaligned
	ldrb	r3, [r3, #4]	@ zero_extendqisi2
	str	r0, [r5]
	strb	r3, [r5, #4]
	movs	r2, #27
	movs	r1, #0
	add	r0, sp, #29
	bl	memset
.LVL0:
	.loc 1 127 0
	add	r1, sp, #8
	mov	r0, #512
	bl	gap_get_param
.LVL1:
	.loc 1 129 0
	ldrb	r1, [sp, #8]	@ zero_extendqisi2
	ldrb	r3, [sp, #9]	@ zero_extendqisi2
	ldrb	r2, [sp, #10]	@ zero_extendqisi2
	str	r1, [sp]
	mov	r0, r4
	ldr	r1, .L4+4
	bl	sprintf
.LVL2:
	.loc 1 130 0
	mov	r0, r4
	bl	strlen
.LVL3:
	mov	r1, r4
	mov	r2, r0
	ldr	r0, .L4+8
	bl	memcpy
.LVL4:
	.loc 1 134 0
	mov	r2, r4
	movs	r1, #40
	movw	r0, #546
	bl	le_set_gap_param
.LVL5:
	.loc 1 135 0
	ldr	r2, .L4+12
	movs	r1, #21
	movw	r0, #609
	bl	le_adv_set_param
.LVL6:
	.loc 1 136 0
	add	sp, sp, #56
	.cfi_def_cfa_offset 16
	@ sp needed
	pop	{r4, r5, r6, pc}
.L5:
	.align	2
.L4:
	.word	.LANCHOR0
	.word	.LC1
	.word	.LANCHOR1+9
	.word	.LANCHOR1
	.cfi_endproc
.LFE159:
	.size	bt_config_app_set_adv_data, .-bt_config_app_set_adv_data
	.section	.text.bt_config_app_handle_dev_state_evt,"ax",%progbits
	.align	1
	.global	bt_config_app_handle_dev_state_evt
	.syntax unified
	.thumb
	.thumb_func
	.fpu softvfp
	.type	bt_config_app_handle_dev_state_evt, %function
bt_config_app_handle_dev_state_evt:
.LFB160:
	.loc 1 149 0
	.cfi_startproc
	@ args = 0, pretend = 0, frame = 0
	@ frame_needed = 0, uses_anonymous_args = 0
.LVL7:
	push	{r0, r1, r4, r5, r6, lr}
	.cfi_def_cfa_offset 24
	.cfi_offset 4, -16
	.cfi_offset 5, -12
	.cfi_offset 6, -8
	.cfi_offset 14, -4
	.loc 1 149 0
	mov	r6, r0
	.loc 1 152 0
	ldr	r5, .L21
.LBB11:
	.loc 1 150 0
	ubfx	r3, r6, #2, #2
	str	r1, [sp, #4]
	str	r3, [sp]
	movs	r2, #3
	and	r3, r6, #1
	ldr	r1, .L21+4
.LVL8:
	ldr	r0, .L21+8
.LVL9:
	bl	trace_log_buffer
.LVL10:
.LBE11:
	.loc 1 152 0
	ldrb	r3, [r5]	@ zero_extendqisi2
	uxtb	r4, r6
	eors	r3, r3, r4
	lsls	r2, r3, #31
	bpl	.L7
	.loc 1 154 0
	lsls	r3, r4, #31
	bpl	.L7
.LBB12:
	.loc 1 156 0
	movs	r2, #0
	ldr	r1, .L21+12
	ldr	r0, .L21+8
	bl	trace_log_buffer
.LVL11:
.LBE12:
	.loc 1 159 0
	bl	wifi_btcoex_set_bt_on
.LVL12:
	.loc 1 160 0
	bl	bt_config_app_set_adv_data
.LVL13:
	.loc 1 161 0
	bl	le_adv_start
.LVL14:
	.loc 1 162 0
	movs	r0, #2
	bl	set_bt_config_state
.LVL15:
	.loc 1 163 0
	ldr	r0, .L21+16
	bl	__wrap_printf
.LVL16:
.L7:
	.loc 1 167 0
	ldrb	r3, [r5]	@ zero_extendqisi2
	eors	r3, r3, r4
	tst	r3, #12
	beq	.L8
	.loc 1 169 0
	ands	r2, r4, #12
	bne	.L9
	.loc 1 171 0
	ands	r4, r4, #2
	beq	.L10
.LBB13:
	.loc 1 173 0
	ldr	r1, .L21+20
	ldr	r0, .L21+8
	bl	trace_log_buffer
.LVL17:
.L8:
.LBE13:
	.loc 1 188 0
	strb	r6, [r5]
	.loc 1 189 0
	add	sp, sp, #8
	.cfi_remember_state
	.cfi_def_cfa_offset 16
	@ sp needed
	pop	{r4, r5, r6, pc}
.LVL18:
.L10:
	.cfi_restore_state
.LBB14:
	.loc 1 177 0
	ldr	r0, .L21+8
	mov	r2, r4
	ldr	r1, .L21+24
	bl	trace_log_buffer
.LVL19:
.LBE14:
	.loc 1 178 0
	ldr	r0, .L21+28
.L20:
	.loc 1 184 0
	bl	__wrap_printf
.LVL20:
	b	.L8
.L9:
	.loc 1 181 0
	cmp	r2, #8
	bne	.L8
.LBB15:
	.loc 1 183 0
	ldr	r0, .L21+8
	movs	r2, #0
	ldr	r1, .L21+32
	bl	trace_log_buffer
.LVL21:
.LBE15:
	.loc 1 184 0
	ldr	r0, .L21+36
	b	.L20
.L22:
	.align	2
.L21:
	.word	.LANCHOR3
	.word	.LANCHOR2
	.word	1058025474
	.word	.LANCHOR2+80
	.word	.LC2
	.word	.LANCHOR2+100
	.word	.LANCHOR2+148
	.word	.LC3
	.word	.LANCHOR2+168
	.word	.LC4
	.cfi_endproc
.LFE160:
	.size	bt_config_app_handle_dev_state_evt, .-bt_config_app_handle_dev_state_evt
	.section	.text.bt_config_app_handle_conn_state_evt,"ax",%progbits
	.align	1
	.global	bt_config_app_handle_conn_state_evt
	.syntax unified
	.thumb
	.thumb_func
	.fpu softvfp
	.type	bt_config_app_handle_conn_state_evt, %function
bt_config_app_handle_conn_state_evt:
.LFB161:
	.loc 1 201 0
	.cfi_startproc
	@ args = 0, pretend = 0, frame = 16
	@ frame_needed = 0, uses_anonymous_args = 0
.LVL22:
	push	{r4, r5, r6, r7, lr}
	.cfi_def_cfa_offset 20
	.cfi_offset 4, -20
	.cfi_offset 5, -16
	.cfi_offset 6, -12
	.cfi_offset 7, -8
	.cfi_offset 14, -4
	mov	r7, r1
.LBB16:
	.loc 1 202 0
	ldr	r6, .L36
.LBE16:
	.loc 1 201 0
	sub	sp, sp, #36
	.cfi_def_cfa_offset 56
.LBB17:
	.loc 1 202 0
	ldrb	r3, [r6]	@ zero_extendqisi2
.LBE17:
	.loc 1 201 0
	mov	r4, r0
	mov	r5, r2
.LBB18:
	.loc 1 202 0
	str	r2, [sp, #8]
	str	r1, [sp, #4]
	str	r3, [sp]
	movs	r2, #4
.LVL23:
	mov	r3, r0
	ldr	r1, .L36+4
.LVL24:
	ldr	r0, .L36+8
.LVL25:
	bl	trace_log_buffer
.LVL26:
.LBE18:
	.loc 1 204 0
	cbz	r7, .L25
	cmp	r7, #2
	beq	.L26
.L24:
	.loc 1 270 0
	strb	r7, [r6]
	.loc 1 271 0
	add	sp, sp, #36
	.cfi_remember_state
	.cfi_def_cfa_offset 20
	@ sp needed
	pop	{r4, r5, r6, r7, pc}
.L25:
	.cfi_restore_state
	.loc 1 208 0
	movw	r3, #275
	cmp	r5, r3
	beq	.L27
	.loc 1 209 0
	cmp	r5, #278
	beq	.L27
.LBB19:
	.loc 1 211 0
	mov	r3, r5
	movs	r2, #1
	ldr	r1, .L36+12
	ldr	r0, .L36+16
	bl	trace_log_buffer
.LVL27:
.L27:
.LBE19:
	.loc 1 213 0
	movs	r4, #0
	ldr	r3, .L36+20
	.loc 1 214 0
	ldr	r0, .L36+24
	.loc 1 213 0
	strb	r4, [r3]
	.loc 1 214 0
	bl	__wrap_printf
.LVL28:
	.loc 1 215 0
	mov	r0, r4
	bl	wifi_is_ready_to_transceive
.LVL29:
	cmp	r0, #0
	beq	.L24
	.loc 1 216 0
	bl	bt_config_app_set_adv_data
.LVL30:
	.loc 1 217 0
	bl	le_adv_start
.LVL31:
	.loc 1 218 0
	movs	r0, #2
.L35:
.LBB20:
	.loc 1 263 0
	bl	set_bt_config_state
.LVL32:
.LBE20:
	.loc 1 265 0
	b	.L24
.L26:
.LVL33:
.LBB22:
	.loc 1 239 0
	mov	r2, r4
	add	r1, sp, #18
	movw	r0, #626
	bl	le_get_conn_param
.LVL34:
	.loc 1 240 0
	mov	r2, r4
	add	r1, sp, #20
	movw	r0, #627
	bl	le_get_conn_param
.LVL35:
	.loc 1 241 0
	mov	r2, r4
	add	r1, sp, #22
	mov	r0, #628
	bl	le_get_conn_param
.LVL36:
	.loc 1 242 0
	add	r2, sp, #17
	add	r1, sp, #24
	mov	r0, r4
	bl	le_get_conn_addr
.LVL37:
	.loc 1 245 0
	mov	r0, #500
	movs	r1, #22
	movs	r2, #46
	.loc 1 244 0
	movs	r3, #0
	.loc 1 245 0
	stm	sp, {r0, r1, r2}
	movs	r2, #24
	movs	r1, #12
	mov	r0, r4
	.loc 1 244 0
	strh	r3, [sp, #20]	@ movhi
	.loc 1 245 0
	bl	le_update_conn_param
.LVL38:
	.loc 1 253 0
	cmp	r0, #4
	bne	.L28
	.loc 1 254 0
	ldr	r0, .L36+28
.LVL39:
	bl	__wrap_printf
.LVL40:
	b	.L24
.LVL41:
.L28:
.LBB21:
	.loc 1 258 0
	add	r1, sp, #24
	ldr	r0, .L36+32
.LVL42:
	bl	trace_bdaddr
.LVL43:
	ldrh	r3, [sp, #22]
	movs	r2, #5
	str	r3, [sp, #12]
	ldrh	r3, [sp, #20]
	ldr	r1, .L36+36
	str	r3, [sp, #8]
	ldrh	r3, [sp, #18]
	str	r3, [sp, #4]
	ldrb	r3, [sp, #17]	@ zero_extendqisi2
	str	r3, [sp]
	mov	r3, r0
	ldr	r0, .L36+8
	bl	trace_log_buffer
.LVL44:
.LBE21:
	.loc 1 261 0
	ldr	r0, .L36+40
	bl	__wrap_printf
.LVL45:
	.loc 1 262 0
	ldr	r3, .L36+20
	.loc 1 263 0
	movs	r0, #3
	.loc 1 262 0
	strb	r4, [r3]
	b	.L35
.L37:
	.align	2
.L36:
	.word	.LANCHOR4
	.word	.LANCHOR2+188
	.word	1058025474
	.word	.LANCHOR2+284
	.word	1058025472
	.word	.LANCHOR5
	.word	.LC5
	.word	.LC6
	.word	1060110336
	.word	.LANCHOR2+352
	.word	.LC7
.LBE22:
	.cfi_endproc
.LFE161:
	.size	bt_config_app_handle_conn_state_evt, .-bt_config_app_handle_conn_state_evt
	.section	.text.bt_config_app_handle_authen_state_evt,"ax",%progbits
	.align	1
	.global	bt_config_app_handle_authen_state_evt
	.syntax unified
	.thumb
	.thumb_func
	.fpu softvfp
	.type	bt_config_app_handle_authen_state_evt, %function
bt_config_app_handle_authen_state_evt:
.LFB162:
	.loc 1 283 0
	.cfi_startproc
	@ args = 0, pretend = 0, frame = 0
	@ frame_needed = 0, uses_anonymous_args = 0
.LVL46:
	push	{r0, r1, r2, r4, r5, lr}
	.cfi_def_cfa_offset 24
	.cfi_offset 4, -12
	.cfi_offset 5, -8
	.cfi_offset 14, -4
	.loc 1 283 0
	mov	r4, r1
	mov	r5, r2
.LBB34:
	.loc 1 284 0
	str	r2, [sp]
	mov	r3, r0
	movs	r2, #2
.LVL47:
	ldr	r1, .L45
.LVL48:
	ldr	r0, .L45+4
.LVL49:
	bl	trace_log_buffer
.LVL50:
.LBE34:
	.loc 1 286 0
	cbz	r4, .L40
	cmp	r4, #1
	beq	.L41
.LBB35:
	.loc 1 309 0
	mov	r3, r4
	movs	r2, #1
	ldr	r1, .L45+8
	ldr	r0, .L45+12
.LBE35:
	.loc 1 313 0
	add	sp, sp, #12
	.cfi_remember_state
	.cfi_def_cfa_offset 12
	@ sp needed
	pop	{r4, r5, lr}
	.cfi_restore 14
	.cfi_restore 5
	.cfi_restore 4
	.cfi_def_cfa_offset 0
.LBB36:
	.loc 1 309 0
	b	trace_log_buffer
.LVL51:
.L40:
	.cfi_restore_state
.LBE36:
.LBB37:
	.loc 1 290 0
	mov	r2, r4
	ldr	r1, .L45+16
.L44:
.LBE37:
.LBB38:
.LBB39:
	.loc 1 298 0
	ldr	r0, .L45+4
.LBE39:
.LBE38:
	.loc 1 313 0
	add	sp, sp, #12
	.cfi_remember_state
	.cfi_def_cfa_offset 12
	@ sp needed
	pop	{r4, r5, lr}
	.cfi_restore 14
	.cfi_restore 5
	.cfi_restore 4
	.cfi_def_cfa_offset 0
.LBB42:
.LBB40:
	.loc 1 298 0
	b	trace_log_buffer
.LVL52:
.L41:
	.cfi_restore_state
.LBE40:
.LBE42:
	.loc 1 296 0
	cbnz	r5, .L42
.LVL53:
.LBB43:
.LBB41:
	.loc 1 298 0
	mov	r2, r5
	ldr	r1, .L45+20
	b	.L44
.LVL54:
.L42:
.LBE41:
.LBE43:
.LBB44:
	.loc 1 302 0
	movs	r2, #0
	ldr	r1, .L45+24
	b	.L44
.L46:
	.align	2
.L45:
	.word	.LANCHOR2+484
	.word	1058025474
	.word	.LANCHOR2+780
	.word	1058025472
	.word	.LANCHOR2+548
	.word	.LANCHOR2+616
	.word	.LANCHOR2+700
.LBE44:
	.cfi_endproc
.LFE162:
	.size	bt_config_app_handle_authen_state_evt, .-bt_config_app_handle_authen_state_evt
	.section	.text.bt_config_app_handle_conn_mtu_info_evt,"ax",%progbits
	.align	1
	.global	bt_config_app_handle_conn_mtu_info_evt
	.syntax unified
	.thumb
	.thumb_func
	.fpu softvfp
	.type	bt_config_app_handle_conn_mtu_info_evt, %function
bt_config_app_handle_conn_mtu_info_evt:
.LFB163:
	.loc 1 323 0
	.cfi_startproc
	@ args = 0, pretend = 0, frame = 0
	@ frame_needed = 0, uses_anonymous_args = 0
.LVL55:
	push	{r0, r1, r2, lr}
	.cfi_def_cfa_offset 16
	.cfi_offset 14, -4
.LBB45:
	.loc 1 324 0
	mov	r3, r0
	str	r1, [sp]
	movs	r2, #2
	ldr	r1, .L48
.LVL56:
	ldr	r0, .L48+4
.LVL57:
	bl	trace_log_buffer
.LVL58:
.LBE45:
	.loc 1 325 0
	add	sp, sp, #12
	.cfi_def_cfa_offset 4
	@ sp needed
	ldr	pc, [sp], #4
.L49:
	.align	2
.L48:
	.word	.LANCHOR2+844
	.word	1058025474
	.cfi_endproc
.LFE163:
	.size	bt_config_app_handle_conn_mtu_info_evt, .-bt_config_app_handle_conn_mtu_info_evt
	.section	.text.bt_config_app_handle_conn_param_update_evt,"ax",%progbits
	.align	1
	.global	bt_config_app_handle_conn_param_update_evt
	.syntax unified
	.thumb
	.thumb_func
	.fpu softvfp
	.type	bt_config_app_handle_conn_param_update_evt, %function
bt_config_app_handle_conn_param_update_evt:
.LFB164:
	.loc 1 336 0
	.cfi_startproc
	@ args = 0, pretend = 0, frame = 8
	@ frame_needed = 0, uses_anonymous_args = 0
.LVL59:
	.loc 1 337 0
	cmp	r1, #1
	.loc 1 336 0
	push	{r0, r1, r2, r3, r4, lr}
	.cfi_def_cfa_offset 24
	.cfi_offset 4, -8
	.cfi_offset 14, -4
	.loc 1 336 0
	mov	r4, r0
	mov	r3, r2
	.loc 1 337 0
	beq	.L52
	bcc	.L53
	cmp	r1, #2
	beq	.L54
.LVL60:
.L50:
	.loc 1 368 0
	add	sp, sp, #16
	.cfi_remember_state
	.cfi_def_cfa_offset 8
	@ sp needed
	pop	{r4, pc}
.LVL61:
.L53:
	.cfi_restore_state
.LBB54:
.LBB55:
.LBB56:
	.loc 1 345 0
	mov	r2, r0
.LVL62:
	add	r1, sp, #10
.LVL63:
	movw	r0, #626
.LVL64:
	bl	le_get_conn_param
.LVL65:
	.loc 1 346 0
	mov	r2, r4
	add	r1, sp, #12
	movw	r0, #627
	bl	le_get_conn_param
.LVL66:
	.loc 1 347 0
	mov	r2, r4
	add	r1, sp, #14
	mov	r0, #628
	bl	le_get_conn_param
.LVL67:
.LBB57:
	.loc 1 348 0
	ldrh	r2, [sp, #14]
	ldrh	r3, [sp, #10]
	str	r2, [sp, #4]
	ldrh	r2, [sp, #12]
	ldr	r1, .L55
	str	r2, [sp]
	ldr	r0, .L55+4
	movs	r2, #3
	bl	trace_log_buffer
.LVL68:
	b	.L50
.LVL69:
.L52:
.LBE57:
.LBE56:
.LBE55:
.LBE54:
.LBB58:
	.loc 1 355 0
	mov	r2, r1
.LVL70:
	ldr	r0, .L55+8
.LVL71:
	ldr	r1, .L55+12
.LVL72:
	bl	trace_log_buffer
.LVL73:
.LBE58:
	.loc 1 357 0
	b	.L50
.LVL74:
.L54:
.LBB59:
	.loc 1 361 0
	movs	r2, #0
.LVL75:
	ldr	r1, .L55+16
.LVL76:
	ldr	r0, .L55+4
.LVL77:
	bl	trace_log_buffer
.LVL78:
.LBE59:
	.loc 1 368 0
	b	.L50
.L56:
	.align	2
.L55:
	.word	.LANCHOR2+912
	.word	1058025474
	.word	1058025472
	.word	.LANCHOR2+1048
	.word	.LANCHOR2+1120
	.cfi_endproc
.LFE164:
	.size	bt_config_app_handle_conn_param_update_evt, .-bt_config_app_handle_conn_param_update_evt
	.section	.text.bt_config_app_handle_gap_msg,"ax",%progbits
	.align	1
	.global	bt_config_app_handle_gap_msg
	.syntax unified
	.thumb
	.thumb_func
	.fpu softvfp
	.type	bt_config_app_handle_gap_msg, %function
bt_config_app_handle_gap_msg:
.LFB165:
	.loc 1 378 0
	.cfi_startproc
	@ args = 0, pretend = 0, frame = 8
	@ frame_needed = 0, uses_anonymous_args = 0
.LVL79:
	push	{r0, r1, r4, lr}
	.cfi_def_cfa_offset 16
	.cfi_offset 4, -8
	.cfi_offset 14, -4
	.loc 1 378 0
	mov	r4, r0
	.loc 1 381 0
	ldr	r3, [r0, #4]	@ unaligned
.LBB60:
	.loc 1 384 0
	movs	r2, #1
.LBE60:
	.loc 1 381 0
	str	r3, [sp]
.LBB61:
	.loc 1 384 0
	ldr	r1, .L70
	ldrh	r3, [r0, #2]
	ldr	r0, .L70+4
.LVL80:
	bl	trace_log_buffer
.LVL81:
.LBE61:
	.loc 1 385 0
	ldrh	r3, [r4, #2]
	subs	r2, r3, #1
	cmp	r2, #9
	bhi	.L58
	tbb	[pc, r2]
.L60:
	.byte	(.L59-.L60)/2
	.byte	(.L61-.L60)/2
	.byte	(.L62-.L60)/2
	.byte	(.L63-.L60)/2
	.byte	(.L64-.L60)/2
	.byte	(.L65-.L60)/2
	.byte	(.L66-.L60)/2
	.byte	(.L58-.L60)/2
	.byte	(.L67-.L60)/2
	.byte	(.L68-.L60)/2
	.p2align 1
.L59:
	.loc 1 389 0
	ldrh	r1, [sp, #2]
	ldrb	r0, [sp]	@ zero_extendqisi2
	bl	bt_config_app_handle_dev_state_evt
.LVL82:
.L57:
	.loc 1 466 0
	add	sp, sp, #8
	.cfi_remember_state
	.cfi_def_cfa_offset 8
	@ sp needed
	pop	{r4, pc}
.LVL83:
.L61:
	.cfi_restore_state
	.loc 1 396 0
	ldrh	r2, [sp, #2]
	ldrb	r1, [sp, #1]	@ zero_extendqisi2
	ldrb	r0, [sp]	@ zero_extendqisi2
	bl	bt_config_app_handle_conn_state_evt
.LVL84:
	.loc 1 400 0
	b	.L57
.L63:
	.loc 1 404 0
	ldrh	r1, [sp, #2]
	ldrb	r0, [sp]	@ zero_extendqisi2
	bl	bt_config_app_handle_conn_mtu_info_evt
.LVL85:
	.loc 1 407 0
	b	.L57
.L62:
	.loc 1 411 0
	ldrh	r2, [sp, #2]
	ldrb	r1, [sp, #1]	@ zero_extendqisi2
	ldrb	r0, [sp]	@ zero_extendqisi2
	bl	bt_config_app_handle_conn_param_update_evt
.LVL86:
	.loc 1 415 0
	b	.L57
.L64:
	.loc 1 419 0
	ldrh	r2, [sp, #2]
	ldrb	r1, [sp, #1]	@ zero_extendqisi2
	ldrb	r0, [sp]	@ zero_extendqisi2
	bl	bt_config_app_handle_authen_state_evt
.LVL87:
	.loc 1 423 0
	b	.L57
.L68:
.LVL88:
	.loc 1 428 0
	movs	r1, #1
	ldrb	r0, [sp]	@ zero_extendqisi2
	bl	le_bond_just_work_confirm
.LVL89:
.LBB62:
	.loc 1 429 0
	movs	r2, #0
	ldr	r1, .L70+8
	ldr	r0, .L70+12
	bl	trace_log_buffer
.LVL90:
.LBE62:
	.loc 1 431 0
	b	.L57
.LVL91:
.L65:
.LBB63:
	.loc 1 435 0
	movs	r3, #0
	.loc 1 436 0
	ldrb	r4, [sp]	@ zero_extendqisi2
.LVL92:
	.loc 1 437 0
	add	r1, sp, #4
	mov	r0, r4
	.loc 1 435 0
	str	r3, [sp, #4]
	.loc 1 437 0
	bl	le_bond_get_display_key
.LVL93:
.LBB64:
	.loc 1 438 0
	ldr	r3, [sp, #4]
	movs	r2, #1
	ldr	r1, .L70+16
	ldr	r0, .L70+12
	bl	trace_log_buffer
.LVL94:
.LBE64:
	.loc 1 439 0
	movs	r1, #1
	mov	r0, r4
	bl	le_bond_passkey_display_confirm
.LVL95:
.LBE63:
	.loc 1 441 0
	b	.L57
.LVL96:
.L67:
.LBB65:
	.loc 1 445 0 discriminator 2
	movs	r3, #0
	.loc 1 446 0 discriminator 2
	ldrb	r4, [sp]	@ zero_extendqisi2
.LVL97:
	.loc 1 447 0 discriminator 2
	add	r1, sp, #4
	mov	r0, r4
	.loc 1 445 0 discriminator 2
	str	r3, [sp, #4]
	.loc 1 447 0 discriminator 2
	bl	le_bond_get_display_key
.LVL98:
.LBB66:
	.loc 1 448 0 discriminator 2
	ldr	r3, [sp, #4]
	movs	r2, #1
	ldr	r1, .L70+20
	ldr	r0, .L70+12
	bl	trace_log_buffer
.LVL99:
.LBE66:
	.loc 1 449 0 discriminator 2
	movs	r1, #1
	mov	r0, r4
	bl	le_bond_user_confirm
.LVL100:
.LBE65:
	.loc 1 451 0 discriminator 2
	b	.L57
.LVL101:
.L66:
.LBB67:
	.loc 1 456 0
	ldrb	r4, [sp]	@ zero_extendqisi2
.LVL102:
.LBB68:
	.loc 1 457 0
	movs	r2, #1
	mov	r3, r4
	ldr	r1, .L70+24
	ldr	r0, .L70+12
	bl	trace_log_buffer
.LVL103:
.LBE68:
	.loc 1 458 0
	movs	r2, #1
	ldr	r1, .L70+28
	mov	r0, r4
	bl	le_bond_passkey_input_confirm
.LVL104:
.LBE67:
	.loc 1 460 0
	b	.L57
.LVL105:
.L58:
.LBB69:
	.loc 1 463 0
	movs	r2, #1
	ldr	r1, .L70+32
	ldr	r0, .L70+36
	bl	trace_log_buffer
.LVL106:
.LBE69:
	.loc 1 466 0
	b	.L57
.L71:
	.align	2
.L70:
	.word	.LANCHOR2+1184
	.word	1058025475
	.word	.LANCHOR2+1228
	.word	1058025474
	.word	.LANCHOR2+1260
	.word	.LANCHOR2+1308
	.word	.LANCHOR2+1360
	.word	888888
	.word	.LANCHOR2+1408
	.word	1058025472
	.cfi_endproc
.LFE165:
	.size	bt_config_app_handle_gap_msg, .-bt_config_app_handle_gap_msg
	.section	.text.bt_config_app_handle_io_msg,"ax",%progbits
	.align	1
	.global	bt_config_app_handle_io_msg
	.syntax unified
	.thumb
	.thumb_func
	.fpu softvfp
	.type	bt_config_app_handle_io_msg, %function
bt_config_app_handle_io_msg:
.LFB158:
	.loc 1 64 0
	.cfi_startproc
	@ args = 0, pretend = 0, frame = 8
	@ frame_needed = 0, uses_anonymous_args = 0
	push	{r0, r1, r2, lr}
	.cfi_def_cfa_offset 16
	.cfi_offset 14, -4
.LVL107:
	.loc 1 64 0
	stm	sp, {r0, r1}
.LVL108:
	.loc 1 67 0
	ldrh	r2, [sp]
	cbz	r2, .L74
	cmp	r2, #2
	beq	.L75
.L72:
	.loc 1 86 0
	add	sp, sp, #12
	.cfi_remember_state
	.cfi_def_cfa_offset 4
	@ sp needed
	ldr	pc, [sp], #4
.L74:
	.cfi_restore_state
	.loc 1 71 0
	mov	r0, sp
	bl	bt_config_app_handle_gap_msg
.LVL109:
	.loc 1 73 0
	b	.L72
.L75:
	.loc 1 76 0
	ldrh	r3, [sp, #2]
	cmp	r3, #1
	bne	.L76
	.loc 1 77 0
	bl	le_adv_start
.LVL110:
	b	.L72
.L76:
	.loc 1 78 0
	cmp	r3, #0
	bne	.L72
	.loc 1 79 0
	bl	le_adv_stop
.LVL111:
	.loc 1 86 0
	b	.L72
	.cfi_endproc
.LFE158:
	.size	bt_config_app_handle_io_msg, .-bt_config_app_handle_io_msg
	.section	.text.bt_config_app_gap_callback,"ax",%progbits
	.align	1
	.global	bt_config_app_gap_callback
	.syntax unified
	.thumb
	.thumb_func
	.fpu softvfp
	.type	bt_config_app_gap_callback, %function
bt_config_app_gap_callback:
.LFB166:
	.loc 1 480 0
	.cfi_startproc
	@ args = 0, pretend = 0, frame = 0
	@ frame_needed = 0, uses_anonymous_args = 0
.LVL112:
	.loc 1 484 0
	cmp	r0, #1
	.loc 1 480 0
	push	{r0, r1, r2, lr}
	.cfi_def_cfa_offset 16
	.cfi_offset 14, -4
	.loc 1 480 0
	mov	r3, r0
	.loc 1 484 0
	bne	.L81
.LBB70:
	.loc 1 496 0
	ldr	r2, [r1]
	ldr	r0, .L82
.LVL113:
	ldrb	r3, [r2]	@ zero_extendqisi2
	ldrh	r2, [r2, #2]
	ldr	r1, .L82+4
.LVL114:
	str	r2, [sp]
	movs	r2, #2
	bl	trace_log_buffer
.LVL115:
.L80:
.LBE70:
	.loc 1 506 0
	movs	r0, #0
	add	sp, sp, #12
	.cfi_remember_state
	.cfi_def_cfa_offset 4
	@ sp needed
	ldr	pc, [sp], #4
.LVL116:
.L81:
	.cfi_restore_state
.LBB71:
	.loc 1 502 0
	movs	r2, #1
	ldr	r1, .L82+8
.LVL117:
	ldr	r0, .L82+12
.LVL118:
	bl	trace_log_buffer
.LVL119:
.LBE71:
	.loc 1 503 0
	b	.L80
.L83:
	.align	2
.L82:
	.word	1058025474
	.word	.LANCHOR2+1460
	.word	.LANCHOR2+1520
	.word	1058025472
	.cfi_endproc
.LFE166:
	.size	bt_config_app_gap_callback, .-bt_config_app_gap_callback
	.section	.text.bt_config_app_profile_callback,"ax",%progbits
	.align	1
	.global	bt_config_app_profile_callback
	.syntax unified
	.thumb
	.thumb_func
	.fpu softvfp
	.type	bt_config_app_profile_callback, %function
bt_config_app_profile_callback:
.LFB167:
	.loc 1 524 0
	.cfi_startproc
	@ args = 0, pretend = 0, frame = 8
	@ frame_needed = 0, uses_anonymous_args = 0
.LVL120:
	.loc 1 526 0
	cmp	r0, #255
	.loc 1 524 0
	push	{r0, r1, r2, lr}
	.cfi_def_cfa_offset 16
	.cfi_offset 14, -4
	.loc 1 524 0
	mov	r3, r1
	.loc 1 526 0
	bne	.L85
.LVL121:
.LBB72:
	.loc 1 529 0
	ldrb	r2, [r1]	@ zero_extendqisi2
	cbnz	r2, .L86
.LBB73:
	.loc 1 532 0
	add	r0, r0, #1056964608
.LVL122:
	add	r0, r0, #1056768
	ldrb	r3, [r1, #2]	@ zero_extendqisi2
	movs	r2, #1
	ldr	r1, .L95
.LVL123:
	addw	r0, r0, #3843
	bl	trace_log_buffer
.LVL124:
.L86:
.LBE73:
.LBE72:
	.loc 1 583 0
	movs	r0, #0
	add	sp, sp, #12
	.cfi_remember_state
	.cfi_def_cfa_offset 4
	@ sp needed
	ldr	pc, [sp], #4
.LVL125:
.L85:
	.cfi_restore_state
	.loc 1 539 0
	ldr	r2, .L95+4
	ldrb	r2, [r2]	@ zero_extendqisi2
	cmp	r2, r0
	bne	.L86
.LVL126:
.LBB74:
	.loc 1 542 0
	ldrb	r2, [r1, #1]	@ zero_extendqisi2
	cmp	r2, #2
	beq	.L88
	cmp	r2, #3
	bne	.L86
	.loc 1 560 0
	ldrb	r2, [r1, #4]	@ zero_extendqisi2
	cmp	r2, #1
	bne	.L86
	.loc 1 568 0
	ldrh	r1, [r1, #6]
.LVL127:
	ldr	r0, [r3, #8]
.LVL128:
	bl	BC_send_cmd
.LVL129:
	.loc 1 570 0
	b	.L86
.LVL130:
.L88:
.LBB75:
	.loc 1 546 0
	movs	r2, #0
	.loc 1 547 0
	add	r1, sp, #8
.LVL131:
	.loc 1 546 0
	str	r2, [sp]
	.loc 1 547 0
	str	r2, [r1, #-4]!
	.loc 1 552 0
	mov	r0, sp
.LVL132:
	ldrh	r2, [r3, #4]
	bl	BC_handle_read_request
.LVL133:
	.loc 1 553 0
	ldr	r2, [sp]
	cmp	r2, #0
	beq	.L86
	.loc 1 554 0
	ldrh	r1, [sp, #4]
	movs	r0, #1
	bl	bt_config_service_set_parameter
.LVL134:
.LBE75:
	.loc 1 557 0
	b	.L86
.L96:
	.align	2
.L95:
	.word	.LANCHOR2+1576
	.word	bt_config_srv_id
.LBE74:
	.cfi_endproc
.LFE167:
	.size	bt_config_app_profile_callback, .-bt_config_app_profile_callback
	.global	bt_config_conn_id
	.global	bt_config_gap_conn_state
	.global	bt_config_gap_dev_state
	.comm	bt_config_srv_id,1,1
	.section	.rodata
	.set	.LANCHOR0,. + 0
.LC0:
	.ascii	"Ameba_xxyyzz\000"
	.space	27
	.section	.BTTRACE,"a",%progbits
	.align	2
	.set	.LANCHOR2,. + 0
	.type	format.10339, %object
	.size	format.10339, 79
format.10339:
	.ascii	"!**bt_config_app_handle_dev_state_evt: init state %"
	.ascii	"d, adv state %d, cause 0x%x\000"
	.space	1
	.type	format.10340, %object
	.size	format.10340, 19
format.10340:
	.ascii	"!**GAP stack ready\000"
	.space	1
	.type	format.10341, %object
	.size	format.10341, 46
format.10341:
	.ascii	"!**GAP adv stoped: because connection created\000"
	.space	2
	.type	format.10342, %object
	.size	format.10342, 19
format.10342:
	.ascii	"!**GAP adv stopped\000"
	.space	1
	.type	format.10343, %object
	.size	format.10343, 17
format.10343:
	.ascii	"!**GAP adv start\000"
	.space	3
	.type	format.10349, %object
	.size	format.10349, 94
format.10349:
	.ascii	"!**bt_config_app_handle_conn_state_evt: conn_id %d "
	.ascii	"old_state %d new_state %d, disc_cause 0x%x\000"
	.space	2
	.type	format.10351, %object
	.size	format.10351, 67
format.10351:
	.ascii	"!!!bt_config_app_handle_conn_state_evt: connection "
	.ascii	"lost cause 0x%x\000"
	.space	1
	.type	format.10365, %object
	.size	format.10365, 132
format.10365:
	.ascii	"!**GAP_CONN_STATE_CONNECTED:remote_bd %s, remote_ad"
	.ascii	"dr_type %d, conn_interval 0x%x, conn_latency 0x%x, "
	.ascii	"conn_supervision_timeout 0x%x\000"
	.type	format.10372, %object
	.size	format.10372, 64
format.10372:
	.ascii	"!**bt_config_app_handle_authen_state_evt:conn_id %d"
	.ascii	", cause 0x%x\000"
	.type	format.10374, %object
	.size	format.10374, 67
format.10374:
	.ascii	"!**bt_config_app_handle_authen_state_evt: GAP_AUTHE"
	.ascii	"N_STATE_STARTED\000"
	.space	1
	.type	format.10377, %object
	.size	format.10377, 81
format.10377:
	.ascii	"!**bt_config_app_handle_authen_state_evt: GAP_AUTHE"
	.ascii	"N_STATE_COMPLETE pair success\000"
	.space	3
	.type	format.10378, %object
	.size	format.10378, 80
format.10378:
	.ascii	"!**bt_config_app_handle_authen_state_evt: GAP_AUTHE"
	.ascii	"N_STATE_COMPLETE pair failed\000"
	.type	format.10380, %object
	.size	format.10380, 62
format.10380:
	.ascii	"!!!bt_config_app_handle_authen_state_evt: unknown n"
	.ascii	"ewstate %d\000"
	.space	2
	.type	format.10385, %object
	.size	format.10385, 67
format.10385:
	.ascii	"!**bt_config_app_handle_conn_mtu_info_evt: conn_id "
	.ascii	"%d, mtu_size %d\000"
	.space	1
	.type	format.10395, %object
	.size	format.10395, 136
format.10395:
	.ascii	"!**bt_config_app_handle_conn_param_update_evt updat"
	.ascii	"e success:conn_interval 0x%x, conn_slave_latency 0x"
	.ascii	"%x, conn_supervision_timeout 0x%x\000"
	.type	format.10398, %object
	.size	format.10398, 72
format.10398:
	.ascii	"!!!bt_config_app_handle_conn_param_update_evt updat"
	.ascii	"e failed: cause 0x%x\000"
	.type	format.10400, %object
	.size	format.10400, 62
format.10400:
	.ascii	"!**bt_config_app_handle_conn_param_update_evt updat"
	.ascii	"e pending.\000"
	.space	2
	.type	format.10407, %object
	.size	format.10407, 41
format.10407:
	.ascii	"bt_config_app_handle_gap_msg: subtype %d\000"
	.space	3
	.type	format.10415, %object
	.size	format.10415, 29
format.10415:
	.ascii	"!**GAP_MSG_LE_BOND_JUST_WORK\000"
	.space	3
	.type	format.10418, %object
	.size	format.10418, 46
format.10418:
	.ascii	"!**GAP_MSG_LE_BOND_PASSKEY_DISPLAY:passkey %d\000"
	.space	2
	.type	format.10421, %object
	.size	format.10421, 49
format.10421:
	.ascii	"!**GAP_MSG_LE_BOND_USER_CONFIRMATION: passkey %d\000"
	.space	3
	.type	format.10424, %object
	.size	format.10424, 45
format.10424:
	.ascii	"!**GAP_MSG_LE_BOND_PASSKEY_INPUT: conn_id %d\000"
	.space	3
	.type	format.10426, %object
	.size	format.10426, 52
format.10426:
	.ascii	"!!!bt_config_app_handle_gap_msg: unknown subtype %d"
	.ascii	"\000"
	.type	format.10434, %object
	.size	format.10434, 58
format.10434:
	.ascii	"!**GAP_MSG_LE_MODIFY_WHITE_LIST: operation %d, caus"
	.ascii	"e 0x%x\000"
	.space	2
	.type	format.10437, %object
	.size	format.10437, 54
format.10437:
	.ascii	"!!!bt_config_app_gap_callback: unhandled cb_type 0x"
	.ascii	"%x\000"
	.space	2
	.type	format.10445, %object
	.size	format.10445, 43
format.10445:
	.ascii	"!**PROFILE_EVT_SRV_REG_COMPLETE: result %d\000"
	.section	.bss.bt_config_conn_id,"aw",%nobits
	.set	.LANCHOR5,. + 0
	.type	bt_config_conn_id, %object
	.size	bt_config_conn_id, 1
bt_config_conn_id:
	.space	1
	.section	.bss.bt_config_gap_conn_state,"aw",%nobits
	.set	.LANCHOR4,. + 0
	.type	bt_config_gap_conn_state, %object
	.size	bt_config_gap_conn_state, 1
bt_config_gap_conn_state:
	.space	1
	.section	.bss.bt_config_gap_dev_state,"aw",%nobits
	.set	.LANCHOR3,. + 0
	.type	bt_config_gap_dev_state, %object
	.size	bt_config_gap_dev_state, 1
bt_config_gap_dev_state:
	.space	1
	.section	.data.adv_data,"aw",%progbits
	.set	.LANCHOR1,. + 0
	.type	adv_data, %object
	.size	adv_data, 21
adv_data:
	.byte	2
	.byte	1
	.byte	6
	.byte	3
	.byte	3
	.byte	1
	.byte	-1
	.byte	13
	.byte	9
	.byte	65
	.byte	109
	.byte	101
	.byte	98
	.byte	97
	.byte	95
	.byte	120
	.byte	120
	.byte	121
	.byte	121
	.byte	122
	.byte	122
	.section	.rodata.bt_config_app_handle_conn_state_evt.str1.1,"aMS",%progbits,1
.LC5:
	.ascii	"\012\015[BT Config Wifi] Bluetooth Connection Disco"
	.ascii	"nnected\012\015\000"
.LC6:
	.ascii	"\012\015[BT Config Wifi] No Bluetooth Connection\012"
	.ascii	"\015\000"
.LC7:
	.ascii	"\012\015[BT Config Wifi] Bluetooth Connection Estab"
	.ascii	"lished\012\015\000"
	.section	.rodata.bt_config_app_handle_dev_state_evt.str1.1,"aMS",%progbits,1
.LC2:
	.ascii	"\012\015[BT Config Wifi] BT Config Wifi ready\012\015"
	.ascii	"\000"
.LC3:
	.ascii	"\012\015[BT Config Wifi] ADV stopped\012\015\000"
.LC4:
	.ascii	"\012\015[BT Config Wifi] ADV started\012\015\000"
	.section	.rodata.bt_config_app_set_adv_data.str1.1,"aMS",%progbits,1
.LC1:
	.ascii	"Ameba_%02X%02X%02X\000"
	.text
.Letext0:
	.file 2 "/home/ls/samba_share/sdk-ameba-v7.1d/tools/arm-none-eabi-gcc/asdk/linux/newlib/arm-none-eabi/include/machine/_default_types.h"
	.file 3 "/home/ls/samba_share/sdk-ameba-v7.1d/tools/arm-none-eabi-gcc/asdk/linux/newlib/lib/gcc/arm-none-eabi/6.5.0/include/stddef.h"
	.file 4 "/home/ls/samba_share/sdk-ameba-v7.1d/tools/arm-none-eabi-gcc/asdk/linux/newlib/arm-none-eabi/include/sys/lock.h"
	.file 5 "/home/ls/samba_share/sdk-ameba-v7.1d/tools/arm-none-eabi-gcc/asdk/linux/newlib/arm-none-eabi/include/sys/_types.h"
	.file 6 "/home/ls/samba_share/sdk-ameba-v7.1d/tools/arm-none-eabi-gcc/asdk/linux/newlib/arm-none-eabi/include/sys/reent.h"
	.file 7 "<built-in>"
	.file 8 "/home/ls/samba_share/sdk-ameba-v7.1d/tools/arm-none-eabi-gcc/asdk/linux/newlib/arm-none-eabi/include/sys/_stdint.h"
	.file 9 "/home/ls/samba_share/sdk-ameba-v7.1d/tools/arm-none-eabi-gcc/asdk/linux/newlib/arm-none-eabi/include/time.h"
	.file 10 "../../../component/common/bluetooth/realtek/sdk/inc/bluetooth/gap/gap.h"
	.file 11 "../../../component/common/bluetooth/realtek/sdk/inc/bluetooth/gap/gap_le_types.h"
	.file 12 "../../../component/common/bluetooth/realtek/sdk/inc/bluetooth/gap/gap_storage_le.h"
	.file 13 "../../../component/common/bluetooth/realtek/sdk/inc/bluetooth/gap/gap_callback_le.h"
	.file 14 "../../../component/common/bluetooth/realtek/sdk/inc/bluetooth/gap/gap_le.h"
	.file 15 "../../../component/common/bluetooth/realtek/sdk/inc/bluetooth/gap/gap_msg.h"
	.file 16 "../../../component/common/bluetooth/realtek/sdk/inc/app/app_msg.h"
	.file 17 "../inc/FreeRTOSConfig.h"
	.file 18 "../../../component/soc/realtek/8710c/cmsis/rtl8710c/include/basic_types.h"
	.file 19 "/home/ls/samba_share/sdk-ameba-v7.1d/tools/arm-none-eabi-gcc/asdk/linux/newlib/lib/gcc/arm-none-eabi/6.5.0/include/stdarg.h"
	.file 20 "../../../component/soc/realtek/8710c/app/rtl_printf/include/log_buf.h"
	.file 21 "../../../component/soc/realtek/8710c/app/stdio_port/stdio_port.h"
	.file 22 "../../../component/soc/realtek/8710c/app/rtl_printf/include/printf_entry.h"
	.file 23 "../../../component/soc/realtek/8710c/app/rtl_printf/include/rt_printf.h"
	.file 24 "../../../component/soc/realtek/8710c/misc/utilities/include/utility.h"
	.file 25 "../../../component/common/drivers/wlan/realtek/include/wifi_constants.h"
	.file 26 "../../../component/common/drivers/wlan/realtek/src/osdep/wireless.h"
	.file 27 "../../../component/common/drivers/wlan/realtek/include/autoconf.h"
	.file 28 "../../../component/common/api/wifi/wifi_util.h"
	.file 29 "/home/ls/samba_share/sdk-ameba-v7.1d/tools/arm-none-eabi-gcc/asdk/linux/newlib/arm-none-eabi/include/stdlib.h"
	.file 30 "../../../component/common/network/lwip/lwip_v2.0.2/port/realtek/arch/cc.h"
	.file 31 "../../../component/common/network/lwip/lwip_v2.0.2/src/include/lwip/err.h"
	.file 32 "../../../component/common/network/lwip/lwip_v2.0.2/src/include/lwip/timeouts.h"
	.file 33 "../../../component/common/network/lwip/lwip_v2.0.2/src/include/lwip/ip4_addr.h"
	.file 34 "../../../component/common/network/lwip/lwip_v2.0.2/src/include/lwip/ip_addr.h"
	.file 35 "../../../component/common/network/lwip/lwip_v2.0.2/src/include/lwip/pbuf.h"
	.file 36 "../../../component/common/network/lwip/lwip_v2.0.2/src/include/lwip/priv/memp_priv.h"
	.file 37 "../../../component/common/network/lwip/lwip_v2.0.2/src/include/lwip/memp.h"
	.file 38 "../../../component/common/network/lwip/lwip_v2.0.2/src/include/lwip/netif.h"
	.file 39 "../../../component/common/network/lwip/lwip_v2.0.2/src/include/lwip/prot/ip4.h"
	.file 40 "../../../component/common/network/lwip/lwip_v2.0.2/src/include/lwip/ip.h"
	.file 41 "../../../component/common/network/lwip/lwip_v2.0.2/src/include/lwip/udp.h"
	.file 42 "../../../component/common/network/lwip/lwip_v2.0.2/src/include/lwip/prot/ethernet.h"
	.file 43 "../../../component/common/network/lwip/lwip_v2.0.2/src/include/netif/ethernet.h"
	.file 44 "../../../component/common/network/dhcp/dhcps.h"
	.file 45 "../../../component/common/bluetooth/realtek/sdk/inc/platform/trace.h"
	.file 46 "../../../component/common/bluetooth/realtek/sdk/inc/bluetooth/gap/gap_adv.h"
	.file 47 "../../../component/common/bluetooth/realtek/sdk/inc/bluetooth/profile/profile_server.h"
	.file 48 "../../../component/common/bluetooth/realtek/sdk/inc/bluetooth/gap/gap_conn_le.h"
	.file 49 "../../../component/common/bluetooth/realtek/sdk/example/bt_config/bt_config_service.h"
	.file 50 "../../../component/common/bluetooth/realtek/sdk/example/bt_config/bt_config_peripheral_app.h"
	.file 51 "../../../component/common/bluetooth/realtek/sdk/example/bt_config/bt_config_wifi.h"
	.file 52 "../../../component/common/bluetooth/realtek/sdk/inc/bluetooth/gap/gap_bond_le.h"
	.file 53 "../../../component/common/api/platform/platform_stdlib_rtl8710c.h"
	.file 54 "../../../component/common/api/wifi/wifi_conf.h"
	.file 55 "/home/ls/samba_share/sdk-ameba-v7.1d/tools/arm-none-eabi-gcc/asdk/linux/newlib/arm-none-eabi/include/stdio.h"
	.file 56 "/home/ls/samba_share/sdk-ameba-v7.1d/tools/arm-none-eabi-gcc/asdk/linux/newlib/arm-none-eabi/include/string.h"