	.arch armv8-m.main
	.arch_extension dsp
	.eabi_attribute 20, 1
	.eabi_attribute 21, 1
	.eabi_attribute 23, 3
	.eabi_attribute 24, 1
	.eabi_attribute 25, 1
	.eabi_attribute 26, 1
	.eabi_attribute 30, 4
	.eabi_attribute 34, 1
	.eabi_attribute 18, 4
	.file	"cipher_wrap.c"
	.text
.Ltext0:
	.cfi_sections	.debug_frame
	.section	.text.arc4_ctx_free,"ax",%progbits
	.align	1
	.syntax unified
	.thumb
	.thumb_func
	.fpu softvfp
	.type	arc4_ctx_free, %function
arc4_ctx_free:
.LFB19:
	.file 1 "../../../component/common/network/ssl/mbedtls-2.4.0/library/cipher_wrap.c"
	.loc 1 1321 0
	.cfi_startproc
	@ args = 0, pretend = 0, frame = 0
	@ frame_needed = 0, uses_anonymous_args = 0
.LVL0:
	push	{r4, lr}
	.cfi_def_cfa_offset 8
	.cfi_offset 4, -8
	.cfi_offset 14, -4
	.loc 1 1321 0
	mov	r4, r0
	.loc 1 1322 0
	bl	mbedtls_arc4_free
.LVL1:
	.loc 1 1323 0
	ldr	r3, .L2
	mov	r0, r4
	.loc 1 1324 0
	pop	{r4, lr}
	.cfi_restore 14
	.cfi_restore 4
	.cfi_def_cfa_offset 0
.LVL2:
	.loc 1 1323 0
	ldr	r3, [r3]
	bx	r3	@ indirect register sibling call
.LVL3:
.L3:
	.align	2
.L2:
	.word	mbedtls_free
	.cfi_endproc
.LFE19:
	.size	arc4_ctx_free, .-arc4_ctx_free
	.section	.text.arc4_ctx_alloc,"ax",%progbits
	.align	1
	.syntax unified
	.thumb
	.thumb_func
	.fpu softvfp
	.type	arc4_ctx_alloc, %function
arc4_ctx_alloc:
.LFB18:
	.loc 1 1308 0
	.cfi_startproc
	@ args = 0, pretend = 0, frame = 0
	@ frame_needed = 0, uses_anonymous_args = 0
	.loc 1 1310 0
	ldr	r3, .L9
	.loc 1 1308 0
	push	{r4, lr}
	.cfi_def_cfa_offset 8
	.cfi_offset 4, -8
	.cfi_offset 14, -4
	.loc 1 1310 0
	ldr	r3, [r3]
	mov	r1, #264
	movs	r0, #1
	blx	r3
.LVL4:
	.loc 1 1312 0
	mov	r4, r0
	cbz	r0, .L5
	.loc 1 1315 0
	bl	mbedtls_arc4_init
.LVL5:
.L5:
	.loc 1 1318 0
	mov	r0, r4
	pop	{r4, pc}
.LVL6:
.L10:
	.align	2
.L9:
	.word	mbedtls_calloc
	.cfi_endproc
.LFE18:
	.size	arc4_ctx_alloc, .-arc4_ctx_alloc
	.section	.text.arc4_setkey_wrap,"ax",%progbits
	.align	1
	.syntax unified
	.thumb
	.thumb_func
	.fpu softvfp
	.type	arc4_setkey_wrap, %function
arc4_setkey_wrap:
.LFB17:
	.loc 1 1298 0
	.cfi_startproc
	@ args = 0, pretend = 0, frame = 0
	@ frame_needed = 0, uses_anonymous_args = 0
.LVL7:
	push	{r4, lr}
	.cfi_def_cfa_offset 8
	.cfi_offset 4, -8
	.cfi_offset 14, -4
	.loc 1 1300 0
	ands	r4, r2, #7
	bne	.L13
	.loc 1 1303 0
	lsrs	r2, r2, #3
.LVL8:
	bl	mbedtls_arc4_setup
.LVL9:
	.loc 1 1304 0
	mov	r0, r4
	pop	{r4, pc}
.LVL10:
.L13:
	.loc 1 1301 0
	ldr	r0, .L14
.LVL11:
	.loc 1 1305 0
	pop	{r4, pc}
.L15:
	.align	2
.L14:
	.word	-24832
	.cfi_endproc
.LFE17:
	.size	arc4_setkey_wrap, .-arc4_setkey_wrap
	.section	.text.arc4_crypt_stream_wrap,"ax",%progbits
	.align	1
	.syntax unified
	.thumb
	.thumb_func
	.fpu softvfp
	.type	arc4_crypt_stream_wrap, %function
arc4_crypt_stream_wrap:
.LFB16:
	.loc 1 1292 0
	.cfi_startproc
	@ args = 0, pretend = 0, frame = 0
	@ frame_needed = 0, uses_anonymous_args = 0
	@ link register save eliminated.
.LVL12:
	.loc 1 1293 0
	b	mbedtls_arc4_crypt
.LVL13:
	.cfi_endproc
.LFE16:
	.size	arc4_crypt_stream_wrap, .-arc4_crypt_stream_wrap
	.section	.text.aes_ctx_free,"ax",%progbits
	.align	1
	.syntax unified
	.thumb
	.thumb_func
	.fpu softvfp
	.type	aes_ctx_free, %function
aes_ctx_free:
.LFB15:
	.loc 1 229 0
	.cfi_startproc
	@ args = 0, pretend = 0, frame = 0
	@ frame_needed = 0, uses_anonymous_args = 0
.LVL14:
	push	{r4, lr}
	.cfi_def_cfa_offset 8
	.cfi_offset 4, -8
	.cfi_offset 14, -4
	.loc 1 229 0
	mov	r4, r0
	.loc 1 230 0
	bl	mbedtls_aes_free
.LVL15:
	.loc 1 231 0
	ldr	r3, .L18
	mov	r0, r4
	.loc 1 232 0
	pop	{r4, lr}
	.cfi_restore 14
	.cfi_restore 4
	.cfi_def_cfa_offset 0
.LVL16:
	.loc 1 231 0
	ldr	r3, [r3]
	bx	r3	@ indirect register sibling call
.LVL17:
.L19:
	.align	2
.L18:
	.word	mbedtls_free
	.cfi_endproc
.LFE15:
	.size	aes_ctx_free, .-aes_ctx_free
	.section	.text.aes_ctx_alloc,"ax",%progbits
	.align	1
	.syntax unified
	.thumb
	.thumb_func
	.fpu softvfp
	.type	aes_ctx_alloc, %function
aes_ctx_alloc:
.LFB14:
	.loc 1 217 0
	.cfi_startproc
	@ args = 0, pretend = 0, frame = 0
	@ frame_needed = 0, uses_anonymous_args = 0
	.loc 1 218 0
	ldr	r3, .L25
	.loc 1 217 0
	push	{r4, lr}
	.cfi_def_cfa_offset 8
	.cfi_offset 4, -8
	.cfi_offset 14, -4
	.loc 1 218 0
	ldr	r3, [r3]
	mov	r1, #344
	movs	r0, #1
	blx	r3
.LVL18:
	.loc 1 220 0
	mov	r4, r0
	cbz	r0, .L21
	.loc 1 223 0
	bl	mbedtls_aes_init
.LVL19:
.L21:
	.loc 1 226 0
	mov	r0, r4
	pop	{r4, pc}
.LVL20:
.L26:
	.align	2
.L25:
	.word	mbedtls_calloc
	.cfi_endproc
.LFE14:
	.size	aes_ctx_alloc, .-aes_ctx_alloc
	.section	.text.aes_setkey_dec_wrap,"ax",%progbits
	.align	1
	.syntax unified
	.thumb
	.thumb_func
	.fpu softvfp
	.type	aes_setkey_dec_wrap, %function
aes_setkey_dec_wrap:
.LFB12:
	.loc 1 206 0
	.cfi_startproc
	@ args = 0, pretend = 0, frame = 0
	@ frame_needed = 0, uses_anonymous_args = 0
	@ link register save eliminated.
.LVL21:
	.loc 1 207 0
	b	mbedtls_aes_setkey_dec
.LVL22:
	.cfi_endproc
.LFE12:
	.size	aes_setkey_dec_wrap, .-aes_setkey_dec_wrap
	.section	.text.aes_setkey_enc_wrap,"ax",%progbits
	.align	1
	.syntax unified
	.thumb
	.thumb_func
	.fpu softvfp
	.type	aes_setkey_enc_wrap, %function
aes_setkey_enc_wrap:
.LFB13:
	.loc 1 212 0
	.cfi_startproc
	@ args = 0, pretend = 0, frame = 0
	@ frame_needed = 0, uses_anonymous_args = 0
	@ link register save eliminated.
.LVL23:
	.loc 1 213 0
	b	mbedtls_aes_setkey_enc
.LVL24:
	.cfi_endproc
.LFE13:
	.size	aes_setkey_enc_wrap, .-aes_setkey_enc_wrap
	.section	.text.aes_crypt_ctr_wrap,"ax",%progbits
	.align	1
	.syntax unified
	.thumb
	.thumb_func
	.fpu softvfp
	.type	aes_crypt_ctr_wrap, %function
aes_crypt_ctr_wrap:
.LFB11:
	.loc 1 188 0
	.cfi_startproc
	@ args = 12, pretend = 0, frame = 0
	@ frame_needed = 0, uses_anonymous_args = 0
.LVL25:
	push	{r0, r1, r2, r3, r4, r5, r6, r7, r8, r9, r10, lr}
	.cfi_def_cfa_offset 48
	.cfi_offset 4, -32
	.cfi_offset 5, -28
	.cfi_offset 6, -24
	.cfi_offset 7, -20
	.cfi_offset 8, -16
	.cfi_offset 9, -12
	.cfi_offset 10, -8
	.cfi_offset 14, -4
	.loc 1 190 0
	ldr	ip, .L34
	.loc 1 188 0
	add	r4, sp, #48
.LVL26:
	.loc 1 190 0
	ldr	ip, [ip, #60]
	.loc 1 188 0
	mov	r7, r0
	ldm	r4, {r4, r5, r6}
.LVL27:
	mov	r8, r1
	mov	r9, r2
	mov	r10, r3
	.loc 1 190 0
	cmp	ip, #0
	bne	.L33
	.loc 1 201 0
	add	sp, sp, #16
	.cfi_remember_state
	.cfi_def_cfa_offset 32
	@ sp needed
	pop	{r4, r5, r6, r7, r8, r9, r10, lr}
	.cfi_restore 14
	.cfi_restore 10
	.cfi_restore 9
	.cfi_restore 8
	.cfi_restore 7
	.cfi_restore 6
	.cfi_restore 5
	.cfi_restore 4
	.cfi_def_cfa_offset 0
.LVL28:
	.loc 1 199 0
	b	mbedtls_aes_crypt_ctr
.LVL29:
.L33:
	.cfi_restore_state
.LBB9:
.LBB10:
	.loc 1 192 0
	movs	r0, #2
.LVL30:
	bl	device_mutex_lock
.LVL31:
	.loc 1 193 0
	stm	sp, {r4, r5, r6}
	mov	r3, r10
	mov	r2, r9
	mov	r1, r8
	mov	r0, r7
	bl	mbedtls_aes_crypt_ctr
.LVL32:
	mov	r4, r0
.LVL33:
	.loc 1 195 0
	movs	r0, #2
.LVL34:
	bl	device_mutex_unlock
.LVL35:
.LBE10:
.LBE9:
	.loc 1 201 0
	mov	r0, r4
	add	sp, sp, #16
	.cfi_def_cfa_offset 32
	@ sp needed
	pop	{r4, r5, r6, r7, r8, r9, r10, pc}
.LVL36:
.L35:
	.align	2
.L34:
	.word	rom_ssl_ram_map
	.cfi_endproc
.LFE11:
	.size	aes_crypt_ctr_wrap, .-aes_crypt_ctr_wrap
	.section	.text.aes_crypt_cfb128_wrap,"ax",%progbits
	.align	1
	.syntax unified
	.thumb
	.thumb_func
	.fpu softvfp
	.type	aes_crypt_cfb128_wrap, %function
aes_crypt_cfb128_wrap:
.LFB10:
	.loc 1 168 0
	.cfi_startproc
	@ args = 12, pretend = 0, frame = 0
	@ frame_needed = 0, uses_anonymous_args = 0
.LVL37:
	push	{r0, r1, r2, r3, r4, r5, r6, r7, r8, r9, r10, lr}
	.cfi_def_cfa_offset 48
	.cfi_offset 4, -32
	.cfi_offset 5, -28
	.cfi_offset 6, -24
	.cfi_offset 7, -20
	.cfi_offset 8, -16
	.cfi_offset 9, -12
	.cfi_offset 10, -8
	.cfi_offset 14, -4
	.loc 1 170 0
	ldr	ip, .L41
	.loc 1 168 0
	add	r4, sp, #48
.LVL38:
	.loc 1 170 0
	ldr	ip, [ip, #60]
	.loc 1 168 0
	mov	r7, r0
	ldm	r4, {r4, r5, r6}
.LVL39:
	mov	r8, r1
	mov	r9, r2
	mov	r10, r3
	.loc 1 170 0
	cmp	ip, #0
	bne	.L40
	.loc 1 181 0
	add	sp, sp, #16
	.cfi_remember_state
	.cfi_def_cfa_offset 32
	@ sp needed
	pop	{r4, r5, r6, r7, r8, r9, r10, lr}
	.cfi_restore 14
	.cfi_restore 10
	.cfi_restore 9
	.cfi_restore 8
	.cfi_restore 7
	.cfi_restore 6
	.cfi_restore 5
	.cfi_restore 4
	.cfi_def_cfa_offset 0
.LVL40:
	.loc 1 179 0
	b	mbedtls_aes_crypt_cfb128
.LVL41:
.L40:
	.cfi_restore_state
.LBB14:
.LBB15:
	.loc 1 172 0
	movs	r0, #2
.LVL42:
	bl	device_mutex_lock
.LVL43:
	.loc 1 173 0
	stm	sp, {r4, r5, r6}
	mov	r3, r10
	mov	r2, r9
	mov	r1, r8
	mov	r0, r7
	bl	mbedtls_aes_crypt_cfb128
.LVL44:
	mov	r4, r0
.LVL45:
	.loc 1 175 0
	movs	r0, #2
.LVL46:
	bl	device_mutex_unlock
.LVL47:
.LBE15:
.LBE14:
	.loc 1 181 0
	mov	r0, r4
	add	sp, sp, #16
	.cfi_def_cfa_offset 32
	@ sp needed
	pop	{r4, r5, r6, r7, r8, r9, r10, pc}
.LVL48:
.L42:
	.align	2
.L41:
	.word	rom_ssl_ram_map
	.cfi_endproc
.LFE10:
	.size	aes_crypt_cfb128_wrap, .-aes_crypt_cfb128_wrap
	.section	.text.aes_crypt_cbc_wrap,"ax",%progbits
	.align	1
	.syntax unified
	.thumb
	.thumb_func
	.fpu softvfp
	.type	aes_crypt_cbc_wrap, %function
aes_crypt_cbc_wrap:
.LFB9:
	.loc 1 148 0
	.cfi_startproc
	@ args = 8, pretend = 0, frame = 0
	@ frame_needed = 0, uses_anonymous_args = 0
.LVL49:
	.loc 1 150 0
	ldr	ip, .L48
	.loc 1 148 0
	push	{r0, r1, r2, r4, r5, r6, r7, r8, r9, lr}
	.cfi_def_cfa_offset 40
	.cfi_offset 4, -28
	.cfi_offset 5, -24
	.cfi_offset 6, -20
	.cfi_offset 7, -16
	.cfi_offset 8, -12
	.cfi_offset 9, -8
	.cfi_offset 14, -4
	.loc 1 150 0
	ldr	ip, [ip, #60]
	.loc 1 148 0
	mov	r6, r0
	mov	r7, r1
	mov	r8, r2
	mov	r9, r3
	ldr	r4, [sp, #40]
	ldr	r5, [sp, #44]
	.loc 1 150 0
	cmp	ip, #0
	bne	.L47
	.loc 1 161 0
	add	sp, sp, #12
	.cfi_remember_state
	.cfi_def_cfa_offset 28
	@ sp needed
	pop	{r4, r5, r6, r7, r8, r9, lr}
	.cfi_restore 14
	.cfi_restore 9
	.cfi_restore 8
	.cfi_restore 7
	.cfi_restore 6
	.cfi_restore 5
	.cfi_restore 4
	.cfi_def_cfa_offset 0
.LVL50:
	.loc 1 159 0
	b	mbedtls_aes_crypt_cbc
.LVL51:
.L47:
	.cfi_restore_state
.LBB19:
.LBB20:
	.loc 1 152 0
	movs	r0, #2
.LVL52:
	bl	device_mutex_lock
.LVL53:
	.loc 1 153 0
	stm	sp, {r4, r5}
	mov	r3, r9
	mov	r2, r8
	mov	r1, r7
	mov	r0, r6
	bl	mbedtls_aes_crypt_cbc
.LVL54:
	mov	r4, r0
.LVL55:
	.loc 1 155 0
	movs	r0, #2
.LVL56:
	bl	device_mutex_unlock
.LVL57:
.LBE20:
.LBE19:
	.loc 1 161 0
	mov	r0, r4
	add	sp, sp, #12
	.cfi_def_cfa_offset 28
	@ sp needed
	pop	{r4, r5, r6, r7, r8, r9, pc}
.LVL58:
.L49:
	.align	2
.L48:
	.word	rom_ssl_ram_map
	.cfi_endproc
.LFE9:
	.size	aes_crypt_cbc_wrap, .-aes_crypt_cbc_wrap
	.section	.text.aes_crypt_ecb_wrap,"ax",%progbits
	.align	1
	.syntax unified
	.thumb
	.thumb_func
	.fpu softvfp
	.type	aes_crypt_ecb_wrap, %function
aes_crypt_ecb_wrap:
.LFB8:
	.loc 1 132 0
	.cfi_startproc
	@ args = 0, pretend = 0, frame = 0
	@ frame_needed = 0, uses_anonymous_args = 0
.LVL59:
	.loc 1 134 0
	ldr	ip, .L55
	.loc 1 132 0
	push	{r4, r5, r6, r7, r8, lr}
	.cfi_def_cfa_offset 24
	.cfi_offset 4, -24
	.cfi_offset 5, -20
	.cfi_offset 6, -16
	.cfi_offset 7, -12
	.cfi_offset 8, -8
	.cfi_offset 14, -4
	.loc 1 134 0
	ldr	ip, [ip, #60]
	.loc 1 132 0
	mov	r4, r0
	mov	r5, r1
	mov	r6, r2
	mov	r7, r3
	.loc 1 134 0
	cmp	ip, #0
	bne	.L54
	.loc 1 143 0
	pop	{r4, r5, r6, r7, r8, lr}
	.cfi_remember_state
	.cfi_restore 14
	.cfi_restore 8
	.cfi_restore 7
	.cfi_restore 6
	.cfi_restore 5
	.cfi_restore 4
	.cfi_def_cfa_offset 0
	.loc 1 142 0
	b	mbedtls_aes_crypt_ecb
.LVL60:
.L54:
	.cfi_restore_state
.LBB24:
.LBB25:
	.loc 1 136 0
	movs	r0, #2
.LVL61:
	bl	device_mutex_lock
.LVL62:
	.loc 1 137 0
	mov	r3, r7
	mov	r2, r6
	mov	r1, r5
	mov	r0, r4
	bl	mbedtls_aes_crypt_ecb
.LVL63:
	mov	r4, r0
.LVL64:
	.loc 1 138 0
	movs	r0, #2
.LVL65:
	bl	device_mutex_unlock
.LVL66:
.LBE25:
.LBE24:
	.loc 1 143 0
	mov	r0, r4
	pop	{r4, r5, r6, r7, r8, pc}
.LVL67:
.L56:
	.align	2
.L55:
	.word	rom_ssl_ram_map
	.cfi_endproc
.LFE8:
	.size	aes_crypt_ecb_wrap, .-aes_crypt_ecb_wrap
	.comm	mbedtls_cipher_supported,56,4
	.global	mbedtls_cipher_definitions
	.section	.rodata.aes_128_cbc_info,"a",%progbits
	.align	2
	.type	aes_128_cbc_info, %object
	.size	aes_128_cbc_info, 28
aes_128_cbc_info:
	.byte	5
	.byte	2
	.space	2
	.word	128
	.word	.LC9
	.word	16
	.word	0
	.word	16
	.word	aes_info
	.section	.rodata.aes_128_cfb128_info,"a",%progbits
	.align	2
	.type	aes_128_cfb128_info, %object
	.size	aes_128_cfb128_info, 28
aes_128_cfb128_info:
	.byte	8
	.byte	3
	.space	2
	.word	128
	.word	.LC6
	.word	16
	.word	0
	.word	16
	.word	aes_info
	.section	.rodata.aes_128_ctr_info,"a",%progbits
	.align	2
	.type	aes_128_ctr_info, %object
	.size	aes_128_ctr_info, 28
aes_128_ctr_info:
	.byte	11
	.byte	5
	.space	2
	.word	128
	.word	.LC3
	.word	16
	.word	0
	.word	16
	.word	aes_info
	.section	.rodata.aes_128_ecb_info,"a",%progbits
	.align	2
	.type	aes_128_ecb_info, %object
	.size	aes_128_ecb_info, 28
aes_128_ecb_info:
	.byte	2
	.byte	1
	.space	2
	.word	128
	.word	.LC12
	.word	16
	.word	0
	.word	16
	.word	aes_info
	.section	.rodata.aes_192_cbc_info,"a",%progbits
	.align	2
	.type	aes_192_cbc_info, %object
	.size	aes_192_cbc_info, 28
aes_192_cbc_info:
	.byte	6
	.byte	2
	.space	2
	.word	192
	.word	.LC8
	.word	16
	.word	0
	.word	16
	.word	aes_info
	.section	.rodata.aes_192_cfb128_info,"a",%progbits
	.align	2
	.type	aes_192_cfb128_info, %object
	.size	aes_192_cfb128_info, 28
aes_192_cfb128_info:
	.byte	9
	.byte	3
	.space	2
	.word	192
	.word	.LC5
	.word	16
	.word	0
	.word	16
	.word	aes_info
	.section	.rodata.aes_192_ctr_info,"a",%progbits
	.align	2
	.type	aes_192_ctr_info, %object
	.size	aes_192_ctr_info, 28
aes_192_ctr_info:
	.byte	12
	.byte	5
	.space	2
	.word	192
	.word	.LC2
	.word	16
	.word	0
	.word	16
	.word	aes_info
	.section	.rodata.aes_192_ecb_info,"a",%progbits
	.align	2
	.type	aes_192_ecb_info, %object
	.size	aes_192_ecb_info, 28
aes_192_ecb_info:
	.byte	3
	.byte	1
	.space	2
	.word	192
	.word	.LC11
	.word	16
	.word	0
	.word	16
	.word	aes_info
	.section	.rodata.aes_256_cbc_info,"a",%progbits
	.align	2
	.type	aes_256_cbc_info, %object
	.size	aes_256_cbc_info, 28
aes_256_cbc_info:
	.byte	7
	.byte	2
	.space	2
	.word	256
	.word	.LC7
	.word	16
	.word	0
	.word	16
	.word	aes_info
	.section	.rodata.aes_256_cfb128_info,"a",%progbits
	.align	2
	.type	aes_256_cfb128_info, %object
	.size	aes_256_cfb128_info, 28
aes_256_cfb128_info:
	.byte	10
	.byte	3
	.space	2
	.word	256
	.word	.LC4
	.word	16
	.word	0
	.word	16
	.word	aes_info
	.section	.rodata.aes_256_ctr_info,"a",%progbits
	.align	2
	.type	aes_256_ctr_info, %object
	.size	aes_256_ctr_info, 28
aes_256_ctr_info:
	.byte	13
	.byte	5
	.space	2
	.word	256
	.word	.LC1
	.word	16
	.word	0
	.word	16
	.word	aes_info
	.section	.rodata.aes_256_ecb_info,"a",%progbits
	.align	2
	.type	aes_256_ecb_info, %object
	.size	aes_256_ecb_info, 28
aes_256_ecb_info:
	.byte	4
	.byte	1
	.space	2
	.word	256
	.word	.LC10
	.word	16
	.word	0
	.word	16
	.word	aes_info
	.section	.rodata.aes_info,"a",%progbits
	.align	2
	.type	aes_info, %object
	.size	aes_info, 40
aes_info:
	.byte	2
	.space	3
	.word	aes_crypt_ecb_wrap
	.word	aes_crypt_cbc_wrap
	.word	aes_crypt_cfb128_wrap
	.word	aes_crypt_ctr_wrap
	.word	0
	.word	aes_setkey_enc_wrap
	.word	aes_setkey_dec_wrap
	.word	aes_ctx_alloc
	.word	aes_ctx_free
	.section	.rodata.arc4_128_info,"a",%progbits
	.align	2
	.type	arc4_128_info, %object
	.size	arc4_128_info, 28
arc4_128_info:
	.byte	42
	.byte	7
	.space	2
	.word	128
	.word	.LC0
	.word	0
	.word	0
	.word	1
	.word	arc4_base_info
	.section	.rodata.arc4_base_info,"a",%progbits
	.align	2
	.type	arc4_base_info, %object
	.size	arc4_base_info, 40
arc4_base_info:
	.byte	7
	.space	3
	.word	0
	.word	0
	.word	0
	.word	0
	.word	arc4_crypt_stream_wrap
	.word	arc4_setkey_wrap
	.word	arc4_setkey_wrap
	.word	arc4_ctx_alloc
	.word	arc4_ctx_free
	.section	.rodata.mbedtls_cipher_definitions,"a",%progbits
	.align	2
	.type	mbedtls_cipher_definitions, %object
	.size	mbedtls_cipher_definitions, 112
mbedtls_cipher_definitions:
	.byte	2
	.space	3
	.word	aes_128_ecb_info
	.byte	3
	.space	3
	.word	aes_192_ecb_info
	.byte	4
	.space	3
	.word	aes_256_ecb_info
	.byte	5
	.space	3
	.word	aes_128_cbc_info
	.byte	6
	.space	3
	.word	aes_192_cbc_info
	.byte	7
	.space	3
	.word	aes_256_cbc_info
	.byte	8
	.space	3
	.word	aes_128_cfb128_info
	.byte	9
	.space	3
	.word	aes_192_cfb128_info
	.byte	10
	.space	3
	.word	aes_256_cfb128_info
	.byte	11
	.space	3
	.word	aes_128_ctr_info
	.byte	12
	.space	3
	.word	aes_192_ctr_info
	.byte	13
	.space	3
	.word	aes_256_ctr_info
	.byte	42
	.space	3
	.word	arc4_128_info
	.byte	0
	.space	3
	.word	0
	.section	.rodata.str1.1,"aMS",%progbits,1
.LC0:
	.ascii	"ARC4-128\000"
.LC1:
	.ascii	"AES-256-CTR\000"
.LC2:
	.ascii	"AES-192-CTR\000"
.LC3:
	.ascii	"AES-128-CTR\000"
.LC4:
	.ascii	"AES-256-CFB128\000"
.LC5:
	.ascii	"AES-192-CFB128\000"
.LC6:
	.ascii	"AES-128-CFB128\000"
.LC7:
	.ascii	"AES-256-CBC\000"
.LC8:
	.ascii	"AES-192-CBC\000"
.LC9:
	.ascii	"AES-128-CBC\000"
.LC10:
	.ascii	"AES-256-ECB\000"
.LC11:
	.ascii	"AES-192-ECB\000"
.LC12:
	.ascii	"AES-128-ECB\000"
	.text
.Letext0:
	.file 2 "/home/ls/samba_share/sdk-ameba-v7.1d/tools/arm-none-eabi-gcc/asdk/linux/newlib/arm-none-eabi/include/machine/_default_types.h"
	.file 3 "/home/ls/samba_share/sdk-ameba-v7.1d/tools/arm-none-eabi-gcc/asdk/linux/newlib/lib/gcc/arm-none-eabi/6.5.0/include/stddef.h"
	.file 4 "/home/ls/samba_share/sdk-ameba-v7.1d/tools/arm-none-eabi-gcc/asdk/linux/newlib/arm-none-eabi/include/sys/lock.h"
	.file 5 "/home/ls/samba_share/sdk-ameba-v7.1d/tools/arm-none-eabi-gcc/asdk/linux/newlib/arm-none-eabi/include/sys/_types.h"
	.file 6 "/home/ls/samba_share/sdk-ameba-v7.1d/tools/arm-none-eabi-gcc/asdk/linux/newlib/arm-none-eabi/include/sys/reent.h"
	.file 7 "/home/ls/samba_share/sdk-ameba-v7.1d/tools/arm-none-eabi-gcc/asdk/linux/newlib/arm-none-eabi/include/sys/_stdint.h"
	.file 8 "/home/ls/samba_share/sdk-ameba-v7.1d/tools/arm-none-eabi-gcc/asdk/linux/newlib/arm-none-eabi/include/time.h"
	.file 9 "../../../component/common/network/ssl/ssl_ram_map/rom/rom_ssl_ram_map.h"
	.file 10 "/home/ls/samba_share/sdk-ameba-v7.1d/tools/arm-none-eabi-gcc/asdk/linux/newlib/arm-none-eabi/include/stdlib.h"
	.file 11 "../../../component/common/network/ssl/mbedtls-2.4.0/include/mbedtls/cipher.h"
	.file 12 "../../../component/common/network/ssl/mbedtls-2.4.0/include/mbedtls/cipher_internal.h"
	.file 13 "../../../component/common/network/ssl/mbedtls-2.4.0/include/mbedtls/aes.h"
	.file 14 "../../../component/common/network/ssl/mbedtls-2.4.0/include/mbedtls/arc4.h"
	.file 15 "../../../component/common/network/ssl/mbedtls-2.4.0/include/mbedtls/platform.h"
	.file 16 "../../../component/os/os_dep/include/device_lock.h"