	.arch armv8-m.main
	.arch_extension dsp
	.eabi_attribute 20, 1
	.eabi_attribute 21, 1
	.eabi_attribute 23, 3
	.eabi_attribute 24, 1
	.eabi_attribute 25, 1
	.eabi_attribute 26, 1
	.eabi_attribute 30, 4
	.eabi_attribute 34, 1
	.eabi_attribute 18, 4
	.file	"cycle_queue.c"
	.text
.Ltext0:
	.cfi_sections	.debug_frame
	.section	.text.IsCycQueueEmpty,"ax",%progbits
	.align	1
	.global	IsCycQueueEmpty
	.syntax unified
	.thumb
	.thumb_func
	.fpu softvfp
	.type	IsCycQueueEmpty, %function
IsCycQueueEmpty:
.LFB0:
	.file 1 "../../../component/common/bluetooth/realtek/sdk/board/common/src/cycle_queue.c"
	.loc 1 35 0
	.cfi_startproc
	@ args = 0, pretend = 0, frame = 0
	@ frame_needed = 0, uses_anonymous_args = 0
	@ link register save eliminated.
	.loc 1 36 0
	ldr	r3, .L2
	ldrh	r0, [r3]
	.loc 1 37 0
	ldr	r3, .L2+4
	.loc 1 36 0
	uxth	r0, r0
.LVL0:
	.loc 1 37 0
	ldrh	r3, [r3]
	uxth	r3, r3
.LVL1:
	.loc 1 39 0
	subs	r3, r0, r3
.LVL2:
	rsbs	r0, r3, #0
.LVL3:
	adcs	r0, r0, r3
	bx	lr
.L3:
	.align	2
.L2:
	.word	.LANCHOR0
	.word	.LANCHOR1
	.cfi_endproc
.LFE0:
	.size	IsCycQueueEmpty, .-IsCycQueueEmpty
	.section	.text.IsCycQueueFull,"ax",%progbits
	.align	1
	.global	IsCycQueueFull
	.syntax unified
	.thumb
	.thumb_func
	.fpu softvfp
	.type	IsCycQueueFull, %function
IsCycQueueFull:
.LFB1:
	.loc 1 49 0
	.cfi_startproc
	@ args = 0, pretend = 0, frame = 0
	@ frame_needed = 0, uses_anonymous_args = 0
	@ link register save eliminated.
	.loc 1 50 0
	ldr	r3, .L5
	ldrh	r0, [r3]
	.loc 1 51 0
	ldr	r3, .L5+4
	.loc 1 50 0
	uxth	r0, r0
.LVL4:
	.loc 1 51 0
	ldrh	r3, [r3]
.LVL5:
	.loc 1 52 0
	adds	r3, r3, #1
.LVL6:
	ubfx	r3, r3, #0, #11
	.loc 1 53 0
	subs	r3, r3, r0
	rsbs	r0, r3, #0
.LVL7:
	adcs	r0, r0, r3
	bx	lr
.L6:
	.align	2
.L5:
	.word	.LANCHOR0
	.word	.LANCHOR1
	.cfi_endproc
.LFE1:
	.size	IsCycQueueFull, .-IsCycQueueFull
	.section	.text.CycQueueSize,"ax",%progbits
	.align	1
	.global	CycQueueSize
	.syntax unified
	.thumb
	.thumb_func
	.fpu softvfp
	.type	CycQueueSize, %function
CycQueueSize:
.LFB2:
	.loc 1 63 0
	.cfi_startproc
	@ args = 0, pretend = 0, frame = 0
	@ frame_needed = 0, uses_anonymous_args = 0
	@ link register save eliminated.
	.loc 1 65 0
	ldr	r2, .L8
	.loc 1 64 0
	ldr	r3, .L8+4
	ldrh	r3, [r3]
.LVL8:
	.loc 1 65 0
	ldrh	r0, [r2]
.LVL9:
	.loc 1 66 0
	subs	r0, r0, r3
.LVL10:
	.loc 1 67 0
	ubfx	r0, r0, #0, #11
	bx	lr
.L9:
	.align	2
.L8:
	.word	.LANCHOR1
	.word	.LANCHOR0
	.cfi_endproc
.LFE2:
	.size	CycQueueSize, .-CycQueueSize
	.section	.text.CycQueueRemainSize,"ax",%progbits
	.align	1
	.global	CycQueueRemainSize
	.syntax unified
	.thumb
	.thumb_func
	.fpu softvfp
	.type	CycQueueRemainSize, %function
CycQueueRemainSize:
.LFB3:
	.loc 1 77 0
	.cfi_startproc
	@ args = 0, pretend = 0, frame = 0
	@ frame_needed = 0, uses_anonymous_args = 0
	@ link register save eliminated.
	.loc 1 78 0
	ldr	r3, .L11
	ldrh	r0, [r3]
	.loc 1 79 0
	ldr	r3, .L11+4
	.loc 1 78 0
	uxth	r0, r0
.LVL11:
	.loc 1 79 0
	ldrh	r3, [r3]
.LVL12:
	.loc 1 80 0
	addw	r0, r0, #2047
.LVL13:
	subs	r0, r0, r3
.LVL14:
	.loc 1 81 0
	ubfx	r0, r0, #0, #11
	bx	lr
.L12:
	.align	2
.L11:
	.word	.LANCHOR0
	.word	.LANCHOR1
	.cfi_endproc
.LFE3:
	.size	CycQueueRemainSize, .-CycQueueRemainSize
	.section	.text.UpdateQueueRead,"ax",%progbits
	.align	1
	.global	UpdateQueueRead
	.syntax unified
	.thumb
	.thumb_func
	.fpu softvfp
	.type	UpdateQueueRead, %function
UpdateQueueRead:
.LFB5:
	.loc 1 142 0
	.cfi_startproc
	@ args = 0, pretend = 0, frame = 0
	@ frame_needed = 0, uses_anonymous_args = 0
.LVL15:
	push	{r4, lr}
	.cfi_def_cfa_offset 8
	.cfi_offset 4, -8
	.cfi_offset 14, -4
	.loc 1 142 0
	mov	r4, r0
	.loc 1 145 0
	bl	os_lock
.LVL16:
	.loc 1 146 0
	ldr	r2, .L14
	ldrh	r3, [r2]
	uxtah	r3, r4, r3
	ubfx	r3, r3, #0, #11
	.loc 1 148 0
	pop	{r4, lr}
	.cfi_restore 14
	.cfi_restore 4
	.cfi_def_cfa_offset 0
	.loc 1 146 0
	strh	r3, [r2]	@ movhi
	.loc 1 147 0
	b	os_unlock
.LVL17:
.L15:
	.align	2
.L14:
	.word	.LANCHOR0
	.cfi_endproc
.LFE5:
	.size	UpdateQueueRead, .-UpdateQueueRead
	.section	.text.FreeCycQueue,"ax",%progbits
	.align	1
	.global	FreeCycQueue
	.syntax unified
	.thumb
	.thumb_func
	.fpu softvfp
	.type	FreeCycQueue, %function
FreeCycQueue:
.LFB7:
	.loc 1 179 0
	.cfi_startproc
	@ args = 0, pretend = 0, frame = 0
	@ frame_needed = 0, uses_anonymous_args = 0
	push	{r4, lr}
	.cfi_def_cfa_offset 8
	.cfi_offset 4, -8
	.cfi_offset 14, -4
	.loc 1 180 0
	ldr	r4, .L21
	ldr	r0, [r4]
	cbz	r0, .L17
	.loc 1 181 0
	bl	os_mem_free
.LVL18:
.L17:
	.loc 1 183 0
	movs	r3, #0
	ldr	r2, .L21+4
	.loc 1 185 0
	str	r3, [r4]
	.loc 1 183 0
	strh	r3, [r2]	@ movhi
	.loc 1 184 0
	ldr	r2, .L21+8
	strh	r3, [r2]	@ movhi
	.loc 1 185 0
	pop	{r4, pc}
.L22:
	.align	2
.L21:
	.word	.LANCHOR2
	.word	.LANCHOR0
	.word	.LANCHOR1
	.cfi_endproc
.LFE7:
	.size	FreeCycQueue, .-FreeCycQueue
	.section	.text.MallocCycQueue,"ax",%progbits
	.align	1
	.global	MallocCycQueue
	.syntax unified
	.thumb
	.thumb_func
	.fpu softvfp
	.type	MallocCycQueue, %function
MallocCycQueue:
.LFB6:
	.loc 1 159 0
	.cfi_startproc
	@ args = 0, pretend = 0, frame = 0
	@ frame_needed = 0, uses_anonymous_args = 0
	push	{r4, lr}
	.cfi_def_cfa_offset 8
	.cfi_offset 4, -8
	.cfi_offset 14, -4
	.loc 1 160 0
	ldr	r4, .L28
	ldr	r2, [r4]
	cbz	r2, .L24
.LBB2:
	.loc 1 162 0
	movs	r2, #0
	ldr	r1, .L28+4
	ldr	r0, .L28+8
	bl	trace_log_buffer
.LVL19:
.LBE2:
	.loc 1 163 0
	bl	FreeCycQueue
.LVL20:
.L24:
	.loc 1 165 0
	movs	r3, #165
	ldr	r2, .L28+12
	mov	r1, #2048
	movs	r0, #0
	bl	os_mem_zalloc_intern
.LVL21:
	.loc 1 166 0
	movs	r3, #0
	ldr	r2, .L28+16
	.loc 1 165 0
	str	r0, [r4]
	.loc 1 166 0
	strh	r3, [r2]	@ movhi
	.loc 1 167 0
	ldr	r2, .L28+20
	.loc 1 169 0
	movs	r0, #1
	.loc 1 167 0
	strh	r3, [r2]	@ movhi
	.loc 1 169 0
	pop	{r4, pc}
.L29:
	.align	2
.L28:
	.word	.LANCHOR2
	.word	.LANCHOR3
	.word	1058025472
	.word	.LANCHOR4
	.word	.LANCHOR0
	.word	.LANCHOR1
	.cfi_endproc
.LFE6:
	.size	MallocCycQueue, .-MallocCycQueue
	.section	.text.CycQueueWrite,"ax",%progbits
	.align	1
	.global	CycQueueWrite
	.syntax unified
	.thumb
	.thumb_func
	.fpu softvfp
	.type	CycQueueWrite, %function
CycQueueWrite:
.LFB4:
	.loc 1 92 0
	.cfi_startproc
	@ args = 0, pretend = 0, frame = 0
	@ frame_needed = 0, uses_anonymous_args = 0
.LVL22:
	push	{r3, r4, r5, r6, r7, r8, r9, lr}
	.cfi_def_cfa_offset 32
	.cfi_offset 3, -32
	.cfi_offset 4, -28
	.cfi_offset 5, -24
	.cfi_offset 6, -20
	.cfi_offset 7, -16
	.cfi_offset 8, -12
	.cfi_offset 9, -8
	.cfi_offset 14, -4
	.loc 1 96 0
	ldr	r5, .L37
	.loc 1 92 0
	mov	r9, r0
	.loc 1 96 0
	ldr	r3, [r5]
	.loc 1 92 0
	mov	r4, r1
	mov	r7, r5
	.loc 1 96 0
	cbnz	r3, .L31
	.loc 1 99 0
	bl	MallocCycQueue
.LVL23:
	.loc 1 100 0
	ldr	r5, [r5]
	cbnz	r5, .L31
.LBB3:
	.loc 1 102 0
	mov	r2, r5
	ldr	r1, .L37+4
	ldr	r0, .L37+8
	bl	trace_log_buffer
.LVL24:
.L32:
.LBE3:
	.loc 1 132 0
	mov	r0, r5
	pop	{r3, r4, r5, r6, r7, r8, r9, pc}
.LVL25:
.L31:
	.loc 1 107 0
	bl	os_lock
.LVL26:
	mov	r8, r0
.LVL27:
	.loc 1 109 0
	bl	CycQueueRemainSize
.LVL28:
	cmp	r0, r4
	bcc	.L35
	.loc 1 111 0
	ldr	r5, .L37+12
	ldrh	r3, [r5]
	uxtah	r3, r4, r3
	cmp	r3, #2048
	bgt	.L34
	.loc 1 113 0
	ldr	r3, [r7]
	ldrh	r0, [r5]
	mov	r2, r4
	uxtah	r0, r3, r0
	mov	r1, r9
	bl	memcpy
.LVL29:
	.loc 1 114 0
	ldrh	r3, [r5]
	uxtah	r4, r4, r3
	ubfx	r4, r4, #0, #11
.L36:
.LBB4:
	.loc 1 121 0
	strh	r4, [r5]	@ movhi
.LBE4:
	.loc 1 93 0
	movs	r5, #1
.L33:
.LVL30:
	.loc 1 129 0
	mov	r0, r8
	bl	os_unlock
.LVL31:
	.loc 1 131 0
	b	.L32
.LVL32:
.L34:
.LBB5:
	.loc 1 118 0
	ldrh	r6, [r5]
	.loc 1 119 0
	ldr	r3, [r7]
	ldrh	r0, [r5]
	.loc 1 118 0
	rsb	r6, r6, #2048
	uxth	r6, r6
.LVL33:
	.loc 1 119 0
	mov	r2, r6
	mov	r1, r9
	uxtah	r0, r3, r0
	.loc 1 120 0
	subs	r4, r4, r6
	.loc 1 119 0
	bl	memcpy
.LVL34:
	.loc 1 120 0
	mov	r2, r4
	add	r1, r9, r6
	ldr	r0, [r7]
	bl	memcpy
.LVL35:
	.loc 1 121 0
	uxth	r4, r4
	b	.L36
.LVL36:
.L35:
.LBE5:
	.loc 1 126 0
	movs	r5, #0
	b	.L33
.L38:
	.align	2
.L37:
	.word	.LANCHOR2
	.word	.LANCHOR3+28
	.word	1058025472
	.word	.LANCHOR1
	.cfi_endproc
.LFE4:
	.size	CycQueueWrite, .-CycQueueWrite
	.global	pWrite
	.global	pRead
	.global	cyc_buffer
	.section	.BTTRACE,"a",%progbits
	.align	2
	.set	.LANCHOR3,. + 0
	.type	format.4881, %object
	.size	format.4881, 26
format.4881:
	.ascii	"!!!cyc_buffer is not free\000"
	.space	2
	.type	format.4873, %object
	.size	format.4873, 35
format.4873:
	.ascii	"!!!cyc_buffer is NULL, malloc fail\000"
	.section	.bss.cyc_buffer,"aw",%nobits
	.align	2
	.set	.LANCHOR2,. + 0
	.type	cyc_buffer, %object
	.size	cyc_buffer, 4
cyc_buffer:
	.space	4
	.section	.bss.pRead,"aw",%nobits
	.align	1
	.set	.LANCHOR0,. + 0
	.type	pRead, %object
	.size	pRead, 2
pRead:
	.space	2
	.section	.bss.pWrite,"aw",%nobits
	.align	1
	.set	.LANCHOR1,. + 0
	.type	pWrite, %object
	.size	pWrite, 2
pWrite:
	.space	2
	.section	.rodata.__func__.4882,"a",%progbits
	.set	.LANCHOR4,. + 0
	.type	__func__.4882, %object
	.size	__func__.4882, 15
__func__.4882:
	.ascii	"MallocCycQueue\000"
	.text
.Letext0:
	.file 2 "/home/ls/samba_share/sdk-ameba-v7.1d/tools/arm-none-eabi-gcc/asdk/linux/newlib/arm-none-eabi/include/machine/_default_types.h"
	.file 3 "/home/ls/samba_share/sdk-ameba-v7.1d/tools/arm-none-eabi-gcc/asdk/linux/newlib/arm-none-eabi/include/sys/lock.h"
	.file 4 "/home/ls/samba_share/sdk-ameba-v7.1d/tools/arm-none-eabi-gcc/asdk/linux/newlib/arm-none-eabi/include/sys/_types.h"
	.file 5 "/home/ls/samba_share/sdk-ameba-v7.1d/tools/arm-none-eabi-gcc/asdk/linux/newlib/lib/gcc/arm-none-eabi/6.5.0/include/stddef.h"
	.file 6 "/home/ls/samba_share/sdk-ameba-v7.1d/tools/arm-none-eabi-gcc/asdk/linux/newlib/arm-none-eabi/include/sys/reent.h"
	.file 7 "/home/ls/samba_share/sdk-ameba-v7.1d/tools/arm-none-eabi-gcc/asdk/linux/newlib/arm-none-eabi/include/sys/_stdint.h"
	.file 8 "/home/ls/samba_share/sdk-ameba-v7.1d/tools/arm-none-eabi-gcc/asdk/linux/newlib/arm-none-eabi/include/time.h"
	.file 9 "../../../component/common/bluetooth/realtek/sdk/board/common/inc/cycle_queue.h"
	.file 10 "../../../component/common/bluetooth/realtek/sdk/inc/platform/trace.h"
	.file 11 "../../../component/common/bluetooth/realtek/sdk/inc/platform/mem_types.h"
	.file 12 "../../../component/common/bluetooth/realtek/sdk/inc/os/os_mem.h"
	.file 13 "../../../component/common/bluetooth/realtek/sdk/inc/os/os_sync.h"