	.arch armv8-m.main
	.arch_extension dsp
	.eabi_attribute 20, 1
	.eabi_attribute 21, 1
	.eabi_attribute 23, 3
	.eabi_attribute 24, 1
	.eabi_attribute 25, 1
	.eabi_attribute 26, 1
	.eabi_attribute 30, 4
	.eabi_attribute 34, 1
	.eabi_attribute 18, 4
	.file	"dhcps.c"
	.text
.Ltext0:
	.cfi_sections	.debug_frame
	.section	.text.add_offer_options,"ax",%progbits
	.align	1
	.syntax unified
	.thumb
	.thumb_func
	.fpu softvfp
	.type	add_offer_options, %function
add_offer_options:
.LFB154:
	.file 1 "../../../component/common/network/dhcp/dhcps.c"
	.loc 1 352 0
	.cfi_startproc
	@ args = 0, pretend = 0, frame = 0
	@ frame_needed = 0, uses_anonymous_args = 0
.LVL0:
	push	{r3, r4, r5, lr}
	.cfi_def_cfa_offset 16
	.cfi_offset 3, -16
	.cfi_offset 4, -12
	.cfi_offset 5, -8
	.cfi_offset 14, -4
	.loc 1 355 0
	ldr	r3, .L7
	ldr	r3, [r3]
	subs	r3, r3, #7
.LVL1:
	.loc 1 357 0
	cmp	r0, #0
	beq	.L2
	.loc 1 362 0
	cmp	r3, #5
	ble	.L2
.LVL2:
.LBB28:
.LBB29:
	.loc 1 322 0
	movs	r4, #1
	.loc 1 323 0
	movs	r2, #4
	.loc 1 329 0
	ldr	r1, .L7+4
.LBE29:
.LBE28:
	.loc 1 371 0
	cmp	r3, #12
.LBB31:
.LBB30:
	.loc 1 329 0
	ldr	r1, [r1]
	.loc 1 322 0
	strb	r4, [r0]
	.loc 1 323 0
	strb	r2, [r0, #1]
.LVL3:
	.loc 1 329 0
	str	r1, [r0, #2]	@ unaligned
.LVL4:
.LBE30:
.LBE31:
	.loc 1 371 0
	blt	.L2
.LVL5:
.LBB32:
.LBB33:
	.loc 1 322 0
	movs	r1, #3
	strb	r1, [r0, #6]
	.loc 1 329 0
	ldr	r1, .L7+8
.LBE33:
.LBE32:
	.loc 1 380 0
	cmp	r3, #18
.LBB35:
.LBB34:
	.loc 1 329 0
	ldr	r1, [r1]
	.loc 1 323 0
	strb	r2, [r0, #7]
.LVL6:
	.loc 1 329 0
	str	r1, [r0, #8]	@ unaligned
.LVL7:
.LBE34:
.LBE35:
	.loc 1 380 0
	blt	.L2
.LVL8:
.LBB36:
.LBB37:
	.loc 1 322 0
	movs	r5, #6
.LBE37:
.LBE36:
	.loc 1 389 0
	cmp	r3, #24
.LBB39:
.LBB38:
	.loc 1 322 0
	strb	r5, [r0, #12]
	.loc 1 323 0
	strb	r2, [r0, #13]
.LVL9:
	.loc 1 329 0
	str	r1, [r0, #14]	@ unaligned
.LVL10:
.LBE38:
.LBE39:
	.loc 1 389 0
	blt	.L2
.LVL11:
.LBB40:
.LBB41:
	.loc 1 322 0
	movs	r5, #51
	strb	r5, [r0, #18]
	.loc 1 329 0
	ldr	r5, .L7+12
.LBE41:
.LBE40:
	.loc 1 398 0
	cmp	r3, #30
.LBB43:
.LBB42:
	.loc 1 329 0
	ldr	r5, [r5]	@ unaligned
	.loc 1 323 0
	strb	r2, [r0, #19]
.LVL12:
	.loc 1 329 0
	str	r5, [r0, #20]	@ unaligned
.LVL13:
.LBE42:
.LBE43:
	.loc 1 398 0
	blt	.L2
.LVL14:
.LBB44:
.LBB45:
	.loc 1 322 0
	movs	r5, #54
.LBE45:
.LBE44:
	.loc 1 407 0
	cmp	r3, #36
.LBB47:
.LBB46:
	.loc 1 322 0
	strb	r5, [r0, #24]
	.loc 1 323 0
	strb	r2, [r0, #25]
.LVL15:
	.loc 1 329 0
	str	r1, [r0, #26]	@ unaligned
.LVL16:
.LBE46:
.LBE47:
	.loc 1 407 0
	blt	.L2
.LVL17:
.LBB48:
.LBB49:
	.loc 1 322 0
	movs	r1, #28
	.loc 1 323 0
	strb	r2, [r0, #31]
.LVL18:
	.loc 1 329 0
	ldr	r2, .L7+16
.LBE49:
.LBE48:
	.loc 1 416 0
	cmp	r3, #40
.LBB51:
.LBB50:
	.loc 1 329 0
	ldr	r2, [r2]
	.loc 1 322 0
	strb	r1, [r0, #30]
	.loc 1 329 0
	str	r2, [r0, #32]	@ unaligned
.LVL19:
.LBE50:
.LBE51:
	.loc 1 416 0
	blt	.L2
.LVL20:
.LBB52:
.LBB53:
	.loc 1 322 0
	movs	r2, #26
	strb	r2, [r0, #36]
	.loc 1 323 0
	movs	r2, #2
	strb	r2, [r0, #37]
.LVL21:
	.loc 1 333 0
	ldr	r2, .L7+20
.LBE53:
.LBE52:
	.loc 1 425 0
	cmp	r3, #43
.LBB55:
.LBB54:
	.loc 1 333 0
	ldrh	r2, [r2]	@ unaligned
	strh	r2, [r0, #38]	@ unaligned
.LVL22:
.LBE54:
.LBE55:
	.loc 1 425 0
	blt	.L2
.LVL23:
.LBB56:
.LBB57:
	.loc 1 322 0
	movs	r2, #31
	strb	r2, [r0, #40]
	.loc 1 337 0
	movs	r2, #0
.LBE57:
.LBE56:
	.loc 1 433 0
	cmp	r3, #44
.LBB59:
.LBB58:
	.loc 1 323 0
	strb	r4, [r0, #41]
.LVL24:
	.loc 1 337 0
	strb	r2, [r0, #42]
.LVL25:
.LBE58:
.LBE59:
	.loc 1 433 0
	blt	.L2
.LVL26:
	.loc 1 434 0
	movs	r3, #255
.LVL27:
	strb	r3, [r0, #43]
	.loc 1 438 0
	mov	r0, r2
.LVL28:
	pop	{r3, r4, r5, pc}
.LVL29:
.L2:
.LDL1:
	.loc 1 441 0
	ldr	r1, .L7+24
	ldr	r0, .L7+28
.LVL30:
	bl	__wrap_printf
.LVL31:
	.loc 1 442 0
	mov	r0, #-1
	.loc 1 443 0
	pop	{r3, r4, r5, pc}
.L8:
	.align	2
.L7:
	.word	.LANCHOR0
	.word	.LANCHOR1
	.word	.LANCHOR2
	.word	.LANCHOR3
	.word	.LANCHOR4
	.word	.LANCHOR5
	.word	.LANCHOR6
	.word	.LC0
	.cfi_endproc
.LFE154:
	.size	add_offer_options, .-add_offer_options
	.section	.text.mark_ip_in_table,"ax",%progbits
	.align	1
	.syntax unified
	.thumb
	.thumb_func
	.fpu softvfp
	.type	mark_ip_in_table, %function
mark_ip_in_table:
.LFB146:
	.loc 1 52 0
	.cfi_startproc
	@ args = 0, pretend = 0, frame = 0
	@ frame_needed = 0, uses_anonymous_args = 0
.LVL32:
	push	{r4, r5, r6, lr}
	.cfi_def_cfa_offset 16
	.cfi_offset 4, -16
	.cfi_offset 5, -12
	.cfi_offset 6, -8
	.cfi_offset 14, -4
	.loc 1 52 0
	mov	r4, r0
	.loc 1 56 0
	ldr	r5, .L19
	mov	r1, #-1
	ldr	r0, [r5]
.LVL33:
	bl	xQueueSemaphoreTake
.LVL34:
	.loc 1 57 0
	subs	r2, r4, #1
	uxtb	r3, r2
	cmp	r3, #31
	bhi	.L10
	.loc 1 58 0
	movs	r3, #1
	ldr	r1, .L19+4
	lsls	r3, r3, r2
	ldr	r2, [r1]
	orrs	r3, r3, r2
	str	r3, [r1]
.L11:
	.loc 1 100 0
	movs	r3, #0
	ldr	r0, [r5]
	mov	r2, r3
	.loc 1 102 0
	pop	{r4, r5, r6, lr}
	.cfi_remember_state
	.cfi_restore 14
	.cfi_restore 6
	.cfi_restore 5
	.cfi_restore 4
	.cfi_def_cfa_offset 0
	.loc 1 100 0
	mov	r1, r3
	b	xQueueGenericSend
.LVL35:
.L10:
	.cfi_restore_state
	.loc 1 62 0
	sub	r1, r4, #33
	uxtb	r3, r1
	cmp	r3, #31
	bhi	.L12
	.loc 1 63 0
	movs	r3, #1
	ldr	r2, .L19+4
	lsls	r3, r3, r1
	ldr	r1, [r2, #4]
	orrs	r3, r3, r1
	str	r3, [r2, #4]
	b	.L11
.L12:
	.loc 1 67 0
	sub	r1, r4, #65
	uxtb	r3, r1
	cmp	r3, #31
	bhi	.L13
	.loc 1 68 0
	movs	r3, #1
	ldr	r2, .L19+4
	lsls	r3, r3, r1
	ldr	r1, [r2, #8]
	orrs	r3, r3, r1
	str	r3, [r2, #8]
	b	.L11
.L13:
	.loc 1 72 0
	sub	r1, r4, #97
	uxtb	r3, r1
	cmp	r3, #31
	bhi	.L14
	.loc 1 73 0
	movs	r3, #1
	ldr	r2, .L19+4
	lsls	r3, r3, r1
	ldr	r1, [r2, #12]
	orrs	r3, r3, r1
	str	r3, [r2, #12]
	b	.L11
.L14:
	.loc 1 77 0
	add	r3, r4, #127
	uxtb	r3, r3
	cmp	r3, #31
	bhi	.L15
	.loc 1 78 0
	movs	r3, #1
	ldr	r1, .L19+4
	lsls	r3, r3, r2
	ldr	r2, [r1, #16]
	orrs	r3, r3, r2
	str	r3, [r1, #16]
	b	.L11
.L15:
	.loc 1 82 0
	add	r3, r4, #95
	uxtb	r3, r3
	cmp	r3, #31
	bhi	.L16
	.loc 1 83 0
	sub	r2, r4, #161
	movs	r4, #1
	ldr	r3, .L19+4
	lsls	r4, r4, r2
	ldr	r2, [r3, #20]
	orrs	r4, r4, r2
	str	r4, [r3, #20]
	b	.L11
.L16:
	.loc 1 87 0
	add	r3, r4, #63
	uxtb	r3, r3
	cmp	r3, #31
	bhi	.L17
	.loc 1 88 0
	sub	r2, r4, #193
	movs	r4, #1
	ldr	r3, .L19+4
	lsls	r4, r4, r2
	ldr	r2, [r3, #24]
	orrs	r4, r4, r2
	str	r4, [r3, #24]
	b	.L11
.L17:
	.loc 1 92 0
	cmp	r4, #224
	bls	.L18
	.loc 1 93 0
	movs	r3, #1
	ldr	r2, .L19+4
	subs	r4, r4, #225
	lsl	r4, r3, r4
	ldr	r3, [r2, #28]
	orrs	r4, r4, r3
	str	r4, [r2, #28]
	b	.L11
.L18:
	.loc 1 98 0
	ldr	r0, .L19+8
	bl	__wrap_printf
.LVL36:
	b	.L11
.L20:
	.align	2
.L19:
	.word	.LANCHOR7
	.word	.LANCHOR8
	.word	.LC1
	.cfi_endproc
.LFE146:
	.size	mark_ip_in_table, .-mark_ip_in_table
	.section	.text.dnss_receive_udp_packet_handler,"ax",%progbits
	.align	1
	.syntax unified
	.thumb
	.thumb_func
	.fpu softvfp
	.type	dnss_receive_udp_packet_handler, %function
dnss_receive_udp_packet_handler:
.LFB164:
	.loc 1 942 0
	.cfi_startproc
	@ args = 4, pretend = 0, frame = 0
	@ frame_needed = 0, uses_anonymous_args = 0
.LVL37:
	push	{r3, r4, r5, lr}
	.cfi_def_cfa_offset 16
	.cfi_offset 3, -16
	.cfi_offset 4, -12
	.cfi_offset 5, -8
	.cfi_offset 14, -4
	.loc 1 942 0
	mov	r4, r2
	mov	r5, r1
	.loc 1 957 0
	ldr	r1, [r4, #4]
.LVL38:
	.loc 1 942 0
	mov	r2, r3
.LVL39:
	.loc 1 959 0
	ldrb	r0, [r1, #2]	@ zero_extendqisi2
.LVL40:
	.loc 1 942 0
	ldrh	r3, [sp, #16]
.LVL41:
	.loc 1 959 0
	orn	r0, r0, #127
	strb	r0, [r1, #2]
	.loc 1 960 0
	movs	r0, #5
	strb	r0, [r1, #3]
	.loc 1 962 0
	mov	r1, r4
.LVL42:
	mov	r0, r5
	bl	udp_sendto
.LVL43:
	.loc 1 965 0
	mov	r0, r5
	bl	udp_disconnect
.LVL44:
	.loc 1 968 0
	mov	r0, r4
	.loc 1 969 0
	pop	{r3, r4, r5, lr}
	.cfi_restore 14
	.cfi_restore 5
	.cfi_restore 4
	.cfi_restore 3
	.cfi_def_cfa_offset 0
.LVL45:
	.loc 1 968 0
	b	pbuf_free
.LVL46:
	.cfi_endproc
.LFE164:
	.size	dnss_receive_udp_packet_handler, .-dnss_receive_udp_packet_handler
	.section	.text.dhcps_initialize_message,"ax",%progbits
	.align	1
	.syntax unified
	.thumb
	.thumb_func
	.fpu softvfp
	.type	dhcps_initialize_message, %function
dhcps_initialize_message:
.LFB155:
	.loc 1 452 0
	.cfi_startproc
	@ args = 0, pretend = 0, frame = 0
	@ frame_needed = 0, uses_anonymous_args = 0
.LVL47:
	push	{r3, r4, r5, lr}
	.cfi_def_cfa_offset 16
	.cfi_offset 3, -16
	.cfi_offset 4, -12
	.cfi_offset 5, -8
	.cfi_offset 14, -4
	.loc 1 454 0
	movs	r3, #2
	strb	r3, [r0]
	.loc 1 455 0
	movs	r3, #1
	strb	r3, [r0, #1]
	.loc 1 456 0
	movs	r3, #6
	.loc 1 457 0
	movs	r5, #0
	.loc 1 452 0
	mov	r4, r0
	.loc 1 456 0
	strb	r3, [r0, #2]
	.loc 1 462 0
	ldr	r3, .L23
	.loc 1 457 0
	strb	r5, [r0, #3]
	.loc 1 462 0
	ldr	r3, [r3]
	.loc 1 460 0
	strh	r5, [r0, #8]	@ movhi
	.loc 1 462 0
	str	r3, [r0, #16]	@ unaligned
	.loc 1 466 0
	str	r5, [r0, #12]	@ unaligned
	.loc 1 468 0
	str	r5, [r0, #20]	@ unaligned
	.loc 1 470 0
	str	r5, [r0, #24]	@ unaligned
	.loc 1 472 0
	movs	r2, #64
	mov	r1, r5
	adds	r0, r0, #44
.LVL48:
	bl	memset
.LVL49:
	.loc 1 474 0
	movs	r2, #128
	mov	r1, r5
	add	r0, r4, #108
	bl	memset
.LVL50:
	.loc 1 476 0
	ldr	r3, .L23+4
	mov	r1, r5
	ldr	r2, [r3]
	add	r0, r4, #236
	bl	memset
.LVL51:
	.loc 1 478 0
	ldr	r3, .L23+8
	ldr	r3, [r3]	@ unaligned
	str	r3, [r4, #236]	@ unaligned
	pop	{r3, r4, r5, pc}
.LVL52:
.L24:
	.align	2
.L23:
	.word	.LANCHOR9
	.word	.LANCHOR0
	.word	.LANCHOR10
	.cfi_endproc
.LFE155:
	.size	dhcps_initialize_message, .-dhcps_initialize_message
	.section	.text.check_client_direct_request_ip.constprop.2,"ax",%progbits
	.align	1
	.syntax unified
	.thumb
	.thumb_func
	.fpu softvfp
	.type	check_client_direct_request_ip.constprop.2, %function
check_client_direct_request_ip.constprop.2:
.LFB173:
	.loc 1 166 0
	.cfi_startproc
	@ args = 0, pretend = 0, frame = 0
	@ frame_needed = 0, uses_anonymous_args = 0
.LVL53:
	push	{r4, r5, r6, r7, r8, r9, lr}
	.cfi_def_cfa_offset 28
	.cfi_offset 4, -28
	.cfi_offset 5, -24
	.cfi_offset 6, -20
	.cfi_offset 7, -16
	.cfi_offset 8, -12
	.cfi_offset 9, -8
	.cfi_offset 14, -4
	.loc 1 182 0
	ldr	r2, .L42
	ldr	r3, .L42+4
	ldrb	r0, [r2]	@ zero_extendqisi2
	ldrb	r1, [r3]	@ zero_extendqisi2
	.loc 1 166 0
	sub	sp, sp, #20
	.cfi_def_cfa_offset 48
	.loc 1 182 0
	cmp	r0, r1
	bne	.L32
	ldrb	r0, [r2, #1]	@ zero_extendqisi2
	ldrb	r1, [r3, #1]	@ zero_extendqisi2
	cmp	r0, r1
	bne	.L32
	.loc 1 183 0
	ldrb	r1, [r2, #2]	@ zero_extendqisi2
	ldrb	r2, [r3, #2]	@ zero_extendqisi2
	cmp	r1, r2
	bne	.L32
	.loc 1 197 0
	ldrb	r7, [r3, #3]	@ zero_extendqisi2
.LVL54:
	.loc 1 201 0
	sub	r6, r7, #100
	cmp	r6, #100
	bhi	.L32
	.loc 1 207 0
	movs	r4, #6
	ldr	r8, .L42+16
	.loc 1 205 0
	ldr	r9, .L42+20
	.loc 1 207 0
	mla	r4, r4, r6, r8
	.loc 1 205 0
	mov	r1, #-1
	ldr	r0, [r9]
	bl	xQueueSemaphoreTake
.LVL55:
	.loc 1 206 0
	ldrb	r1, [r4, #37]	@ zero_extendqisi2
	ldrb	r3, [r4, #33]	@ zero_extendqisi2
	ldrb	r2, [r4, #32]	@ zero_extendqisi2
	str	r1, [sp, #12]
	ldrb	r1, [r4, #36]	@ zero_extendqisi2
	ldr	r0, .L42+8
	str	r1, [sp, #8]
	ldrb	r1, [r4, #35]	@ zero_extendqisi2
	.loc 1 197 0
	mov	r5, r7
	.loc 1 206 0
	str	r1, [sp, #4]
	ldrb	r1, [r4, #34]	@ zero_extendqisi2
	str	r1, [sp]
	mov	r1, r7
	bl	__wrap_printf
.LVL56:
	.loc 1 212 0
	ldrb	r3, [r4, #32]	@ zero_extendqisi2
	cbnz	r3, .L27
	ldrb	r2, [r4, #33]	@ zero_extendqisi2
	cbnz	r2, .L27
	.loc 1 213 0
	ldrb	r2, [r4, #34]	@ zero_extendqisi2
	cbnz	r2, .L27
	.loc 1 214 0
	ldrb	r2, [r4, #35]	@ zero_extendqisi2
	cbnz	r2, .L27
	.loc 1 215 0
	ldrb	r2, [r4, #36]	@ zero_extendqisi2
	cbnz	r2, .L27
	.loc 1 216 0
	ldrb	r2, [r4, #37]	@ zero_extendqisi2
	cbz	r2, .L28
.L27:
	.loc 1 218 0
	ldr	r2, .L42+12
	.loc 1 217 0
	ldrb	r1, [r2]	@ zero_extendqisi2
	cmp	r1, r3
	bne	.L37
	.loc 1 219 0
	movs	r3, #6
	mla	r3, r3, r6, r8
	.loc 1 218 0
	ldrb	r1, [r2, #1]	@ zero_extendqisi2
	ldrb	r0, [r3, #33]	@ zero_extendqisi2
	cmp	r0, r1
	bne	.L37
	.loc 1 219 0
	ldrb	r0, [r3, #34]	@ zero_extendqisi2
	ldrb	r1, [r2, #2]	@ zero_extendqisi2
	cmp	r0, r1
	bne	.L37
	.loc 1 220 0
	ldrb	r0, [r3, #35]	@ zero_extendqisi2
	ldrb	r1, [r2, #3]	@ zero_extendqisi2
	cmp	r0, r1
	bne	.L37
	.loc 1 221 0
	ldrb	r0, [r3, #36]	@ zero_extendqisi2
	ldrb	r1, [r2, #4]	@ zero_extendqisi2
	cmp	r0, r1
	bne	.L37
	.loc 1 222 0
	ldrb	r5, [r3, #37]	@ zero_extendqisi2
	ldrb	r3, [r2, #5]	@ zero_extendqisi2
	.loc 1 229 0
	cmp	r5, r3
	ite	eq
	moveq	r5, r7
	movne	r5, #0
.L28:
.LVL57:
	.loc 1 232 0
	movs	r3, #0
	ldr	r0, [r9]
	mov	r2, r3
	mov	r1, r3
	bl	xQueueGenericSend
.LVL58:
.L26:
	.loc 1 236 0
	mov	r0, r5
	add	sp, sp, #20
	.cfi_remember_state
	.cfi_def_cfa_offset 28
	@ sp needed
	pop	{r4, r5, r6, r7, r8, r9, pc}
.LVL59:
.L37:
	.cfi_restore_state
	.loc 1 229 0
	movs	r5, #0
	b	.L28
.LVL60:
.L32:
	.loc 1 191 0
	movs	r5, #0
	b	.L26
.L43:
	.align	2
.L42:
	.word	.LANCHOR11
	.word	.LANCHOR12
	.word	.LC2
	.word	.LANCHOR13
	.word	.LANCHOR8
	.word	.LANCHOR7
	.cfi_endproc
.LFE173:
	.size	check_client_direct_request_ip.constprop.2, .-check_client_direct_request_ip.constprop.2
	.section	.text.dump_client_table,"ax",%progbits
	.align	1
	.global	dump_client_table
	.syntax unified
	.thumb
	.thumb_func
	.fpu softvfp
	.type	dump_client_table, %function
dump_client_table:
.LFB150:
	.loc 1 239 0
	.cfi_startproc
	@ args = 0, pretend = 0, frame = 0
	@ frame_needed = 0, uses_anonymous_args = 0
	@ link register save eliminated.
	bx	lr
	.cfi_endproc
.LFE150:
	.size	dump_client_table, .-dump_client_table
	.section	.text.dhcps_handle_state_machine_change,"ax",%progbits
	.align	1
	.global	dhcps_handle_state_machine_change
	.syntax unified
	.thumb
	.thumb_func
	.fpu softvfp
	.type	dhcps_handle_state_machine_change, %function
dhcps_handle_state_machine_change:
.LFB159:
	.loc 1 640 0
	.cfi_startproc
	@ args = 0, pretend = 0, frame = 0
	@ frame_needed = 0, uses_anonymous_args = 0
.LVL61:
	.loc 1 641 0
	subs	r0, r0, #1
.LVL62:
	.loc 1 640 0
	push	{r3, r4, r5, lr}
	.cfi_def_cfa_offset 16
	.cfi_offset 3, -16
	.cfi_offset 4, -12
	.cfi_offset 5, -8
	.cfi_offset 14, -4
	ldr	r4, .L68
	.loc 1 641 0
	cmp	r0, #6
	bhi	.L46
	tbb	[pc, r0]
.L48:
	.byte	(.L47-.L48)/2
	.byte	(.L46-.L48)/2
	.byte	(.L49-.L48)/2
	.byte	(.L66-.L48)/2
	.byte	(.L46-.L48)/2
	.byte	(.L46-.L48)/2
	.byte	(.L51-.L48)/2
	.p2align 1
.L47:
	.loc 1 652 0
	ldrb	r3, [r4]	@ zero_extendqisi2
	cmp	r3, #5
	bne	.L46
	.loc 1 653 0
	movs	r3, #1
.L65:
	.loc 1 763 0
	strb	r3, [r4]
.L46:
	.loc 1 768 0
	ldrb	r0, [r4]	@ zero_extendqisi2
	pop	{r3, r4, r5, pc}
.L49:
.LVL63:
.LBB60:
	.loc 1 696 0
	ldr	r3, .L68+4
	.loc 1 698 0
	ldr	r3, [r3]
	ldr	r2, [r3, #12]
	cbz	r2, .L52
	.loc 1 698 0 is_stmt 0 discriminator 1
	ldr	r3, .L68+8
	ldr	r1, [r3]
	cbnz	r1, .L52
	.loc 1 699 0 is_stmt 1
	str	r2, [r3]
.L52:
.LBE60:
	.loc 1 705 0
	ldrb	r3, [r4]	@ zero_extendqisi2
	cmp	r3, #1
	bne	.L53
.LBB61:
	.loc 1 706 0
	bl	check_client_direct_request_ip.constprop.2
.LVL64:
	ldr	r5, .L68+12
	.loc 1 708 0
	cbz	r0, .L54
	.loc 1 710 0
	ldr	r2, .L68+16
	.loc 1 711 0
	ldrb	r3, [r2, #1]	@ zero_extendqisi2
	.loc 1 710 0
	ldrb	r1, [r2]	@ zero_extendqisi2
	.loc 1 711 0
	lsls	r3, r3, #16
	ldrb	r2, [r2, #2]	@ zero_extendqisi2
	orr	r3, r3, r1, lsl #24
	orr	r3, r3, r2, lsl #8
	.loc 1 712 0
	orrs	r3, r3, r0
	rev	r3, r3
	.loc 1 710 0
	str	r3, [r5]
.LVL65:
.L67:
.LBE61:
.LBB62:
	.loc 1 746 0
	movs	r3, #3
	b	.L65
.LVL66:
.L54:
.LBE62:
.LBB63:
	.loc 1 721 0
	ldrb	r3, [r5, #3]	@ zero_extendqisi2
	cbz	r3, .L55
	.loc 1 726 0
	movs	r2, #4
	ldr	r1, .L68+8
	mov	r0, r5
.LVL67:
	bl	memcmp
.LVL68:
	cmp	r0, #0
	beq	.L67
.L55:
	.loc 1 729 0
	movs	r3, #4
	b	.L65
.LVL69:
.L53:
.LBE63:
	.loc 1 735 0
	cmp	r3, #5
	bne	.L55
.LBB64:
	.loc 1 736 0
	bl	check_client_direct_request_ip.constprop.2
.LVL70:
	.loc 1 738 0
	cmp	r0, #0
	beq	.L55
	.loc 1 740 0
	ldr	r2, .L68+16
	.loc 1 741 0
	ldrb	r3, [r2, #1]	@ zero_extendqisi2
	.loc 1 740 0
	ldrb	r1, [r2]	@ zero_extendqisi2
	.loc 1 741 0
	lsls	r3, r3, #16
	ldrb	r2, [r2, #2]	@ zero_extendqisi2
	orr	r3, r3, r1, lsl #24
	orr	r3, r3, r2, lsl #8
	.loc 1 742 0
	orrs	r0, r0, r3
.LVL71:
	.loc 1 740 0
	ldr	r3, .L68+12
	rev	r0, r0
	str	r0, [r3]
	b	.L67
.LVL72:
.L51:
.LBE64:
	.loc 1 762 0
	ldr	r0, .L68+20
	bl	__wrap_printf
.LVL73:
.L66:
	.loc 1 763 0
	movs	r3, #5
	b	.L65
.L69:
	.align	2
.L68:
	.word	.LANCHOR14
	.word	.LANCHOR15
	.word	.LANCHOR12
	.word	.LANCHOR9
	.word	.LANCHOR11
	.word	.LC3
	.cfi_endproc
.LFE159:
	.size	dhcps_handle_state_machine_change, .-dhcps_handle_state_machine_change
	.section	.text.dhcps_receive_udp_packet_handler,"ax",%progbits
	.align	1
	.syntax unified
	.thumb
	.thumb_func
	.fpu softvfp
	.type	dhcps_receive_udp_packet_handler, %function
dhcps_receive_udp_packet_handler:
.LFB162:
	.loc 1 840 0
	.cfi_startproc
	@ args = 4, pretend = 0, frame = 24
	@ frame_needed = 0, uses_anonymous_args = 0
.LVL74:
	push	{r4, r5, r6, r7, r8, r9, r10, fp, lr}
	.cfi_def_cfa_offset 36
	.cfi_offset 4, -36
	.cfi_offset 5, -32
	.cfi_offset 6, -28
	.cfi_offset 7, -24
	.cfi_offset 8, -20
	.cfi_offset 9, -16
	.cfi_offset 10, -12
	.cfi_offset 11, -8
	.cfi_offset 14, -4
	.loc 1 848 0
	ldr	r3, [r2, #4]
.LVL75:
	ldr	r6, .L119
	.loc 1 840 0
	sub	sp, sp, #36
	.cfi_def_cfa_offset 72
	.loc 1 848 0
	str	r3, [r6]
	.loc 1 853 0
	ldrh	r3, [sp, #72]
	.loc 1 840 0
	str	r1, [sp, #20]
	.loc 1 853 0
	cmp	r3, #68
	.loc 1 840 0
	mov	r4, r2
	.loc 1 853 0
	bne	.L105
	.loc 1 855 0
	ldr	r8, [r2]
	.loc 1 854 0
	ldrsh	r7, [r2, #8]
.LVL76:
	.loc 1 855 0
	cmp	r8, #0
	beq	.L106
	.loc 1 856 0
	movs	r1, #0
.LVL77:
	mov	r0, r2
.LVL78:
	bl	pbuf_coalesce
.LVL79:
	.loc 1 858 0
	ldrh	r3, [r0, #8]
	.loc 1 856 0
	mov	r5, r0
.LVL80:
	.loc 1 858 0
	cmp	r3, r7
	beq	.L107
	.loc 1 860 0
	mov	r0, r4
.LVL81:
.L118:
	.loc 1 917 0
	bl	pbuf_free
.LVL82:
	.loc 1 918 0
	add	sp, sp, #36
	.cfi_remember_state
	.cfi_def_cfa_offset 36
	@ sp needed
	pop	{r4, r5, r6, r7, r8, r9, r10, fp, pc}
.LVL83:
.L106:
	.cfi_restore_state
	mov	r5, r2
.LVL84:
.L72:
.LBB89:
.LBB90:
	.loc 1 819 0
	ldrh	r10, [r5, #10]
	.loc 1 816 0
	ldr	fp, [r5, #4]
	.loc 1 819 0
	ldr	r4, .L119+4
	.loc 1 820 0
	sub	r3, r10, #236
	.loc 1 819 0
	str	r3, [r4]
	.loc 1 821 0
	mov	r3, fp
	ldr	r2, [r3, #28]!	@ unaligned
	ldr	r9, .L119+28
	ldrh	r3, [r3, #4]	@ unaligned
	str	r2, [r9]	@ unaligned
	strh	r3, [r9, #4]	@ unaligned
	.loc 1 823 0
	movs	r2, #4
	ldr	r1, .L119+8
	add	r0, fp, #236
	.loc 1 816 0
	str	fp, [r6]
	.loc 1 823 0
	bl	memcmp
.LVL85:
	mov	r7, r0
.LVL86:
	cbnz	r0, .L71
	.loc 1 825 0
	add	r3, fp, #240
.LVL87:
	.loc 1 826 0
	sub	r10, r10, #240
.LBB91:
.LBB92:
	.loc 1 796 0
	ldr	r1, .L119+12
	.loc 1 779 0
	sxtah	r10, r3, r10
.LVL88:
.L74:
	.loc 1 783 0
	cmp	r10, r3
	bhi	.L78
	.loc 1 803 0
	bl	dhcps_handle_state_machine_change
.LVL89:
.LBE92:
.LBE91:
.LBE90:
.LBE89:
	.loc 1 865 0
	cmp	r0, #3
	beq	.L79
	cmp	r0, #4
	beq	.L80
	cmp	r0, #1
	bne	.L71
.LVL90:
.LBB96:
.LBB97:
	.loc 1 493 0
	movs	r2, #0
	mov	r1, #548
	mov	r0, r2
	bl	pbuf_alloc
.LVL91:
	.loc 1 494 0
	mov	r9, r0
	cbnz	r0, .L82
	.loc 1 496 0
	ldr	r1, .L119+16
	ldr	r0, .L119+20
.LVL92:
	bl	__wrap_printf
.LVL93:
.L71:
.LBE97:
.LBE96:
	.loc 1 911 0
	ldr	r0, [sp, #20]
	bl	udp_disconnect
.LVL94:
	.loc 1 914 0
	cmp	r8, #0
	beq	.L104
	.loc 1 915 0
	mov	r0, r8
	b	.L118
.LVL95:
.L107:
	mov	r8, r0
	b	.L72
.LVL96:
.L78:
.LBB118:
.LBB95:
.LBB94:
.LBB93:
	.loc 1 784 0
	ldrb	r2, [r3]	@ zero_extendqisi2
	cmp	r2, #50
	beq	.L76
	cmp	r2, #53
	bne	.L75
	.loc 1 786 0
	ldrb	r0, [r3, #2]	@ zero_extendqisi2
.LVL97:
.L75:
	.loc 1 801 0
	ldrb	r2, [r3, #1]	@ zero_extendqisi2
	adds	r2, r2, #2
	add	r3, r3, r2
.LVL98:
	b	.L74
.L76:
	.loc 1 796 0
	ldr	r2, [r3, #2]	@ unaligned
	str	r2, [r1]
	b	.L75
.LVL99:
.L82:
.LBE93:
.LBE94:
.LBE95:
.LBE118:
.LBB119:
.LBB117:
	.loc 1 499 0
	mov	r1, r5
	bl	pbuf_copy
.LVL100:
	cbz	r0, .L83
	.loc 1 501 0
	ldr	r1, .L119+16
	ldr	r0, .L119+24
	bl	__wrap_printf
.LVL101:
.L95:
	.loc 1 562 0
	mov	r0, r9
	bl	pbuf_free
.LVL102:
	b	.L71
.LVL103:
.L83:
	.loc 1 505 0
	mov	r3, #312
.LBB98:
.LBB99:
	.loc 1 151 0
	mov	fp, #6
.LBE99:
.LBE98:
	.loc 1 505 0
	str	r3, [r4]
.LBB104:
.LBB100:
	.loc 1 148 0
	movs	r4, #100
	.loc 1 147 0
	ldr	r10, .L119+68
.LBE100:
.LBE104:
	.loc 1 506 0
	ldr	r3, [r9, #4]
.LBB105:
.LBB101:
	.loc 1 147 0
	ldr	r0, [r10]
	mov	r1, #-1
.LBE101:
.LBE105:
	.loc 1 506 0
	str	r3, [r6]
.LVL104:
.LBB106:
.LBB102:
	.loc 1 147 0
	bl	xQueueSemaphoreTake
.LVL105:
	str	r10, [sp, #8]
	.loc 1 151 0
	ldr	r3, .L119+28
	ldr	r10, .L119+44
.LVL106:
.L86:
	mla	r0, fp, r4, r10
	mov	r1, r3
	movs	r2, #6
	sub	r0, r0, #568
	str	r3, [sp, #12]
	bl	memcmp
.LVL107:
	ldr	r3, [sp, #12]
	cbnz	r0, .L84
	.loc 1 152 0
	and	r2, r4, #31
	asrs	r0, r4, #5
	subs	r1, r2, #1
	ldr	r2, [r10, r0, lsl #2]
	lsrs	r2, r2, r1
	lsls	r2, r2, #31
	bmi	.L108
.L84:
	.loc 1 148 0
	adds	r4, r4, #1
.LVL108:
	cmp	r4, #201
	bne	.L86
	mov	r10, r4
	.loc 1 133 0
	movs	r4, #0
.LVL109:
.L85:
	.loc 1 158 0
	movs	r3, #0
	ldr	r0, [sp, #8]
	mov	r2, r3
	mov	r1, r3
	ldr	r0, [r0]
	bl	xQueueGenericSend
.LVL110:
	.loc 1 161 0
	cmp	r10, #201
	it	eq
	moveq	r4, #0
.LBE102:
.LBE106:
	.loc 1 512 0
	ands	r4, r4, #255
	bne	.L88
.LBB107:
.LBB108:
	.loc 1 269 0
	ldr	r3, .L119+32
	ldr	r3, [r3]
	cmp	r3, #0
	beq	.L109
	.loc 1 271 0
	ldr	r3, .L119+36
	ldrb	fp, [r3, #3]	@ zero_extendqisi2
.LVL111:
	.loc 1 272 0
	ldr	r3, .L119+40
	ldrb	r10, [r3, #3]	@ zero_extendqisi2
.LVL112:
.L89:
	.loc 1 281 0
	ldr	r3, [sp, #8]
	mov	r1, #-1
	ldr	r0, [r3]
	bl	xQueueSemaphoreTake
.LVL113:
	movs	r0, #0
	.loc 1 282 0
	mov	lr, #8
.LVL114:
.L90:
	uxtb	r3, r0
	cmp	r0, #8
	str	r3, [sp, #12]
.LVL115:
	strb	lr, [sp, #31]
	beq	.L94
.LVL116:
	.loc 1 284 0
	mov	ip, #0
	ldr	r3, .L119+44
	lsls	r1, r0, #5
	ldr	r2, [r3, r0, lsl #2]
	adds	r1, r1, #1
.L93:
	uxtb	r3, ip
	str	r3, [sp, #16]
.LVL117:
	lsr	r3, r2, ip
.LVL118:
	ands	r3, r3, #1
	bne	.L91
	.loc 1 285 0
	cmp	fp, r1
	bgt	.L91
	.loc 1 286 0
	cmp	r10, r1
	blt	.L91
	.loc 1 287 0
	ldr	r0, [sp, #8]
	mov	r2, r3
	mov	r1, r3
	ldr	r0, [r0]
	bl	xQueueGenericSend
.LVL119:
	.loc 1 288 0
	ldr	r3, [sp, #16]
	add	r10, r3, #1
.LVL120:
	ldr	r3, [sp, #12]
	add	r10, r10, r3, lsl #5
.LVL121:
.LBE108:
.LBE107:
	.loc 1 517 0
	ands	r10, r10, #255
.LVL122:
	beq	.L92
	mov	r4, r10
.LVL123:
.L88:
	.loc 1 526 0
	bl	xTaskGetTickCount
.LVL124:
	ldr	r10, .L119+80
	ldrb	r3, [r10, #1]	@ zero_extendqisi2
	ldrb	r2, [r10]	@ zero_extendqisi2
	str	r4, [sp, #4]
	ldrb	r1, [r10, #2]	@ zero_extendqisi2
	str	r1, [sp]
	mov	r1, r0
	ldr	r0, .L119+48
	bl	__wrap_printf
.LVL125:
	.loc 1 527 0
	ldrb	r3, [r10, #1]	@ zero_extendqisi2
	ldrb	r2, [r10]	@ zero_extendqisi2
	lsls	r3, r3, #16
	orr	r3, r3, r2, lsl #24
	ldrb	r2, [r10, #2]	@ zero_extendqisi2
	orr	r3, r3, r2, lsl #8
	.loc 1 529 0
	orrs	r4, r4, r3
	.loc 1 527 0
	ldr	r3, .L119+52
	rev	r4, r4
	str	r4, [r3]
	.loc 1 535 0
	ldr	r4, [r6]
	mov	r0, r4
	bl	dhcps_initialize_message
.LVL126:
.LBB110:
.LBB111:
	.loc 1 306 0
	movs	r3, #53
	strb	r3, [r4, #240]
	.loc 1 307 0
	movs	r3, #1
	strb	r3, [r4, #241]
	.loc 1 308 0
	movs	r3, #2
.LBE111:
.LBE110:
	.loc 1 536 0
	add	r0, r4, #243
.LBB113:
.LBB112:
	.loc 1 308 0
	strb	r3, [r4, #242]
.LVL127:
.LBE112:
.LBE113:
	.loc 1 536 0
	bl	add_offer_options
.LVL128:
	cmp	r0, #0
	bne	.L95
	.loc 1 537 0
	ldr	r3, [r6]
	ldrh	r2, [r3, #10]
	cmp	r2, #0
	bne	.L96
.LBB114:
	.loc 1 540 0
	ldr	r2, .L119+56
	adds	r3, r3, #28
.L97:
.LVL129:
	ldrb	r1, [r3], #1	@ zero_extendqisi2
	strb	r1, [r7, r2]
	.loc 1 539 0
	adds	r7, r7, #1
.LVL130:
	cmp	r7, #6
	bne	.L97
.LBE114:
	.loc 1 543 0
	ldr	r1, .L119+56
	ldr	r0, .L119+52
	bl	etharp_add_static_entry
.LVL131:
	.loc 1 548 0
	ldr	r3, .L119+60
	ldr	r0, .L119+64
	ldr	r3, [r3]
	ldr	r2, .L119+52
	str	r3, [sp]
	mov	r1, r9
	movs	r3, #68
	ldr	r0, [r0]
	bl	udp_sendto_if
.LVL132:
	.loc 1 551 0
	ldr	r0, .L119+52
	bl	etharp_remove_static_entry
.LVL133:
	b	.L95
.LVL134:
.L108:
.LBB115:
.LBB103:
	.loc 1 152 0
	mov	r10, r4
	b	.L85
.LVL135:
.L109:
.LBE103:
.LBE115:
.LBB116:
.LBB109:
	.loc 1 278 0
	mov	fp, r4
	.loc 1 279 0
	mov	r10, #255
	b	.L89
.LVL136:
.L91:
	add	ip, ip, #1
.LVL137:
	.loc 1 283 0
	cmp	ip, #32
	add	r1, r1, #1
	bne	.L93
.LVL138:
	adds	r0, r0, #1
.LVL139:
	b	.L90
.LVL140:
.L94:
	.loc 1 292 0
	movs	r3, #0
.LVL141:
	ldr	r0, .L119+68
	mov	r2, r3
	mov	r1, r3
	ldr	r0, [r0]
	bl	xQueueGenericSend
.LVL142:
.L92:
.LBE109:
.LBE116:
	.loc 1 523 0
	ldr	r0, .L119+72
	bl	__wrap_printf
.LVL143:
	b	.L88
.LVL144:
.L96:
	.loc 1 559 0
	ldr	r3, .L119+60
	ldr	r0, .L119+64
	ldr	r3, [r3]
	ldr	r2, .L119+76
	str	r3, [sp]
	mov	r1, r9
	movs	r3, #68
	ldr	r0, [r0]
	bl	udp_sendto_if
.LVL145:
	b	.L95
.L120:
	.align	2
.L119:
	.word	.LANCHOR15
	.word	.LANCHOR0
	.word	.LANCHOR10
	.word	.LANCHOR12
	.word	.LANCHOR16
	.word	.LC4
	.word	.LC5
	.word	.LANCHOR13
	.word	.LANCHOR17
	.word	.LANCHOR18
	.word	.LANCHOR19
	.word	.LANCHOR8
	.word	.LC7
	.word	.LANCHOR9
	.word	.LANCHOR20
	.word	.LANCHOR22
	.word	.LANCHOR21
	.word	.LANCHOR7
	.word	.LC6
	.word	.LANCHOR23
	.word	.LANCHOR11
.LVL146:
.L79:
.LBE117:
.LBE119:
.LBB120:
.LBB121:
	.loc 1 589 0
	movs	r2, #0
	mov	r1, #548
	mov	r0, r2
	bl	pbuf_alloc
.LVL147:
	.loc 1 590 0
	mov	r10, r0
	cbnz	r0, .L98
	.loc 1 592 0
	ldr	r1, .L121
	ldr	r0, .L121+4
.LVL148:
	bl	__wrap_printf
.LVL149:
.L99:
.LBE121:
.LBE120:
	.loc 1 879 0
	ldr	r6, .L121+8
.LBB128:
.LBB129:
	.loc 1 112 0
	ldr	r7, .L121+12
.LBE129:
.LBE128:
	.loc 1 879 0
	ldrb	r0, [r6, #3]	@ zero_extendqisi2
	bl	mark_ip_in_table
.LVL150:
.LBB131:
.LBB130:
	.loc 1 112 0
	mov	r1, #-1
	ldr	r0, [r7]
	.loc 1 107 0
	ldrb	r4, [r6, #3]	@ zero_extendqisi2
.LVL151:
	.loc 1 112 0
	bl	xQueueSemaphoreTake
.LVL152:
	.loc 1 113 0
	movs	r2, #6
	ldr	r3, .L121+16
	subs	r4, r4, #100
.LVL153:
	mla	r3, r2, r4, r3
	ldr	r2, [r9]	@ unaligned
	.loc 1 125 0
	ldr	r0, [r7]
	.loc 1 113 0
	str	r2, [r3, #32]	@ unaligned
	ldrh	r2, [r9, #4]	@ unaligned
	strh	r2, [r3, #36]	@ unaligned
	.loc 1 125 0
	movs	r3, #0
	mov	r2, r3
	mov	r1, r3
	bl	xQueueGenericSend
.LVL154:
.LBE130:
.LBE131:
	.loc 1 885 0
	movs	r3, #0
	ldr	r2, .L121+20
	.loc 1 886 0
	str	r3, [r9]	@ unaligned
	.loc 1 885 0
	str	r3, [r2]
	.loc 1 886 0
	strh	r3, [r9, #4]	@ unaligned
	.loc 1 887 0
	str	r3, [r6]
.L117:
	.loc 1 900 0
	movs	r2, #5
	ldr	r3, .L121+24
	strb	r2, [r3]
	.loc 1 901 0
	b	.L71
.LVL155:
.L98:
.LBB132:
.LBB127:
	.loc 1 595 0
	mov	r1, r5
	bl	pbuf_copy
.LVL156:
	cbz	r0, .L100
	.loc 1 597 0
	ldr	r1, .L121
	ldr	r0, .L121+28
	bl	__wrap_printf
.LVL157:
.L101:
	.loc 1 631 0
	mov	r0, r10
	bl	pbuf_free
.LVL158:
	b	.L99
.L100:
	.loc 1 601 0
	mov	r3, #312
	str	r3, [r4]
	.loc 1 602 0
	ldr	r4, [r10, #4]
	.loc 1 603 0
	mov	r0, r4
	.loc 1 602 0
	str	r4, [r6]
	.loc 1 603 0
	bl	dhcps_initialize_message
.LVL159:
.LBB122:
.LBB123:
	.loc 1 306 0
	movs	r3, #53
	strb	r3, [r4, #240]
	.loc 1 307 0
	movs	r3, #1
	strb	r3, [r4, #241]
	.loc 1 308 0
	movs	r3, #5
.LBE123:
.LBE122:
	.loc 1 604 0
	add	r0, r4, #243
.LBB125:
.LBB124:
	.loc 1 308 0
	strb	r3, [r4, #242]
.LVL160:
.LBE124:
.LBE125:
	.loc 1 604 0
	bl	add_offer_options
.LVL161:
	cmp	r0, #0
	bne	.L101
	.loc 1 605 0
	ldr	r3, [r6]
	ldrh	r2, [r3, #10]
	cbnz	r2, .L102
.LBB126:
	.loc 1 608 0
	ldr	r2, .L121+32
	adds	r3, r3, #28
.L103:
.LVL162:
	ldrb	r1, [r3], #1	@ zero_extendqisi2
	strb	r1, [r7, r2]
	.loc 1 607 0
	adds	r7, r7, #1
.LVL163:
	cmp	r7, #6
	bne	.L103
.LBE126:
	.loc 1 611 0
	ldr	r1, .L121+32
	ldr	r0, .L121+8
	bl	etharp_add_static_entry
.LVL164:
	.loc 1 617 0
	ldr	r3, .L121+36
	ldr	r0, .L121+40
	ldr	r3, [r3]
	ldr	r2, .L121+8
	str	r3, [sp]
	mov	r1, r10
	movs	r3, #68
	ldr	r0, [r0]
	bl	udp_sendto_if
.LVL165:
	.loc 1 620 0
	ldr	r0, .L121+8
	bl	etharp_remove_static_entry
.LVL166:
	b	.L101
.LVL167:
.L102:
	.loc 1 629 0
	ldr	r3, .L121+36
	ldr	r0, .L121+40
	ldr	r3, [r3]
	ldr	r2, .L121+44
	str	r3, [sp]
	mov	r1, r10
	movs	r3, #68
	ldr	r0, [r0]
	bl	udp_sendto_if
.LVL168:
	b	.L101
.LVL169:
.L80:
.LBE127:
.LBE132:
.LBB133:
.LBB134:
	.loc 1 572 0
	ldr	r4, [r5, #4]
	.loc 1 573 0
	mov	r0, r4
	.loc 1 572 0
	str	r4, [r6]
	.loc 1 573 0
	bl	dhcps_initialize_message
.LVL170:
.LBB135:
.LBB136:
	.loc 1 306 0
	movs	r3, #53
	strb	r3, [r4, #240]
	.loc 1 307 0
	movs	r3, #1
	strb	r3, [r4, #241]
	.loc 1 308 0
	movs	r3, #6
	strb	r3, [r4, #242]
.LVL171:
	.loc 1 311 0
	movs	r3, #255
	strb	r3, [r4, #243]
.LVL172:
.LBE136:
.LBE135:
	.loc 1 575 0
	ldr	r3, .L121+36
	ldr	r0, .L121+40
	ldr	r3, [r3]
	ldr	r2, .L121+44
	str	r3, [sp]
	mov	r1, r5
	movs	r3, #68
	ldr	r0, [r0]
	bl	udp_sendto_if
.LVL173:
	b	.L117
.LVL174:
.L105:
.LBE134:
.LBE133:
	mov	r5, r2
	.loc 1 846 0
	mov	r8, #0
	b	.L71
.LVL175:
.L104:
	.loc 1 917 0
	mov	r0, r5
	b	.L118
.L122:
	.align	2
.L121:
	.word	.LANCHOR24
	.word	.LC4
	.word	.LANCHOR9
	.word	.LANCHOR7
	.word	.LANCHOR8
	.word	.LANCHOR12
	.word	.LANCHOR14
	.word	.LC5
	.word	.LANCHOR20
	.word	.LANCHOR22
	.word	.LANCHOR21
	.word	.LANCHOR23
	.cfi_endproc
.LFE162:
	.size	dhcps_receive_udp_packet_handler, .-dhcps_receive_udp_packet_handler
	.section	.text.dhcps_set_addr_pool,"ax",%progbits
	.align	1
	.global	dhcps_set_addr_pool
	.syntax unified
	.thumb
	.thumb_func
	.fpu softvfp
	.type	dhcps_set_addr_pool, %function
dhcps_set_addr_pool:
.LFB163:
	.loc 1 921 0
	.cfi_startproc
	@ args = 0, pretend = 0, frame = 0
	@ frame_needed = 0, uses_anonymous_args = 0
	@ link register save eliminated.
.LVL176:
	ldr	r3, .L126
	.loc 1 923 0
	cbz	r0, .L124
.LVL177:
.LBB139:
.LBB140:
	.loc 1 924 0
	movs	r0, #1
.LVL178:
	.loc 1 926 0
	ldr	r1, [r1]	@ unaligned
.LVL179:
	.loc 1 924 0
	str	r0, [r3]
	.loc 1 926 0
	ldr	r3, .L126+4
	.loc 1 930 0
	ldr	r2, [r2]	@ unaligned
.LVL180:
	.loc 1 926 0
	str	r1, [r3]
	.loc 1 930 0
	ldr	r3, .L126+8
	str	r2, [r3]
	bx	lr
.LVL181:
.L124:
.LBE140:
.LBE139:
	.loc 1 935 0
	str	r0, [r3]
	bx	lr
.L127:
	.align	2
.L126:
	.word	.LANCHOR17
	.word	.LANCHOR18
	.word	.LANCHOR19
	.cfi_endproc
.LFE163:
	.size	dhcps_set_addr_pool, .-dhcps_set_addr_pool
	.section	.text.dns_server_init,"ax",%progbits
	.align	1
	.global	dns_server_init
	.syntax unified
	.thumb
	.thumb_func
	.fpu softvfp
	.type	dns_server_init, %function
dns_server_init:
.LFB165:
	.loc 1 973 0
	.cfi_startproc
	@ args = 0, pretend = 0, frame = 0
	@ frame_needed = 0, uses_anonymous_args = 0
.LVL182:
	push	{r4, lr}
	.cfi_def_cfa_offset 8
	.cfi_offset 4, -8
	.cfi_offset 14, -4
	.loc 1 977 0
	ldr	r4, .L134
	ldr	r0, [r4]
.LVL183:
	cbz	r0, .L129
	.loc 1 978 0
	bl	udp_remove
.LVL184:
	.loc 1 979 0
	movs	r3, #0
	str	r3, [r4]
.L129:
	.loc 1 982 0
	bl	udp_new
.LVL185:
	str	r0, [r4]
	.loc 1 983 0
	cbnz	r0, .L130
	.loc 1 990 0
	pop	{r4, lr}
	.cfi_remember_state
	.cfi_restore 14
	.cfi_restore 4
	.cfi_def_cfa_offset 0
	.loc 1 984 0
	ldr	r0, .L134+4
	b	__wrap_printf
.LVL186:
.L130:
	.cfi_restore_state
	.loc 1 988 0
	movs	r2, #53
	ldr	r1, .L134+8
	bl	udp_bind
.LVL187:
	.loc 1 989 0
	ldr	r0, [r4]
	movs	r2, #0
	.loc 1 990 0
	pop	{r4, lr}
	.cfi_restore 14
	.cfi_restore 4
	.cfi_def_cfa_offset 0
	.loc 1 989 0
	ldr	r1, .L134+12
	b	udp_recv
.LVL188:
.L135:
	.align	2
.L134:
	.word	.LANCHOR25
	.word	.LC8
	.word	ip_addr_any
	.word	dnss_receive_udp_packet_handler
	.cfi_endproc
.LFE165:
	.size	dns_server_init, .-dns_server_init
	.section	.text.dns_server_deinit,"ax",%progbits
	.align	1
	.global	dns_server_deinit
	.syntax unified
	.thumb
	.thumb_func
	.fpu softvfp
	.type	dns_server_deinit, %function
dns_server_deinit:
.LFB166:
	.loc 1 993 0
	.cfi_startproc
	@ args = 0, pretend = 0, frame = 0
	@ frame_needed = 0, uses_anonymous_args = 0
	push	{r4, lr}
	.cfi_def_cfa_offset 8
	.cfi_offset 4, -8
	.cfi_offset 14, -4
	.loc 1 994 0
	ldr	r4, .L141
	ldr	r0, [r4]
	cbz	r0, .L136
	.loc 1 995 0
	bl	udp_remove
.LVL189:
	.loc 1 996 0
	movs	r3, #0
	str	r3, [r4]
.L136:
	pop	{r4, pc}
.L142:
	.align	2
.L141:
	.word	.LANCHOR25
	.cfi_endproc
.LFE166:
	.size	dns_server_deinit, .-dns_server_deinit
	.section	.text.dhcps_init,"ax",%progbits
	.align	1
	.global	dhcps_init
	.syntax unified
	.thumb
	.thumb_func
	.fpu softvfp
	.type	dhcps_init, %function
dhcps_init:
.LFB167:
	.loc 1 1008 0
	.cfi_startproc
	@ args = 0, pretend = 0, frame = 0
	@ frame_needed = 0, uses_anonymous_args = 0
.LVL190:
	push	{r3, r4, r5, r6, r7, r8, r9, lr}
	.cfi_def_cfa_offset 32
	.cfi_offset 3, -32
	.cfi_offset 4, -28
	.cfi_offset 5, -24
	.cfi_offset 6, -20
	.cfi_offset 7, -16
	.cfi_offset 8, -12
	.cfi_offset 9, -8
	.cfi_offset 14, -4
	.loc 1 1008 0
	mov	r6, r0
	.loc 1 1021 0
	ldr	r4, .L154
	.loc 1 1012 0
	mov	r2, #640
	movs	r1, #0
	ldr	r0, .L154+4
.LVL191:
	bl	memset
.LVL192:
	.loc 1 1019 0
	ldr	r3, .L154+8
	.loc 1 1021 0
	ldr	r0, [r4]
	.loc 1 1019 0
	str	r6, [r3]
	.loc 1 1021 0
	cbz	r0, .L144
	.loc 1 1022 0
	bl	udp_remove
.LVL193:
	.loc 1 1023 0
	movs	r3, #0
	str	r3, [r4]
.L144:
	.loc 1 1026 0
	bl	udp_new
.LVL194:
	str	r0, [r4]
	.loc 1 1027 0
	cbnz	r0, .L145
	.loc 1 1127 0
	pop	{r3, r4, r5, r6, r7, r8, r9, lr}
	.cfi_remember_state
	.cfi_restore 14
	.cfi_restore 9
	.cfi_restore 8
	.cfi_restore 7
	.cfi_restore 6
	.cfi_restore 5
	.cfi_restore 4
	.cfi_restore 3
	.cfi_def_cfa_offset 0
.LVL195:
	.loc 1 1028 0
	ldr	r0, .L154+12
	b	__wrap_printf
.LVL196:
.L145:
	.cfi_restore_state
	.loc 1 1032 0
	mov	r2, #-1
	ldr	r3, .L154+16
	.loc 1 1040 0
	ldr	r1, .L154+20
	.loc 1 1032 0
	str	r2, [r3]
	.loc 1 1040 0
	ldr	r2, [r6, #8]	@ unaligned
	.loc 1 1043 0
	ldr	r8, .L154+72
	.loc 1 1040 0
	str	r2, [r1]
	.loc 1 1043 0
	ldr	r1, [r6, #12]	@ unaligned
	.loc 1 1038 0
	ldr	r3, [r6, #4]	@ unaligned
	ldr	r7, .L154+24
	.loc 1 1049 0
	ldr	r5, .L154+28
	.loc 1 1043 0
	str	r1, [r8]
	.loc 1 1048 0
	ldr	r1, .L154+32
	and	r0, r3, r2
	.loc 1 1038 0
	str	r3, [r7]
	.loc 1 1049 0
	orn	r3, r3, r2
	str	r3, [r5]
	.loc 1 1048 0
	str	r0, [r1]
	.loc 1 1051 0
	bl	lwip_htonl
.LVL197:
	adds	r0, r0, #1
	bl	lwip_htonl
.LVL198:
	ldr	r9, .L154+76
	str	r0, [r9]
	.loc 1 1052 0
	ldr	r0, [r5]
	bl	lwip_htonl
.LVL199:
	subs	r0, r0, #1
	bl	lwip_htonl
.LVL200:
	.loc 1 1053 0
	bl	lwip_htonl
.LVL201:
	mov	r5, r0
	ldr	r0, [r9]
	bl	lwip_htonl
.LVL202:
	adds	r5, r5, #1
	subs	r5, r5, r0
	ldr	r3, .L154+36
	uxtb	r5, r5
	strb	r5, [r3]
	.loc 1 1086 0
	ldr	r5, .L154+40
	ldr	r0, [r5]
	cbz	r0, .L146
	.loc 1 1087 0
	bl	vQueueDelete
.LVL203:
	.loc 1 1088 0
	movs	r3, #0
	str	r3, [r5]
.L146:
	.loc 1 1090 0
	movs	r0, #1
	bl	xQueueCreateMutex
.LVL204:
	.loc 1 1093 0
	mov	r2, #640
	movs	r1, #0
	.loc 1 1090 0
	str	r0, [r5]
	.loc 1 1093 0
	ldr	r0, .L154+4
	bl	memset
.LVL205:
	.loc 1 1095 0
	ldrb	r0, [r7, #3]	@ zero_extendqisi2
	bl	mark_ip_in_table
.LVL206:
	.loc 1 1096 0
	ldrb	r0, [r8, #3]	@ zero_extendqisi2
	bl	mark_ip_in_table
.LVL207:
	.loc 1 1108 0
	ldr	r0, .L154+44
	ldr	r3, [r0]
	cbnz	r3, .L147
	.loc 1 1108 0 is_stmt 0 discriminator 1
	ldr	r1, .L154+48
	ldr	r3, [r1]
	cbnz	r3, .L147
	.loc 1 1115 0 is_stmt 1
	movs	r3, #100
	.loc 1 1113 0
	ldr	r5, [r7]
	ldr	r2, .L154+52
.LBB145:
.LBB146:
.LBB147:
	.loc 1 924 0
	movs	r7, #1
.LBE147:
.LBE146:
.LBE145:
	.loc 1 1113 0
	str	r5, [r2]
.LVL208:
	.loc 1 1115 0
	strb	r3, [r2, #3]
	.loc 1 1116 0
	ldr	r3, .L154+56
.LBB152:
.LBB150:
.LBB148:
	.loc 1 926 0
	ldr	r2, [r2]
.LBE148:
.LBE150:
.LBE152:
	.loc 1 1116 0
	str	r5, [r3]
.LVL209:
	.loc 1 1118 0
	movs	r5, #200
	strb	r5, [r3, #3]
.LVL210:
.LBB153:
.LBB151:
.LBB149:
	.loc 1 930 0
	ldr	r3, [r3]
	.loc 1 924 0
	ldr	r5, .L154+60
	.loc 1 926 0
	str	r2, [r0]
	.loc 1 924 0
	str	r7, [r5]
	.loc 1 930 0
	str	r3, [r1]
.LVL211:
.L147:
.LBE149:
.LBE151:
.LBE153:
	.loc 1 1121 0
	movs	r2, #67
	ldr	r1, .L154+64
	ldr	r0, [r4]
	bl	udp_bind
.LVL212:
	.loc 1 1122 0
	ldr	r0, [r4]
	movs	r2, #0
	ldr	r1, .L154+68
	bl	udp_recv
.LVL213:
	.loc 1 1125 0
	mov	r0, r6
	.loc 1 1127 0
	pop	{r3, r4, r5, r6, r7, r8, r9, lr}
	.cfi_restore 14
	.cfi_restore 9
	.cfi_restore 8
	.cfi_restore 7
	.cfi_restore 6
	.cfi_restore 5
	.cfi_restore 4
	.cfi_restore 3
	.cfi_def_cfa_offset 0
.LVL214:
	.loc 1 1125 0
	b	dns_server_init
.LVL215:
.L155:
	.align	2
.L154:
	.word	.LANCHOR21
	.word	.LANCHOR8
	.word	.LANCHOR22
	.word	.LC8
	.word	.LANCHOR23
	.word	.LANCHOR1
	.word	.LANCHOR2
	.word	.LANCHOR4
	.word	.LANCHOR11
	.word	.LANCHOR28
	.word	.LANCHOR7
	.word	.LANCHOR18
	.word	.LANCHOR19
	.word	.LANCHOR29
	.word	.LANCHOR30
	.word	.LANCHOR17
	.word	ip_addr_any
	.word	dhcps_receive_udp_packet_handler
	.word	.LANCHOR26
	.word	.LANCHOR27
	.cfi_endproc
.LFE167:
	.size	dhcps_init, .-dhcps_init
	.section	.text.dhcps_deinit,"ax",%progbits
	.align	1
	.global	dhcps_deinit
	.syntax unified
	.thumb
	.thumb_func
	.fpu softvfp
	.type	dhcps_deinit, %function
dhcps_deinit:
.LFB168:
	.loc 1 1130 0
	.cfi_startproc
	@ args = 0, pretend = 0, frame = 0
	@ frame_needed = 0, uses_anonymous_args = 0
	push	{r4, lr}
	.cfi_def_cfa_offset 8
	.cfi_offset 4, -8
	.cfi_offset 14, -4
	.loc 1 1131 0
	ldr	r4, .L165
	ldr	r0, [r4]
	cbz	r0, .L157
	.loc 1 1132 0
	bl	udp_remove
.LVL216:
	.loc 1 1133 0
	movs	r3, #0
	str	r3, [r4]
.L157:
	.loc 1 1135 0
	ldr	r4, .L165+4
	ldr	r0, [r4]
	cbz	r0, .L158
	.loc 1 1136 0
	bl	vQueueDelete
.LVL217:
	.loc 1 1137 0
	movs	r3, #0
	str	r3, [r4]
.L158:
	.loc 1 1141 0
	pop	{r4, lr}
	.cfi_restore 14
	.cfi_restore 4
	.cfi_def_cfa_offset 0
	.loc 1 1140 0
	b	dns_server_deinit
.LVL218:
.L166:
	.align	2
.L165:
	.word	.LANCHOR21
	.word	.LANCHOR7
	.cfi_endproc
.LFE168:
	.size	dhcps_deinit, .-dhcps_deinit
	.section	.bss.client_addr,"aw",%nobits
	.set	.LANCHOR13,. + 0
	.type	client_addr, %object
	.size	client_addr, 6
client_addr:
	.space	6
	.section	.bss.client_request_ip,"aw",%nobits
	.align	2
	.set	.LANCHOR12,. + 0
	.type	client_request_ip, %object
	.size	client_request_ip, 4
client_request_ip:
	.space	4
	.section	.bss.dhcp_message_repository,"aw",%nobits
	.align	2
	.set	.LANCHOR15,. + 0
	.type	dhcp_message_repository, %object
	.size	dhcp_message_repository, 4
dhcp_message_repository:
	.space	4
	.section	.bss.dhcp_message_total_options_lenth,"aw",%nobits
	.align	2
	.set	.LANCHOR0,. + 0
	.type	dhcp_message_total_options_lenth, %object
	.size	dhcp_message_total_options_lenth, 4
dhcp_message_total_options_lenth:
	.space	4
	.section	.bss.dhcps_addr_pool_end,"aw",%nobits
	.align	2
	.set	.LANCHOR19,. + 0
	.type	dhcps_addr_pool_end, %object
	.size	dhcps_addr_pool_end, 4
dhcps_addr_pool_end:
	.space	4
	.section	.bss.dhcps_addr_pool_set,"aw",%nobits
	.align	2
	.set	.LANCHOR17,. + 0
	.type	dhcps_addr_pool_set, %object
	.size	dhcps_addr_pool_set, 4
dhcps_addr_pool_set:
	.space	4
	.section	.bss.dhcps_addr_pool_start,"aw",%nobits
	.align	2
	.set	.LANCHOR18,. + 0
	.type	dhcps_addr_pool_start, %object
	.size	dhcps_addr_pool_start, 4
dhcps_addr_pool_start:
	.space	4
	.section	.bss.dhcps_allocated_client_address,"aw",%nobits
	.align	2
	.set	.LANCHOR9,. + 0
	.type	dhcps_allocated_client_address, %object
	.size	dhcps_allocated_client_address, 4
dhcps_allocated_client_address:
	.space	4
	.section	.bss.dhcps_allocated_client_ethaddr,"aw",%nobits
	.set	.LANCHOR20,. + 0
	.type	dhcps_allocated_client_ethaddr, %object
	.size	dhcps_allocated_client_ethaddr, 6
dhcps_allocated_client_ethaddr:
	.space	6
	.section	.bss.dhcps_ip_table_semaphore,"aw",%nobits
	.align	2
	.set	.LANCHOR7,. + 0
	.type	dhcps_ip_table_semaphore, %object
	.size	dhcps_ip_table_semaphore, 4
dhcps_ip_table_semaphore:
	.space	4
	.section	.bss.dhcps_local_address,"aw",%nobits
	.align	2
	.set	.LANCHOR2,. + 0
	.type	dhcps_local_address, %object
	.size	dhcps_local_address, 4
dhcps_local_address:
	.space	4
	.section	.bss.dhcps_local_gateway,"aw",%nobits
	.align	2
	.set	.LANCHOR26,. + 0
	.type	dhcps_local_gateway, %object
	.size	dhcps_local_gateway, 4
dhcps_local_gateway:
	.space	4
	.section	.bss.dhcps_local_mask,"aw",%nobits
	.align	2
	.set	.LANCHOR1,. + 0
	.type	dhcps_local_mask, %object
	.size	dhcps_local_mask, 4
dhcps_local_mask:
	.space	4
	.section	.bss.dhcps_netif,"aw",%nobits
	.align	2
	.set	.LANCHOR22,. + 0
	.type	dhcps_netif, %object
	.size	dhcps_netif, 4
dhcps_netif:
	.space	4
	.section	.bss.dhcps_network_id,"aw",%nobits
	.align	2
	.set	.LANCHOR11,. + 0
	.type	dhcps_network_id, %object
	.size	dhcps_network_id, 4
dhcps_network_id:
	.space	4
	.section	.bss.dhcps_num_of_available_ips,"aw",%nobits
	.set	.LANCHOR28,. + 0
	.type	dhcps_num_of_available_ips, %object
	.size	dhcps_num_of_available_ips, 1
dhcps_num_of_available_ips:
	.space	1
	.section	.bss.dhcps_owned_first_ip,"aw",%nobits
	.align	2
	.set	.LANCHOR27,. + 0
	.type	dhcps_owned_first_ip, %object
	.size	dhcps_owned_first_ip, 4
dhcps_owned_first_ip:
	.space	4
	.section	.bss.dhcps_pcb,"aw",%nobits
	.align	2
	.set	.LANCHOR21,. + 0
	.type	dhcps_pcb, %object
	.size	dhcps_pcb, 4
dhcps_pcb:
	.space	4
	.section	.bss.dhcps_pool_end,"aw",%nobits
	.align	2
	.set	.LANCHOR30,. + 0
	.type	dhcps_pool_end, %object
	.size	dhcps_pool_end, 4
dhcps_pool_end:
	.space	4
	.section	.bss.dhcps_pool_start,"aw",%nobits
	.align	2
	.set	.LANCHOR29,. + 0
	.type	dhcps_pool_start, %object
	.size	dhcps_pool_start, 4
dhcps_pool_start:
	.space	4
	.section	.bss.dhcps_send_broadcast_address,"aw",%nobits
	.align	2
	.set	.LANCHOR23,. + 0
	.type	dhcps_send_broadcast_address, %object
	.size	dhcps_send_broadcast_address, 4
dhcps_send_broadcast_address:
	.space	4
	.section	.bss.dhcps_subnet_broadcast,"aw",%nobits
	.align	2
	.set	.LANCHOR4,. + 0
	.type	dhcps_subnet_broadcast, %object
	.size	dhcps_subnet_broadcast, 4
dhcps_subnet_broadcast:
	.space	4
	.section	.bss.dns_server_pcb,"aw",%nobits
	.align	2
	.set	.LANCHOR25,. + 0
	.type	dns_server_pcb, %object
	.size	dns_server_pcb, 4
dns_server_pcb:
	.space	4
	.section	.bss.ip_table,"aw",%nobits
	.align	2
	.set	.LANCHOR8,. + 0
	.type	ip_table, %object
	.size	ip_table, 640
ip_table:
	.space	640
	.section	.data.dhcp_server_state_machine,"aw",%progbits
	.set	.LANCHOR14,. + 0
	.type	dhcp_server_state_machine, %object
	.size	dhcp_server_state_machine, 1
dhcp_server_state_machine:
	.byte	5
	.section	.rodata.__func__.7963,"a",%progbits
	.set	.LANCHOR6,. + 0
	.type	__func__.7963, %object
	.size	__func__.7963, 18
__func__.7963:
	.ascii	"add_offer_options\000"
	.section	.rodata.__func__.7972,"a",%progbits
	.set	.LANCHOR16,. + 0
	.type	__func__.7972, %object
	.size	__func__.7972, 17
__func__.7972:
	.ascii	"dhcps_send_offer\000"
	.section	.rodata.__func__.7984,"a",%progbits
	.set	.LANCHOR24,. + 0
	.type	__func__.7984, %object
	.size	__func__.7984, 15
__func__.7984:
	.ascii	"dhcps_send_ack\000"
	.section	.rodata.add_offer_options.str1.1,"aMS",%progbits,1
.LC0:
	.ascii	"\015\012[%s] error: add options fail !!\000"
	.section	.rodata.check_client_direct_request_ip.constprop.2.str1.1,"aMS",%progbits,1
.LC2:
	.ascii	"ip_table[%d] = %x,%x,%x,%x,%x,%x\012\000"
	.section	.rodata.dhcp_magic_cookie,"a",%progbits
	.set	.LANCHOR10,. + 0
	.type	dhcp_magic_cookie, %object
	.size	dhcp_magic_cookie, 4
dhcp_magic_cookie:
	.byte	99
	.byte	-126
	.byte	83
	.byte	99
	.section	.rodata.dhcp_option_interface_mtu,"a",%progbits
	.set	.LANCHOR5,. + 0
	.type	dhcp_option_interface_mtu, %object
	.size	dhcp_option_interface_mtu, 2
dhcp_option_interface_mtu:
	.byte	5
	.byte	-36
	.section	.rodata.dhcp_option_lease_time,"a",%progbits
	.set	.LANCHOR3,. + 0
	.type	dhcp_option_lease_time, %object
	.size	dhcp_option_lease_time, 4
dhcp_option_lease_time:
	.byte	0
	.byte	0
	.byte	28
	.byte	32
	.section	.rodata.dhcps_handle_state_machine_change.str1.1,"aMS",%progbits,1
.LC3:
	.ascii	"get message DHCP_MESSAGE_TYPE_RELEASE\012\000"
	.section	.rodata.dhcps_receive_udp_packet_handler.str1.1,"aMS",%progbits,1
.LC4:
	.ascii	"\015\012[%s] error:  pbuf alloc fail !\000"
.LC5:
	.ascii	"\015\012[%s] error:  pbuf copy fail !\000"
.LC6:
	.ascii	"\015\012 No useable ip!!!!\015\012\000"
.LC7:
	.ascii	"\012\015[%d]DHCP assign ip = %d.%d.%d.%d\012\000"
	.section	.rodata.dns_server_init.str1.1,"aMS",%progbits,1
.LC8:
	.ascii	"\012\015 Error!!!upd_new error \012\015\000"
	.section	.rodata.mark_ip_in_table.str1.1,"aMS",%progbits,1
.LC1:
	.ascii	"\015\012 Request ip over the range(1-128) \015\012\000"
	.text
.Letext0:
	.file 2 "/home/ls/samba_share/sdk-ameba-v7.1d/tools/arm-none-eabi-gcc/asdk/linux/newlib/arm-none-eabi/include/machine/_default_types.h"
	.file 3 "/home/ls/samba_share/sdk-ameba-v7.1d/tools/arm-none-eabi-gcc/asdk/linux/newlib/lib/gcc/arm-none-eabi/6.5.0/include/stddef.h"
	.file 4 "/home/ls/samba_share/sdk-ameba-v7.1d/tools/arm-none-eabi-gcc/asdk/linux/newlib/arm-none-eabi/include/sys/lock.h"
	.file 5 "/home/ls/samba_share/sdk-ameba-v7.1d/tools/arm-none-eabi-gcc/asdk/linux/newlib/arm-none-eabi/include/sys/_types.h"
	.file 6 "/home/ls/samba_share/sdk-ameba-v7.1d/tools/arm-none-eabi-gcc/asdk/linux/newlib/arm-none-eabi/include/sys/reent.h"
	.file 7 "<built-in>"
	.file 8 "/home/ls/samba_share/sdk-ameba-v7.1d/tools/arm-none-eabi-gcc/asdk/linux/newlib/arm-none-eabi/include/sys/_stdint.h"
	.file 9 "/home/ls/samba_share/sdk-ameba-v7.1d/tools/arm-none-eabi-gcc/asdk/linux/newlib/arm-none-eabi/include/time.h"
	.file 10 "../../../component/common/network/lwip/lwip_v2.0.2/port/realtek/arch/cc.h"
	.file 11 "/home/ls/samba_share/sdk-ameba-v7.1d/tools/arm-none-eabi-gcc/asdk/linux/newlib/lib/gcc/arm-none-eabi/6.5.0/include/stdarg.h"
	.file 12 "/home/ls/samba_share/sdk-ameba-v7.1d/tools/arm-none-eabi-gcc/asdk/linux/newlib/arm-none-eabi/include/stdio.h"
	.file 13 "/home/ls/samba_share/sdk-ameba-v7.1d/tools/arm-none-eabi-gcc/asdk/linux/newlib/arm-none-eabi/include/stdlib.h"
	.file 14 "../../../component/soc/realtek/8710c/cmsis/rtl8710c/include/basic_types.h"
	.file 15 "../../../component/common/network/lwip/lwip_v2.0.2/src/include/lwip/err.h"
	.file 16 "../../../component/common/network/lwip/lwip_v2.0.2/src/include/lwip/ip4_addr.h"
	.file 17 "../../../component/common/network/lwip/lwip_v2.0.2/src/include/lwip/ip_addr.h"
	.file 18 "../../../component/common/network/lwip/lwip_v2.0.2/src/include/lwip/pbuf.h"
	.file 19 "../../../component/common/network/lwip/lwip_v2.0.2/src/include/lwip/memp.h"
	.file 20 "../../../component/common/network/lwip/lwip_v2.0.2/src/include/lwip/priv/memp_priv.h"
	.file 21 "../../../component/common/network/lwip/lwip_v2.0.2/src/include/lwip/netif.h"
	.file 22 "../../../component/common/network/lwip/lwip_v2.0.2/src/include/lwip/prot/ip4.h"
	.file 23 "../../../component/common/network/lwip/lwip_v2.0.2/src/include/lwip/ip.h"
	.file 24 "../../../component/common/network/lwip/lwip_v2.0.2/src/include/lwip/udp.h"
	.file 25 "../inc/FreeRTOSConfig.h"
	.file 26 "../../../component/soc/realtek/8710c/app/rtl_printf/include/log_buf.h"
	.file 27 "../../../component/soc/realtek/8710c/app/stdio_port/stdio_port.h"
	.file 28 "../../../component/soc/realtek/8710c/app/rtl_printf/include/printf_entry.h"
	.file 29 "../../../component/soc/realtek/8710c/app/rtl_printf/include/rt_printf.h"
	.file 30 "../../../component/soc/realtek/8710c/misc/utilities/include/utility.h"
	.file 31 "../../../component/os/freertos/freertos_v10.0.1/Source/portable/GCC/ARM_RTL8710C/portmacro.h"
	.file 32 "../../../component/os/freertos/freertos_v10.0.1/Source/include/queue.h"
	.file 33 "../../../component/os/freertos/freertos_v10.0.1/Source/include/semphr.h"
	.file 34 "../../../component/common/network/lwip/lwip_v2.0.2/src/include/lwip/prot/ethernet.h"
	.file 35 "../../../component/common/network/lwip/lwip_v2.0.2/src/include/netif/ethernet.h"
	.file 36 "../../../component/common/network/dhcp/dhcps.h"
	.file 37 "../../../component/common/network/lwip/lwip_v2.0.2/src/include/lwip/timeouts.h"
	.file 38 "../../../component/common/api/platform/platform_stdlib_rtl8710c.h"
	.file 39 "../../../component/common/network/lwip/lwip_v2.0.2/src/include/lwip/def.h"
	.file 40 "/home/ls/samba_share/sdk-ameba-v7.1d/tools/arm-none-eabi-gcc/asdk/linux/newlib/arm-none-eabi/include/string.h"
	.file 41 "../../../component/os/freertos/freertos_v10.0.1/Source/include/task.h"
	.file 42 "../../../component/common/network/lwip/lwip_v2.0.2/src/include/lwip/etharp.h"