	.arch armv8-m.main
	.arch_extension dsp
	.eabi_attribute 20, 1
	.eabi_attribute 21, 1
	.eabi_attribute 23, 3
	.eabi_attribute 24, 1
	.eabi_attribute 25, 1
	.eabi_attribute 26, 1
	.eabi_attribute 30, 4
	.eabi_attribute 34, 1
	.eabi_attribute 18, 4
	.file	"diskio.c"
	.text
.Ltext0:
	.cfi_sections	.debug_frame
	.section	.text.disk_status,"ax",%progbits
	.align	1
	.global	disk_status
	.syntax unified
	.thumb
	.thumb_func
	.fpu softvfp
	.type	disk_status, %function
disk_status:
.LFB0:
	.file 1 "../../../component/common/file_system/fatfs/r0.10c/src/diskio.c"
	.loc 1 19 0
	.cfi_startproc
	@ args = 0, pretend = 0, frame = 0
	@ frame_needed = 0, uses_anonymous_args = 0
	@ link register save eliminated.
.LVL0:
	.loc 1 22 0
	ldr	r3, .L6
	ldr	r2, [r3, #4]
	cbz	r2, .L2
	.loc 1 22 0 is_stmt 0 discriminator 1
	cmp	r2, r0
	bls	.L2
	.loc 1 25 0 is_stmt 1
	ldr	r3, [r3, r0, lsl #2]
	ldr	r3, [r3, #8]
	bx	r3
.LVL1:
.L2:
	.loc 1 28 0
	movs	r0, #2
.LVL2:
	bx	lr
.L7:
	.align	2
.L6:
	.word	disk
	.cfi_endproc
.LFE0:
	.size	disk_status, .-disk_status
	.section	.text.disk_initialize,"ax",%progbits
	.align	1
	.global	disk_initialize
	.syntax unified
	.thumb
	.thumb_func
	.fpu softvfp
	.type	disk_initialize, %function
disk_initialize:
.LFB1:
	.loc 1 39 0
	.cfi_startproc
	@ args = 0, pretend = 0, frame = 0
	@ frame_needed = 0, uses_anonymous_args = 0
	@ link register save eliminated.
.LVL3:
	.loc 1 43 0
	ldr	r3, .L13
	ldr	r2, [r3, #4]
	cbz	r2, .L9
	.loc 1 43 0 is_stmt 0 discriminator 1
	cmp	r2, r0
	bls	.L9
	.loc 1 45 0 is_stmt 1
	ldr	r3, [r3, r0, lsl #2]
	ldr	r3, [r3]
	bx	r3
.LVL4:
.L9:
	.loc 1 47 0
	movs	r0, #1
.LVL5:
	bx	lr
.L14:
	.align	2
.L13:
	.word	disk
	.cfi_endproc
.LFE1:
	.size	disk_initialize, .-disk_initialize
	.section	.text.disk_deinitialize,"ax",%progbits
	.align	1
	.global	disk_deinitialize
	.syntax unified
	.thumb
	.thumb_func
	.fpu softvfp
	.type	disk_deinitialize, %function
disk_deinitialize:
.LFB2:
	.loc 1 58 0
	.cfi_startproc
	@ args = 0, pretend = 0, frame = 0
	@ frame_needed = 0, uses_anonymous_args = 0
	@ link register save eliminated.
.LVL6:
	.loc 1 61 0
	ldr	r3, .L20
	ldr	r2, [r3, #4]
	cbz	r2, .L16
	.loc 1 61 0 is_stmt 0 discriminator 1
	cmp	r2, r0
	bls	.L16
	.loc 1 63 0 is_stmt 1
	ldr	r3, [r3, r0, lsl #2]
	ldr	r3, [r3, #4]
	bx	r3
.LVL7:
.L16:
	.loc 1 65 0
	movs	r0, #1
.LVL8:
	bx	lr
.L21:
	.align	2
.L20:
	.word	disk
	.cfi_endproc
.LFE2:
	.size	disk_deinitialize, .-disk_deinitialize
	.section	.text.disk_read,"ax",%progbits
	.align	1
	.global	disk_read
	.syntax unified
	.thumb
	.thumb_func
	.fpu softvfp
	.type	disk_read, %function
disk_read:
.LFB3:
	.loc 1 79 0
	.cfi_startproc
	@ args = 0, pretend = 0, frame = 0
	@ frame_needed = 0, uses_anonymous_args = 0
	@ link register save eliminated.
.LVL9:
	push	{r4, r5}
	.cfi_def_cfa_offset 8
	.cfi_offset 4, -8
	.cfi_offset 5, -4
	.loc 1 79 0
	mov	r4, r0
	mov	r0, r1
.LVL10:
	mov	r1, r2
.LVL11:
	.loc 1 82 0
	ldr	r2, .L29
.LVL12:
	ldr	r5, [r2, #4]
	cmp	r4, r5
	bcs	.L23
	.loc 1 82 0 is_stmt 0 discriminator 1
	cbz	r0, .L23
	.loc 1 82 0 discriminator 2
	cbz	r3, .L23
	.loc 1 88 0 is_stmt 1
	ldr	r2, [r2, r4, lsl #2]
	ldr	r4, [r2, #12]
	mov	r2, r3
	mov	r3, r4
.LVL13:
	.loc 1 91 0
	pop	{r4, r5}
	.cfi_remember_state
	.cfi_restore 5
	.cfi_restore 4
	.cfi_def_cfa_offset 0
	.loc 1 88 0
	bx	r3
.LVL14:
.L23:
	.cfi_restore_state
	.loc 1 91 0
	movs	r0, #4
.LVL15:
	pop	{r4, r5}
	.cfi_restore 5
	.cfi_restore 4
	.cfi_def_cfa_offset 0
	bx	lr
.L30:
	.align	2
.L29:
	.word	disk
	.cfi_endproc
.LFE3:
	.size	disk_read, .-disk_read
	.section	.text.disk_write,"ax",%progbits
	.align	1
	.global	disk_write
	.syntax unified
	.thumb
	.thumb_func
	.fpu softvfp
	.type	disk_write, %function
disk_write:
.LFB4:
	.loc 1 105 0
	.cfi_startproc
	@ args = 0, pretend = 0, frame = 0
	@ frame_needed = 0, uses_anonymous_args = 0
	@ link register save eliminated.
.LVL16:
	push	{r4, r5}
	.cfi_def_cfa_offset 8
	.cfi_offset 4, -8
	.cfi_offset 5, -4
	.loc 1 105 0
	mov	r4, r0
	mov	r0, r1
.LVL17:
	mov	r1, r2
.LVL18:
	.loc 1 108 0
	ldr	r2, .L38
.LVL19:
	ldr	r5, [r2, #4]
	cmp	r4, r5
	bcs	.L32
	.loc 1 108 0 is_stmt 0 discriminator 1
	cbz	r0, .L32
	.loc 1 108 0 discriminator 2
	cbz	r3, .L32
	.loc 1 114 0 is_stmt 1
	ldr	r2, [r2, r4, lsl #2]
	ldr	r4, [r2, #16]
	mov	r2, r3
	mov	r3, r4
.LVL20:
	.loc 1 117 0
	pop	{r4, r5}
	.cfi_remember_state
	.cfi_restore 5
	.cfi_restore 4
	.cfi_def_cfa_offset 0
	.loc 1 114 0
	bx	r3
.LVL21:
.L32:
	.cfi_restore_state
	.loc 1 117 0
	movs	r0, #4
.LVL22:
	pop	{r4, r5}
	.cfi_restore 5
	.cfi_restore 4
	.cfi_def_cfa_offset 0
	bx	lr
.L39:
	.align	2
.L38:
	.word	disk
	.cfi_endproc
.LFE4:
	.size	disk_write, .-disk_write
	.section	.text.disk_ioctl,"ax",%progbits
	.align	1
	.global	disk_ioctl
	.syntax unified
	.thumb
	.thumb_func
	.fpu softvfp
	.type	disk_ioctl, %function
disk_ioctl:
.LFB5:
	.loc 1 131 0
	.cfi_startproc
	@ args = 0, pretend = 0, frame = 0
	@ frame_needed = 0, uses_anonymous_args = 0
	@ link register save eliminated.
.LVL23:
	.loc 1 134 0
	ldr	r3, .L42
	.loc 1 131 0
	push	{r4}
	.cfi_def_cfa_offset 4
	.cfi_offset 4, -4
	.loc 1 131 0
	mov	r4, r1
	.loc 1 134 0
	ldr	r1, [r3, #4]
.LVL24:
	cmp	r0, r1
	bcs	.L41
	.loc 1 140 0
	ldr	r3, [r3, r0, lsl #2]
	mov	r1, r2
	mov	r0, r4
.LVL25:
	ldr	r3, [r3, #20]
	.loc 1 143 0
	pop	{r4}
	.cfi_remember_state
	.cfi_restore 4
	.cfi_def_cfa_offset 0
	.loc 1 140 0
	bx	r3
.LVL26:
.L41:
	.cfi_restore_state
	.loc 1 143 0
	movs	r0, #4
.LVL27:
	pop	{r4}
	.cfi_restore 4
	.cfi_def_cfa_offset 0
	bx	lr
.L43:
	.align	2
.L42:
	.word	disk
	.cfi_endproc
.LFE5:
	.size	disk_ioctl, .-disk_ioctl
	.section	.text.get_fattime,"ax",%progbits
	.align	1
	.global	get_fattime
	.syntax unified
	.thumb
	.thumb_func
	.fpu softvfp
	.type	get_fattime, %function
get_fattime:
.LFB6:
	.loc 1 147 0
	.cfi_startproc
	@ args = 0, pretend = 0, frame = 0
	@ frame_needed = 0, uses_anonymous_args = 0
	@ link register save eliminated.
.LVL28:
	.loc 1 158 0
	ldr	r0, .L45
	bx	lr
.L46:
	.align	2
.L45:
	.word	1212284928
	.cfi_endproc
.LFE6:
	.size	get_fattime, .-get_fattime
	.text
.Letext0:
	.file 2 "/home/ls/8720cf/sdk-ameba-v7.1d/tools/arm-none-eabi-gcc/asdk/linux/newlib/arm-none-eabi/include/sys/lock.h"
	.file 3 "/home/ls/8720cf/sdk-ameba-v7.1d/tools/arm-none-eabi-gcc/asdk/linux/newlib/arm-none-eabi/include/sys/_types.h"
	.file 4 "/home/ls/8720cf/sdk-ameba-v7.1d/tools/arm-none-eabi-gcc/asdk/linux/newlib/lib/gcc/arm-none-eabi/6.5.0/include/stddef.h"
	.file 5 "/home/ls/8720cf/sdk-ameba-v7.1d/tools/arm-none-eabi-gcc/asdk/linux/newlib/arm-none-eabi/include/sys/reent.h"
	.file 6 "/home/ls/8720cf/sdk-ameba-v7.1d/tools/arm-none-eabi-gcc/asdk/linux/newlib/arm-none-eabi/include/time.h"
	.file 7 "../../../component/common/file_system/fatfs/r0.10c/include/integer.h"
	.file 8 "../../../component/common/file_system/fatfs/r0.10c/include/diskio.h"
	.file 9 "../../../component/common/file_system/fatfs/fatfs_ext/inc/ff_driver.h"