	.arch armv8-m.main
	.arch_extension dsp
	.eabi_attribute 20, 1
	.eabi_attribute 21, 1
	.eabi_attribute 23, 3
	.eabi_attribute 24, 1
	.eabi_attribute 25, 1
	.eabi_attribute 26, 1
	.eabi_attribute 30, 4
	.eabi_attribute 34, 1
	.eabi_attribute 18, 4
	.file	"dns.c"
	.text
.Ltext0:
	.cfi_sections	.debug_frame
	.section	.text.dns_call_found,"ax",%progbits
	.align	1
	.syntax unified
	.thumb
	.thumb_func
	.fpu softvfp
	.type	dns_call_found, %function
dns_call_found:
.LFB11:
	.file 1 "../../../component/common/network/lwip/lwip_v2.0.2/src/core/dns.c"
	.loc 1 924 0
	.cfi_startproc
	@ args = 0, pretend = 0, frame = 0
	@ frame_needed = 0, uses_anonymous_args = 0
.LVL0:
	push	{r4, r5, r6, r7, r8, lr}
	.cfi_def_cfa_offset 24
	.cfi_offset 4, -24
	.cfi_offset 5, -20
	.cfi_offset 6, -16
	.cfi_offset 7, -12
	.cfi_offset 8, -8
	.cfi_offset 14, -4
	.loc 1 945 0
	mov	r6, #272
	.loc 1 924 0
	mov	r4, r0
	mov	r8, r1
	movs	r5, #0
	.loc 1 945 0
	muls	r6, r0, r6
	adds	r6, r6, #16
.LVL1:
.L3:
	.loc 1 944 0
	ldr	r7, .L13
	ldr	r3, [r5, r7]
	cbz	r3, .L2
	adds	r2, r7, r5
	.loc 1 944 0 is_stmt 0 discriminator 1
	ldrb	r1, [r2, #8]	@ zero_extendqisi2
	cmp	r1, r4
	bne	.L2
	.loc 1 945 0 is_stmt 1
	ldr	r0, .L13+4
	ldr	r2, [r2, #4]
	mov	r1, r8
	add	r0, r0, r6
	blx	r3
.LVL2:
	.loc 1 947 0
	movs	r3, #0
	str	r3, [r5, r7]
.L2:
	adds	r5, r5, #12
	.loc 1 943 0 discriminator 2
	cmp	r5, #48
	bne	.L3
	.loc 1 963 0
	mov	r1, #272
	ldr	r3, .L13+4
	.loc 1 943 0
	movs	r2, #0
	mov	r0, r3
	.loc 1 963 0
	mla	r1, r1, r4, r3
.L6:
.LVL3:
	.loc 1 959 0
	uxtb	r5, r2
	cmp	r4, r5
	beq	.L4
	.loc 1 962 0
	ldrb	r5, [r3, #10]	@ zero_extendqisi2
	cmp	r5, #2
	bne	.L4
	.loc 1 963 0
	ldrb	r7, [r3, #15]	@ zero_extendqisi2
	ldrb	r6, [r1, #15]	@ zero_extendqisi2
	cmp	r7, r6
	bne	.L4
	.loc 1 965 0
	movs	r3, #4
	strb	r3, [r1, #15]
.LVL4:
.L5:
	.loc 1 970 0
	mov	r3, #272
	mla	r4, r3, r4, r0
	ldrb	r3, [r4, #15]	@ zero_extendqisi2
	cmp	r3, #3
	bhi	.L1
	.loc 1 972 0
	ldr	r5, .L13+8
	ldr	r0, [r5, r3, lsl #2]
	bl	udp_remove
.LVL5:
	.loc 1 973 0
	movs	r2, #0
	ldrb	r3, [r4, #15]	@ zero_extendqisi2
	str	r2, [r5, r3, lsl #2]
	.loc 1 974 0
	movs	r3, #4
	strb	r3, [r4, #15]
.L1:
	pop	{r4, r5, r6, r7, r8, pc}
.LVL6:
.L4:
	adds	r2, r2, #1
.LVL7:
	.loc 1 958 0 discriminator 2
	cmp	r2, #4
	add	r3, r3, #272
	bne	.L6
	b	.L5
.L14:
	.align	2
.L13:
	.word	.LANCHOR0
	.word	.LANCHOR1
	.word	.LANCHOR2
	.cfi_endproc
.LFE11:
	.size	dns_call_found, .-dns_call_found
	.section	.text.dns_send,"ax",%progbits
	.align	1
	.syntax unified
	.thumb
	.thumb_func
	.fpu softvfp
	.type	dns_send, %function
dns_send:
.LFB8:
	.loc 1 736 0
	.cfi_startproc
	@ args = 0, pretend = 0, frame = 24
	@ frame_needed = 0, uses_anonymous_args = 0
.LVL8:
	push	{r4, r5, r6, r7, r8, r9, r10, fp, lr}
	.cfi_def_cfa_offset 36
	.cfi_offset 4, -36
	.cfi_offset 5, -32
	.cfi_offset 6, -28
	.cfi_offset 7, -24
	.cfi_offset 8, -20
	.cfi_offset 9, -16
	.cfi_offset 10, -12
	.cfi_offset 11, -8
	.cfi_offset 14, -4
	.loc 1 749 0
	mov	r4, #272
	muls	r4, r0, r4
	ldr	r3, .L27
	.loc 1 750 0
	ldr	r2, .L27+4
	.loc 1 749 0
	adds	r7, r3, r4
	.loc 1 750 0
	ldrb	r1, [r7, #11]	@ zero_extendqisi2
	.loc 1 736 0
	sub	sp, sp, #28
	.cfi_def_cfa_offset 64
	.loc 1 750 0
	ldr	r5, [r2, r1, lsl #2]
	.loc 1 736 0
	mov	r8, r0
	str	r2, [sp, #4]
	str	r3, [sp]
	.loc 1 750 0
	cbnz	r5, .L16
	.loc 1 757 0
	mov	r1, r5
	bl	dns_call_found
.LVL9:
	.loc 1 759 0
	strb	r5, [r7, #10]
.LVL10:
.L17:
	.loc 1 843 0
	mov	r0, r5
	add	sp, sp, #28
	.cfi_remember_state
	.cfi_def_cfa_offset 36
	@ sp needed
	pop	{r4, r5, r6, r7, r8, r9, r10, fp, pc}
.LVL11:
.L16:
	.cfi_restore_state
	.loc 1 764 0
	ldr	r3, [sp]
	adds	r4, r4, #16
	add	r4, r4, r3
	mov	r0, r4
.LVL12:
	bl	strlen
.LVL13:
	movs	r2, #0
	add	r1, r0, #18
	uxth	r1, r1
	mov	r0, r2
	bl	pbuf_alloc
.LVL14:
	.loc 1 766 0
	mov	r6, r0
	cmp	r0, #0
	beq	.L23
.LBB3:
	.loc 1 770 0
	movs	r3, #0
	.loc 1 771 0
	ldrh	r0, [r7, #8]
.LVL15:
	.loc 1 770 0
	str	r3, [sp, #12]
	str	r3, [sp, #16]
	str	r3, [sp, #20]
	.loc 1 771 0
	bl	lwip_htons
.LVL16:
	.loc 1 772 0
	movs	r3, #1
	.loc 1 774 0
	movs	r2, #12
	.loc 1 772 0
	strb	r3, [sp, #14]
	.loc 1 773 0
	mov	r3, #256
	.loc 1 771 0
	strh	r0, [sp, #12]	@ movhi
	.loc 1 774 0
	add	r1, sp, r2
	mov	r0, r6
	.loc 1 773 0
	strh	r3, [sp, #16]	@ movhi
	.loc 1 779 0
	movs	r7, #12
	.loc 1 774 0
	bl	pbuf_take
.LVL17:
	.loc 1 776 0
	subs	r4, r4, #1
.LVL18:
.L19:
	.loc 1 781 0
	add	r10, r4, #1
.LVL19:
	.loc 1 783 0
	mov	r9, r10
.LVL20:
.L21:
	.loc 1 783 0 is_stmt 0 discriminator 1
	mov	r3, r9
	ldrb	r2, [r3], #1	@ zero_extendqisi2
	sub	fp, r9, r10
	cmp	r2, #46
	uxtb	r5, fp
	mov	r4, r9
.LVL21:
	bne	.L18
.L22:
.LVL22:
	.loc 1 787 0 is_stmt 1
	mov	r2, r5
	mov	r1, r7
	mov	r0, r6
	bl	pbuf_put_at
.LVL23:
	.loc 1 788 0
	adds	r3, r7, #1
	uxth	r2, fp
	.loc 1 789 0
	add	r5, r5, r7
.LVL24:
	.loc 1 788 0
	uxth	r3, r3
	mov	r1, r10
	mov	r0, r6
	bl	pbuf_take_at
.LVL25:
	.loc 1 789 0
	uxth	r5, r5
	.loc 1 790 0
	ldrb	r2, [r9]	@ zero_extendqisi2
	.loc 1 789 0
	adds	r7, r5, #1
.LVL26:
	uxth	r7, r7
.LVL27:
	.loc 1 790 0
	cmp	r2, #0
	bne	.L19
	.loc 1 791 0
	mov	r1, r7
	mov	r0, r6
	bl	pbuf_put_at
.LVL28:
	.loc 1 798 0
	mov	r3, #256
	.loc 1 792 0
	adds	r5, r5, #2
.LVL29:
	.loc 1 798 0
	strh	r3, [sp, #8]	@ movhi
	.loc 1 800 0
	strh	r3, [sp, #10]	@ movhi
	.loc 1 801 0
	add	r1, sp, #8
	uxth	r3, r5
	movs	r2, #4
	mov	r0, r6
	bl	pbuf_take_at
.LVL30:
	.loc 1 832 0
	mov	r3, #272
	ldr	r2, [sp]
	.loc 1 834 0
	ldr	r1, [sp, #4]
	.loc 1 832 0
	mla	r8, r3, r8, r2
.LVL31:
	.loc 1 834 0
	ldr	r0, .L27+8
	.loc 1 832 0
	ldrb	r2, [r8, #11]	@ zero_extendqisi2
	.loc 1 834 0
	ldrb	r4, [r8, #15]	@ zero_extendqisi2
.LVL32:
	add	r2, r1, r2, lsl #2
	movs	r3, #53
	mov	r1, r6
	ldr	r0, [r0, r4, lsl #2]
	bl	udp_sendto
.LVL33:
	mov	r5, r0
.LVL34:
	.loc 1 837 0
	mov	r0, r6
	bl	pbuf_free
.LVL35:
.LBE3:
	b	.L17
.LVL36:
.L18:
.LBB4:
	.loc 1 783 0 discriminator 3
	cmp	r2, #0
	beq	.L22
	mov	r9, r3
	b	.L21
.LVL37:
.L23:
.LBE4:
	.loc 1 839 0
	mov	r5, #-1
	b	.L17
.L28:
	.align	2
.L27:
	.word	.LANCHOR1
	.word	.LANCHOR3
	.word	.LANCHOR2
	.cfi_endproc
.LFE8:
	.size	dns_send, .-dns_send
	.section	.text.dns_check_entry,"ax",%progbits
	.align	1
	.syntax unified
	.thumb
	.thumb_func
	.fpu softvfp
	.type	dns_check_entry, %function
dns_check_entry:
.LFB13:
	.loc 1 1012 0
	.cfi_startproc
	@ args = 0, pretend = 0, frame = 0
	@ frame_needed = 0, uses_anonymous_args = 0
.LVL38:
	.loc 1 1018 0
	mov	r2, #272
	muls	r2, r0, r2
	.loc 1 1012 0
	push	{r3, r4, r5, lr}
	.cfi_def_cfa_offset 16
	.cfi_offset 3, -16
	.cfi_offset 4, -12
	.cfi_offset 5, -8
	.cfi_offset 14, -4
	.loc 1 1018 0
	ldr	r4, .L53
	.loc 1 1012 0
	mov	r5, r0
	.loc 1 1018 0
	adds	r3, r4, r2
	ldrb	r1, [r3, #10]	@ zero_extendqisi2
	cmp	r1, #2
	beq	.L31
	cmp	r1, #3
	beq	.L32
	cmp	r1, #1
	bne	.L29
.LVL39:
.L33:
.LBB7:
.LBB8:
	.loc 1 987 0
	bl	rand
.LVL40:
	movs	r3, #0
	uxth	r0, r0
.LVL41:
.L35:
	adds	r2, r4, r3
	.loc 1 991 0
	ldrb	r1, [r2, #10]	@ zero_extendqisi2
	cmp	r1, #2
	bne	.L34
	ldrh	r2, [r2, #8]
	cmp	r2, r0
	beq	.L33
.L34:
	add	r3, r3, #272
	.loc 1 990 0
	cmp	r3, #1088
	bne	.L35
.LVL42:
.LBE8:
.LBE7:
	.loc 1 1021 0
	mov	r3, #272
	mla	r4, r3, r5, r4
	.loc 1 1022 0
	movs	r3, #2
	.loc 1 1024 0
	movs	r2, #1
	.loc 1 1022 0
	strb	r3, [r4, #10]
	.loc 1 1023 0
	movs	r3, #0
	.loc 1 1021 0
	strh	r0, [r4, #8]	@ movhi
	.loc 1 1023 0
	strb	r3, [r4, #11]
	.loc 1 1024 0
	strb	r2, [r4, #12]
	.loc 1 1025 0
	strb	r3, [r4, #13]
.L39:
	.loc 1 1060 0
	mov	r0, r5
	.loc 1 1082 0
	pop	{r3, r4, r5, lr}
	.cfi_remember_state
	.cfi_restore 14
	.cfi_restore 5
	.cfi_restore 4
	.cfi_restore 3
	.cfi_def_cfa_offset 0
.LVL43:
	.loc 1 1060 0
	b	dns_send
.LVL44:
.L31:
	.cfi_restore_state
	.loc 1 1035 0
	ldrb	r2, [r3, #12]	@ zero_extendqisi2
	subs	r2, r2, #1
	uxtb	r2, r2
	strb	r2, [r3, #12]
	cbnz	r2, .L29
	.loc 1 1036 0
	ldrb	r2, [r3, #13]	@ zero_extendqisi2
	adds	r2, r2, #1
	uxtb	r2, r2
	cmp	r2, #4
	strb	r2, [r3, #13]
	bne	.L37
	.loc 1 1037 0
	ldrb	r2, [r3, #11]	@ zero_extendqisi2
	cbnz	r2, .L38
	.loc 1 1037 0 is_stmt 0 discriminator 1
	ldr	r1, .L53+4
	ldr	r1, [r1, #4]
	cbz	r1, .L38
	.loc 1 1043 0 is_stmt 1
	movs	r1, #1
	.loc 1 1045 0
	strb	r2, [r3, #13]
	.loc 1 1043 0
	strb	r1, [r3, #11]
	.loc 1 1044 0
	strb	r1, [r3, #12]
	b	.L39
.L38:
	.loc 1 1049 0
	movs	r1, #0
	mov	r0, r5
.LVL45:
	bl	dns_call_found
.LVL46:
.L41:
	.loc 1 1072 0
	mov	r3, #272
	mla	r4, r3, r5, r4
	movs	r3, #0
	strb	r3, [r4, #10]
	pop	{r3, r4, r5, pc}
.LVL47:
.L37:
	.loc 1 1056 0
	strb	r2, [r3, #12]
	b	.L39
.L32:
	.loc 1 1069 0
	ldr	r3, [r4, r2]
	cmp	r3, #0
	beq	.L41
	.loc 1 1069 0 is_stmt 0 discriminator 1
	subs	r3, r3, #1
	str	r3, [r4, r2]
	cmp	r3, #0
	beq	.L41
.L29:
	pop	{r3, r4, r5, pc}
.L54:
	.align	2
.L53:
	.word	.LANCHOR1
	.word	.LANCHOR3
	.cfi_endproc
.LFE13:
	.size	dns_check_entry, .-dns_check_entry
	.section	.text.dns_recv,"ax",%progbits
	.align	1
	.syntax unified
	.thumb
	.thumb_func
	.fpu softvfp
	.type	dns_recv, %function
dns_recv:
.LFB16:
	.loc 1 1134 0 is_stmt 1
	.cfi_startproc
	@ args = 4, pretend = 0, frame = 40
	@ frame_needed = 0, uses_anonymous_args = 0
.LVL48:
	push	{r4, r5, r6, r7, r8, r9, r10, fp, lr}
	.cfi_def_cfa_offset 36
	.cfi_offset 4, -36
	.cfi_offset 5, -32
	.cfi_offset 6, -28
	.cfi_offset 7, -24
	.cfi_offset 8, -20
	.cfi_offset 9, -16
	.cfi_offset 10, -12
	.cfi_offset 11, -8
	.cfi_offset 14, -4
	mov	r10, r3
	.loc 1 1148 0
	ldrh	r3, [r2, #8]
.LVL49:
	.loc 1 1134 0
	sub	sp, sp, #44
	.cfi_def_cfa_offset 80
	.loc 1 1148 0
	cmp	r3, #15
	.loc 1 1134 0
	mov	r5, r2
	.loc 1 1148 0
	bls	.L57
	.loc 1 1155 0
	movs	r3, #0
	movs	r2, #12
.LVL50:
	add	r1, sp, #16
.LVL51:
	mov	r0, r5
.LVL52:
	bl	pbuf_copy_partial
.LVL53:
	cmp	r0, #12
	mov	r4, r0
	bne	.L57
	.loc 1 1157 0
	ldrh	r0, [sp, #16]
	bl	lwip_htons
.LVL54:
	ldr	r3, .L84
	movs	r6, #0
	mov	r8, r3
.LVL55:
.L73:
.LBB18:
	.loc 1 1160 0
	ldrb	r2, [r3, #10]	@ zero_extendqisi2
	uxtb	fp, r6
.LVL56:
	cmp	r2, #2
	bne	.L59
	.loc 1 1160 0 is_stmt 0 discriminator 1
	ldrh	r2, [r3, #8]
	cmp	r2, r0
	bne	.L59
	.loc 1 1165 0 is_stmt 1
	ldrh	r0, [sp, #20]
.LVL57:
	bl	lwip_htons
.LVL58:
	mov	r7, r0
.LVL59:
	.loc 1 1166 0
	ldrh	r0, [sp, #22]
	bl	lwip_htons
.LVL60:
	.loc 1 1169 0
	ldrsb	r3, [sp, #18]
	.loc 1 1166 0
	mov	r9, r0
.LVL61:
	.loc 1 1169 0
	cmp	r3, #0
	bge	.L57
	.loc 1 1173 0
	cmp	r7, #1
	bne	.L57
	.loc 1 1184 0
	mov	r7, #272
.LVL62:
	muls	r7, r6, r7
	add	r3, r8, r7
	ldrb	r1, [r3, #11]	@ zero_extendqisi2
	ldr	r3, .L84+4
	ldr	r2, [r10]
	ldr	r3, [r3, r1, lsl #2]
	cmp	r2, r3
	bne	.L57
	.loc 1 1191 0
	add	r10, r7, #16
.LVL63:
	add	r10, r10, r8
.LVL64:
.L62:
.LBB19:
.LBB20:
	.loc 1 657 0
	adds	r3, r4, #1
	uxth	r3, r3
	mov	r1, r4
	mov	r0, r5
	str	r3, [sp]
.LVL65:
	bl	pbuf_try_get_at
.LVL66:
	.loc 1 658 0
	cmp	r0, #0
	blt	.L57
	.loc 1 662 0
	and	r2, r0, #192
	cmp	r2, #192
	beq	.L57
	ldr	r3, [sp]
	mov	r2, r10
	mov	r4, r3
	add	r10, r10, r0
.LVL67:
.L60:
	.loc 1 667 0
	cmp	r10, r2
	mov	r3, r2
.LVL68:
	bne	.L61
	.loc 1 681 0
	mov	r1, r4
	mov	r0, r5
	bl	pbuf_try_get_at
.LVL69:
	.loc 1 682 0
	cmp	r0, #0
	.loc 1 679 0
	add	r10, r10, #1
.LVL70:
	.loc 1 682 0
	blt	.L57
	.loc 1 685 0
	bne	.L62
.LBE20:
.LBE19:
	.loc 1 1192 0
	movw	r10, #65535
.LVL71:
.LBB24:
.LBB22:
	.loc 1 687 0
	adds	r3, r4, #1
	uxth	r3, r3
.LVL72:
.LBE22:
.LBE24:
	.loc 1 1192 0
	cmp	r3, r10
	beq	.L57
	.loc 1 1198 0
	movs	r2, #4
	add	r1, sp, #8
	mov	r0, r5
	bl	pbuf_copy_partial
.LVL73:
	cmp	r0, #4
	bne	.L57
	.loc 1 1201 0
	ldrh	r3, [sp, #10]
	cmp	r3, #256
	bne	.L57
	.loc 1 1202 0
	ldrh	r3, [sp, #8]
	cmp	r3, #256
	bne	.L57
	.loc 1 1211 0
	ldrb	r3, [sp, #19]	@ zero_extendqisi2
	.loc 1 1208 0
	adds	r4, r4, #5
	.loc 1 1211 0
	lsls	r3, r3, #28
	.loc 1 1208 0
	uxth	r4, r4
.LVL74:
	.loc 1 1211 0
	beq	.L64
.L63:
	.loc 1 1293 0
	mov	r0, r5
	bl	pbuf_free
.LVL75:
	.loc 1 1294 0
	movs	r1, #0
	mov	r0, fp
	bl	dns_call_found
.LVL76:
	.loc 1 1295 0
	mov	r3, #272
	mla	r6, r3, r6, r8
.LVL77:
	movs	r3, #0
	strb	r3, [r6, #10]
.LVL78:
.L55:
.LBE18:
	.loc 1 1305 0
	add	sp, sp, #44
	.cfi_remember_state
	.cfi_def_cfa_offset 36
	@ sp needed
	pop	{r4, r5, r6, r7, r8, r9, r10, fp, pc}
.LVL79:
.L61:
	.cfi_restore_state
.LBB33:
.LBB25:
.LBB23:
.LBB21:
	.loc 1 668 0
	mov	r1, r4
	mov	r0, r5
	stm	sp, {r2, r3}
	bl	pbuf_try_get_at
.LVL80:
	.loc 1 669 0
	cmp	r0, #0
	blt	.L57
.LVL81:
	.loc 1 672 0
	ldr	r3, [sp, #4]
	ldr	r2, [sp]
	ldrb	r3, [r3]	@ zero_extendqisi2
	uxtb	r0, r0
.LVL82:
	cmp	r3, r0
	add	r2, r2, #1
	bne	.L57
	.loc 1 675 0
	adds	r4, r4, #1
.LVL83:
	uxth	r4, r4
.LVL84:
	b	.L60
.LVL85:
.L74:
.LBE21:
.LBE23:
.LBE25:
.LBB26:
.LBB27:
	.loc 1 704 0
	mov	r4, r3
	b	.L66
.LVL86:
.L68:
.LBE27:
.LBE26:
	.loc 1 1268 0
	bl	lwip_htons
.LVL87:
	add	r0, r0, r4
	cmp	r0, #65536
	bge	.L57
	.loc 1 1271 0
	ldrh	r0, [sp, #36]
	bl	lwip_htons
.LVL88:
	.loc 1 1272 0
	add	r9, r9, #-1
.LVL89:
	.loc 1 1271 0
	add	r4, r4, r0
.LVL90:
	uxth	r4, r4
.LVL91:
	.loc 1 1272 0
	uxth	r9, r9
.LVL92:
.L64:
	.loc 1 1214 0
	cmp	r9, #0
	beq	.L63
	.loc 1 1214 0 is_stmt 0 discriminator 1
	ldrh	r3, [r5, #8]
	cmp	r3, r4
	bls	.L63
.LVL93:
.L67:
.LBB29:
.LBB28:
	.loc 1 704 0 is_stmt 1
	adds	r3, r4, #1
	uxth	r3, r3
	mov	r1, r4
	mov	r0, r5
	str	r3, [sp]
.LVL94:
	bl	pbuf_try_get_at
.LVL95:
	.loc 1 705 0
	subs	r4, r0, #0
	blt	.L57
	.loc 1 709 0
	and	r2, r4, #192
	cmp	r2, #192
	ldr	r3, [sp]
	beq	.L74
	.loc 1 714 0
	add	r4, r4, r3
	ldrh	r3, [r5, #8]
	cmp	r4, r3
	bge	.L57
	.loc 1 717 0
	uxth	r4, r4
.LVL96:
	.loc 1 719 0
	mov	r1, r4
	mov	r0, r5
.LVL97:
	bl	pbuf_try_get_at
.LVL98:
	.loc 1 720 0
	cmp	r0, #0
	blt	.L57
	.loc 1 723 0
	bne	.L67
.LVL99:
.L66:
	.loc 1 725 0
	adds	r3, r4, #1
	uxth	r3, r3
.LVL100:
.LBE28:
.LBE29:
	.loc 1 1217 0
	cmp	r3, r10
	beq	.L57
	.loc 1 1222 0
	movs	r2, #10
	add	r1, sp, #28
	mov	r0, r5
	bl	pbuf_copy_partial
.LVL101:
	cmp	r0, #10
	bne	.L57
	.loc 1 1227 0
	ldrh	r3, [sp, #30]
	.loc 1 1225 0
	adds	r4, r4, #11
	.loc 1 1227 0
	cmp	r3, #256
	.loc 1 1225 0
	uxth	r4, r4
.LVL102:
	ldrh	r0, [sp, #36]
	.loc 1 1227 0
	bne	.L68
	.loc 1 1229 0
	ldrh	r3, [sp, #28]
	cmp	r3, #256
	bne	.L68
	.loc 1 1229 0 is_stmt 0 discriminator 1
	cmp	r0, #1024
	bne	.L68
.LBB30:
	.loc 1 1236 0 is_stmt 1
	mov	r3, r4
	movs	r2, #4
	add	r1, sp, #12
	mov	r0, r5
	bl	pbuf_copy_partial
.LVL103:
	cmp	r0, #4
	bne	.L57
	.loc 1 1239 0
	mov	r4, #272
.LVL104:
	muls	r4, r6, r4
	ldr	r3, [sp, #12]
	add	r9, r8, r4
.LVL105:
	str	r3, [r9, #4]
	.loc 1 1240 0
	mov	r0, r5
	bl	pbuf_free
.LVL106:
	.loc 1 1242 0
	ldr	r0, [sp, #32]
	bl	lwip_htonl
.LVL107:
.LBB31:
.LBB32:
	.loc 1 1105 0
	movs	r3, #3
	strb	r3, [r9, #10]
	.loc 1 1113 0
	ldr	r3, .L84+8
	.loc 1 1112 0
	str	r0, [r8, r4]
	.loc 1 1113 0
	cmp	r0, r3
	.loc 1 1114 0
	it	hi
	strhi	r3, [r8, r4]
	.loc 1 1116 0
	ldr	r4, .L84
	adds	r1, r7, #4
	add	r1, r1, r4
	mov	r0, fp
.LVL108:
	bl	dns_call_found
.LVL109:
	.loc 1 1118 0
	mov	r3, #272
	muls	r6, r3, r6
.LVL110:
	ldr	r2, [r4, r6]
	adds	r3, r4, r6
	cmp	r2, #0
	bne	.L55
	.loc 1 1124 0
	ldrb	r1, [r3, #10]	@ zero_extendqisi2
	cmp	r1, #3
	bne	.L55
	.loc 1 1125 0
	strb	r2, [r3, #10]
.LVL111:
	b	.L55
.LVL112:
.L59:
	adds	r6, r6, #1
.LVL113:
.LBE32:
.LBE31:
.LBE30:
.LBE33:
	.loc 1 1158 0 discriminator 2
	cmp	r6, #4
	add	r3, r3, #272
	bne	.L73
.LVL114:
.L57:
	.loc 1 1303 0
	mov	r0, r5
	bl	pbuf_free
.LVL115:
	.loc 1 1304 0
	b	.L55
.L85:
	.align	2
.L84:
	.word	.LANCHOR1
	.word	.LANCHOR3
	.word	604800
	.cfi_endproc
.LFE16:
	.size	dns_recv, .-dns_recv
	.section	.text.dns_init,"ax",%progbits
	.align	1
	.global	dns_init
	.syntax unified
	.thumb
	.thumb_func
	.fpu softvfp
	.type	dns_init, %function
dns_init:
.LFB1:
	.loc 1 319 0
	.cfi_startproc
	@ args = 0, pretend = 0, frame = 0
	@ frame_needed = 0, uses_anonymous_args = 0
	@ link register save eliminated.
	bx	lr
	.cfi_endproc
.LFE1:
	.size	dns_init, .-dns_init
	.section	.text.dns_setserver,"ax",%progbits
	.align	1
	.global	dns_setserver
	.syntax unified
	.thumb
	.thumb_func
	.fpu softvfp
	.type	dns_setserver, %function
dns_setserver:
.LFB2:
	.loc 1 365 0
	.cfi_startproc
	@ args = 0, pretend = 0, frame = 0
	@ frame_needed = 0, uses_anonymous_args = 0
	@ link register save eliminated.
.LVL116:
	.loc 1 366 0
	cmp	r0, #1
	bhi	.L87
	ldr	r3, .L91
	.loc 1 367 0
	cbz	r1, .L89
	.loc 1 368 0
	ldr	r2, [r1]
.L90:
	.loc 1 370 0
	str	r2, [r3, r0, lsl #2]
.L87:
	bx	lr
.L89:
	ldr	r2, .L91+4
	ldr	r2, [r2]
	b	.L90
.L92:
	.align	2
.L91:
	.word	.LANCHOR3
	.word	ip_addr_any
	.cfi_endproc
.LFE2:
	.size	dns_setserver, .-dns_setserver
	.section	.text.dns_getserver,"ax",%progbits
	.align	1
	.global	dns_getserver
	.syntax unified
	.thumb
	.thumb_func
	.fpu softvfp
	.type	dns_getserver, %function
dns_getserver:
.LFB3:
	.loc 1 385 0
	.cfi_startproc
	@ args = 0, pretend = 0, frame = 0
	@ frame_needed = 0, uses_anonymous_args = 0
	@ link register save eliminated.
.LVL117:
	.loc 1 386 0
	cmp	r0, #1
	.loc 1 387 0
	itte	ls
	ldrls	r3, .L96
	addls	r0, r3, r0, lsl #2
.LVL118:
	.loc 1 389 0
	ldrhi	r0, .L96+4
	.loc 1 391 0
	bx	lr
.L97:
	.align	2
.L96:
	.word	.LANCHOR3
	.word	ip_addr_any
	.cfi_endproc
.LFE3:
	.size	dns_getserver, .-dns_getserver
	.section	.text.dns_tmr,"ax",%progbits
	.align	1
	.global	dns_tmr
	.syntax unified
	.thumb
	.thumb_func
	.fpu softvfp
	.type	dns_tmr, %function
dns_tmr:
.LFB4:
	.loc 1 399 0
	.cfi_startproc
	@ args = 0, pretend = 0, frame = 0
	@ frame_needed = 0, uses_anonymous_args = 0
.LVL119:
	push	{r3, lr}
	.cfi_def_cfa_offset 8
	.cfi_offset 3, -8
	.cfi_offset 14, -4
.LBB36:
.LBB37:
	.loc 1 1093 0
	movs	r0, #0
	bl	dns_check_entry
.LVL120:
	movs	r0, #1
	bl	dns_check_entry
.LVL121:
	movs	r0, #2
	bl	dns_check_entry
.LVL122:
.LBE37:
.LBE36:
	.loc 1 402 0
	pop	{r3, lr}
	.cfi_restore 14
	.cfi_restore 3
	.cfi_def_cfa_offset 0
.LBB39:
.LBB38:
	.loc 1 1093 0
	movs	r0, #3
	b	dns_check_entry
.LVL123:
.LBE38:
.LBE39:
	.cfi_endproc
.LFE4:
	.size	dns_tmr, .-dns_tmr
	.section	.text.dns_gethostbyname_addrtype,"ax",%progbits
	.align	1
	.global	dns_gethostbyname_addrtype
	.syntax unified
	.thumb
	.thumb_func
	.fpu softvfp
	.type	dns_gethostbyname_addrtype, %function
dns_gethostbyname_addrtype:
.LFB19:
	.loc 1 1491 0
	.cfi_startproc
	@ args = 4, pretend = 0, frame = 8
	@ frame_needed = 0, uses_anonymous_args = 0
.LVL124:
	push	{r0, r1, r2, r4, r5, r6, r7, r8, r9, r10, fp, lr}
	.cfi_def_cfa_offset 48
	.cfi_offset 4, -36
	.cfi_offset 5, -32
	.cfi_offset 6, -28
	.cfi_offset 7, -24
	.cfi_offset 8, -20
	.cfi_offset 9, -16
	.cfi_offset 10, -12
	.cfi_offset 11, -8
	.cfi_offset 14, -4
	.loc 1 1491 0
	mov	r5, r0
	mov	r10, r2
	mov	fp, r3
	.loc 1 1498 0
	mov	r7, r1
	cmp	r1, #0
	beq	.L133
	.loc 1 1498 0 discriminator 1
	cmp	r0, #0
	beq	.L133
	.loc 1 1499 0
	ldrb	r3, [r0]	@ zero_extendqisi2
.LVL125:
	cmp	r3, #0
	beq	.L133
	.loc 1 1507 0
	bl	strlen
.LVL126:
	.loc 1 1508 0
	cmp	r0, #255
	.loc 1 1507 0
	mov	r9, r0
.LVL127:
	.loc 1 1508 0
	bhi	.L133
	.loc 1 1522 0
	mov	r1, r7
	mov	r0, r5
.LVL128:
	bl	ip4addr_aton
.LVL129:
	cmp	r0, #0
	bne	.L134
	ldr	r4, .L160
	mov	r6, r0
	mov	r8, r4
.L102:
.LVL130:
.LBB50:
.LBB51:
	.loc 1 623 0
	ldrb	r3, [r8, #-6]	@ zero_extendqisi2
	cmp	r3, #3
	bne	.L101
	.loc 1 624 0
	mov	r2, #256
	mov	r1, r8
	mov	r0, r5
	bl	lwip_strnicmp
.LVL131:
	.loc 1 623 0
	cbnz	r0, .L101
	.loc 1 630 0
	mov	r3, #272
	ldr	r2, .L160+4
	mla	r6, r3, r6, r2
.LVL132:
	ldr	r3, [r6, #4]
	str	r3, [r7]
.LVL133:
.L154:
.LBE51:
.LBE50:
	.loc 1 1571 0
	add	sp, sp, #12
	.cfi_remember_state
	.cfi_def_cfa_offset 36
	@ sp needed
	pop	{r4, r5, r6, r7, r8, r9, r10, fp, pc}
.LVL134:
.L101:
	.cfi_restore_state
	adds	r6, r6, #1
.LVL135:
.LBB53:
.LBB52:
	.loc 1 622 0
	cmp	r6, #4
	add	r8, r8, #272
	bne	.L102
.LBE52:
.LBE53:
	.loc 1 1563 0
	ldr	r3, .L160+8
	ldr	r3, [r3]
	cmp	r3, #0
	beq	.L136
	movs	r6, #0
.LBB54:
.LBB55:
	.loc 1 1342 0
	mov	r8, #12
	ldr	r7, .L160+12
.LVL136:
.L105:
	.loc 1 1330 0
	ldrb	r2, [r4, #-6]	@ zero_extendqisi2
	uxtb	r3, r6
.LVL137:
	cmp	r2, #2
	beq	.L104
.LVL138:
.L107:
	adds	r6, r6, #1
.LVL139:
	.loc 1 1329 0
	cmp	r6, #4
	add	r4, r4, #272
	bne	.L105
.LBB56:
	.loc 1 1367 0
	movs	r4, #0
	ldr	r3, .L160+16
	ldr	r2, .L160+4
	mov	ip, r4
	mov	r0, r2
	mov	r8, r3
	ldrb	r1, [r3]	@ zero_extendqisi2
.L113:
.LBE56:
	.loc 1 1362 0
	ldrb	r3, [r2, #10]	@ zero_extendqisi2
	uxtb	r7, r4
.LVL140:
	cmp	r3, #0
	bne	.L110
	.loc 1 1360 0
	mov	r3, #272
	mov	r6, r7
	mla	r4, r3, r4, r0
.LVL141:
.L111:
	movs	r7, #0
	.loc 1 1392 0
	mov	ip, #12
.LVL142:
	ldr	r2, .L160+12
.LVL143:
.L117:
	mul	r0, ip, r7
	ldr	r3, [r0, r2]
	cmp	r3, #0
	bne	.L115
	.loc 1 1412 0
	mov	lr, #1
	.loc 1 1402 0
	add	ip, r2, r0
	.loc 1 1416 0
	str	r10, [r2, r0]
	.loc 1 1413 0
	strb	r1, [r4, #14]
	.loc 1 1419 0
	mov	r2, r9
	.loc 1 1402 0
	strb	r6, [ip, #8]
	.loc 1 1412 0
	strb	lr, [r4, #10]
	.loc 1 1417 0
	str	fp, [ip, #4]
	.loc 1 1419 0
	mov	r1, r5
	add	r0, r4, #16
	str	r3, [sp, #4]
.LVL144:
	bl	memcpy
.LVL145:
	.loc 1 1420 0
	ldr	r3, [sp, #4]
	add	r9, r9, r4
.LVL146:
	strb	r3, [r9, #16]
.LVL147:
	mov	r9, r3
.LBB57:
.LBB58:
	.loc 1 887 0
	ldr	r3, .L160+20
	mov	r10, r3
.LVL148:
.L116:
	ldr	r2, [r3, r9, lsl #2]
	uxtb	r5, r9
.LVL149:
	cmp	r2, #0
	beq	.L118
.LVL150:
	add	r9, r9, #1
.LVL151:
	.loc 1 886 0
	cmp	r9, #4
	bne	.L116
.LVL152:
.L119:
	.loc 1 901 0
	movs	r3, #4
	ldr	r2, .L160+24
	ldrb	r5, [r2]	@ zero_extendqisi2
	adds	r5, r5, #1
	uxtb	r5, r5
.LVL153:
.L127:
	.loc 1 903 0
	cmp	r5, #4
	it	cs
	movcs	r5, #0
.LVL154:
	.loc 1 905 0
	ldr	r1, [r10, r5, lsl #2]
	cmp	r1, #0
	beq	.L126
	.loc 1 906 0
	strb	r5, [r2]
	b	.L124
.LVL155:
.L104:
.LBE58:
.LBE57:
	.loc 1 1331 0
	mov	r2, #256
	mov	r1, r4
	mov	r0, r5
	str	r3, [sp, #4]
	bl	lwip_strnicmp
.LVL156:
	.loc 1 1330 0
	cmp	r0, #0
	bne	.L107
	ldr	r3, [sp, #4]
.L109:
.LVL157:
	.loc 1 1342 0
	mul	r2, r8, r0
	ldr	r1, [r2, r7]
	cbnz	r1, .L108
	.loc 1 1343 0
	adds	r1, r7, r2
	str	r10, [r7, r2]
	.loc 1 1344 0
	str	fp, [r1, #4]
	.loc 1 1345 0
	strb	r3, [r1, #8]
.LVL158:
.L159:
	.loc 1 1444 0
	mvn	r0, #4
	b	.L154
.LVL159:
.L108:
	adds	r0, r0, #1
.LVL160:
	.loc 1 1341 0
	cmp	r0, #4
	bne	.L109
	b	.L107
.LVL161:
.L110:
	.loc 1 1366 0
	cmp	r3, #3
	bne	.L112
.LBB67:
	.loc 1 1367 0
	ldrb	r3, [r2, #14]	@ zero_extendqisi2
	subs	r3, r1, r3
	uxtb	r3, r3
.LVL162:
	.loc 1 1368 0
	cmp	r3, ip
	itt	hi
	movhi	r6, r7
	movhi	ip, r3
.LVL163:
.L112:
	adds	r4, r4, #1
.LVL164:
.LBE67:
	.loc 1 1359 0
	cmp	r4, #4
	add	r2, r2, #272
	bne	.L113
.LVL165:
	.loc 1 1377 0
	cmp	r6, #4
	beq	.L137
	mov	r4, #272
	mla	r4, r4, r6, r0
	ldrb	r3, [r4, #10]	@ zero_extendqisi2
	cmp	r3, #3
	beq	.L111
.LVL166:
.L137:
	.loc 1 1380 0
	mov	r0, #-1
	b	.L154
.LVL167:
.L115:
	adds	r7, r7, #1
.LVL168:
	.loc 1 1391 0
	cmp	r7, #4
	bne	.L117
	b	.L137
.LVL169:
.L122:
.LBB68:
.LBB65:
.LBB59:
.LBB60:
	.loc 1 870 0
	ldr	r1, .L160+28
	mov	r0, fp
.LVL170:
	bl	udp_recv
.LVL171:
	b	.L123
.LVL172:
.L126:
	subs	r3, r3, #1
.LVL173:
.LBE60:
.LBE59:
	.loc 1 901 0
	adds	r5, r5, #1
.LVL174:
	ands	r3, r3, #255
	uxtb	r5, r5
.LVL175:
	bne	.L127
	.loc 1 910 0
	movs	r5, #4
.LVL176:
	b	.L124
.L128:
.LBE65:
.LBE68:
	.loc 1 1438 0
	ldrb	r3, [r8]	@ zero_extendqisi2
	.loc 1 1441 0
	mov	r0, r6
	.loc 1 1438 0
	adds	r3, r3, #1
	strb	r3, [r8]
	.loc 1 1441 0
	bl	dns_check_entry
.LVL177:
	b	.L159
.LVL178:
.L133:
.LBE55:
.LBE54:
	.loc 1 1500 0
	mvn	r0, #15
	b	.L154
.LVL179:
.L134:
	.loc 1 1528 0
	movs	r0, #0
	b	.L154
.L136:
	.loc 1 1564 0
	mvn	r0, #5
	b	.L154
.LVL180:
.L118:
.LBB71:
.LBB70:
.LBB69:
.LBB66:
.LBB64:
.LBB63:
	.loc 1 852 0
	movs	r0, #46
	bl	udp_new_ip_type
.LVL181:
	.loc 1 853 0
	mov	fp, r0
.LVL182:
	cbz	r0, .L123
.LVL183:
.L120:
.LBB61:
	.loc 1 858 0
	bl	rand
.LVL184:
	uxth	r2, r0
.LVL185:
	.loc 1 859 0
	cmp	r2, #1024
	bcc	.L120
	.loc 1 864 0
	ldr	r1, .L160+32
	mov	r0, fp
	bl	udp_bind
.LVL186:
.LBE61:
	.loc 1 865 0
	cmn	r0, #8
.LBB62:
	.loc 1 864 0
	mov	r2, r0
.LVL187:
.LBE62:
	.loc 1 865 0
	beq	.L120
	.loc 1 866 0
	cmp	r0, #0
	beq	.L122
	.loc 1 867 0
	mov	r0, fp
.LVL188:
	bl	udp_remove
.LVL189:
	.loc 1 868 0
	mov	fp, #0
.LVL190:
.L123:
.LBE63:
.LBE64:
	.loc 1 892 0
	str	fp, [r10, r9, lsl #2]
	.loc 1 893 0
	cmp	fp, #0
	beq	.L119
	.loc 1 895 0
	ldr	r3, .L160+24
	strb	r5, [r3]
.LVL191:
.L124:
.LBE66:
.LBE69:
	.loc 1 1424 0
	cmp	r5, #4
	.loc 1 1423 0
	strb	r5, [r4, #15]
	.loc 1 1424 0
	bne	.L128
	.loc 1 1428 0
	movs	r3, #12
	.loc 1 1427 0
	movs	r2, #0
	.loc 1 1428 0
	muls	r7, r3, r7
.LVL192:
	ldr	r3, .L160+12
	.loc 1 1427 0
	strb	r2, [r4, #10]
	.loc 1 1428 0
	str	r2, [r3, r7]
	b	.L137
.L161:
	.align	2
.L160:
	.word	.LANCHOR1+16
	.word	.LANCHOR1
	.word	.LANCHOR3
	.word	.LANCHOR0
	.word	.LANCHOR4
	.word	.LANCHOR2
	.word	.LANCHOR5
	.word	dns_recv
	.word	ip_addr_any
.LBE70:
.LBE71:
	.cfi_endproc
.LFE19:
	.size	dns_gethostbyname_addrtype, .-dns_gethostbyname_addrtype
	.section	.text.dns_gethostbyname,"ax",%progbits
	.align	1
	.global	dns_gethostbyname
	.syntax unified
	.thumb
	.thumb_func
	.fpu softvfp
	.type	dns_gethostbyname, %function
dns_gethostbyname:
.LFB18:
	.loc 1 1470 0
	.cfi_startproc
	@ args = 0, pretend = 0, frame = 0
	@ frame_needed = 0, uses_anonymous_args = 0
.LVL193:
	push	{r0, r1, r4, lr}
	.cfi_def_cfa_offset 16
	.cfi_offset 4, -8
	.cfi_offset 14, -4
	.loc 1 1471 0
	movs	r4, #0
	str	r4, [sp]
	bl	dns_gethostbyname_addrtype
.LVL194:
	.loc 1 1472 0
	add	sp, sp, #8
	.cfi_def_cfa_offset 8
	@ sp needed
	pop	{r4, pc}
	.cfi_endproc
.LFE18:
	.size	dns_gethostbyname, .-dns_gethostbyname
	.global	dns_mquery_v4group
	.section	.bss.dns_last_pcb_idx,"aw",%nobits
	.set	.LANCHOR5,. + 0
	.type	dns_last_pcb_idx, %object
	.size	dns_last_pcb_idx, 1
dns_last_pcb_idx:
	.space	1
	.section	.bss.dns_pcbs,"aw",%nobits
	.align	2
	.set	.LANCHOR2,. + 0
	.type	dns_pcbs, %object
	.size	dns_pcbs, 16
dns_pcbs:
	.space	16
	.section	.bss.dns_requests,"aw",%nobits
	.align	2
	.set	.LANCHOR0,. + 0
	.type	dns_requests, %object
	.size	dns_requests, 48
dns_requests:
	.space	48
	.section	.bss.dns_seqno,"aw",%nobits
	.set	.LANCHOR4,. + 0
	.type	dns_seqno, %object
	.size	dns_seqno, 1
dns_seqno:
	.space	1
	.section	.bss.dns_servers,"aw",%nobits
	.align	2
	.set	.LANCHOR3,. + 0
	.type	dns_servers, %object
	.size	dns_servers, 8
dns_servers:
	.space	8
	.section	.bss.dns_table,"aw",%nobits
	.align	2
	.set	.LANCHOR1,. + 0
	.type	dns_table, %object
	.size	dns_table, 1088
dns_table:
	.space	1088
	.section	.rodata.dns_mquery_v4group,"a",%progbits
	.align	2
	.type	dns_mquery_v4group, %object
	.size	dns_mquery_v4group, 4
dns_mquery_v4group:
	.word	-83885856
	.text
.Letext0:
	.file 2 "/home/ls/8720cf/sdk-ameba-v7.1d/tools/arm-none-eabi-gcc/asdk/linux/newlib/lib/gcc/arm-none-eabi/6.5.0/include/stddef.h"
	.file 3 "/home/ls/8720cf/sdk-ameba-v7.1d/tools/arm-none-eabi-gcc/asdk/linux/newlib/arm-none-eabi/include/sys/lock.h"
	.file 4 "/home/ls/8720cf/sdk-ameba-v7.1d/tools/arm-none-eabi-gcc/asdk/linux/newlib/arm-none-eabi/include/sys/_types.h"
	.file 5 "/home/ls/8720cf/sdk-ameba-v7.1d/tools/arm-none-eabi-gcc/asdk/linux/newlib/arm-none-eabi/include/sys/reent.h"
	.file 6 "/home/ls/8720cf/sdk-ameba-v7.1d/tools/arm-none-eabi-gcc/asdk/linux/newlib/arm-none-eabi/include/time.h"
	.file 7 "/home/ls/8720cf/sdk-ameba-v7.1d/tools/arm-none-eabi-gcc/asdk/linux/newlib/arm-none-eabi/include/stdlib.h"
	.file 8 "../../../component/common/network/lwip/lwip_v2.0.2/port/realtek/arch/cc.h"
	.file 9 "../../../component/common/network/lwip/lwip_v2.0.2/src/include/lwip/err.h"
	.file 10 "../../../component/common/network/lwip/lwip_v2.0.2/src/include/lwip/pbuf.h"
	.file 11 "../../../component/common/network/lwip/lwip_v2.0.2/src/include/lwip/ip4_addr.h"
	.file 12 "../../../component/common/network/lwip/lwip_v2.0.2/src/include/lwip/ip_addr.h"
	.file 13 "../../../component/common/network/lwip/lwip_v2.0.2/src/include/lwip/memp.h"
	.file 14 "../../../component/common/network/lwip/lwip_v2.0.2/src/include/lwip/priv/memp_priv.h"
	.file 15 "../../../component/common/network/lwip/lwip_v2.0.2/src/include/lwip/netif.h"
	.file 16 "../../../component/common/network/lwip/lwip_v2.0.2/src/include/lwip/prot/ip4.h"
	.file 17 "../../../component/common/network/lwip/lwip_v2.0.2/src/include/lwip/ip.h"
	.file 18 "../../../component/common/network/lwip/lwip_v2.0.2/src/include/lwip/udp.h"
	.file 19 "../../../component/common/network/lwip/lwip_v2.0.2/src/include/lwip/dns.h"
	.file 20 "../../../component/common/network/lwip/lwip_v2.0.2/src/include/lwip/prot/dns.h"
	.file 21 "../../../component/common/network/lwip/lwip_v2.0.2/src/include/lwip/def.h"
	.file 22 "/home/ls/8720cf/sdk-ameba-v7.1d/tools/arm-none-eabi-gcc/asdk/linux/newlib/arm-none-eabi/include/string.h"