	.arch armv8-m.main
	.arch_extension dsp
	.eabi_attribute 20, 1
	.eabi_attribute 21, 1
	.eabi_attribute 23, 3
	.eabi_attribute 24, 1
	.eabi_attribute 25, 1
	.eabi_attribute 26, 1
	.eabi_attribute 30, 4
	.eabi_attribute 34, 1
	.eabi_attribute 18, 4
	.file	"epb_MmBp.c"
	.text
.Ltext0:
	.cfi_sections	.debug_frame
	.section	.text.epb_base_request_pack_size,"ax",%progbits
	.align	1
	.global	epb_base_request_pack_size
	.syntax unified
	.thumb
	.thumb_func
	.fpu softvfp
	.type	epb_base_request_pack_size, %function
epb_base_request_pack_size:
.LFB1:
	.file 1 "../../../component/common/application/airsync/1.0.4/epb_MmBp.c"
	.loc 1 71 0
	.cfi_startproc
	@ args = 0, pretend = 0, frame = 0
	@ frame_needed = 0, uses_anonymous_args = 0
	@ link register save eliminated.
.LVL0:
	.loc 1 76 0
	movs	r0, #0
.LVL1:
	bx	lr
	.cfi_endproc
.LFE1:
	.size	epb_base_request_pack_size, .-epb_base_request_pack_size
	.section	.text.epb_pack_base_request,"ax",%progbits
	.align	1
	.global	epb_pack_base_request
	.syntax unified
	.thumb
	.thumb_func
	.fpu softvfp
	.type	epb_pack_base_request, %function
epb_pack_base_request:
.LFB2:
	.loc 1 79 0
	.cfi_startproc
	@ args = 0, pretend = 0, frame = 16
	@ frame_needed = 0, uses_anonymous_args = 0
.LVL2:
	push	{r0, r1, r2, r3, r4, lr}
	.cfi_def_cfa_offset 24
	.cfi_offset 14, -4
	.loc 1 82 0
	mov	r0, sp
.LVL3:
	bl	epb_pack_init
.LVL4:
	.loc 1 84 0
	mov	r0, sp
	bl	epb_get_packed_size
.LVL5:
	.loc 1 85 0
	add	sp, sp, #20
	.cfi_def_cfa_offset 4
	@ sp needed
	ldr	pc, [sp], #4
	.cfi_endproc
.LFE2:
	.size	epb_pack_base_request, .-epb_pack_base_request
	.section	.text.epb_unpack_base_response,"ax",%progbits
	.align	1
	.global	epb_unpack_base_response
	.syntax unified
	.thumb
	.thumb_func
	.fpu softvfp
	.type	epb_unpack_base_response, %function
epb_unpack_base_response:
.LFB3:
	.loc 1 88 0
	.cfi_startproc
	@ args = 0, pretend = 0, frame = 16
	@ frame_needed = 0, uses_anonymous_args = 0
.LVL6:
	push	{r0, r1, r2, r3, r4, lr}
	.cfi_def_cfa_offset 24
	.cfi_offset 4, -8
	.cfi_offset 14, -4
	.loc 1 90 0
	mov	r2, r1
	mov	r1, r0
.LVL7:
	mov	r0, sp
.LVL8:
	bl	epb_unpack_init
.LVL9:
	.loc 1 92 0
	movs	r1, #8
	mov	r0, sp
	bl	epb_has_tag
.LVL10:
	cbz	r0, .L5
	.loc 1 97 0
	movs	r3, #97
	ldr	r2, .L9
	movs	r1, #16
	movs	r0, #0
	bl	os_mem_alloc_intern
.LVL11:
	.loc 1 98 0
	movs	r2, #16
	movs	r1, #0
	.loc 1 97 0
	mov	r4, r0
.LVL12:
	.loc 1 98 0
	bl	memset
.LVL13:
	.loc 1 99 0
	movs	r1, #8
	mov	r0, sp
	bl	epb_get_int32
.LVL14:
	.loc 1 100 0
	movs	r1, #18
	.loc 1 99 0
	str	r0, [r4]
	.loc 1 100 0
	mov	r0, sp
	bl	epb_has_tag
.LVL15:
	cbz	r0, .L3
	.loc 1 102 0
	add	r2, r4, #12
	movs	r1, #18
	mov	r0, sp
	bl	epb_get_string
.LVL16:
	.loc 1 103 0
	movs	r3, #1
	.loc 1 102 0
	str	r0, [r4, #8]
	.loc 1 103 0
	strb	r3, [r4, #4]
.LVL17:
.L3:
	.loc 1 107 0
	mov	r0, r4
	add	sp, sp, #16
	.cfi_remember_state
	.cfi_def_cfa_offset 8
	@ sp needed
	pop	{r4, pc}
.L5:
	.cfi_restore_state
	.loc 1 94 0
	mov	r4, r0
	b	.L3
.L10:
	.align	2
.L9:
	.word	.LANCHOR0
	.cfi_endproc
.LFE3:
	.size	epb_unpack_base_response, .-epb_unpack_base_response
	.section	.text.epb_unpack_base_response_free,"ax",%progbits
	.align	1
	.global	epb_unpack_base_response_free
	.syntax unified
	.thumb
	.thumb_func
	.fpu softvfp
	.type	epb_unpack_base_response_free, %function
epb_unpack_base_response_free:
.LFB4:
	.loc 1 110 0
	.cfi_startproc
	@ args = 0, pretend = 0, frame = 0
	@ frame_needed = 0, uses_anonymous_args = 0
	@ link register save eliminated.
.LVL18:
	.loc 1 111 0
	b	os_mem_free
.LVL19:
	.cfi_endproc
.LFE4:
	.size	epb_unpack_base_response_free, .-epb_unpack_base_response_free
	.section	.text.epb_unpack_base_push,"ax",%progbits
	.align	1
	.global	epb_unpack_base_push
	.syntax unified
	.thumb
	.thumb_func
	.fpu softvfp
	.type	epb_unpack_base_push, %function
epb_unpack_base_push:
.LFB5:
	.loc 1 115 0
	.cfi_startproc
	@ args = 0, pretend = 0, frame = 16
	@ frame_needed = 0, uses_anonymous_args = 0
.LVL20:
	push	{r0, r1, r2, r3, r4, lr}
	.cfi_def_cfa_offset 24
	.cfi_offset 14, -4
	.loc 1 117 0
	mov	r2, r1
	mov	r1, r0
.LVL21:
	mov	r0, sp
.LVL22:
	bl	epb_unpack_init
.LVL23:
	.loc 1 119 0
	movs	r3, #119
	ldr	r2, .L13
	movs	r1, #4
	movs	r0, #0
	bl	os_mem_alloc_intern
.LVL24:
	.loc 1 120 0
	movs	r3, #0
	str	r3, [r0]	@ unaligned
	.loc 1 123 0
	add	sp, sp, #20
	.cfi_def_cfa_offset 4
	@ sp needed
	ldr	pc, [sp], #4
.L14:
	.align	2
.L13:
	.word	.LANCHOR1
	.cfi_endproc
.LFE5:
	.size	epb_unpack_base_push, .-epb_unpack_base_push
	.section	.text.epb_unpack_base_push_free,"ax",%progbits
	.align	1
	.global	epb_unpack_base_push_free
	.syntax unified
	.thumb
	.thumb_func
	.fpu softvfp
	.type	epb_unpack_base_push_free, %function
epb_unpack_base_push_free:
.LFB6:
	.loc 1 126 0
	.cfi_startproc
	@ args = 0, pretend = 0, frame = 0
	@ frame_needed = 0, uses_anonymous_args = 0
	@ link register save eliminated.
.LVL25:
	.loc 1 127 0
	b	os_mem_free
.LVL26:
	.cfi_endproc
.LFE6:
	.size	epb_unpack_base_push_free, .-epb_unpack_base_push_free
	.section	.text.epb_auth_request_pack_size,"ax",%progbits
	.align	1
	.global	epb_auth_request_pack_size
	.syntax unified
	.thumb
	.thumb_func
	.fpu softvfp
	.type	epb_auth_request_pack_size, %function
epb_auth_request_pack_size:
.LFB7:
	.loc 1 131 0
	.cfi_startproc
	@ args = 0, pretend = 0, frame = 0
	@ frame_needed = 0, uses_anonymous_args = 0
.LVL27:
	push	{r3, r4, r5, lr}
	.cfi_def_cfa_offset 16
	.cfi_offset 3, -16
	.cfi_offset 4, -12
	.cfi_offset 5, -8
	.cfi_offset 14, -4
	.loc 1 131 0
	mov	r5, r0
.LVL28:
	.loc 1 136 0
	movs	r1, #0
	movs	r0, #10
.LVL29:
	bl	epb_length_delimited_pack_size
.LVL30:
	.loc 1 137 0
	ldrb	r3, [r5, #4]	@ zero_extendqisi2
	.loc 1 136 0
	mov	r4, r0
.LVL31:
	.loc 1 137 0
	cbz	r3, .L17
	.loc 1 139 0
	ldr	r1, [r5, #12]
	movs	r0, #18
.LVL32:
	bl	epb_length_delimited_pack_size
.LVL33:
	add	r4, r4, r0
.LVL34:
.L17:
	.loc 1 142 0
	movs	r2, #0
	ldr	r1, [r5, #16]
	movs	r0, #24
	bl	epb_varint32_pack_size
.LVL35:
	.loc 1 143 0
	movs	r2, #0
	.loc 1 142 0
	add	r4, r4, r0
.LVL36:
	.loc 1 143 0
	ldr	r1, [r5, #20]
	movs	r0, #32
	bl	epb_varint32_pack_size
.LVL37:
	.loc 1 144 0
	movs	r2, #0
	.loc 1 143 0
	add	r4, r4, r0
.LVL38:
	.loc 1 144 0
	ldrb	r1, [r5, #24]	@ zero_extendqisi2
	movs	r0, #40
	bl	epb_varint32_pack_size
.LVL39:
	.loc 1 145 0
	ldrb	r3, [r5, #25]	@ zero_extendqisi2
	.loc 1 144 0
	add	r4, r4, r0
.LVL40:
	.loc 1 145 0
	cbz	r3, .L18
	.loc 1 147 0
	ldr	r1, [r5, #32]
	movs	r0, #50
	bl	epb_length_delimited_pack_size
.LVL41:
	add	r4, r4, r0
.LVL42:
.L18:
	.loc 1 149 0
	ldrb	r3, [r5, #36]	@ zero_extendqisi2
	cbz	r3, .L19
	.loc 1 151 0
	ldr	r1, [r5, #44]
	movs	r0, #58
	bl	epb_length_delimited_pack_size
.LVL43:
	add	r4, r4, r0
.LVL44:
.L19:
	.loc 1 153 0
	ldrb	r3, [r5, #48]	@ zero_extendqisi2
	cbz	r3, .L20
	.loc 1 155 0
	ldr	r1, [r5, #56]
	movs	r0, #82
	bl	epb_length_delimited_pack_size
.LVL45:
	add	r4, r4, r0
.LVL46:
.L20:
	.loc 1 157 0
	ldrb	r3, [r5, #60]	@ zero_extendqisi2
	cbz	r3, .L21
	.loc 1 159 0
	ldr	r1, [r5, #68]
	movs	r0, #90
	bl	epb_length_delimited_pack_size
.LVL47:
	add	r4, r4, r0
.LVL48:
.L21:
	.loc 1 161 0
	ldrb	r3, [r5, #72]	@ zero_extendqisi2
	cbz	r3, .L16
	.loc 1 163 0
	ldr	r1, [r5, #80]
	movs	r0, #98
	bl	epb_length_delimited_pack_size
.LVL49:
	add	r4, r4, r0
.LVL50:
.L16:
	.loc 1 167 0
	mov	r0, r4
	pop	{r3, r4, r5, pc}
	.cfi_endproc
.LFE7:
	.size	epb_auth_request_pack_size, .-epb_auth_request_pack_size
	.section	.text.epb_pack_auth_request,"ax",%progbits
	.align	1
	.global	epb_pack_auth_request
	.syntax unified
	.thumb
	.thumb_func
	.fpu softvfp
	.type	epb_pack_auth_request, %function
epb_pack_auth_request:
.LFB8:
	.loc 1 170 0
	.cfi_startproc
	@ args = 0, pretend = 0, frame = 16
	@ frame_needed = 0, uses_anonymous_args = 0
.LVL51:
	push	{r0, r1, r2, r3, r4, r5, r6, lr}
	.cfi_def_cfa_offset 32
	.cfi_offset 4, -16
	.cfi_offset 5, -12
	.cfi_offset 6, -8
	.cfi_offset 14, -4
	.loc 1 170 0
	mov	r4, r0
	.loc 1 172 0
	mov	r0, sp
.LVL52:
	bl	epb_pack_init
.LVL53:
	.loc 1 179 0
	movs	r1, #0
	movs	r3, #179
	ldr	r2, .L58
	mov	r0, r1
	bl	os_mem_alloc_intern
.LVL54:
	.loc 1 180 0
	movs	r2, #0
	mov	r1, r0
	.loc 1 179 0
	mov	r6, r0
.LVL55:
	.loc 1 180 0
	ldr	r0, [r4]
.LVL56:
	bl	epb_pack_base_request
.LVL57:
	.loc 1 181 0
	subs	r5, r0, #0
	bge	.L42
	.loc 1 183 0
	mov	r0, r6
.LVL58:
	bl	os_mem_free
.LVL59:
.L41:
	.loc 1 231 0
	mov	r0, r5
	add	sp, sp, #16
	.cfi_remember_state
	.cfi_def_cfa_offset 16
	@ sp needed
	pop	{r4, r5, r6, pc}
.LVL60:
.L42:
	.cfi_restore_state
	.loc 1 186 0
	movs	r3, #0
	mov	r2, r6
	movs	r1, #10
	mov	r0, sp
.LVL61:
	bl	epb_set_message
.LVL62:
	mov	r5, r0
.LVL63:
	.loc 1 187 0
	mov	r0, r6
.LVL64:
	bl	os_mem_free
.LVL65:
	.loc 1 188 0
	cmp	r5, #0
	blt	.L41
	.loc 1 189 0
	ldrb	r3, [r4, #4]	@ zero_extendqisi2
	cmp	r3, #0
	bne	.L44
.L46:
	.loc 1 195 0
	ldr	r2, [r4, #16]
	movs	r1, #24
	mov	r0, sp
	bl	epb_set_int32
.LVL66:
	.loc 1 196 0
	subs	r5, r0, #0
	blt	.L41
	.loc 1 197 0
	ldr	r2, [r4, #20]
	movs	r1, #32
	mov	r0, sp
.LVL67:
	bl	epb_set_int32
.LVL68:
	.loc 1 198 0
	subs	r5, r0, #0
	blt	.L41
	.loc 1 199 0
	ldrb	r2, [r4, #24]	@ zero_extendqisi2
	movs	r1, #40
	mov	r0, sp
.LVL69:
	bl	epb_set_enum
.LVL70:
	.loc 1 200 0
	subs	r5, r0, #0
	blt	.L41
	.loc 1 201 0
	ldrb	r3, [r4, #25]	@ zero_extendqisi2
	cbnz	r3, .L47
.L50:
	.loc 1 206 0
	ldrb	r3, [r4, #36]	@ zero_extendqisi2
	cbz	r3, .L49
	.loc 1 208 0
	ldr	r3, [r4, #44]
	ldr	r2, [r4, #40]
	movs	r1, #58
	mov	r0, sp
.LVL71:
	bl	epb_set_bytes
.LVL72:
	.loc 1 210 0
	subs	r5, r0, #0
	blt	.L41
.L49:
	.loc 1 212 0
	ldrb	r3, [r4, #48]	@ zero_extendqisi2
	cbz	r3, .L52
	.loc 1 214 0
	ldr	r3, [r4, #56]
	ldr	r2, [r4, #52]
	movs	r1, #82
	mov	r0, sp
.LVL73:
	bl	epb_set_string
.LVL74:
	.loc 1 216 0
	subs	r5, r0, #0
	blt	.L41
.L52:
	.loc 1 218 0
	ldrb	r3, [r4, #60]	@ zero_extendqisi2
	cbz	r3, .L54
	.loc 1 220 0
	ldr	r3, [r4, #68]
	ldr	r2, [r4, #64]
	movs	r1, #90
	mov	r0, sp
.LVL75:
	bl	epb_set_string
.LVL76:
	.loc 1 221 0
	subs	r5, r0, #0
	blt	.L41
.L54:
	.loc 1 223 0
	ldrb	r3, [r4, #72]	@ zero_extendqisi2
	cbnz	r3, .L55
.L56:
	.loc 1 230 0
	mov	r0, sp
.LVL77:
	bl	epb_get_packed_size
.LVL78:
	mov	r5, r0
.LVL79:
	b	.L41
.LVL80:
.L44:
	.loc 1 191 0
	ldr	r3, [r4, #12]
	ldr	r2, [r4, #8]
	movs	r1, #18
	mov	r0, sp
	bl	epb_set_bytes
.LVL81:
	.loc 1 193 0
	subs	r5, r0, #0
	bge	.L46
	b	.L41
.L47:
	.loc 1 203 0
	ldr	r3, [r4, #32]
	ldr	r2, [r4, #28]
	movs	r1, #50
	mov	r0, sp
.LVL82:
	bl	epb_set_bytes
.LVL83:
	.loc 1 204 0
	subs	r5, r0, #0
	bge	.L50
	b	.L41
.L55:
	.loc 1 225 0
	ldr	r3, [r4, #80]
	ldr	r2, [r4, #76]
	movs	r1, #98
	mov	r0, sp
.LVL84:
	bl	epb_set_string
.LVL85:
	.loc 1 227 0
	subs	r5, r0, #0
	bge	.L56
	b	.L41
.L59:
	.align	2
.L58:
	.word	.LANCHOR2
	.cfi_endproc
.LFE8:
	.size	epb_pack_auth_request, .-epb_pack_auth_request
	.section	.text.epb_unpack_auth_response,"ax",%progbits
	.align	1
	.global	epb_unpack_auth_response
	.syntax unified
	.thumb
	.thumb_func
	.fpu softvfp
	.type	epb_unpack_auth_response, %function
epb_unpack_auth_response:
.LFB9:
	.loc 1 234 0
	.cfi_startproc
	@ args = 0, pretend = 0, frame = 24
	@ frame_needed = 0, uses_anonymous_args = 0
.LVL86:
	push	{r4, r5, lr}
	.cfi_def_cfa_offset 12
	.cfi_offset 4, -12
	.cfi_offset 5, -8
	.cfi_offset 14, -4
	sub	sp, sp, #28
	.cfi_def_cfa_offset 40
	.loc 1 236 0
	mov	r2, r1
	mov	r1, r0
.LVL87:
	add	r0, sp, #8
.LVL88:
	bl	epb_unpack_init
.LVL89:
	.loc 1 241 0
	movs	r1, #10
	add	r0, sp, #8
	bl	epb_has_tag
.LVL90:
	cbnz	r0, .L61
.L63:
	.loc 1 243 0
	movs	r4, #0
.L60:
	.loc 1 263 0
	mov	r0, r4
	add	sp, sp, #28
	.cfi_remember_state
	.cfi_def_cfa_offset 12
	@ sp needed
	pop	{r4, r5, pc}
.L61:
	.cfi_restore_state
	.loc 1 245 0
	movs	r1, #18
	add	r0, sp, #8
	bl	epb_has_tag
.LVL91:
	cmp	r0, #0
	beq	.L63
	.loc 1 250 0
	movs	r3, #250
	ldr	r2, .L68
	movs	r1, #12
	movs	r0, #0
	bl	os_mem_alloc_intern
.LVL92:
	.loc 1 251 0
	movs	r3, #0
	.loc 1 250 0
	mov	r4, r0
.LVL93:
	.loc 1 251 0
	str	r3, [r0]	@ unaligned
	str	r3, [r0, #4]	@ unaligned
	str	r3, [r0, #8]	@ unaligned
	.loc 1 252 0
	add	r2, sp, #4
	movs	r1, #10
	add	r0, sp, #8
.LVL94:
	bl	epb_get_message
.LVL95:
	.loc 1 253 0
	ldr	r1, [sp, #4]
	bl	epb_unpack_base_response
.LVL96:
	str	r0, [r4]
	.loc 1 254 0
	cbnz	r0, .L64
	.loc 1 256 0
	mov	r0, r4
	bl	os_mem_free
.LVL97:
	b	.L63
.L64:
	.loc 1 259 0
	add	r2, r4, #8
	movs	r1, #18
	add	r0, sp, #8
	bl	epb_get_bytes
.LVL98:
	str	r0, [r4, #4]
	.loc 1 262 0
	b	.L60
.L69:
	.align	2
.L68:
	.word	.LANCHOR3
	.cfi_endproc
.LFE9:
	.size	epb_unpack_auth_response, .-epb_unpack_auth_response
	.section	.text.epb_unpack_auth_response_free,"ax",%progbits
	.align	1
	.global	epb_unpack_auth_response_free
	.syntax unified
	.thumb
	.thumb_func
	.fpu softvfp
	.type	epb_unpack_auth_response_free, %function
epb_unpack_auth_response_free:
.LFB10:
	.loc 1 266 0
	.cfi_startproc
	@ args = 0, pretend = 0, frame = 0
	@ frame_needed = 0, uses_anonymous_args = 0
.LVL99:
	push	{r4, lr}
	.cfi_def_cfa_offset 8
	.cfi_offset 4, -8
	.cfi_offset 14, -4
	.loc 1 266 0
	mov	r4, r0
.LBB26:
.LBB27:
	.loc 1 111 0
	ldr	r0, [r0]
.LVL100:
	bl	os_mem_free
.LVL101:
.LBE27:
.LBE26:
	.loc 1 268 0
	mov	r0, r4
	.loc 1 269 0
	pop	{r4, lr}
	.cfi_restore 14
	.cfi_restore 4
	.cfi_def_cfa_offset 0
.LVL102:
	.loc 1 268 0
	b	os_mem_free
.LVL103:
	.cfi_endproc
.LFE10:
	.size	epb_unpack_auth_response_free, .-epb_unpack_auth_response_free
	.section	.text.epb_init_request_pack_size,"ax",%progbits
	.align	1
	.global	epb_init_request_pack_size
	.syntax unified
	.thumb
	.thumb_func
	.fpu softvfp
	.type	epb_init_request_pack_size, %function
epb_init_request_pack_size:
.LFB11:
	.loc 1 272 0
	.cfi_startproc
	@ args = 0, pretend = 0, frame = 0
	@ frame_needed = 0, uses_anonymous_args = 0
.LVL104:
	push	{r3, r4, r5, lr}
	.cfi_def_cfa_offset 16
	.cfi_offset 3, -16
	.cfi_offset 4, -12
	.cfi_offset 5, -8
	.cfi_offset 14, -4
	.loc 1 272 0
	mov	r5, r0
.LVL105:
	.loc 1 277 0
	movs	r1, #0
	movs	r0, #10
.LVL106:
	bl	epb_length_delimited_pack_size
.LVL107:
	.loc 1 278 0
	ldrb	r3, [r5, #4]	@ zero_extendqisi2
	.loc 1 277 0
	mov	r4, r0
.LVL108:
	.loc 1 278 0
	cbz	r3, .L72
	.loc 1 280 0
	ldr	r1, [r5, #12]
	movs	r0, #18
.LVL109:
	bl	epb_length_delimited_pack_size
.LVL110:
	add	r4, r4, r0
.LVL111:
.L72:
	.loc 1 283 0
	ldrb	r3, [r5, #16]	@ zero_extendqisi2
	cbz	r3, .L71
	.loc 1 285 0
	ldr	r1, [r5, #24]
	movs	r0, #26
	bl	epb_length_delimited_pack_size
.LVL112:
	add	r4, r4, r0
.LVL113:
.L71:
	.loc 1 289 0
	mov	r0, r4
	pop	{r3, r4, r5, pc}
	.cfi_endproc
.LFE11:
	.size	epb_init_request_pack_size, .-epb_init_request_pack_size
	.section	.text.epb_pack_init_request,"ax",%progbits
	.align	1
	.global	epb_pack_init_request
	.syntax unified
	.thumb
	.thumb_func
	.fpu softvfp
	.type	epb_pack_init_request, %function
epb_pack_init_request:
.LFB12:
	.loc 1 292 0
	.cfi_startproc
	@ args = 0, pretend = 0, frame = 16
	@ frame_needed = 0, uses_anonymous_args = 0
.LVL114:
	push	{r0, r1, r2, r3, r4, r5, r6, lr}
	.cfi_def_cfa_offset 32
	.cfi_offset 4, -16
	.cfi_offset 5, -12
	.cfi_offset 6, -8
	.cfi_offset 14, -4
	.loc 1 292 0
	mov	r4, r0
	.loc 1 294 0
	mov	r0, sp
.LVL115:
	bl	epb_pack_init
.LVL116:
	.loc 1 301 0
	movs	r1, #0
	movw	r3, #301
	ldr	r2, .L87
	mov	r0, r1
	bl	os_mem_alloc_intern
.LVL117:
	.loc 1 302 0
	movs	r2, #0
	mov	r1, r0
	.loc 1 301 0
	mov	r6, r0
.LVL118:
	.loc 1 302 0
	ldr	r0, [r4]
.LVL119:
	bl	epb_pack_base_request
.LVL120:
	.loc 1 303 0
	subs	r5, r0, #0
	bge	.L81
	.loc 1 305 0
	mov	r0, r6
.LVL121:
	bl	os_mem_free
.LVL122:
.L80:
	.loc 1 325 0
	mov	r0, r5
	add	sp, sp, #16
	.cfi_remember_state
	.cfi_def_cfa_offset 16
	@ sp needed
	pop	{r4, r5, r6, pc}
.LVL123:
.L81:
	.cfi_restore_state
	.loc 1 308 0
	movs	r3, #0
	mov	r2, r6
	movs	r1, #10
	mov	r0, sp
.LVL124:
	bl	epb_set_message
.LVL125:
	mov	r5, r0
.LVL126:
	.loc 1 309 0
	mov	r0, r6
.LVL127:
	bl	os_mem_free
.LVL128:
	.loc 1 310 0
	cmp	r5, #0
	blt	.L80
	.loc 1 311 0
	ldrb	r3, [r4, #4]	@ zero_extendqisi2
	cbnz	r3, .L83
.L86:
	.loc 1 317 0
	ldrb	r3, [r4, #16]	@ zero_extendqisi2
	cbnz	r3, .L84
.L85:
	.loc 1 324 0
	mov	r0, sp
	bl	epb_get_packed_size
.LVL129:
	mov	r5, r0
.LVL130:
	b	.L80
.LVL131:
.L83:
	.loc 1 313 0
	ldr	r3, [r4, #12]
	ldr	r2, [r4, #8]
	movs	r1, #18
	mov	r0, sp
	bl	epb_set_bytes
.LVL132:
	.loc 1 315 0
	subs	r5, r0, #0
	bge	.L86
	b	.L80
.LVL133:
.L84:
	.loc 1 319 0
	ldr	r3, [r4, #24]
	ldr	r2, [r4, #20]
	movs	r1, #26
	mov	r0, sp
	bl	epb_set_bytes
.LVL134:
	.loc 1 321 0
	subs	r5, r0, #0
	bge	.L85
	b	.L80
.L88:
	.align	2
.L87:
	.word	.LANCHOR4
	.cfi_endproc
.LFE12:
	.size	epb_pack_init_request, .-epb_pack_init_request
	.section	.text.epb_unpack_init_response,"ax",%progbits
	.align	1
	.global	epb_unpack_init_response
	.syntax unified
	.thumb
	.thumb_func
	.fpu softvfp
	.type	epb_unpack_init_response, %function
epb_unpack_init_response:
.LFB13:
	.loc 1 328 0
	.cfi_startproc
	@ args = 0, pretend = 0, frame = 24
	@ frame_needed = 0, uses_anonymous_args = 0
.LVL135:
	push	{r4, r5, lr}
	.cfi_def_cfa_offset 12
	.cfi_offset 4, -12
	.cfi_offset 5, -8
	.cfi_offset 14, -4
	sub	sp, sp, #28
	.cfi_def_cfa_offset 40
	.loc 1 330 0
	mov	r2, r1
	mov	r1, r0
.LVL136:
	add	r0, sp, #8
.LVL137:
	bl	epb_unpack_init
.LVL138:
	.loc 1 335 0
	movs	r1, #10
	add	r0, sp, #8
	bl	epb_has_tag
.LVL139:
	cbnz	r0, .L90
.L92:
	.loc 1 337 0
	movs	r4, #0
.L89:
	.loc 1 414 0
	mov	r0, r4
	add	sp, sp, #28
	.cfi_remember_state
	.cfi_def_cfa_offset 12
	@ sp needed
	pop	{r4, r5, pc}
.L90:
	.cfi_restore_state
	.loc 1 339 0
	movs	r1, #16
	add	r0, sp, #8
	bl	epb_has_tag
.LVL140:
	cmp	r0, #0
	beq	.L92
	.loc 1 343 0
	movs	r1, #24
	add	r0, sp, #8
	bl	epb_has_tag
.LVL141:
	cmp	r0, #0
	beq	.L92
	.loc 1 348 0
	mov	r3, #348
	ldr	r2, .L139
	movs	r1, #92
	movs	r0, #0
	bl	os_mem_alloc_intern
.LVL142:
	.loc 1 349 0
	movs	r2, #92
	movs	r1, #0
	.loc 1 348 0
	mov	r4, r0
.LVL143:
	.loc 1 349 0
	bl	memset
.LVL144:
	.loc 1 350 0
	add	r2, sp, #4
	movs	r1, #10
	add	r0, sp, #8
	bl	epb_get_message
.LVL145:
	.loc 1 351 0
	ldr	r1, [sp, #4]
	bl	epb_unpack_base_response
.LVL146:
	str	r0, [r4]
	.loc 1 352 0
	cbnz	r0, .L93
	.loc 1 354 0
	mov	r0, r4
	bl	os_mem_free
.LVL147:
	b	.L92
.L93:
	.loc 1 357 0
	movs	r1, #16
	add	r0, sp, #8
	bl	epb_get_uint32
.LVL148:
	.loc 1 358 0
	movs	r1, #24
	.loc 1 357 0
	str	r0, [r4, #4]
	.loc 1 358 0
	add	r0, sp, #8
	bl	epb_get_uint32
.LVL149:
	.loc 1 359 0
	movs	r1, #32
	.loc 1 358 0
	str	r0, [r4, #8]
	.loc 1 359 0
	add	r0, sp, #8
	bl	epb_has_tag
.LVL150:
	cbz	r0, .L94
	.loc 1 361 0
	movs	r1, #32
	add	r0, sp, #8
	bl	epb_get_uint32
.LVL151:
	.loc 1 362 0
	movs	r3, #1
	.loc 1 361 0
	str	r0, [r4, #16]
	.loc 1 362 0
	strb	r3, [r4, #12]
.L94:
	.loc 1 364 0
	movs	r1, #40
	add	r0, sp, #8
	bl	epb_has_tag
.LVL152:
	cbz	r0, .L95
	.loc 1 366 0
	movs	r1, #40
	add	r0, sp, #8
	bl	epb_get_enum
.LVL153:
	.loc 1 367 0
	movs	r3, #1
	.loc 1 366 0
	strb	r0, [r4, #21]
	.loc 1 367 0
	strb	r3, [r4, #20]
.L95:
	.loc 1 369 0
	movs	r1, #48
	add	r0, sp, #8
	bl	epb_has_tag
.LVL154:
	cbz	r0, .L96
	.loc 1 371 0
	movs	r1, #48
	add	r0, sp, #8
	bl	epb_get_uint32
.LVL155:
	.loc 1 373 0
	movs	r3, #1
	.loc 1 371 0
	str	r0, [r4, #24]
	.loc 1 373 0
	strb	r3, [r4, #22]
.L96:
	.loc 1 375 0
	movs	r1, #90
	add	r0, sp, #8
	bl	epb_has_tag
.LVL156:
	cbz	r0, .L97
	.loc 1 377 0
	add	r2, r4, #36
	movs	r1, #90
	add	r0, sp, #8
	bl	epb_get_string
.LVL157:
	.loc 1 379 0
	movs	r3, #1
	.loc 1 377 0
	str	r0, [r4, #32]
	.loc 1 379 0
	strb	r3, [r4, #28]
.L97:
	.loc 1 381 0
	movs	r1, #96
	add	r0, sp, #8
	bl	epb_has_tag
.LVL158:
	cbz	r0, .L98
	.loc 1 383 0
	movs	r1, #96
	add	r0, sp, #8
	bl	epb_get_enum
.LVL159:
	.loc 1 384 0
	movs	r3, #1
	.loc 1 383 0
	strb	r0, [r4, #41]
	.loc 1 384 0
	strb	r3, [r4, #40]
.L98:
	.loc 1 386 0
	movs	r1, #106
	add	r0, sp, #8
	bl	epb_has_tag
.LVL160:
	cbz	r0, .L99
	.loc 1 388 0
	add	r2, r4, #48
	movs	r1, #106
	add	r0, sp, #8
	bl	epb_get_string
.LVL161:
	.loc 1 389 0
	movs	r3, #1
	.loc 1 388 0
	str	r0, [r4, #44]
	.loc 1 389 0
	strb	r3, [r4, #42]
.L99:
	.loc 1 391 0
	movs	r1, #114
	add	r0, sp, #8
	bl	epb_has_tag
.LVL162:
	cbz	r0, .L100
	.loc 1 393 0
	add	r2, r4, #60
	movs	r1, #114
	add	r0, sp, #8
	bl	epb_get_string
.LVL163:
	.loc 1 394 0
	movs	r3, #1
	.loc 1 393 0
	str	r0, [r4, #56]
	.loc 1 394 0
	strb	r3, [r4, #52]
.L100:
	.loc 1 396 0
	movs	r1, #120
	add	r0, sp, #8
	bl	epb_has_tag
.LVL164:
	cbz	r0, .L101
	.loc 1 398 0
	movs	r1, #120
	add	r0, sp, #8
	bl	epb_get_int32
.LVL165:
	.loc 1 399 0
	movs	r3, #1
	.loc 1 398 0
	str	r0, [r4, #68]
	.loc 1 399 0
	strb	r3, [r4, #64]
.L101:
	.loc 1 401 0
	movw	r1, #32769
	add	r0, sp, #8
	bl	epb_has_tag
.LVL166:
	cbz	r0, .L102
	.loc 1 403 0
	movw	r1, #32769
	add	r0, sp, #8
	bl	epb_get_int32
.LVL167:
	.loc 1 404 0
	movs	r3, #1
	.loc 1 403 0
	str	r0, [r4, #76]
	.loc 1 404 0
	strb	r3, [r4, #72]
.L102:
	.loc 1 406 0
	movw	r1, #35329
	add	r0, sp, #8
	bl	epb_has_tag
.LVL168:
	cmp	r0, #0
	beq	.L89
	.loc 1 408 0
	add	r2, r4, #88
	movw	r1, #35329
	add	r0, sp, #8
	bl	epb_get_string
.LVL169:
	.loc 1 410 0
	movs	r3, #1
	.loc 1 408 0
	str	r0, [r4, #84]
	.loc 1 410 0
	strb	r3, [r4, #80]
	b	.L89
.L140:
	.align	2
.L139:
	.word	.LANCHOR5
	.cfi_endproc
.LFE13:
	.size	epb_unpack_init_response, .-epb_unpack_init_response
	.section	.text.epb_unpack_init_response_free,"ax",%progbits
	.align	1
	.global	epb_unpack_init_response_free
	.syntax unified
	.thumb
	.thumb_func
	.fpu softvfp
	.type	epb_unpack_init_response_free, %function
epb_unpack_init_response_free:
.LFB14:
	.loc 1 417 0
	.cfi_startproc
	@ args = 0, pretend = 0, frame = 0
	@ frame_needed = 0, uses_anonymous_args = 0
.LVL170:
	push	{r4, lr}
	.cfi_def_cfa_offset 8
	.cfi_offset 4, -8
	.cfi_offset 14, -4
	.loc 1 417 0
	mov	r4, r0
.LBB28:
.LBB29:
	.loc 1 111 0
	ldr	r0, [r0]
.LVL171:
	bl	os_mem_free
.LVL172:
.LBE29:
.LBE28:
	.loc 1 419 0
	mov	r0, r4
	.loc 1 420 0
	pop	{r4, lr}
	.cfi_restore 14
	.cfi_restore 4
	.cfi_def_cfa_offset 0
.LVL173:
	.loc 1 419 0
	b	os_mem_free
.LVL174:
	.cfi_endproc
.LFE14:
	.size	epb_unpack_init_response_free, .-epb_unpack_init_response_free
	.section	.text.epb_send_data_request_pack_size,"ax",%progbits
	.align	1
	.global	epb_send_data_request_pack_size
	.syntax unified
	.thumb
	.thumb_func
	.fpu softvfp
	.type	epb_send_data_request_pack_size, %function
epb_send_data_request_pack_size:
.LFB15:
	.loc 1 423 0
	.cfi_startproc
	@ args = 0, pretend = 0, frame = 0
	@ frame_needed = 0, uses_anonymous_args = 0
.LVL175:
	push	{r3, r4, r5, lr}
	.cfi_def_cfa_offset 16
	.cfi_offset 3, -16
	.cfi_offset 4, -12
	.cfi_offset 5, -8
	.cfi_offset 14, -4
	.loc 1 428 0
	movs	r1, #0
	.loc 1 423 0
	mov	r5, r0
.LVL176:
	.loc 1 428 0
	movs	r0, #10
.LVL177:
	bl	epb_length_delimited_pack_size
.LVL178:
	.loc 1 429 0
	ldr	r1, [r5, #8]
	.loc 1 428 0
	mov	r4, r0
.LVL179:
	.loc 1 429 0
	movs	r0, #18
.LVL180:
	bl	epb_length_delimited_pack_size
.LVL181:
	.loc 1 430 0
	ldrb	r3, [r5, #12]	@ zero_extendqisi2
	.loc 1 429 0
	add	r4, r4, r0
.LVL182:
	.loc 1 430 0
	cbz	r3, .L142
	.loc 1 432 0
	movs	r2, #0
	ldrh	r1, [r5, #14]
	movs	r0, #24
	bl	epb_varint32_pack_size
.LVL183:
	add	r4, r4, r0
.LVL184:
.L142:
	.loc 1 436 0
	mov	r0, r4
	pop	{r3, r4, r5, pc}
	.cfi_endproc
.LFE15:
	.size	epb_send_data_request_pack_size, .-epb_send_data_request_pack_size
	.section	.text.epb_pack_send_data_request,"ax",%progbits
	.align	1
	.global	epb_pack_send_data_request
	.syntax unified
	.thumb
	.thumb_func
	.fpu softvfp
	.type	epb_pack_send_data_request, %function
epb_pack_send_data_request:
.LFB16:
	.loc 1 439 0
	.cfi_startproc
	@ args = 0, pretend = 0, frame = 16
	@ frame_needed = 0, uses_anonymous_args = 0
.LVL185:
	push	{r0, r1, r2, r3, r4, r5, r6, lr}
	.cfi_def_cfa_offset 32
	.cfi_offset 4, -16
	.cfi_offset 5, -12
	.cfi_offset 6, -8
	.cfi_offset 14, -4
	.loc 1 439 0
	mov	r5, r0
	.loc 1 441 0
	mov	r0, sp
.LVL186:
	bl	epb_pack_init
.LVL187:
	.loc 1 448 0
	movs	r1, #0
	mov	r3, #448
	ldr	r2, .L152
	mov	r0, r1
	bl	os_mem_alloc_intern
.LVL188:
	.loc 1 449 0
	movs	r2, #0
	mov	r1, r0
	.loc 1 448 0
	mov	r6, r0
.LVL189:
	.loc 1 449 0
	ldr	r0, [r5]
.LVL190:
	bl	epb_pack_base_request
.LVL191:
	.loc 1 450 0
	subs	r4, r0, #0
	bge	.L148
	.loc 1 452 0
	mov	r0, r6
.LVL192:
	bl	os_mem_free
.LVL193:
.L147:
	.loc 1 467 0
	mov	r0, r4
	add	sp, sp, #16
	.cfi_remember_state
	.cfi_def_cfa_offset 16
	@ sp needed
	pop	{r4, r5, r6, pc}
.LVL194:
.L148:
	.cfi_restore_state
	.loc 1 455 0
	movs	r3, #0
	mov	r2, r6
	movs	r1, #10
	mov	r0, sp
.LVL195:
	bl	epb_set_message
.LVL196:
	mov	r4, r0
.LVL197:
	.loc 1 456 0
	mov	r0, r6
.LVL198:
	bl	os_mem_free
.LVL199:
	.loc 1 457 0
	cmp	r4, #0
	blt	.L147
	.loc 1 458 0
	ldr	r3, [r5, #8]
	ldr	r2, [r5, #4]
	movs	r1, #18
	mov	r0, sp
	bl	epb_set_bytes
.LVL200:
	.loc 1 459 0
	subs	r4, r0, #0
	blt	.L147
	.loc 1 460 0
	ldrb	r3, [r5, #12]	@ zero_extendqisi2
	cbnz	r3, .L150
.L151:
	.loc 1 466 0
	mov	r0, sp
.LVL201:
	bl	epb_get_packed_size
.LVL202:
	mov	r4, r0
.LVL203:
	b	.L147
.LVL204:
.L150:
	.loc 1 462 0
	ldrh	r2, [r5, #14]
	movs	r1, #24
	mov	r0, sp
.LVL205:
	bl	epb_set_enum
.LVL206:
	.loc 1 463 0
	subs	r4, r0, #0
	bge	.L151
	b	.L147
.L153:
	.align	2
.L152:
	.word	.LANCHOR6
	.cfi_endproc
.LFE16:
	.size	epb_pack_send_data_request, .-epb_pack_send_data_request
	.section	.text.epb_unpack_send_data_response,"ax",%progbits
	.align	1
	.global	epb_unpack_send_data_response
	.syntax unified
	.thumb
	.thumb_func
	.fpu softvfp
	.type	epb_unpack_send_data_response, %function
epb_unpack_send_data_response:
.LFB17:
	.loc 1 470 0
	.cfi_startproc
	@ args = 0, pretend = 0, frame = 24
	@ frame_needed = 0, uses_anonymous_args = 0
.LVL207:
	push	{r4, r5, lr}
	.cfi_def_cfa_offset 12
	.cfi_offset 4, -12
	.cfi_offset 5, -8
	.cfi_offset 14, -4
	sub	sp, sp, #28
	.cfi_def_cfa_offset 40
	.loc 1 472 0
	mov	r2, r1
	mov	r1, r0
.LVL208:
	add	r0, sp, #8
.LVL209:
	bl	epb_unpack_init
.LVL210:
	.loc 1 477 0
	movs	r1, #10
	add	r0, sp, #8
	bl	epb_has_tag
.LVL211:
	cbz	r0, .L157
	.loc 1 482 0
	movw	r3, #483
	ldr	r2, .L161
	movs	r1, #16
	movs	r0, #0
	bl	os_mem_alloc_intern
.LVL212:
	.loc 1 484 0
	movs	r2, #16
	movs	r1, #0
	.loc 1 482 0
	mov	r4, r0
.LVL213:
	.loc 1 484 0
	bl	memset
.LVL214:
	.loc 1 485 0
	add	r2, sp, #4
	movs	r1, #10
	add	r0, sp, #8
	bl	epb_get_message
.LVL215:
	.loc 1 486 0
	ldr	r1, [sp, #4]
	bl	epb_unpack_base_response
.LVL216:
	mov	r5, r0
	str	r0, [r4]
	.loc 1 487 0
	cbnz	r0, .L156
	.loc 1 489 0
	mov	r0, r4
	bl	os_mem_free
.LVL217:
	.loc 1 490 0
	mov	r4, r5
.LVL218:
.L154:
	.loc 1 499 0
	mov	r0, r4
	add	sp, sp, #28
	.cfi_remember_state
	.cfi_def_cfa_offset 12
	@ sp needed
	pop	{r4, r5, pc}
.LVL219:
.L156:
	.cfi_restore_state
	.loc 1 492 0
	movs	r1, #18
	add	r0, sp, #8
	bl	epb_has_tag
.LVL220:
	cmp	r0, #0
	beq	.L154
	.loc 1 494 0
	add	r2, r4, #12
	movs	r1, #18
	add	r0, sp, #8
	bl	epb_get_bytes
.LVL221:
	.loc 1 495 0
	movs	r3, #1
	.loc 1 494 0
	str	r0, [r4, #8]
	.loc 1 495 0
	strb	r3, [r4, #4]
	b	.L154
.LVL222:
.L157:
	.loc 1 479 0
	mov	r4, r0
	b	.L154
.L162:
	.align	2
.L161:
	.word	.LANCHOR7
	.cfi_endproc
.LFE17:
	.size	epb_unpack_send_data_response, .-epb_unpack_send_data_response
	.section	.text.epb_unpack_send_data_response_free,"ax",%progbits
	.align	1
	.global	epb_unpack_send_data_response_free
	.syntax unified
	.thumb
	.thumb_func
	.fpu softvfp
	.type	epb_unpack_send_data_response_free, %function
epb_unpack_send_data_response_free:
.LFB18:
	.loc 1 502 0
	.cfi_startproc
	@ args = 0, pretend = 0, frame = 0
	@ frame_needed = 0, uses_anonymous_args = 0
.LVL223:
	push	{r4, lr}
	.cfi_def_cfa_offset 8
	.cfi_offset 4, -8
	.cfi_offset 14, -4
	.loc 1 502 0
	mov	r4, r0
.LBB30:
.LBB31:
	.loc 1 111 0
	ldr	r0, [r0]
.LVL224:
	bl	os_mem_free
.LVL225:
.LBE31:
.LBE30:
	.loc 1 504 0
	mov	r0, r4
	.loc 1 505 0
	pop	{r4, lr}
	.cfi_restore 14
	.cfi_restore 4
	.cfi_def_cfa_offset 0
.LVL226:
	.loc 1 504 0
	b	os_mem_free
.LVL227:
	.cfi_endproc
.LFE18:
	.size	epb_unpack_send_data_response_free, .-epb_unpack_send_data_response_free
	.section	.text.epb_unpack_recv_data_push,"ax",%progbits
	.align	1
	.global	epb_unpack_recv_data_push
	.syntax unified
	.thumb
	.thumb_func
	.fpu softvfp
	.type	epb_unpack_recv_data_push, %function
epb_unpack_recv_data_push:
.LFB19:
	.loc 1 508 0
	.cfi_startproc
	@ args = 0, pretend = 0, frame = 24
	@ frame_needed = 0, uses_anonymous_args = 0
.LVL228:
	push	{r4, r5, lr}
	.cfi_def_cfa_offset 12
	.cfi_offset 4, -12
	.cfi_offset 5, -8
	.cfi_offset 14, -4
	sub	sp, sp, #28
	.cfi_def_cfa_offset 40
	.loc 1 510 0
	mov	r2, r1
	mov	r1, r0
.LVL229:
	add	r0, sp, #8
.LVL230:
	bl	epb_unpack_init
.LVL231:
	.loc 1 515 0
	movs	r1, #10
	add	r0, sp, #8
	bl	epb_has_tag
.LVL232:
	cbnz	r0, .L165
.L167:
	.loc 1 517 0
	movs	r4, #0
.L164:
	.loc 1 541 0
	mov	r0, r4
	add	sp, sp, #28
	.cfi_remember_state
	.cfi_def_cfa_offset 12
	@ sp needed
	pop	{r4, r5, pc}
.L165:
	.cfi_restore_state
	.loc 1 519 0
	movs	r1, #18
	add	r0, sp, #8
	bl	epb_has_tag
.LVL233:
	cmp	r0, #0
	beq	.L167
	.loc 1 524 0
	mov	r3, #524
	ldr	r2, .L175
	movs	r1, #16
	movs	r0, #0
	bl	os_mem_alloc_intern
.LVL234:
	.loc 1 525 0
	movs	r2, #16
	movs	r1, #0
	.loc 1 524 0
	mov	r4, r0
.LVL235:
	.loc 1 525 0
	bl	memset
.LVL236:
	.loc 1 526 0
	add	r2, sp, #4
	movs	r1, #10
	add	r0, sp, #8
	bl	epb_get_message
.LVL237:
	.loc 1 527 0
	ldr	r1, [sp, #4]
	bl	epb_unpack_base_push
.LVL238:
	str	r0, [r4]
	.loc 1 528 0
	cbnz	r0, .L168
	.loc 1 530 0
	mov	r0, r4
	bl	os_mem_free
.LVL239:
	b	.L167
.L168:
	.loc 1 533 0
	movs	r1, #18
	add	r2, r4, #8
	add	r0, sp, #8
	bl	epb_get_bytes
.LVL240:
	.loc 1 534 0
	movs	r1, #24
	.loc 1 533 0
	str	r0, [r4, #4]
	.loc 1 534 0
	add	r0, sp, #8
	bl	epb_has_tag
.LVL241:
	cmp	r0, #0
	beq	.L164
	.loc 1 536 0
	movs	r1, #24
	add	r0, sp, #8
	bl	epb_get_enum
.LVL242:
	.loc 1 537 0
	movs	r3, #1
	.loc 1 536 0
	strh	r0, [r4, #14]	@ movhi
	.loc 1 537 0
	strb	r3, [r4, #12]
	b	.L164
.L176:
	.align	2
.L175:
	.word	.LANCHOR8
	.cfi_endproc
.LFE19:
	.size	epb_unpack_recv_data_push, .-epb_unpack_recv_data_push
	.section	.text.epb_unpack_recv_data_push_free,"ax",%progbits
	.align	1
	.global	epb_unpack_recv_data_push_free
	.syntax unified
	.thumb
	.thumb_func
	.fpu softvfp
	.type	epb_unpack_recv_data_push_free, %function
epb_unpack_recv_data_push_free:
.LFB20:
	.loc 1 544 0
	.cfi_startproc
	@ args = 0, pretend = 0, frame = 0
	@ frame_needed = 0, uses_anonymous_args = 0
.LVL243:
	push	{r4, lr}
	.cfi_def_cfa_offset 8
	.cfi_offset 4, -8
	.cfi_offset 14, -4
	.loc 1 544 0
	mov	r4, r0
.LBB32:
.LBB33:
	.loc 1 127 0
	ldr	r0, [r0]
.LVL244:
	bl	os_mem_free
.LVL245:
.LBE33:
.LBE32:
	.loc 1 546 0
	mov	r0, r4
	.loc 1 547 0
	pop	{r4, lr}
	.cfi_restore 14
	.cfi_restore 4
	.cfi_def_cfa_offset 0
.LVL246:
	.loc 1 546 0
	b	os_mem_free
.LVL247:
	.cfi_endproc
.LFE20:
	.size	epb_unpack_recv_data_push_free, .-epb_unpack_recv_data_push_free
	.section	.text.epb_unpack_switch_view_push,"ax",%progbits
	.align	1
	.global	epb_unpack_switch_view_push
	.syntax unified
	.thumb
	.thumb_func
	.fpu softvfp
	.type	epb_unpack_switch_view_push, %function
epb_unpack_switch_view_push:
.LFB21:
	.loc 1 550 0
	.cfi_startproc
	@ args = 0, pretend = 0, frame = 24
	@ frame_needed = 0, uses_anonymous_args = 0
.LVL248:
	push	{r4, r5, lr}
	.cfi_def_cfa_offset 12
	.cfi_offset 4, -12
	.cfi_offset 5, -8
	.cfi_offset 14, -4
	sub	sp, sp, #28
	.cfi_def_cfa_offset 40
	.loc 1 552 0
	mov	r2, r1
	mov	r1, r0
.LVL249:
	add	r0, sp, #8
.LVL250:
	bl	epb_unpack_init
.LVL251:
	.loc 1 557 0
	movs	r1, #10
	add	r0, sp, #8
	bl	epb_has_tag
.LVL252:
	cbnz	r0, .L179
.L181:
	.loc 1 559 0
	movs	r4, #0
.L178:
	.loc 1 583 0
	mov	r0, r4
	add	sp, sp, #28
	.cfi_remember_state
	.cfi_def_cfa_offset 12
	@ sp needed
	pop	{r4, r5, pc}
.L179:
	.cfi_restore_state
	.loc 1 561 0
	movs	r1, #16
	add	r0, sp, #8
	bl	epb_has_tag
.LVL253:
	cmp	r0, #0
	beq	.L181
	.loc 1 565 0
	movs	r1, #24
	add	r0, sp, #8
	bl	epb_has_tag
.LVL254:
	cmp	r0, #0
	beq	.L181
	.loc 1 570 0
	movw	r3, #570
	ldr	r2, .L189
	movs	r1, #8
	movs	r0, #0
	bl	os_mem_alloc_intern
.LVL255:
	.loc 1 571 0
	movs	r3, #0
	.loc 1 570 0
	mov	r4, r0
.LVL256:
	.loc 1 571 0
	str	r3, [r0]	@ unaligned
	str	r3, [r0, #4]	@ unaligned
	.loc 1 572 0
	add	r2, sp, #4
	movs	r1, #10
	add	r0, sp, #8
.LVL257:
	bl	epb_get_message
.LVL258:
	.loc 1 573 0
	ldr	r1, [sp, #4]
	bl	epb_unpack_base_push
.LVL259:
	str	r0, [r4]
	.loc 1 574 0
	cbnz	r0, .L182
	.loc 1 576 0
	mov	r0, r4
	bl	os_mem_free
.LVL260:
	b	.L181
.L182:
	.loc 1 579 0
	movs	r1, #16
	add	r0, sp, #8
	bl	epb_get_enum
.LVL261:
	.loc 1 580 0
	movs	r1, #24
	.loc 1 579 0
	strb	r0, [r4, #4]
	.loc 1 580 0
	add	r0, sp, #8
	bl	epb_get_enum
.LVL262:
	strb	r0, [r4, #5]
	.loc 1 582 0
	b	.L178
.L190:
	.align	2
.L189:
	.word	.LANCHOR9
	.cfi_endproc
.LFE21:
	.size	epb_unpack_switch_view_push, .-epb_unpack_switch_view_push
	.section	.text.epb_unpack_switch_view_push_free,"ax",%progbits
	.align	1
	.global	epb_unpack_switch_view_push_free
	.syntax unified
	.thumb
	.thumb_func
	.fpu softvfp
	.type	epb_unpack_switch_view_push_free, %function
epb_unpack_switch_view_push_free:
.LFB22:
	.loc 1 586 0
	.cfi_startproc
	@ args = 0, pretend = 0, frame = 0
	@ frame_needed = 0, uses_anonymous_args = 0
.LVL263:
	push	{r4, lr}
	.cfi_def_cfa_offset 8
	.cfi_offset 4, -8
	.cfi_offset 14, -4
	.loc 1 586 0
	mov	r4, r0
.LBB34:
.LBB35:
	.loc 1 127 0
	ldr	r0, [r0]
.LVL264:
	bl	os_mem_free
.LVL265:
.LBE35:
.LBE34:
	.loc 1 588 0
	mov	r0, r4
	.loc 1 589 0
	pop	{r4, lr}
	.cfi_restore 14
	.cfi_restore 4
	.cfi_def_cfa_offset 0
.LVL266:
	.loc 1 588 0
	b	os_mem_free
.LVL267:
	.cfi_endproc
.LFE22:
	.size	epb_unpack_switch_view_push_free, .-epb_unpack_switch_view_push_free
	.section	.text.epb_unpack_switch_backgroud_push,"ax",%progbits
	.align	1
	.global	epb_unpack_switch_backgroud_push
	.syntax unified
	.thumb
	.thumb_func
	.fpu softvfp
	.type	epb_unpack_switch_backgroud_push, %function
epb_unpack_switch_backgroud_push:
.LFB23:
	.loc 1 592 0
	.cfi_startproc
	@ args = 0, pretend = 0, frame = 24
	@ frame_needed = 0, uses_anonymous_args = 0
.LVL268:
	push	{r4, r5, lr}
	.cfi_def_cfa_offset 12
	.cfi_offset 4, -12
	.cfi_offset 5, -8
	.cfi_offset 14, -4
	sub	sp, sp, #28
	.cfi_def_cfa_offset 40
	.loc 1 594 0
	mov	r2, r1
	mov	r1, r0
.LVL269:
	add	r0, sp, #8
.LVL270:
	bl	epb_unpack_init
.LVL271:
	.loc 1 599 0
	movs	r1, #10
	add	r0, sp, #8
	bl	epb_has_tag
.LVL272:
	cbnz	r0, .L193
.L195:
	.loc 1 601 0
	movs	r4, #0
.L192:
	.loc 1 622 0
	mov	r0, r4
	add	sp, sp, #28
	.cfi_remember_state
	.cfi_def_cfa_offset 12
	@ sp needed
	pop	{r4, r5, pc}
.L193:
	.cfi_restore_state
	.loc 1 603 0
	movs	r1, #16
	add	r0, sp, #8
	bl	epb_has_tag
.LVL273:
	cmp	r0, #0
	beq	.L195
	.loc 1 608 0
	movw	r3, #609
	ldr	r2, .L200
	movs	r1, #8
	movs	r0, #0
	bl	os_mem_alloc_intern
.LVL274:
	.loc 1 610 0
	movs	r3, #0
	.loc 1 608 0
	mov	r4, r0
.LVL275:
	.loc 1 610 0
	str	r3, [r0]	@ unaligned
	str	r3, [r0, #4]	@ unaligned
	.loc 1 611 0
	add	r2, sp, #4
	movs	r1, #10
	add	r0, sp, #8
.LVL276:
	bl	epb_get_message
.LVL277:
	.loc 1 612 0
	ldr	r1, [sp, #4]
	bl	epb_unpack_base_push
.LVL278:
	str	r0, [r4]
	.loc 1 613 0
	cbnz	r0, .L196
	.loc 1 615 0
	mov	r0, r4
	bl	os_mem_free
.LVL279:
	b	.L195
.L196:
	.loc 1 618 0
	movs	r1, #16
	add	r0, sp, #8
	bl	epb_get_enum
.LVL280:
	strb	r0, [r4, #4]
	.loc 1 621 0
	b	.L192
.L201:
	.align	2
.L200:
	.word	.LANCHOR10
	.cfi_endproc
.LFE23:
	.size	epb_unpack_switch_backgroud_push, .-epb_unpack_switch_backgroud_push
	.section	.text.epb_unpack_switch_backgroud_push_free,"ax",%progbits
	.align	1
	.global	epb_unpack_switch_backgroud_push_free
	.syntax unified
	.thumb
	.thumb_func
	.fpu softvfp
	.type	epb_unpack_switch_backgroud_push_free, %function
epb_unpack_switch_backgroud_push_free:
.LFB24:
	.loc 1 625 0
	.cfi_startproc
	@ args = 0, pretend = 0, frame = 0
	@ frame_needed = 0, uses_anonymous_args = 0
.LVL281:
	push	{r4, lr}
	.cfi_def_cfa_offset 8
	.cfi_offset 4, -8
	.cfi_offset 14, -4
	.loc 1 625 0
	mov	r4, r0
.LBB36:
.LBB37:
	.loc 1 127 0
	ldr	r0, [r0]
.LVL282:
	bl	os_mem_free
.LVL283:
.LBE37:
.LBE36:
	.loc 1 627 0
	mov	r0, r4
	.loc 1 628 0
	pop	{r4, lr}
	.cfi_restore 14
	.cfi_restore 4
	.cfi_def_cfa_offset 0
.LVL284:
	.loc 1 627 0
	b	os_mem_free
.LVL285:
	.cfi_endproc
.LFE24:
	.size	epb_unpack_switch_backgroud_push_free, .-epb_unpack_switch_backgroud_push_free
	.section	.rodata.__func__.6167,"a",%progbits
	.set	.LANCHOR0,. + 0
	.type	__func__.6167, %object
	.size	__func__.6167, 25
__func__.6167:
	.ascii	"epb_unpack_base_response\000"
	.section	.rodata.__func__.6177,"a",%progbits
	.set	.LANCHOR1,. + 0
	.type	__func__.6177, %object
	.size	__func__.6177, 21
__func__.6177:
	.ascii	"epb_unpack_base_push\000"
	.section	.rodata.__func__.6195,"a",%progbits
	.set	.LANCHOR2,. + 0
	.type	__func__.6195, %object
	.size	__func__.6195, 22
__func__.6195:
	.ascii	"epb_pack_auth_request\000"
	.section	.rodata.__func__.6204,"a",%progbits
	.set	.LANCHOR3,. + 0
	.type	__func__.6204, %object
	.size	__func__.6204, 25
__func__.6204:
	.ascii	"epb_unpack_auth_response\000"
	.section	.rodata.__func__.6222,"a",%progbits
	.set	.LANCHOR4,. + 0
	.type	__func__.6222, %object
	.size	__func__.6222, 22
__func__.6222:
	.ascii	"epb_pack_init_request\000"
	.section	.rodata.__func__.6231,"a",%progbits
	.set	.LANCHOR5,. + 0
	.type	__func__.6231, %object
	.size	__func__.6231, 25
__func__.6231:
	.ascii	"epb_unpack_init_response\000"
	.section	.rodata.__func__.6249,"a",%progbits
	.set	.LANCHOR6,. + 0
	.type	__func__.6249, %object
	.size	__func__.6249, 27
__func__.6249:
	.ascii	"epb_pack_send_data_request\000"
	.section	.rodata.__func__.6258,"a",%progbits
	.set	.LANCHOR7,. + 0
	.type	__func__.6258, %object
	.size	__func__.6258, 30
__func__.6258:
	.ascii	"epb_unpack_send_data_response\000"
	.section	.rodata.__func__.6270,"a",%progbits
	.set	.LANCHOR8,. + 0
	.type	__func__.6270, %object
	.size	__func__.6270, 26
__func__.6270:
	.ascii	"epb_unpack_recv_data_push\000"
	.section	.rodata.__func__.6282,"a",%progbits
	.set	.LANCHOR9,. + 0
	.type	__func__.6282, %object
	.size	__func__.6282, 28
__func__.6282:
	.ascii	"epb_unpack_switch_view_push\000"
	.section	.rodata.__func__.6294,"a",%progbits
	.set	.LANCHOR10,. + 0
	.type	__func__.6294, %object
	.size	__func__.6294, 33
__func__.6294:
	.ascii	"epb_unpack_switch_backgroud_push\000"
	.text
.Letext0:
	.file 2 "/home/ls/samba_share/sdk-ameba-v7.1d/tools/arm-none-eabi-gcc/asdk/linux/newlib/arm-none-eabi/include/machine/_default_types.h"
	.file 3 "/home/ls/samba_share/sdk-ameba-v7.1d/tools/arm-none-eabi-gcc/asdk/linux/newlib/arm-none-eabi/include/sys/lock.h"
	.file 4 "/home/ls/samba_share/sdk-ameba-v7.1d/tools/arm-none-eabi-gcc/asdk/linux/newlib/arm-none-eabi/include/sys/_types.h"
	.file 5 "/home/ls/samba_share/sdk-ameba-v7.1d/tools/arm-none-eabi-gcc/asdk/linux/newlib/lib/gcc/arm-none-eabi/6.5.0/include/stddef.h"
	.file 6 "/home/ls/samba_share/sdk-ameba-v7.1d/tools/arm-none-eabi-gcc/asdk/linux/newlib/arm-none-eabi/include/sys/reent.h"
	.file 7 "/home/ls/samba_share/sdk-ameba-v7.1d/tools/arm-none-eabi-gcc/asdk/linux/newlib/arm-none-eabi/include/sys/_stdint.h"
	.file 8 "/home/ls/samba_share/sdk-ameba-v7.1d/tools/arm-none-eabi-gcc/asdk/linux/newlib/arm-none-eabi/include/time.h"
	.file 9 "/home/ls/samba_share/sdk-ameba-v7.1d/tools/arm-none-eabi-gcc/asdk/linux/newlib/arm-none-eabi/include/stdlib.h"
	.file 10 "../../../component/common/application/airsync/1.0.4/epb.h"
	.file 11 "../../../component/common/application/airsync/1.0.4/epb_MmBp.h"
	.file 12 "../../../component/common/bluetooth/realtek/sdk/inc/platform/mem_types.h"
	.file 13 "../../../component/common/bluetooth/realtek/sdk/inc/os/os_mem.h"