	.arch armv8-m.main
	.arch_extension dsp
	.eabi_attribute 20, 1
	.eabi_attribute 21, 1
	.eabi_attribute 23, 3
	.eabi_attribute 24, 1
	.eabi_attribute 25, 1
	.eabi_attribute 26, 1
	.eabi_attribute 30, 4
	.eabi_attribute 34, 1
	.eabi_attribute 18, 4
	.file	"etharp.c"
	.text
.Ltext0:
	.cfi_sections	.debug_frame
	.section	.text.etharp_free_entry,"ax",%progbits
	.align	1
	.syntax unified
	.thumb
	.thumb_func
	.fpu softvfp
	.type	etharp_free_entry, %function
etharp_free_entry:
.LFB1:
	.file 1 "../../../component/common/network/lwip/lwip_v2.0.2/src/core/ipv4/etharp.c"
	.loc 1 176 0
	.cfi_startproc
	@ args = 0, pretend = 0, frame = 0
	@ frame_needed = 0, uses_anonymous_args = 0
.LVL0:
	push	{r4, r5, r6, lr}
	.cfi_def_cfa_offset 16
	.cfi_offset 4, -16
	.cfi_offset 5, -12
	.cfi_offset 6, -8
	.cfi_offset 14, -4
	.loc 1 180 0
	movs	r6, #24
	muls	r6, r0, r6
	ldr	r4, .L6
	.loc 1 176 0
	mov	r5, r0
	.loc 1 180 0
	ldr	r0, [r4, r6]
.LVL1:
	cbz	r0, .L2
	.loc 1 183 0
	bl	pbuf_free
.LVL2:
	.loc 1 184 0
	movs	r3, #0
	str	r3, [r4, r6]
.L2:
	.loc 1 187 0
	movs	r3, #24
	mla	r4, r3, r5, r4
	movs	r3, #0
	strb	r3, [r4, #20]
	pop	{r4, r5, r6, pc}
.LVL3:
.L7:
	.align	2
.L6:
	.word	.LANCHOR0
	.cfi_endproc
.LFE1:
	.size	etharp_free_entry, .-etharp_free_entry
	.section	.text.etharp_find_entry.isra.0,"ax",%progbits
	.align	1
	.syntax unified
	.thumb
	.thumb_func
	.fpu softvfp
	.type	etharp_find_entry.isra.0, %function
etharp_find_entry.isra.0:
.LFB17:
	.loc 1 263 0
	.cfi_startproc
	@ args = 0, pretend = 0, frame = 8
	@ frame_needed = 0, uses_anonymous_args = 0
.LVL4:
	push	{r0, r1, r2, r4, r5, r6, r7, r8, r9, r10, fp, lr}
	.cfi_def_cfa_offset 48
	.cfi_offset 4, -36
	.cfi_offset 5, -32
	.cfi_offset 6, -28
	.cfi_offset 7, -24
	.cfi_offset 8, -20
	.cfi_offset 9, -16
	.cfi_offset 10, -12
	.cfi_offset 11, -8
	.cfi_offset 14, -4
	.loc 1 269 0
	movs	r2, #10
	.loc 1 263 0
	mov	r5, r0
	movs	r0, #0
.LVL5:
	ldr	r3, .L41
	.loc 1 265 0
	mov	r6, r2
	mov	ip, r2
	.loc 1 271 0
	mov	r9, r0
	mov	lr, r0
	mov	fp, r0
	.loc 1 266 0
	mov	r4, r2
	mov	r8, r3
	.loc 1 263 0
	str	r1, [sp, #4]
.LVL6:
.L15:
.LBB3:
	.loc 1 293 0
	cmp	r4, #10
	.loc 1 291 0
	ldrb	r7, [r3, #20]	@ zero_extendqisi2
.LVL7:
	.loc 1 293 0
	bne	.L9
.LVL8:
	cbnz	r7, .L10
	.loc 1 296 0
	sxtb	r4, r0
.LVL9:
.L11:
	adds	r0, r0, #1
.LVL10:
.LBE3:
	.loc 1 290 0
	cmp	r0, #10
	add	r3, r3, #24
.LVL11:
	bne	.L15
	.loc 1 345 0
	ldr	r3, [sp, #4]
.LVL12:
	lsls	r1, r3, #30
	bmi	.L27
	cmp	r4, #10
	bne	.L16
	.loc 1 347 0
	lsls	r3, r3, #31
	bmi	.L39
.L27:
	.loc 1 349 0
	mov	r0, #-1
	b	.L38
.LVL13:
.L9:
.LBB4:
	.loc 1 297 0
	cmp	r7, #0
	beq	.L11
.LVL14:
.L10:
	.loc 1 301 0
	cmp	r5, #0
	beq	.L12
	ldr	r1, [r5]
	mov	r10, r1
	ldr	r1, [r3, #4]
	cmp	r10, r1
	bne	.L12
	.loc 1 308 0
	sxtb	r0, r0
.LVL15:
.L38:
.LBE4:
	.loc 1 408 0
	add	sp, sp, #12
	.cfi_remember_state
	.cfi_def_cfa_offset 36
	@ sp needed
	pop	{r4, r5, r6, r7, r8, r9, r10, fp, pc}
.LVL16:
.L14:
	.cfi_restore_state
.LBB5:
	.loc 1 321 0
	cmp	r10, lr
	bcc	.L11
	.loc 1 322 0
	sxtb	r6, r0
.LVL17:
	mov	lr, r10
	b	.L11
.LVL18:
.L40:
	.loc 1 330 0
	cmp	r7, #4
	bhi	.L11
	.loc 1 334 0
	ldrh	r7, [r3, #18]
.LVL19:
	cmp	r7, r9
	.loc 1 335 0
	itt	cs
	sxtbcs	ip, r0
.LVL20:
	movcs	r9, r7
	b	.L11
.LVL21:
.L16:
.LBE5:
	.loc 1 363 0
	uxtb	r4, r4
.LVL22:
.L18:
	.loc 1 399 0
	cbz	r5, .L22
	.loc 1 401 0
	movs	r3, #24
	mla	r3, r3, r4, r8
	ldr	r2, [r5]
	str	r2, [r3, #4]
.L22:
	.loc 1 403 0
	movs	r3, #24
	mla	r8, r3, r4, r8
	movs	r3, #0
	.loc 1 407 0
	sxtb	r0, r4
	.loc 1 403 0
	strh	r3, [r8, #18]	@ movhi
	b	.L38
.LVL23:
.L39:
	.loc 1 367 0
	cmp	ip, #10
	beq	.L19
	.loc 1 369 0
	uxtb	r4, ip
.LVL24:
.L20:
	.loc 1 391 0
	mov	r0, r4
	bl	etharp_free_entry
.LVL25:
	b	.L18
.LVL26:
.L19:
	.loc 1 374 0
	cmp	r6, #10
	beq	.L21
	.loc 1 376 0
	uxtb	r4, r6
.LVL27:
	b	.L20
.LVL28:
.L21:
	.loc 1 379 0
	cmp	r2, #10
	beq	.L27
	.loc 1 381 0
	uxtb	r4, r2
.LVL29:
	b	.L20
.LVL30:
.L12:
.LBB6:
	.loc 1 311 0
	cmp	r7, #1
	bne	.L40
	.loc 1 313 0
	ldr	r7, [r3]
.LVL31:
	ldrh	r10, [r3, #18]
	cmp	r7, #0
	beq	.L14
	.loc 1 314 0
	cmp	r10, fp
	bcc	.L11
	.loc 1 315 0
	sxtb	r2, r0
.LVL32:
	mov	fp, r10
	b	.L11
.L42:
	.align	2
.L41:
	.word	.LANCHOR0
.LBE6:
	.cfi_endproc
.LFE17:
	.size	etharp_find_entry.isra.0, .-etharp_find_entry.isra.0
	.section	.text.etharp_update_arp_entry,"ax",%progbits
	.align	1
	.syntax unified
	.thumb
	.thumb_func
	.fpu softvfp
	.type	etharp_update_arp_entry, %function
etharp_update_arp_entry:
.LFB4:
	.loc 1 430 0
	.cfi_startproc
	@ args = 0, pretend = 0, frame = 0
	@ frame_needed = 0, uses_anonymous_args = 0
.LVL33:
	push	{r0, r1, r2, r4, r5, r6, r7, lr}
	.cfi_def_cfa_offset 32
	.cfi_offset 4, -20
	.cfi_offset 5, -16
	.cfi_offset 6, -12
	.cfi_offset 7, -8
	.cfi_offset 14, -4
	.loc 1 430 0
	mov	r5, r0
	mov	r6, r2
	mov	r7, r3
	.loc 1 438 0
	mov	r4, r1
	cbnz	r1, .L44
.LVL34:
.L46:
	.loc 1 442 0
	mvn	r0, #15
.LVL35:
.L45:
	.loc 1 498 0
	add	sp, sp, #12
	.cfi_remember_state
	.cfi_def_cfa_offset 20
	@ sp needed
	pop	{r4, r5, r6, r7, pc}
.LVL36:
.L44:
	.cfi_restore_state
	.loc 1 438 0 discriminator 1
	ldr	r0, [r1]
.LVL37:
	cmp	r0, #0
	beq	.L46
	.loc 1 439 0 discriminator 2
	mov	r1, r5
.LVL38:
	bl	ip4_addr_isbroadcast_u32
.LVL39:
	.loc 1 438 0 discriminator 2
	cmp	r0, #0
	bne	.L46
	.loc 1 440 0
	ldr	r3, [r4]
	and	r3, r3, #240
	.loc 1 439 0
	cmp	r3, #224
	beq	.L46
	.loc 1 445 0
	mov	r1, r7
	mov	r0, r4
	bl	etharp_find_entry.isra.0
.LVL40:
	.loc 1 447 0
	cmp	r0, #0
.LVL41:
	blt	.L45
	movs	r3, #24
	ldr	r2, .L58
	.loc 1 452 0
	tst	r7, #4
	.loc 1 454 0
	mla	r3, r3, r0, r2
	.loc 1 452 0
	beq	.L47
	.loc 1 454 0
	movs	r1, #5
.L57:
	.loc 1 462 0
	strb	r1, [r3, #20]
	.loc 1 466 0
	movs	r3, #24
	.loc 1 472 0
	movs	r7, #12
	.loc 1 466 0
	mul	r1, r3, r0
	.loc 1 472 0
	smlabb	r3, r3, r0, r7
	.loc 1 466 0
	adds	r4, r2, r1
.LVL42:
	str	r5, [r4, #8]
	.loc 1 472 0
	ldr	r0, [r6]	@ unaligned
	adds	r7, r2, r3
	str	r0, [r2, r3]
	ldrh	r3, [r6, #4]	@ unaligned
	strh	r3, [r7, #4]	@ unaligned
	.loc 1 474 0
	movs	r7, #0
	strh	r7, [r4, #18]	@ movhi
	.loc 1 488 0
	ldr	r4, [r2, r1]
	cbz	r4, .L50
.LVL43:
.LBB7:
	.loc 1 493 0
	mov	r3, #2048
	.loc 1 490 0
	str	r7, [r2, r1]
	.loc 1 493 0
	mov	r0, r5
	str	r3, [sp]
	add	r2, r5, #49
	mov	r3, r6
	mov	r1, r4
	bl	ethernet_output
.LVL44:
	.loc 1 495 0
	mov	r0, r4
	bl	pbuf_free
.LVL45:
.LBE7:
	.loc 1 497 0
	mov	r0, r7
	b	.L45
.LVL46:
.L47:
	.loc 1 455 0
	ldrb	r1, [r3, #20]	@ zero_extendqisi2
	cmp	r1, #5
	beq	.L49
	.loc 1 462 0
	movs	r1, #2
	b	.L57
.L49:
	.loc 1 457 0
	mvn	r0, #5
	b	.L45
.LVL47:
.L50:
	.loc 1 497 0
	mov	r0, r4
	b	.L45
.L59:
	.align	2
.L58:
	.word	.LANCHOR0
	.cfi_endproc
.LFE4:
	.size	etharp_update_arp_entry, .-etharp_update_arp_entry
	.section	.text.etharp_add_static_entry,"ax",%progbits
	.align	1
	.global	etharp_add_static_entry
	.syntax unified
	.thumb
	.thumb_func
	.fpu softvfp
	.type	etharp_add_static_entry, %function
etharp_add_static_entry:
.LFB5:
	.loc 1 511 0
	.cfi_startproc
	@ args = 0, pretend = 0, frame = 0
	@ frame_needed = 0, uses_anonymous_args = 0
.LVL48:
	push	{r4, r5, r6, lr}
	.cfi_def_cfa_offset 16
	.cfi_offset 4, -16
	.cfi_offset 5, -12
	.cfi_offset 6, -8
	.cfi_offset 14, -4
	.loc 1 511 0
	mov	r4, r0
	mov	r5, r1
	.loc 1 518 0
	bl	ip4_route
.LVL49:
	.loc 1 519 0
	cbz	r0, .L61
	.loc 1 523 0
	mov	r2, r5
	mov	r1, r4
	.loc 1 524 0
	pop	{r4, r5, r6, lr}
	.cfi_remember_state
	.cfi_restore 14
	.cfi_restore 6
	.cfi_restore 5
	.cfi_restore 4
	.cfi_def_cfa_offset 0
.LVL50:
	.loc 1 523 0
	movs	r3, #5
	b	etharp_update_arp_entry
.LVL51:
.L61:
	.cfi_restore_state
	.loc 1 524 0
	mvn	r0, #3
.LVL52:
	pop	{r4, r5, r6, pc}
	.cfi_endproc
.LFE5:
	.size	etharp_add_static_entry, .-etharp_add_static_entry
	.section	.text.etharp_remove_static_entry,"ax",%progbits
	.align	1
	.global	etharp_remove_static_entry
	.syntax unified
	.thumb
	.thumb_func
	.fpu softvfp
	.type	etharp_remove_static_entry, %function
etharp_remove_static_entry:
.LFB6:
	.loc 1 536 0
	.cfi_startproc
	@ args = 0, pretend = 0, frame = 0
	@ frame_needed = 0, uses_anonymous_args = 0
.LVL53:
	push	{r3, lr}
	.cfi_def_cfa_offset 8
	.cfi_offset 3, -8
	.cfi_offset 14, -4
	.loc 1 542 0
	movs	r1, #2
	bl	etharp_find_entry.isra.0
.LVL54:
	.loc 1 544 0
	subs	r3, r0, #0
	blt	.L63
	.loc 1 548 0
	movs	r1, #24
	ldr	r2, .L65
	mla	r3, r1, r3, r2
	ldrb	r3, [r3, #20]	@ zero_extendqisi2
	cmp	r3, #5
	bne	.L64
	.loc 1 553 0
	bl	etharp_free_entry
.LVL55:
	.loc 1 554 0
	movs	r3, #0
.L63:
	.loc 1 555 0
	mov	r0, r3
	pop	{r3, pc}
.LVL56:
.L64:
	.loc 1 550 0
	mvn	r3, #15
	b	.L63
.L66:
	.align	2
.L65:
	.word	.LANCHOR0
	.cfi_endproc
.LFE6:
	.size	etharp_remove_static_entry, .-etharp_remove_static_entry
	.section	.text.etharp_cleanup_netif,"ax",%progbits
	.align	1
	.global	etharp_cleanup_netif
	.syntax unified
	.thumb
	.thumb_func
	.fpu softvfp
	.type	etharp_cleanup_netif, %function
etharp_cleanup_netif:
.LFB7:
	.loc 1 565 0
	.cfi_startproc
	@ args = 0, pretend = 0, frame = 0
	@ frame_needed = 0, uses_anonymous_args = 0
.LVL57:
	push	{r4, r5, r6, lr}
	.cfi_def_cfa_offset 16
	.cfi_offset 4, -16
	.cfi_offset 5, -12
	.cfi_offset 6, -8
	.cfi_offset 14, -4
	.loc 1 565 0
	mov	r6, r0
	movs	r4, #0
	ldr	r5, .L74
.LVL58:
.L69:
.LBB8:
	.loc 1 570 0
	ldrb	r3, [r5, #20]	@ zero_extendqisi2
	cbz	r3, .L68
	.loc 1 570 0 is_stmt 0 discriminator 1
	ldr	r3, [r5, #8]
	cmp	r3, r6
	bne	.L68
	.loc 1 571 0 is_stmt 1
	mov	r0, r4
	bl	etharp_free_entry
.LVL59:
.L68:
	adds	r4, r4, #1
.LVL60:
.LBE8:
	.loc 1 568 0 discriminator 2
	cmp	r4, #10
	add	r5, r5, #24
	bne	.L69
	.loc 1 574 0
	pop	{r4, r5, r6, pc}
.LVL61:
.L75:
	.align	2
.L74:
	.word	.LANCHOR0
	.cfi_endproc
.LFE7:
	.size	etharp_cleanup_netif, .-etharp_cleanup_netif
	.section	.text.etharp_find_addr,"ax",%progbits
	.align	1
	.global	etharp_find_addr
	.syntax unified
	.thumb
	.thumb_func
	.fpu softvfp
	.type	etharp_find_addr, %function
etharp_find_addr:
.LFB8:
	.loc 1 590 0
	.cfi_startproc
	@ args = 0, pretend = 0, frame = 0
	@ frame_needed = 0, uses_anonymous_args = 0
.LVL62:
	push	{r3, r4, r5, r6, r7, lr}
	.cfi_def_cfa_offset 24
	.cfi_offset 3, -24
	.cfi_offset 4, -20
	.cfi_offset 5, -16
	.cfi_offset 6, -12
	.cfi_offset 7, -8
	.cfi_offset 14, -4
	.loc 1 590 0
	mov	r0, r1
.LVL63:
	.loc 1 598 0
	movs	r1, #2
.LVL64:
	.loc 1 590 0
	mov	r7, r2
	mov	r6, r3
	.loc 1 598 0
	bl	etharp_find_entry.isra.0
.LVL65:
	.loc 1 599 0
	cmp	r0, #0
.LVL66:
	blt	.L79
	.loc 1 599 0 is_stmt 0 discriminator 1
	movs	r3, #24
	ldr	r4, .L80
	mla	r3, r3, r0, r4
	ldrb	r3, [r3, #20]	@ zero_extendqisi2
	cmp	r3, #1
	bls	.L79
	sxth	r1, r0
	add	r1, r1, r1, lsl #1
	lsls	r1, r1, #3
	.loc 1 600 0 is_stmt 1
	add	r5, r1, #12
	.loc 1 601 0
	adds	r1, r1, #4
	.loc 1 600 0
	add	r5, r5, r4
	.loc 1 601 0
	add	r1, r1, r4
	.loc 1 600 0
	str	r5, [r7]
	.loc 1 601 0
	str	r1, [r6]
	.loc 1 602 0
	pop	{r3, r4, r5, r6, r7, pc}
.LVL67:
.L79:
	.loc 1 604 0
	mov	r0, #-1
	.loc 1 605 0
	pop	{r3, r4, r5, r6, r7, pc}
.LVL68:
.L81:
	.align	2
.L80:
	.word	.LANCHOR0
	.cfi_endproc
.LFE8:
	.size	etharp_find_addr, .-etharp_find_addr
	.section	.text.etharp_get_entry,"ax",%progbits
	.align	1
	.global	etharp_get_entry
	.syntax unified
	.thumb
	.thumb_func
	.fpu softvfp
	.type	etharp_get_entry, %function
etharp_get_entry:
.LFB9:
	.loc 1 618 0
	.cfi_startproc
	@ args = 0, pretend = 0, frame = 0
	@ frame_needed = 0, uses_anonymous_args = 0
.LVL69:
	.loc 1 623 0
	cmp	r0, #9
	.loc 1 618 0
	push	{r4, r5, r6, lr}
	.cfi_def_cfa_offset 16
	.cfi_offset 4, -16
	.cfi_offset 5, -12
	.cfi_offset 6, -8
	.cfi_offset 14, -4
	.loc 1 623 0
	bhi	.L85
	.loc 1 623 0 is_stmt 0 discriminator 1
	movs	r5, #24
	ldr	r4, .L86
	mla	r5, r5, r0, r4
	ldrb	r6, [r5, #20]	@ zero_extendqisi2
	cmp	r6, #1
	bls	.L85
	add	r0, r0, r0, lsl #1
.LVL70:
	lsls	r0, r0, #3
	.loc 1 624 0 is_stmt 1
	adds	r6, r0, #4
	add	r6, r6, r4
	str	r6, [r1]
	.loc 1 626 0
	adds	r0, r0, #12
	.loc 1 625 0
	ldr	r1, [r5, #8]
.LVL71:
	.loc 1 626 0
	add	r0, r0, r4
	.loc 1 625 0
	str	r1, [r2]
	.loc 1 626 0
	str	r0, [r3]
	.loc 1 627 0
	movs	r0, #1
	pop	{r4, r5, r6, pc}
.LVL72:
.L85:
	.loc 1 629 0
	movs	r0, #0
.LVL73:
	.loc 1 631 0
	pop	{r4, r5, r6, pc}
.L87:
	.align	2
.L86:
	.word	.LANCHOR0
	.cfi_endproc
.LFE9:
	.size	etharp_get_entry, .-etharp_get_entry
	.section	.text.etharp_raw,"ax",%progbits
	.align	1
	.global	etharp_raw
	.syntax unified
	.thumb
	.thumb_func
	.fpu softvfp
	.type	etharp_raw, %function
etharp_raw:
.LFB14:
	.loc 1 1129 0
	.cfi_startproc
	@ args = 16, pretend = 0, frame = 0
	@ frame_needed = 0, uses_anonymous_args = 0
.LVL74:
	push	{r0, r1, r2, r4, r5, r6, r7, r8, r9, r10, fp, lr}
	.cfi_def_cfa_offset 48
	.cfi_offset 4, -36
	.cfi_offset 5, -32
	.cfi_offset 6, -28
	.cfi_offset 7, -24
	.cfi_offset 8, -20
	.cfi_offset 9, -16
	.cfi_offset 10, -12
	.cfi_offset 11, -8
	.cfi_offset 14, -4
	.loc 1 1129 0
	mov	r6, r0
	mov	r7, r1
	mov	r8, r2
	.loc 1 1137 0
	movs	r1, #28
.LVL75:
	movs	r2, #0
.LVL76:
	movs	r0, #2
.LVL77:
	.loc 1 1129 0
	mov	fp, r3
	ldr	r10, [sp, #52]
	ldrh	r4, [sp, #60]
	.loc 1 1137 0
	bl	pbuf_alloc
.LVL78:
	.loc 1 1139 0
	mov	r5, r0
	cmp	r0, #0
	beq	.L94
	.loc 1 1148 0
	ldr	r9, [r0, #4]
.LVL79:
	.loc 1 1150 0
	mov	r0, r4
.LVL80:
	bl	lwip_htons
.LVL81:
	strh	r0, [r9, #6]	@ unaligned
	.loc 1 1156 0
	ldr	r2, [fp]	@ unaligned
	.loc 1 1160 0
	ldr	r3, [sp, #48]
	.loc 1 1156 0
	str	r2, [r9, #8]	@ unaligned
	ldrh	r2, [fp, #4]	@ unaligned
	.loc 1 1163 0
	movs	r1, #1
	.loc 1 1156 0
	strh	r2, [r9, #12]	@ unaligned
	.loc 1 1157 0
	ldr	r2, [r10]	@ unaligned
	subs	r4, r4, #3
	str	r2, [r9, #18]	@ unaligned
	ldrh	r2, [r10, #4]	@ unaligned
	.loc 1 1176 0
	uxth	r4, r4
	.loc 1 1157 0
	strh	r2, [r9, #22]	@ unaligned
	.loc 1 1160 0
	ldr	r2, [r3]	@ unaligned
	str	r2, [r9, #14]	@ unaligned
	.loc 1 1161 0
	ldr	r2, [sp, #56]
	ldr	r2, [r2]	@ unaligned
	.loc 1 1163 0
	strb	r1, [r9, #1]
	.loc 1 1161 0
	str	r2, [r9, #24]	@ unaligned
	.loc 1 1163 0
	movs	r2, #0
	strb	r2, [r9]
	.loc 1 1164 0
	strb	r2, [r9, #3]
	.loc 1 1166 0
	movs	r2, #6
	strb	r2, [r9, #4]
	.loc 1 1167 0
	movs	r2, #4
	strb	r2, [r9, #5]
	.loc 1 1174 0
	ldrh	r2, [r3]
	movw	r3, #65193
	.loc 1 1164 0
	movs	r1, #8
	.loc 1 1174 0
	cmp	r2, r3
	.loc 1 1164 0
	strb	r1, [r9, #2]
	.loc 1 1174 0
	bne	.L90
	.loc 1 1176 0
	cmp	r4, #1
	.loc 1 1177 0
	ite	ls
	movwls	r3, #32821
	.loc 1 1180 0
	movwhi	r3, #2054
	str	r3, [sp]
	ldr	r3, .L98
.L95:
	.loc 1 1189 0
	mov	r2, r7
	mov	r1, r5
	mov	r0, r6
	bl	ethernet_output
.LVL82:
	.loc 1 1194 0
	mov	r0, r5
	bl	pbuf_free
.LVL83:
	.loc 1 1198 0
	movs	r0, #0
.LVL84:
.L89:
	.loc 1 1199 0
	add	sp, sp, #12
	.cfi_remember_state
	.cfi_def_cfa_offset 36
	@ sp needed
	pop	{r4, r5, r6, r7, r8, r9, r10, fp, pc}
.LVL85:
.L90:
	.cfi_restore_state
	.loc 1 1185 0
	cmp	r4, #1
	.loc 1 1186 0
	ite	ls
	movwls	r3, #32821
	.loc 1 1189 0
	movwhi	r3, #2054
	str	r3, [sp]
	mov	r3, r8
	b	.L95
.LVL86:
.L94:
	.loc 1 1143 0
	mov	r0, #-1
.LVL87:
	b	.L89
.L99:
	.align	2
.L98:
	.word	ethbroadcast
	.cfi_endproc
.LFE14:
	.size	etharp_raw, .-etharp_raw
	.section	.text.etharp_input,"ax",%progbits
	.align	1
	.global	etharp_input
	.syntax unified
	.thumb
	.thumb_func
	.fpu softvfp
	.type	etharp_input, %function
etharp_input:
.LFB10:
	.loc 1 647 0
	.cfi_startproc
	@ args = 0, pretend = 0, frame = 8
	@ frame_needed = 0, uses_anonymous_args = 0
.LVL88:
	push	{r4, r5, r6, r7, r8, r9, lr}
	.cfi_def_cfa_offset 28
	.cfi_offset 4, -28
	.cfi_offset 5, -24
	.cfi_offset 6, -20
	.cfi_offset 7, -16
	.cfi_offset 8, -12
	.cfi_offset 9, -8
	.cfi_offset 14, -4
	mov	r7, r0
	sub	sp, sp, #28
	.cfi_def_cfa_offset 56
	.loc 1 653 0
	mov	r5, r1
	cbz	r1, .L100
	.loc 1 655 0
	ldr	r4, [r0, #4]
.LVL89:
	.loc 1 658 0
	ldrh	r3, [r4]	@ unaligned
	cmp	r3, #256
	bne	.L106
	.loc 1 658 0 is_stmt 0 discriminator 1
	ldrb	r3, [r4, #4]	@ zero_extendqisi2
	cmp	r3, #6
	bne	.L106
	.loc 1 659 0 is_stmt 1
	ldrb	r3, [r4, #5]	@ zero_extendqisi2
	cmp	r3, #4
	bne	.L106
	.loc 1 660 0
	ldrh	r3, [r4, #2]	@ unaligned
	cmp	r3, #8
	beq	.L103
.LVL90:
.L106:
	.loc 1 757 0 discriminator 2
	mov	r0, r7
	bl	pbuf_free
.LVL91:
.L100:
	.loc 1 758 0
	add	sp, sp, #28
	.cfi_remember_state
	.cfi_def_cfa_offset 28
	@ sp needed
	pop	{r4, r5, r6, r7, r8, r9, pc}
.LVL92:
.L103:
	.cfi_restore_state
	.loc 1 676 0
	mov	r1, r4
.LVL93:
	mov	r0, r5
.LVL94:
	bl	autoip_arp_reply
.LVL95:
	.loc 1 681 0
	ldr	r3, [r4, #14]	@ unaligned
	.loc 1 685 0
	ldr	r6, [r5, #4]
	.loc 1 681 0
	str	r3, [sp, #20]
	.loc 1 682 0
	ldr	r3, [r4, #24]	@ unaligned
.LVL96:
	.loc 1 685 0
	cbz	r6, .L104
	.loc 1 689 0
	subs	r2, r3, r6
	rsbs	r6, r2, #0
	adcs	r6, r6, r2
.LVL97:
.L104:
	.loc 1 697 0
	cmp	r6, #0
	add	r9, r4, #8
	add	r8, sp, #20
	ite	ne
	movne	r3, #1
.LVL98:
	moveq	r3, #2
	mov	r2, r9
	mov	r1, r8
	mov	r0, r5
	bl	etharp_update_arp_entry
.LVL99:
	.loc 1 701 0
	ldrh	r3, [r4, #6]	@ unaligned
	cmp	r3, #256
	beq	.L107
	.loc 1 701 0 is_stmt 0 discriminator 4
	cmp	r3, #512
	bne	.L106
	.loc 1 742 0 is_stmt 1
	mov	r1, r8
	mov	r0, r5
	bl	dhcp_arp_reply
.LVL100:
	.loc 1 750 0
	b	.L106
.L107:
	.loc 1 710 0
	cmp	r6, #0
	beq	.L106
	.loc 1 712 0
	movs	r2, #2
	.loc 1 713 0
	add	r3, r5, #49
	.loc 1 712 0
	str	r2, [sp, #12]
	.loc 1 714 0
	adds	r2, r5, #4
	.loc 1 712 0
	str	r2, [sp]
	str	r8, [sp, #8]
	str	r9, [sp, #4]
	mov	r2, r9
	mov	r1, r3
	mov	r0, r5
	bl	etharp_raw
.LVL101:
	b	.L106
	.cfi_endproc
.LFE10:
	.size	etharp_input, .-etharp_input
	.section	.text.etharp_request,"ax",%progbits
	.align	1
	.global	etharp_request
	.syntax unified
	.thumb
	.thumb_func
	.fpu softvfp
	.type	etharp_request, %function
etharp_request:
.LFB16:
	.loc 1 1232 0
	.cfi_startproc
	@ args = 0, pretend = 0, frame = 0
	@ frame_needed = 0, uses_anonymous_args = 0
.LVL102:
	push	{r0, r1, r2, r3, r4, lr}
	.cfi_def_cfa_offset 24
	.cfi_offset 4, -8
	.cfi_offset 14, -4
	.loc 1 1232 0
	mov	r2, r0
.LBB11:
.LBB12:
	.loc 1 1216 0
	movs	r4, #1
	str	r1, [sp, #8]
	ldr	r1, .L119
.LVL103:
	add	r3, r0, #49
	.loc 1 1217 0
	adds	r2, r2, #4
	.loc 1 1216 0
	str	r1, [sp, #4]
	str	r2, [sp]
	str	r4, [sp, #12]
	ldr	r2, .L119+4
	mov	r1, r3
	bl	etharp_raw
.LVL104:
.LBE12:
.LBE11:
	.loc 1 1235 0
	add	sp, sp, #16
	.cfi_def_cfa_offset 8
	@ sp needed
	pop	{r4, pc}
.L120:
	.align	2
.L119:
	.word	ethzero
	.word	ethbroadcast
	.cfi_endproc
.LFE16:
	.size	etharp_request, .-etharp_request
	.section	.text.etharp_tmr,"ax",%progbits
	.align	1
	.global	etharp_tmr
	.syntax unified
	.thumb
	.thumb_func
	.fpu softvfp
	.type	etharp_tmr, %function
etharp_tmr:
.LFB2:
	.loc 1 205 0
	.cfi_startproc
	@ args = 0, pretend = 0, frame = 0
	@ frame_needed = 0, uses_anonymous_args = 0
.LVL105:
	push	{r3, r4, r5, r6, r7, lr}
	.cfi_def_cfa_offset 24
	.cfi_offset 3, -24
	.cfi_offset 4, -20
	.cfi_offset 5, -16
	.cfi_offset 6, -12
	.cfi_offset 7, -8
	.cfi_offset 14, -4
	.loc 1 205 0
	movs	r5, #0
.LBB13:
	.loc 1 232 0
	movs	r6, #2
	.loc 1 228 0
	movs	r7, #4
	ldr	r4, .L136
.LVL106:
.L129:
	.loc 1 211 0
	ldrb	r2, [r4, #16]	@ zero_extendqisi2
.LVL107:
	.loc 1 212 0
	cbz	r2, .L123
	.loc 1 214 0
	cmp	r2, #5
	beq	.L123
	.loc 1 217 0
	ldrh	r3, [r4, #14]
	adds	r3, r3, #1
	uxth	r3, r3
	.loc 1 218 0
	cmp	r3, #300
	.loc 1 217 0
	strh	r3, [r4, #14]	@ movhi
	.loc 1 218 0
	bcs	.L125
	.loc 1 218 0 is_stmt 0 discriminator 1
	cmp	r2, #1
	bne	.L126
	.loc 1 219 0 is_stmt 1
	cmp	r3, #4
	bls	.L127
.L125:
	.loc 1 225 0
	mov	r0, r5
	bl	etharp_free_entry
.LVL108:
.L123:
	adds	r5, r5, #1
.LVL109:
.LBE13:
	.loc 1 210 0 discriminator 2
	cmp	r5, #10
	add	r4, r4, #24
	bne	.L129
	pop	{r3, r4, r5, r6, r7, pc}
.LVL110:
.L126:
.LBB14:
	.loc 1 226 0
	cmp	r2, #3
	bne	.L128
	.loc 1 228 0
	strb	r7, [r4, #16]
	b	.L123
.L127:
	.loc 1 235 0
	mov	r1, r4
	ldr	r0, [r4, #4]
	bl	etharp_request
.LVL111:
	b	.L123
.LVL112:
.L128:
	.loc 1 229 0
	cmp	r2, #4
	bne	.L123
	.loc 1 232 0
	strb	r6, [r4, #16]
	b	.L123
.L137:
	.align	2
.L136:
	.word	.LANCHOR0+4
.LBE14:
	.cfi_endproc
.LFE2:
	.size	etharp_tmr, .-etharp_tmr
	.section	.text.etharp_output_to_arp_index,"ax",%progbits
	.align	1
	.syntax unified
	.thumb
	.thumb_func
	.fpu softvfp
	.type	etharp_output_to_arp_index, %function
etharp_output_to_arp_index:
.LFB11:
	.loc 1 765 0
	.cfi_startproc
	@ args = 0, pretend = 0, frame = 0
	@ frame_needed = 0, uses_anonymous_args = 0
.LVL113:
	push	{r4, r5, r6, r7, r8, r9, lr}
	.cfi_def_cfa_offset 28
	.cfi_offset 4, -28
	.cfi_offset 5, -24
	.cfi_offset 6, -20
	.cfi_offset 7, -16
	.cfi_offset 8, -12
	.cfi_offset 9, -8
	.cfi_offset 14, -4
	mov	r9, r1
	.loc 1 766 0
	movs	r1, #24
.LVL114:
	ldr	r5, .L146
	.loc 1 765 0
	sub	sp, sp, #20
	.cfi_def_cfa_offset 48
	.loc 1 766 0
	mla	r6, r1, r2, r5
	.loc 1 771 0
	ldrb	r3, [r6, #20]	@ zero_extendqisi2
	.loc 1 765 0
	mov	r7, r0
	.loc 1 771 0
	cmp	r3, #2
	.loc 1 765 0
	mov	r4, r2
	add	r8, r0, #49
	.loc 1 771 0
	bne	.L140
	.loc 1 772 0
	ldrh	r3, [r6, #18]
	cmp	r3, #284
	bls	.L141
	.loc 1 774 0
	mov	r1, r6
	adds	r1, r1, #4
	bl	etharp_request
.LVL115:
.L145:
	.loc 1 779 0
	cbnz	r0, .L140
	.loc 1 780 0
	movs	r3, #3
	strb	r3, [r6, #20]
.L140:
	.loc 1 785 0
	movs	r3, #24
	mov	r2, #2048
	mla	r3, r3, r4, r5
	str	r2, [sp]
	adds	r3, r3, #12
	mov	r2, r8
	mov	r1, r9
	mov	r0, r7
	bl	ethernet_output
.LVL116:
	.loc 1 786 0
	add	sp, sp, #20
	.cfi_remember_state
	.cfi_def_cfa_offset 28
	@ sp needed
	pop	{r4, r5, r6, r7, r8, r9, pc}
.LVL117:
.L141:
	.cfi_restore_state
	.loc 1 777 0
	cmp	r3, #270
	bcc	.L140
.LBB17:
.LBB18:
	.loc 1 1216 0
	movs	r3, #1
	add	r1, r2, r2, lsl #1
	lsls	r1, r1, #3
.LVL118:
	str	r3, [sp, #12]
	ldr	r3, .L146+4
.LBE18:
.LBE17:
	.loc 1 779 0
	add	r2, r1, #12
.LVL119:
	adds	r1, r1, #4
.LVL120:
	add	r1, r1, r5
.LVL121:
.LBB20:
.LBB19:
	.loc 1 1216 0
	str	r3, [sp, #4]
	.loc 1 1217 0
	adds	r3, r0, #4
	.loc 1 1216 0
	str	r1, [sp, #8]
	str	r3, [sp]
	add	r2, r2, r5
.LVL122:
	mov	r3, r8
	mov	r1, r8
	bl	etharp_raw
.LVL123:
	b	.L145
.L147:
	.align	2
.L146:
	.word	.LANCHOR0
	.word	ethzero
.LBE19:
.LBE20:
	.cfi_endproc
.LFE11:
	.size	etharp_output_to_arp_index, .-etharp_output_to_arp_index
	.section	.text.etharp_query,"ax",%progbits
	.align	1
	.global	etharp_query
	.syntax unified
	.thumb
	.thumb_func
	.fpu softvfp
	.type	etharp_query, %function
etharp_query:
.LFB13:
	.loc 1 949 0
	.cfi_startproc
	@ args = 0, pretend = 0, frame = 0
	@ frame_needed = 0, uses_anonymous_args = 0
.LVL124:
	push	{r0, r1, r4, r5, r6, r7, r8, lr}
	.cfi_def_cfa_offset 32
	.cfi_offset 4, -24
	.cfi_offset 5, -20
	.cfi_offset 6, -16
	.cfi_offset 7, -12
	.cfi_offset 8, -8
	.cfi_offset 14, -4
	.loc 1 949 0
	mov	r8, r1
	mov	r7, r0
	.loc 1 956 0
	mov	r1, r0
.LVL125:
	ldr	r0, [r8]
.LVL126:
	.loc 1 949 0
	mov	r4, r2
	.loc 1 956 0
	bl	ip4_addr_isbroadcast_u32
.LVL127:
	cmp	r0, #0
	bne	.L164
	.loc 1 957 0 discriminator 1
	ldr	r3, [r8]
	and	r2, r3, #240
	.loc 1 956 0 discriminator 1
	cmp	r2, #224
	beq	.L164
	.loc 1 958 0
	cmp	r3, #0
	beq	.L164
	.loc 1 964 0
	movs	r1, #1
	mov	r0, r8
	bl	etharp_find_entry.isra.0
.LVL128:
	.loc 1 967 0
	subs	r5, r0, #0
	blt	.L165
	.loc 1 977 0
	movs	r3, #24
	ldr	r6, .L181
	mla	r3, r3, r5, r6
	ldrb	r2, [r3, #20]	@ zero_extendqisi2
	cmp	r2, #0
	bne	.L150
.LVL129:
	.loc 1 979 0
	movs	r2, #1
	.loc 1 981 0
	str	r7, [r3, #8]
	.loc 1 979 0
	strb	r2, [r3, #20]
.LVL130:
.L158:
	.loc 1 992 0
	mov	r1, r8
	mov	r0, r7
.LVL131:
	bl	etharp_request
.LVL132:
	.loc 1 999 0
	cbz	r4, .L167
.LVL133:
.L159:
	.loc 1 1007 0
	movs	r3, #24
	mla	r2, r3, r5, r6
	ldrb	r2, [r2, #20]	@ zero_extendqisi2
	cmp	r2, #1
	bls	.L151
	.loc 1 1009 0
	ldr	r2, .L181+4
	.loc 1 1011 0
	mov	r1, r4
	.loc 1 1009 0
	strb	r5, [r2]
	.loc 1 1011 0
	movs	r2, #12
	smlabb	r3, r3, r5, r2
	mov	r2, #2048
	add	r3, r3, r6
	str	r2, [sp]
	mov	r0, r7
.LVL134:
	add	r2, r7, #49
	bl	ethernet_output
.LVL135:
.L167:
	.loc 1 1102 0
	add	sp, sp, #8
	.cfi_remember_state
	.cfi_def_cfa_offset 24
	@ sp needed
	pop	{r4, r5, r6, r7, r8, pc}
.LVL136:
.L151:
	.cfi_restore_state
	.loc 1 1013 0
	bne	.L167
	mov	r3, r4
.L152:
.LVL137:
.LBB21:
	.loc 1 1021 0
	cbnz	r3, .L154
.LVL138:
	.loc 1 1041 0
	mov	r0, r4
.LVL139:
	bl	pbuf_ref
.LVL140:
	.loc 1 1044 0
	cbz	r4, .L161
	mov	r7, r4
.LVL141:
.L156:
	.loc 1 1087 0
	movs	r3, #24
	mul	r2, r3, r5
	ldr	r0, [r6, r2]
	mov	r4, r3
.LVL142:
	cbz	r0, .L157
	.loc 1 1089 0
	bl	pbuf_free
.LVL143:
.L157:
	.loc 1 1091 0
	mul	r3, r4, r5
	.loc 1 1092 0
	movs	r0, #0
	.loc 1 1091 0
	str	r7, [r6, r3]
.LVL144:
	b	.L167
.LVL145:
.L154:
	.loc 1 1023 0
	ldrb	r2, [r3, #12]	@ zero_extendqisi2
	cmp	r2, #1
	bne	.L153
	.loc 1 1027 0
	ldr	r3, [r3]
.LVL146:
	b	.L152
.LVL147:
.L164:
.LBE21:
	.loc 1 960 0
	mvn	r0, #15
	b	.L167
.LVL148:
.L165:
	mov	r0, r5
.LVL149:
	b	.L167
.LVL150:
.L150:
	.loc 1 990 0
	cmp	r4, #0
	beq	.L158
	.loc 1 951 0
	mov	r0, #-1
.LVL151:
	b	.L159
.LVL152:
.L153:
.LBB22:
	.loc 1 1031 0
	movs	r2, #0
	ldrh	r1, [r3, #8]
	movs	r0, #2
.LVL153:
	bl	pbuf_alloc
.LVL154:
	.loc 1 1032 0
	mov	r7, r0
.LVL155:
	cbz	r0, .L161
	.loc 1 1033 0
	mov	r1, r4
	bl	pbuf_copy
.LVL156:
	cmp	r0, #0
	beq	.L156
	.loc 1 1034 0
	mov	r0, r7
	bl	pbuf_free
.LVL157:
.L161:
	.loc 1 1098 0
	mov	r0, #-1
	b	.L167
.L182:
	.align	2
.L181:
	.word	.LANCHOR0
	.word	.LANCHOR1
.LBE22:
	.cfi_endproc
.LFE13:
	.size	etharp_query, .-etharp_query
	.section	.text.etharp_output,"ax",%progbits
	.align	1
	.global	etharp_output
	.syntax unified
	.thumb
	.thumb_func
	.fpu softvfp
	.type	etharp_output, %function
etharp_output:
.LFB12:
	.loc 1 808 0
	.cfi_startproc
	@ args = 0, pretend = 0, frame = 8
	@ frame_needed = 0, uses_anonymous_args = 0
.LVL158:
	push	{r4, r5, r6, r7, lr}
	.cfi_def_cfa_offset 20
	.cfi_offset 4, -20
	.cfi_offset 5, -16
	.cfi_offset 6, -12
	.cfi_offset 7, -8
	.cfi_offset 14, -4
	mov	r4, r0
	sub	sp, sp, #20
	.cfi_def_cfa_offset 40
	.loc 1 808 0
	mov	r6, r1
	.loc 1 821 0
	mov	r1, r0
.LVL159:
	ldr	r0, [r2]
.LVL160:
	.loc 1 808 0
	mov	r5, r2
	.loc 1 821 0
	bl	ip4_addr_isbroadcast_u32
.LVL161:
	cmp	r0, #0
	bne	.L191
	.loc 1 825 0
	ldr	r3, [r5]
	and	r2, r3, #240
	cmp	r2, #224
	bne	.L185
	.loc 1 827 0
	movs	r3, #1
	strb	r3, [sp, #8]
	.loc 1 829 0
	movs	r3, #94
	strb	r3, [sp, #10]
	.loc 1 830 0
	ldrb	r3, [r5, #1]	@ zero_extendqisi2
	.loc 1 828 0
	strb	r0, [sp, #9]
	.loc 1 830 0
	and	r3, r3, #127
	strb	r3, [sp, #11]
	.loc 1 831 0
	ldrb	r3, [r5, #2]	@ zero_extendqisi2
	strb	r3, [sp, #12]
	.loc 1 832 0
	ldrb	r3, [r5, #3]	@ zero_extendqisi2
	strb	r3, [sp, #13]
.LVL162:
	.loc 1 834 0
	add	r3, sp, #8
.LVL163:
.L184:
	.loc 1 911 0
	mov	r2, #2048
	mov	r1, r6
	str	r2, [sp]
	mov	r0, r4
	add	r2, r4, #49
	bl	ethernet_output
.LVL164:
	b	.L187
.L185:
.LBB23:
	.loc 1 840 0
	ldr	r2, [r4, #4]
	ldr	r1, [r4, #8]
	eors	r2, r2, r3
	tst	r2, r1
	beq	.L186
	.loc 1 840 0 is_stmt 0 discriminator 1
	movw	r2, #65193
	.loc 1 841 0 is_stmt 1 discriminator 1
	uxth	r3, r3
	.loc 1 840 0 discriminator 1
	cmp	r3, r2
	beq	.L186
.LVL165:
.LBB24:
	.loc 1 848 0
	ldr	r3, [r6, #4]
	ldr	r3, [r3, #12]	@ unaligned
	uxth	r3, r3
	cmp	r3, r2
	beq	.L186
	.loc 1 859 0
	ldr	r3, [r4, #12]
	cbz	r3, .L192
	.loc 1 861 0
	add	r5, r4, #12
.LVL166:
.L186:
.LBE24:
	.loc 1 876 0
	movs	r0, #24
	ldr	r3, .L198
	ldr	r1, .L198+4
	ldrb	r2, [r3]	@ zero_extendqisi2
	mla	r0, r0, r2, r1
	ldrb	r1, [r0, #20]	@ zero_extendqisi2
	cmp	r1, #1
	mov	r1, r3
	bls	.L188
	.loc 1 876 0 is_stmt 0 discriminator 1
	ldr	r7, [r5]
	ldr	r3, [r0, #4]
	cmp	r7, r3
	bne	.L188
.L197:
	.loc 1 900 0 is_stmt 1
	mov	r1, r6
	mov	r0, r4
	bl	etharp_output_to_arp_index
.LVL167:
.L187:
.LBE23:
	.loc 1 912 0
	add	sp, sp, #20
	.cfi_remember_state
	.cfi_def_cfa_offset 20
	@ sp needed
	pop	{r4, r5, r6, r7, pc}
.LVL168:
.L188:
	.cfi_restore_state
	.loc 1 808 0
	movs	r2, #0
	ldr	r3, .L198+4
.L190:
.LVL169:
.LBB26:
	.loc 1 893 0
	ldrb	r0, [r3, #20]	@ zero_extendqisi2
	cmp	r0, #1
	bls	.L189
	.loc 1 893 0 is_stmt 0 discriminator 1
	ldr	r7, [r5]
	ldr	r0, [r3, #4]
	cmp	r7, r0
	bne	.L189
	.loc 1 899 0 is_stmt 1
	uxtb	r2, r2
	strb	r2, [r1]
	b	.L197
.L189:
.LVL170:
	adds	r2, r2, #1
.LVL171:
	.loc 1 892 0 discriminator 2
	cmp	r2, #10
	add	r3, r3, #24
	bne	.L190
	.loc 1 905 0
	mov	r2, r6
	mov	r1, r5
	mov	r0, r4
	bl	etharp_query
.LVL172:
	b	.L187
.LVL173:
.L191:
.LBE26:
	.loc 1 823 0
	ldr	r3, .L198+8
	b	.L184
.LVL174:
.L192:
.LBB27:
.LBB25:
	.loc 1 865 0
	mvn	r0, #3
	b	.L187
.L199:
	.align	2
.L198:
	.word	.LANCHOR1
	.word	.LANCHOR0
	.word	ethbroadcast
.LBE25:
.LBE27:
	.cfi_endproc
.LFE12:
	.size	etharp_output, .-etharp_output
	.section	.bss.arp_table,"aw",%nobits
	.align	2
	.set	.LANCHOR0,. + 0
	.type	arp_table, %object
	.size	arp_table, 240
arp_table:
	.space	240
	.section	.bss.etharp_cached_entry,"aw",%nobits
	.set	.LANCHOR1,. + 0
	.type	etharp_cached_entry, %object
	.size	etharp_cached_entry, 1
etharp_cached_entry:
	.space	1
	.text
.Letext0:
	.file 2 "/home/ls/8720cf/sdk-ameba-v7.1d/tools/arm-none-eabi-gcc/asdk/linux/newlib/lib/gcc/arm-none-eabi/6.5.0/include/stddef.h"
	.file 3 "/home/ls/8720cf/sdk-ameba-v7.1d/tools/arm-none-eabi-gcc/asdk/linux/newlib/arm-none-eabi/include/sys/lock.h"
	.file 4 "/home/ls/8720cf/sdk-ameba-v7.1d/tools/arm-none-eabi-gcc/asdk/linux/newlib/arm-none-eabi/include/sys/_types.h"
	.file 5 "/home/ls/8720cf/sdk-ameba-v7.1d/tools/arm-none-eabi-gcc/asdk/linux/newlib/arm-none-eabi/include/sys/reent.h"
	.file 6 "/home/ls/8720cf/sdk-ameba-v7.1d/tools/arm-none-eabi-gcc/asdk/linux/newlib/arm-none-eabi/include/time.h"
	.file 7 "/home/ls/8720cf/sdk-ameba-v7.1d/tools/arm-none-eabi-gcc/asdk/linux/newlib/arm-none-eabi/include/stdlib.h"
	.file 8 "../../../component/common/network/lwip/lwip_v2.0.2/port/realtek/arch/cc.h"
	.file 9 "../../../component/common/network/lwip/lwip_v2.0.2/src/include/lwip/err.h"
	.file 10 "../../../component/common/network/lwip/lwip_v2.0.2/src/include/lwip/pbuf.h"
	.file 11 "../../../component/common/network/lwip/lwip_v2.0.2/src/include/lwip/ip4_addr.h"
	.file 12 "../../../component/common/network/lwip/lwip_v2.0.2/src/include/lwip/ip_addr.h"
	.file 13 "../../../component/common/network/lwip/lwip_v2.0.2/src/include/lwip/memp.h"
	.file 14 "../../../component/common/network/lwip/lwip_v2.0.2/src/include/lwip/priv/memp_priv.h"
	.file 15 "../../../component/common/network/lwip/lwip_v2.0.2/src/include/lwip/netif.h"
	.file 16 "../../../component/common/network/lwip/lwip_v2.0.2/src/include/lwip/prot/ip4.h"
	.file 17 "../../../component/common/network/lwip/lwip_v2.0.2/src/include/lwip/prot/ethernet.h"
	.file 18 "../../../component/common/network/lwip/lwip_v2.0.2/src/include/lwip/prot/etharp.h"
	.file 19 "../../../component/common/network/lwip/lwip_v2.0.2/src/include/lwip/ip.h"
	.file 20 "../../../component/common/network/lwip/lwip_v2.0.2/src/include/lwip/udp.h"
	.file 21 "../../../component/common/network/lwip/lwip_v2.0.2/src/include/netif/ethernet.h"
	.file 22 "../../../component/common/network/lwip/lwip_v2.0.2/src/include/lwip/def.h"
	.file 23 "../../../component/common/network/lwip/lwip_v2.0.2/src/include/lwip/autoip.h"
	.file 24 "../../../component/common/network/lwip/lwip_v2.0.2/src/include/lwip/dhcp.h"
	.file 25 "../../../component/common/network/lwip/lwip_v2.0.2/src/include/lwip/ip4.h"