	.arch armv8-m.main
	.arch_extension dsp
	.eabi_attribute 20, 1
	.eabi_attribute 21, 1
	.eabi_attribute 23, 3
	.eabi_attribute 24, 1
	.eabi_attribute 25, 1
	.eabi_attribute 26, 1
	.eabi_attribute 30, 4
	.eabi_attribute 34, 1
	.eabi_attribute 18, 4
	.file	"ethernet.c"
	.text
.Ltext0:
	.cfi_sections	.debug_frame
	.section	.text.rarp_retrieve_hook_callback,"ax",%progbits
	.align	1
	.global	rarp_retrieve_hook_callback
	.syntax unified
	.thumb
	.thumb_func
	.fpu softvfp
	.type	rarp_retrieve_hook_callback, %function
rarp_retrieve_hook_callback:
.LFB1:
	.file 1 "../../../component/common/network/lwip/lwip_v2.0.2/src/netif/ethernet.c"
	.loc 1 69 0
	.cfi_startproc
	@ args = 0, pretend = 0, frame = 0
	@ frame_needed = 0, uses_anonymous_args = 0
	@ link register save eliminated.
.LVL0:
	.loc 1 70 0
	ldr	r3, .L2
	str	r0, [r3]
	bx	lr
.L3:
	.align	2
.L2:
	.word	.LANCHOR0
	.cfi_endproc
.LFE1:
	.size	rarp_retrieve_hook_callback, .-rarp_retrieve_hook_callback
	.section	.text.ethernet_input,"ax",%progbits
	.align	1
	.global	ethernet_input
	.syntax unified
	.thumb
	.thumb_func
	.fpu softvfp
	.type	ethernet_input, %function
ethernet_input:
.LFB3:
	.loc 1 150 0
	.cfi_startproc
	@ args = 0, pretend = 0, frame = 0
	@ frame_needed = 0, uses_anonymous_args = 0
.LVL1:
	push	{r4, r5, r6, r7, r8, lr}
	.cfi_def_cfa_offset 24
	.cfi_offset 4, -24
	.cfi_offset 5, -20
	.cfi_offset 6, -16
	.cfi_offset 7, -12
	.cfi_offset 8, -8
	.cfi_offset 14, -4
	.loc 1 157 0
	ldrh	r8, [r0, #10]
	.loc 1 150 0
	mov	r4, r0
.LVL2:
	.loc 1 157 0
	cmp	r8, #14
	.loc 1 150 0
	mov	r6, r1
	.loc 1 157 0
	bls	.L8
	.loc 1 166 0
	ldr	r5, [r0, #4]
.LVL3:
	.loc 1 208 0
	ldrb	r3, [r5]	@ zero_extendqisi2
	.loc 1 175 0
	ldrh	r7, [r5, #12]	@ unaligned
.LVL4:
	.loc 1 208 0
	lsls	r0, r3, #31
.LVL5:
	bpl	.L6
	.loc 1 210 0
	cmp	r3, #1
	bne	.L7
	.loc 1 212 0
	ldrb	r3, [r5, #1]	@ zero_extendqisi2
	cbnz	r3, .L6
	.loc 1 212 0 is_stmt 0 discriminator 1
	ldrb	r3, [r5, #2]	@ zero_extendqisi2
	cmp	r3, #94
	bne	.L6
	.loc 1 215 0 is_stmt 1
	ldrb	r3, [r4, #13]	@ zero_extendqisi2
	orr	r3, r3, #16
.LVL6:
.L32:
	.loc 1 228 0
	strb	r3, [r4, #13]
.L6:
	.loc 1 232 0
	cmp	r7, #1544
	beq	.L9
	cmp	r7, #13696
	beq	.L10
	cmp	r7, #8
	bne	.L8
	.loc 1 236 0
	ldrb	r3, [r6, #55]	@ zero_extendqisi2
	lsls	r1, r3, #28
	bpl	.L8
	.loc 1 240 0
	mvn	r1, #13
	mov	r0, r4
	bl	pbuf_header
.LVL7:
	cbnz	r0, .L8
	.loc 1 248 0
	mov	r1, r6
	mov	r0, r4
	bl	ip4_input
.LVL8:
.L12:
	.loc 1 324 0
	movs	r0, #0
	pop	{r4, r5, r6, r7, r8, pc}
.LVL9:
.L7:
	.loc 1 226 0
	movs	r2, #6
	ldr	r1, .L33
.LVL10:
	mov	r0, r5
	bl	memcmp
.LVL11:
	cmp	r0, #0
	bne	.L6
	.loc 1 228 0
	ldrb	r3, [r4, #13]	@ zero_extendqisi2
	orr	r3, r3, #8
	b	.L32
.L9:
	.loc 1 253 0
	ldrb	r3, [r6, #55]	@ zero_extendqisi2
	lsls	r2, r3, #28
	bpl	.L8
	.loc 1 257 0
	mvn	r1, #13
	mov	r0, r4
	bl	pbuf_header
.LVL12:
	cbnz	r0, .L8
	.loc 1 267 0
	mov	r1, r6
	mov	r0, r4
	bl	etharp_input
.LVL13:
	.loc 1 269 0
	b	.L12
.L10:
	.loc 1 272 0
	ldrb	r3, [r6, #55]	@ zero_extendqisi2
	lsls	r3, r3, #28
	bpl	.L8
.LVL14:
.LBB4:
.LBB5:
	.loc 1 86 0
	cmp	r8, #41
	bhi	.L13
.LVL15:
.L8:
.LBE5:
.LBE4:
	.loc 1 322 0
	mov	r0, r4
	bl	pbuf_free
.LVL16:
	.loc 1 323 0
	b	.L12
.LVL17:
.L13:
.LBB7:
.LBB6:
	.loc 1 97 0
	ldrh	r3, [r5, #14]	@ unaligned
	cmp	r3, #256
	bne	.L8
	ldrb	r3, [r5, #18]	@ zero_extendqisi2
	cmp	r3, #6
	bne	.L8
	.loc 1 98 0
	ldrb	r3, [r5, #19]	@ zero_extendqisi2
	cmp	r3, #4
	bne	.L8
	.loc 1 99 0
	ldrh	r3, [r5, #16]	@ unaligned
	cmp	r3, #8
	bne	.L8
	.loc 1 112 0
	ldrh	r3, [r5, #20]	@ unaligned
	cmp	r3, #1024
	bne	.L8
	.loc 1 119 0
	ldr	r3, .L33+4
	ldr	r3, [r3]
	cmp	r3, #0
	beq	.L8
	.loc 1 120 0
	add	r1, r5, #32
	add	r0, r5, #38
	blx	r3
.LVL18:
	b	.L8
.L34:
	.align	2
.L33:
	.word	.LANCHOR1
	.word	.LANCHOR0
.LBE6:
.LBE7:
	.cfi_endproc
.LFE3:
	.size	ethernet_input, .-ethernet_input
	.section	.text.ethernet_output,"ax",%progbits
	.align	1
	.global	ethernet_output
	.syntax unified
	.thumb
	.thumb_func
	.fpu softvfp
	.type	ethernet_output, %function
ethernet_output:
.LFB4:
	.loc 1 344 0
	.cfi_startproc
	@ args = 4, pretend = 0, frame = 0
	@ frame_needed = 0, uses_anonymous_args = 0
.LVL19:
	push	{r4, r5, r6, r7, r8, lr}
	.cfi_def_cfa_offset 24
	.cfi_offset 4, -24
	.cfi_offset 5, -20
	.cfi_offset 6, -16
	.cfi_offset 7, -12
	.cfi_offset 8, -8
	.cfi_offset 14, -4
	.loc 1 344 0
	mov	r5, r0
	.loc 1 346 0
	ldrh	r0, [sp, #24]
.LVL20:
	.loc 1 344 0
	mov	r4, r1
	mov	r6, r2
	mov	r7, r3
	.loc 1 346 0
	bl	lwip_htons
.LVL21:
	.loc 1 366 0
	movs	r1, #14
	.loc 1 346 0
	mov	r8, r0
.LVL22:
	.loc 1 366 0
	mov	r0, r4
	bl	pbuf_header
.LVL23:
	cbnz	r0, .L36
	.loc 1 371 0
	ldr	r1, [r4, #4]
.LVL24:
	.loc 1 382 0
	mov	r0, r5
	.loc 1 372 0
	strh	r8, [r1, #12]	@ unaligned
	.loc 1 373 0
	ldr	r3, [r7]	@ unaligned
	str	r3, [r1]	@ unaligned
	ldrh	r3, [r7, #4]	@ unaligned
	strh	r3, [r1, #4]	@ unaligned
	.loc 1 374 0
	ldr	r3, [r6]	@ unaligned
	str	r3, [r1, #6]	@ unaligned
	ldrh	r3, [r6, #4]	@ unaligned
	strh	r3, [r1, #10]	@ unaligned
	.loc 1 382 0
	ldr	r3, [r5, #24]
	mov	r1, r4
.LVL25:
	.loc 1 389 0
	pop	{r4, r5, r6, r7, r8, lr}
	.cfi_remember_state
	.cfi_restore 14
	.cfi_restore 8
	.cfi_restore 7
	.cfi_restore 6
	.cfi_restore 5
	.cfi_restore 4
	.cfi_def_cfa_offset 0
.LVL26:
	.loc 1 382 0
	bx	r3
.LVL27:
.L36:
	.cfi_restore_state
	.loc 1 389 0
	mvn	r0, #1
	pop	{r4, r5, r6, r7, r8, pc}
	.cfi_endproc
.LFE4:
	.size	ethernet_output, .-ethernet_output
	.global	ethzero
	.global	ethbroadcast
	.section	.bss.rarp_retrieve_cb,"aw",%nobits
	.align	2
	.set	.LANCHOR0,. + 0
	.type	rarp_retrieve_cb, %object
	.size	rarp_retrieve_cb, 4
rarp_retrieve_cb:
	.space	4
	.section	.rodata.ethbroadcast,"a",%progbits
	.set	.LANCHOR1,. + 0
	.type	ethbroadcast, %object
	.size	ethbroadcast, 6
ethbroadcast:
	.byte	-1
	.byte	-1
	.byte	-1
	.byte	-1
	.byte	-1
	.byte	-1
	.section	.rodata.ethzero,"a",%progbits
	.type	ethzero, %object
	.size	ethzero, 6
ethzero:
	.space	6
	.text
.Letext0:
	.file 2 "/home/ls/samba_share/sdk-ameba-v7.1d/tools/arm-none-eabi-gcc/asdk/linux/newlib/arm-none-eabi/include/sys/lock.h"
	.file 3 "/home/ls/samba_share/sdk-ameba-v7.1d/tools/arm-none-eabi-gcc/asdk/linux/newlib/arm-none-eabi/include/sys/_types.h"
	.file 4 "/home/ls/samba_share/sdk-ameba-v7.1d/tools/arm-none-eabi-gcc/asdk/linux/newlib/lib/gcc/arm-none-eabi/6.5.0/include/stddef.h"
	.file 5 "/home/ls/samba_share/sdk-ameba-v7.1d/tools/arm-none-eabi-gcc/asdk/linux/newlib/arm-none-eabi/include/sys/reent.h"
	.file 6 "/home/ls/samba_share/sdk-ameba-v7.1d/tools/arm-none-eabi-gcc/asdk/linux/newlib/arm-none-eabi/include/time.h"
	.file 7 "/home/ls/samba_share/sdk-ameba-v7.1d/tools/arm-none-eabi-gcc/asdk/linux/newlib/arm-none-eabi/include/stdlib.h"
	.file 8 "../../../component/common/network/lwip/lwip_v2.0.2/port/realtek/arch/cc.h"
	.file 9 "../../../component/common/network/lwip/lwip_v2.0.2/src/include/lwip/err.h"
	.file 10 "../../../component/common/network/lwip/lwip_v2.0.2/src/include/lwip/pbuf.h"
	.file 11 "../../../component/common/network/lwip/lwip_v2.0.2/src/include/lwip/ip4_addr.h"
	.file 12 "../../../component/common/network/lwip/lwip_v2.0.2/src/include/lwip/ip_addr.h"
	.file 13 "../../../component/common/network/lwip/lwip_v2.0.2/src/include/lwip/memp.h"
	.file 14 "../../../component/common/network/lwip/lwip_v2.0.2/src/include/lwip/priv/memp_priv.h"
	.file 15 "../../../component/common/network/lwip/lwip_v2.0.2/src/include/lwip/netif.h"
	.file 16 "../../../component/common/network/lwip/lwip_v2.0.2/src/include/lwip/prot/ethernet.h"
	.file 17 "../../../component/common/network/lwip/lwip_v2.0.2/src/include/netif/ethernet.h"
	.file 18 "../../../component/common/network/lwip/lwip_v2.0.2/src/include/lwip/prot/ip4.h"
	.file 19 "../../../component/common/network/lwip/lwip_v2.0.2/src/include/lwip/prot/etharp.h"
	.file 20 "../../../component/common/network/lwip/lwip_v2.0.2/src/include/lwip/ip.h"
	.file 21 "../../../component/common/network/lwip/lwip_v2.0.2/src/include/lwip/def.h"
	.file 22 "../../../component/common/network/lwip/lwip_v2.0.2/src/include/lwip/ip4.h"
	.file 23 "/home/ls/samba_share/sdk-ameba-v7.1d/tools/arm-none-eabi-gcc/asdk/linux/newlib/arm-none-eabi/include/string.h"
	.file 24 "../../../component/common/network/lwip/lwip_v2.0.2/src/include/lwip/etharp.h"