	.arch armv8-m.main
	.arch_extension dsp
	.eabi_attribute 20, 1
	.eabi_attribute 21, 1
	.eabi_attribute 23, 3
	.eabi_attribute 24, 1
	.eabi_attribute 25, 1
	.eabi_attribute 26, 1
	.eabi_attribute 30, 4
	.eabi_attribute 34, 1
	.eabi_attribute 18, 4
	.file	"example_coap.c"
	.text
.Ltext0:
	.cfi_sections	.debug_frame
	.section	.text.coap_tx_cb,"ax",%progbits
	.align	1
	.global	coap_tx_cb
	.syntax unified
	.thumb
	.thumb_func
	.fpu softvfp
	.type	coap_tx_cb, %function
coap_tx_cb:
.LFB166:
	.file 1 "../../../component/common/example/coap/example_coap.c"
	.loc 1 25 0
	.cfi_startproc
	@ args = 0, pretend = 0, frame = 0
	@ frame_needed = 0, uses_anonymous_args = 0
.LVL0:
	push	{r3, lr}
	.cfi_def_cfa_offset 8
	.cfi_offset 3, -8
	.cfi_offset 14, -4
	.loc 1 32 0
	ldr	r0, .L2
.LVL1:
	bl	__wrap_printf
.LVL2:
	.loc 1 34 0
	movs	r0, #0
	pop	{r3, pc}
.L3:
	.align	2
.L2:
	.word	.LC0
	.cfi_endproc
.LFE166:
	.size	coap_tx_cb, .-coap_tx_cb
	.section	.text.coap_rx_cb,"ax",%progbits
	.align	1
	.global	coap_rx_cb
	.syntax unified
	.thumb
	.thumb_func
	.fpu softvfp
	.type	coap_rx_cb, %function
coap_rx_cb:
.LFB167:
	.loc 1 36 0
	.cfi_startproc
	@ args = 0, pretend = 0, frame = 0
	@ frame_needed = 0, uses_anonymous_args = 0
.LVL3:
	push	{r3, lr}
	.cfi_def_cfa_offset 8
	.cfi_offset 3, -8
	.cfi_offset 14, -4
	.loc 1 42 0
	ldr	r0, .L5
.LVL4:
	bl	__wrap_printf
.LVL5:
	.loc 1 44 0
	movs	r0, #0
	pop	{r3, pc}
.L6:
	.align	2
.L5:
	.word	.LC1
	.cfi_endproc
.LFE167:
	.size	coap_rx_cb, .-coap_rx_cb
	.section	.text.example_coap_thread,"ax",%progbits
	.align	1
	.syntax unified
	.thumb
	.thumb_func
	.fpu softvfp
	.type	example_coap_thread, %function
example_coap_thread:
.LFB168:
	.loc 1 46 0
	.cfi_startproc
	@ args = 0, pretend = 0, frame = 16
	@ frame_needed = 0, uses_anonymous_args = 0
.LVL6:
	push	{r4, r5, r6, r7, lr}
	.cfi_def_cfa_offset 20
	.cfi_offset 4, -20
	.cfi_offset 5, -16
	.cfi_offset 6, -12
	.cfi_offset 7, -8
	.cfi_offset 14, -4
	.loc 1 50 0
	ldr	r0, .L11
.LVL7:
	.loc 1 46 0
	sub	sp, sp, #36
	.cfi_def_cfa_offset 56
	.loc 1 50 0
	bl	__wrap_printf
.LVL8:
	.loc 1 53 0
	ldr	r4, .L11+4
.L8:
	.loc 1 52 0
	movs	r0, #0
	bl	wifi_is_ready_to_transceive
.LVL9:
	mov	r5, r0
	cmp	r0, #0
	bne	.L9
	.loc 1 58 0
	ldr	r1, .L11+8
	ldr	r0, .L11+12
	bl	coap_protocol_init
.LVL10:
	ldr	r6, .L11+16
	str	r0, [r6]
	.loc 1 61 0
	movs	r0, #32
	bl	coap_calloc
.LVL11:
	.loc 1 64 0
	movs	r3, #4
	strb	r3, [r0]
	.loc 1 66 0
	movs	r3, #1
	.loc 1 65 0
	strb	r5, [r0, #1]
	.loc 1 66 0
	strb	r3, [r0, #2]
	.loc 1 67 0
	strb	r5, [r0, #3]
	.loc 1 68 0
	str	r5, [r0, #4]
	.loc 1 61 0
	mov	r4, r0
.LVL12:
	.loc 1 69 0
	bl	randLIB_get_16bit
.LVL13:
	.loc 1 70 0
	movs	r3, #3
	strh	r3, [r4, #10]	@ movhi
	.loc 1 72 0
	ldr	r3, .L11+20
	.loc 1 69 0
	strh	r0, [r4, #8]	@ movhi
	.loc 1 72 0
	str	r3, [r4, #16]
	.loc 1 73 0
	ldr	r3, .L11+24
	.loc 1 71 0
	strh	r5, [r4, #12]	@ movhi
	.loc 1 73 0
	str	r3, [r4, #20]
	.loc 1 74 0
	str	r5, [r4, #24]
	.loc 1 77 0
	movs	r0, #68
	bl	coap_calloc
.LVL14:
	str	r0, [r4, #28]
	.loc 1 80 0
	str	r5, [r0, #32]
	.loc 1 103 0
	bl	coap_sock_open
.LVL15:
	.loc 1 106 0
	mov	r3, r4
	mov	r2, r0
	movw	r1, #5683
	.loc 1 103 0
	mov	r5, r0
.LVL16:
	.loc 1 106 0
	ldr	r0, .L11+28
.LVL17:
	bl	coap_send
.LVL18:
	.loc 1 108 0
	mov	r0, r4
	bl	coap_free
.LVL19:
	.loc 1 112 0
	mov	r0, #1280
	bl	coap_calloc
.LVL20:
	.loc 1 115 0
	mov	r3, #1280
	mov	r2, r0
	.loc 1 112 0
	mov	r4, r0
.LVL21:
	.loc 1 115 0
	add	r1, sp, #16
	mov	r0, r5
.LVL22:
	bl	coap_recv
.LVL23:
	subs	r7, r0, #0
	blt	.L10
.LBB2:
	.loc 1 117 0
	ldr	r2, [sp, #20]
.LVL24:
	.loc 1 124 0
	ldrh	r3, [sp, #18]
	mov	r1, r7
	str	r3, [sp, #8]
	.loc 1 122 0
	lsrs	r3, r2, #24
	.loc 1 124 0
	str	r3, [sp, #4]
	ubfx	r3, r2, #16, #8
	str	r3, [sp]
	ldr	r0, .L11+32
.LVL25:
	ubfx	r3, r2, #8, #8
	uxtb	r2, r2
.LVL26:
	bl	__wrap_printf
.LVL27:
	.loc 1 126 0
	uxth	r1, r7
	ldr	r3, .L11+36
	mov	r2, r4
	ldr	r0, [r6]
	bl	sn_coap_parser
.LVL28:
	mov	r7, r0
.LVL29:
	.loc 1 128 0
	bl	coap_print_hdr
.LVL30:
	.loc 1 130 0
	mov	r1, r7
	ldr	r0, [r6]
	bl	sn_coap_parser_release_allocated_coap_msg_mem
.LVL31:
.L10:
.LBE2:
	.loc 1 133 0
	mov	r0, r4
	bl	coap_free
.LVL32:
	.loc 1 135 0
	mov	r0, r5
	bl	coap_sock_close
.LVL33:
	.loc 1 137 0
	movs	r0, #0
	bl	vTaskDelete
.LVL34:
	.loc 1 138 0
	add	sp, sp, #36
	.cfi_remember_state
	.cfi_def_cfa_offset 20
	@ sp needed
	pop	{r4, r5, r6, r7, pc}
.LVL35:
.L9:
	.cfi_restore_state
	.loc 1 53 0
	mov	r0, r4
	bl	__wrap_printf
.LVL36:
	.loc 1 54 0
	mov	r0, #1000
	bl	vTaskDelay
.LVL37:
	b	.L8
.L12:
	.align	2
.L11:
	.word	.LC2
	.word	.LC3
	.word	coap_rx_cb
	.word	coap_tx_cb
	.word	coapHandle
	.word	.LC4
	.word	.LC5
	.word	.LC6
	.word	.LC7
	.word	.LANCHOR0
	.cfi_endproc
.LFE168:
	.size	example_coap_thread, .-example_coap_thread
	.section	.text.example_coap,"ax",%progbits
	.align	1
	.global	example_coap
	.syntax unified
	.thumb
	.thumb_func
	.fpu softvfp
	.type	example_coap, %function
example_coap:
.LFB169:
	.loc 1 141 0
	.cfi_startproc
	@ args = 0, pretend = 0, frame = 0
	@ frame_needed = 0, uses_anonymous_args = 0
	push	{r0, r1, r2, lr}
	.cfi_def_cfa_offset 16
	.cfi_offset 14, -4
	.loc 1 142 0
	movs	r3, #0
	movs	r2, #1
	ldr	r1, .L15
	stm	sp, {r2, r3}
	ldr	r0, .L15+4
	mov	r2, #2048
	bl	xTaskCreate
.LVL38:
	cmp	r0, #1
	beq	.L13
	.loc 1 143 0
	ldr	r1, .L15+8
	ldr	r0, .L15+12
	.loc 1 144 0
	add	sp, sp, #12
	.cfi_remember_state
	.cfi_def_cfa_offset 4
	@ sp needed
	ldr	lr, [sp], #4
	.cfi_restore 14
	.cfi_def_cfa_offset 0
	.loc 1 143 0
	b	__wrap_printf
.LVL39:
.L13:
	.cfi_restore_state
	.loc 1 144 0
	add	sp, sp, #12
	.cfi_def_cfa_offset 4
	@ sp needed
	ldr	pc, [sp], #4
.L16:
	.align	2
.L15:
	.word	.LC8
	.word	example_coap_thread
	.word	.LANCHOR1
	.word	.LC9
	.cfi_endproc
.LFE169:
	.size	example_coap, .-example_coap
	.global	coapVersion
	.comm	coapHandle,4,4
	.section	.data.coapVersion,"aw",%progbits
	.set	.LANCHOR0,. + 0
	.type	coapVersion, %object
	.size	coapVersion, 1
coapVersion:
	.byte	64
	.section	.rodata.__FUNCTION__.9749,"a",%progbits
	.set	.LANCHOR1,. + 0
	.type	__FUNCTION__.9749, %object
	.size	__FUNCTION__.9749, 13
__FUNCTION__.9749:
	.ascii	"example_coap\000"
	.section	.rodata.coap_rx_cb.str1.1,"aMS",%progbits,1
.LC1:
	.ascii	"coap rx cb\012\000"
	.section	.rodata.coap_tx_cb.str1.1,"aMS",%progbits,1
.LC0:
	.ascii	"coap tx cb\012\000"
	.section	.rodata.example_coap.str1.1,"aMS",%progbits,1
.LC8:
	.ascii	"example_coap_thread\000"
.LC9:
	.ascii	"\012\015%s xTaskCreate(init_thread) failed\000"
	.section	.rodata.example_coap_thread.str1.1,"aMS",%progbits,1
.LC2:
	.ascii	"\012CoAP Client Example\012\000"
.LC3:
	.ascii	"Wait for WIFI connection ...\012\000"
.LC4:
	.ascii	"123\000"
.LC5:
	.ascii	"obs\000"
.LC6:
	.ascii	"californium.eclipse.org\000"
.LC7:
	.ascii	"\012Received %d bytes from '%d.%d.%d.%d:%d'\012\000"
	.text
.Letext0:
	.file 2 "/home/ls/samba_share/sdk-ameba-v7.1d/tools/arm-none-eabi-gcc/asdk/linux/newlib/arm-none-eabi/include/machine/_default_types.h"
	.file 3 "/home/ls/samba_share/sdk-ameba-v7.1d/tools/arm-none-eabi-gcc/asdk/linux/newlib/lib/gcc/arm-none-eabi/6.5.0/include/stddef.h"
	.file 4 "/home/ls/samba_share/sdk-ameba-v7.1d/tools/arm-none-eabi-gcc/asdk/linux/newlib/arm-none-eabi/include/sys/lock.h"
	.file 5 "/home/ls/samba_share/sdk-ameba-v7.1d/tools/arm-none-eabi-gcc/asdk/linux/newlib/arm-none-eabi/include/sys/_types.h"
	.file 6 "/home/ls/samba_share/sdk-ameba-v7.1d/tools/arm-none-eabi-gcc/asdk/linux/newlib/arm-none-eabi/include/sys/reent.h"
	.file 7 "<built-in>"
	.file 8 "/home/ls/samba_share/sdk-ameba-v7.1d/tools/arm-none-eabi-gcc/asdk/linux/newlib/arm-none-eabi/include/sys/_stdint.h"
	.file 9 "/home/ls/samba_share/sdk-ameba-v7.1d/tools/arm-none-eabi-gcc/asdk/linux/newlib/arm-none-eabi/include/sys/types.h"
	.file 10 "/home/ls/samba_share/sdk-ameba-v7.1d/tools/arm-none-eabi-gcc/asdk/linux/newlib/arm-none-eabi/include/time.h"
	.file 11 "../inc/FreeRTOSConfig.h"
	.file 12 "../../../component/soc/realtek/8710c/cmsis/rtl8710c/include/basic_types.h"
	.file 13 "/home/ls/samba_share/sdk-ameba-v7.1d/tools/arm-none-eabi-gcc/asdk/linux/newlib/lib/gcc/arm-none-eabi/6.5.0/include/stdarg.h"
	.file 14 "../../../component/soc/realtek/8710c/app/rtl_printf/include/log_buf.h"
	.file 15 "../../../component/soc/realtek/8710c/app/stdio_port/stdio_port.h"
	.file 16 "../../../component/soc/realtek/8710c/app/rtl_printf/include/printf_entry.h"
	.file 17 "../../../component/soc/realtek/8710c/app/rtl_printf/include/rt_printf.h"
	.file 18 "../../../component/soc/realtek/8710c/misc/utilities/include/utility.h"
	.file 19 "../../../component/os/freertos/freertos_v10.0.1/Source/portable/GCC/ARM_RTL8710C/portmacro.h"
	.file 20 "/home/ls/samba_share/sdk-ameba-v7.1d/tools/arm-none-eabi-gcc/asdk/linux/newlib/arm-none-eabi/include/stdlib.h"
	.file 21 "../../../component/common/drivers/wlan/realtek/include/wifi_constants.h"
	.file 22 "../../../component/common/drivers/wlan/realtek/src/osdep/wireless.h"
	.file 23 "../../../component/common/drivers/wlan/realtek/include/autoconf.h"
	.file 24 "../../../component/common/api/wifi/wifi_util.h"
	.file 25 "../../../component/common/network/lwip/lwip_v2.0.2/port/realtek/arch/cc.h"
	.file 26 "../../../component/common/network/lwip/lwip_v2.0.2/src/include/lwip/ip4_addr.h"
	.file 27 "../../../component/common/network/lwip/lwip_v2.0.2/src/include/lwip/ip_addr.h"
	.file 28 "../../../component/common/network/lwip/lwip_v2.0.2/src/include/lwip/inet.h"
	.file 29 "../../../component/common/network/lwip/lwip_v2.0.2/src/include/lwip/errno.h"
	.file 30 "../../../component/common/network/lwip/lwip_v2.0.2/src/include/lwip/sockets.h"
	.file 31 "../../../component/common/network/lwip/lwip_v2.0.2/src/include/lwip/netdb.h"
	.file 32 "../../../component/common/network/coap/include/sn_coap_header.h"
	.file 33 "../../../component/os/freertos/freertos_v10.0.1/Source/include/task.h"
	.file 34 "../../../component/common/api/platform/platform_stdlib_rtl8710c.h"
	.file 35 "../../../component/common/network/coap/include/sn_coap_ameba_port.h"
	.file 36 "../../../component/common/api/wifi/wifi_conf.h"