	.arch armv8-m.main
	.arch_extension dsp
	.eabi_attribute 20, 1
	.eabi_attribute 21, 1
	.eabi_attribute 23, 3
	.eabi_attribute 24, 1
	.eabi_attribute 25, 1
	.eabi_attribute 26, 1
	.eabi_attribute 30, 4
	.eabi_attribute 34, 1
	.eabi_attribute 18, 4
	.file	"example_http_client.c"
	.text
.Ltext0:
	.cfi_sections	.debug_frame
	.section	.text.http_client,"ax",%progbits
	.align	1
	.global	http_client
	.syntax unified
	.thumb
	.thumb_func
	.fpu softvfp
	.type	http_client, %function
http_client:
.LFB146:
	.file 1 "../../../component/common/example/http_client/example_http_client.c"
	.loc 1 17 0
	.cfi_startproc
	@ args = 0, pretend = 0, frame = 272
	@ frame_needed = 0, uses_anonymous_args = 0
.LVL0:
	push	{r4, r5, r6, r7, r8, lr}
	.cfi_def_cfa_offset 24
	.cfi_offset 4, -24
	.cfi_offset 5, -20
	.cfi_offset 6, -16
	.cfi_offset 7, -12
	.cfi_offset 8, -8
	.cfi_offset 14, -4
	.loc 1 26 0
	movs	r2, #0
	.loc 1 17 0
	sub	sp, sp, #272
	.cfi_def_cfa_offset 296
	.loc 1 26 0
	movs	r1, #1
	movs	r0, #2
	bl	lwip_socket
.LVL1:
	.loc 1 27 0
	subs	r4, r0, #0
	bge	.L2
	.loc 1 28 0
	ldr	r0, .L14
.LVL2:
	bl	__wrap_printf
.LVL3:
.L2:
	.loc 1 30 0
	ldr	r0, .L14+4
	bl	lwip_gethostbyname
.LVL4:
	.loc 1 31 0
	mov	r5, r0
	cbnz	r0, .L3
	.loc 1 32 0
	ldr	r0, .L14+8
.LVL5:
.L13:
	.loc 1 41 0
	bl	__wrap_printf
.LVL6:
.L4:
	.loc 1 69 0
	mov	r0, r4
	bl	lwip_close
.LVL7:
	.loc 1 72 0
	add	sp, sp, #272
	.cfi_remember_state
	.cfi_def_cfa_offset 24
	@ sp needed
	pop	{r4, r5, r6, r7, r8, pc}
.LVL8:
.L3:
	.cfi_restore_state
	.loc 1 35 0
	movs	r2, #16
	movs	r1, #0
	mov	r0, sp
.LVL9:
	bl	memset
.LVL10:
	.loc 1 36 0
	movs	r3, #2
	.loc 1 37 0
	movs	r0, #80
	.loc 1 36 0
	strb	r3, [sp, #1]
	.loc 1 37 0
	bl	lwip_htons
.LVL11:
	.loc 1 38 0
	ldr	r3, [r5, #16]
	.loc 1 37 0
	strh	r0, [sp, #2]	@ movhi
	.loc 1 38 0
	ldr	r3, [r3]
	.loc 1 40 0
	movs	r2, #16
	.loc 1 38 0
	ldr	r3, [r3]	@ unaligned
	.loc 1 40 0
	mov	r1, sp
	mov	r0, r4
	.loc 1 38 0
	str	r3, [sp, #4]
	.loc 1 40 0
	bl	lwip_connect
.LVL12:
	cmp	r0, #0
	bge	.L5
	.loc 1 41 0
	ldr	r0, .L14+12
	b	.L13
.L5:
	.loc 1 46 0
	ldr	r1, .L14+16
	ldr	r0, .L14+4
	bl	http_get_header
.LVL13:
	mov	r1, r0
	add	r0, sp, #16
	bl	strcpy
.LVL14:
	.loc 1 47 0
	add	r1, sp, #16
	ldr	r0, .L14+20
	bl	__wrap_printf
.LVL15:
	.loc 1 48 0
	mov	r2, #256
	add	r1, sp, #16
	mov	r0, r4
	bl	lwip_write
.LVL16:
	.loc 1 49 0
	cmp	r0, #0
	bge	.L6
	.loc 1 50 0
	ldr	r0, .L14+24
.LVL17:
	bl	__wrap_printf
.LVL18:
.L6:
	.loc 1 53 0
	movw	r0, #1500
	bl	pvPortMalloc
.LVL19:
	.loc 1 54 0
	mov	r5, r0
.LVL20:
	cbnz	r0, .L7
	.loc 1 55 0
	ldr	r0, .L14+28
.LVL21:
	bl	__wrap_printf
.LVL22:
.L7:
	.loc 1 56 0
	ldr	r0, .L14+32
	bl	__wrap_printf
.LVL23:
	.loc 1 61 0
	ldr	r8, .L14+40
	.loc 1 64 0
	ldr	r7, .L14+36
.L10:
	.loc 1 58 0
	movw	r2, #1500
	movs	r1, #0
	mov	r0, r5
	bl	memset
.LVL24:
	.loc 1 59 0
	movw	r2, #1499
	mov	r1, r5
	mov	r0, r4
	bl	lwip_read
.LVL25:
	.loc 1 60 0
	subs	r6, r0, #0
	bge	.L8
	.loc 1 61 0
	mov	r0, r8
.LVL26:
	bl	__wrap_printf
.LVL27:
.L9:
	.loc 1 64 0
	mov	r1, r5
	mov	r0, r7
	bl	__wrap_printf
.LVL28:
	.loc 1 65 0
	cmp	r6, #0
	bgt	.L10
	b	.L4
.LVL29:
.L8:
	.loc 1 62 0
	bne	.L9
	b	.L4
.L15:
	.align	2
.L14:
	.word	.LC0
	.word	.LC1
	.word	.LC2
	.word	.LC3
	.word	.LC4
	.word	.LC5
	.word	.LC6
	.word	.LC7
	.word	.LC8
	.word	.LC10
	.word	.LC9
	.cfi_endproc
.LFE146:
	.size	http_client, .-http_client
	.section	.text.http_client_thread,"ax",%progbits
	.align	1
	.syntax unified
	.thumb
	.thumb_func
	.fpu softvfp
	.type	http_client_thread, %function
http_client_thread:
.LFB147:
	.loc 1 75 0
	.cfi_startproc
	@ args = 0, pretend = 0, frame = 0
	@ frame_needed = 0, uses_anonymous_args = 0
.LVL30:
	push	{r3, lr}
	.cfi_def_cfa_offset 8
	.cfi_offset 3, -8
	.cfi_offset 14, -4
	.loc 1 80 0
	movw	r0, #10000
.LVL31:
	bl	vTaskDelay
.LVL32:
	.loc 1 82 0
	bl	http_client
.LVL33:
	.loc 1 84 0
	pop	{r3, lr}
	.cfi_restore 14
	.cfi_restore 3
	.cfi_def_cfa_offset 0
	.loc 1 83 0
	movs	r0, #0
	b	vTaskDelete
.LVL34:
	.cfi_endproc
.LFE147:
	.size	http_client_thread, .-http_client_thread
	.section	.text.example_http_client,"ax",%progbits
	.align	1
	.global	example_http_client
	.syntax unified
	.thumb
	.thumb_func
	.fpu softvfp
	.type	example_http_client, %function
example_http_client:
.LFB148:
	.loc 1 87 0
	.cfi_startproc
	@ args = 0, pretend = 0, frame = 0
	@ frame_needed = 0, uses_anonymous_args = 0
	.loc 1 88 0
	movs	r3, #0
	.loc 1 87 0
	push	{r0, r1, r2, lr}
	.cfi_def_cfa_offset 16
	.cfi_offset 14, -4
	.loc 1 88 0
	mov	r2, #1024
	str	r3, [sp, #4]
	str	r3, [sp]
	ldr	r1, .L19
	ldr	r0, .L19+4
	bl	xTaskCreate
.LVL35:
	cmp	r0, #1
	beq	.L17
	.loc 1 89 0
	ldr	r1, .L19+8
	ldr	r0, .L19+12
	.loc 1 91 0
	add	sp, sp, #12
	.cfi_remember_state
	.cfi_def_cfa_offset 4
	@ sp needed
	ldr	lr, [sp], #4
	.cfi_restore 14
	.cfi_def_cfa_offset 0
	.loc 1 89 0
	b	__wrap_printf
.LVL36:
.L17:
	.cfi_restore_state
	.loc 1 91 0
	add	sp, sp, #12
	.cfi_def_cfa_offset 4
	@ sp needed
	ldr	pc, [sp], #4
.L20:
	.align	2
.L19:
	.word	.LC11
	.word	http_client_thread
	.word	.LANCHOR0
	.word	.LC12
	.cfi_endproc
.LFE148:
	.size	example_http_client, .-example_http_client
	.section	.rodata.__FUNCTION__.7310,"a",%progbits
	.set	.LANCHOR0,. + 0
	.type	__FUNCTION__.7310, %object
	.size	__FUNCTION__.7310, 20
__FUNCTION__.7310:
	.ascii	"example_http_client\000"
	.section	.rodata.example_http_client.str1.1,"aMS",%progbits,1
.LC11:
	.ascii	"http_client_thread\000"
.LC12:
	.ascii	"\012\015%s xTaskCreate(http_client_thread) failed\012"
	.ascii	"\000"
	.section	.rodata.http_client.str1.1,"aMS",%progbits,1
.LC0:
	.ascii	"[ERROR] Create socket failed\012\000"
.LC1:
	.ascii	"www.google.com.tw\000"
.LC2:
	.ascii	"[ERROR] Get host ip failed\012\000"
.LC3:
	.ascii	"[ERROR] connect failed\012\000"
.LC4:
	.ascii	"/\000"
.LC5:
	.ascii	"\012Request:\012%s\012\000"
.LC6:
	.ascii	"[ERROR] send packet failed\012\000"
.LC7:
	.ascii	"[ERROR] malloc failed\012\000"
.LC8:
	.ascii	"Response:\012\000"
.LC9:
	.ascii	"[ERROR] receive packet failed\012\000"
.LC10:
	.ascii	"%s\000"
	.text
.Letext0:
	.file 2 "/home/ls/samba_share/sdk-ameba-v7.1d/tools/arm-none-eabi-gcc/asdk/linux/newlib/arm-none-eabi/include/machine/_default_types.h"
	.file 3 "/home/ls/samba_share/sdk-ameba-v7.1d/tools/arm-none-eabi-gcc/asdk/linux/newlib/lib/gcc/arm-none-eabi/6.5.0/include/stddef.h"
	.file 4 "/home/ls/samba_share/sdk-ameba-v7.1d/tools/arm-none-eabi-gcc/asdk/linux/newlib/arm-none-eabi/include/sys/lock.h"
	.file 5 "/home/ls/samba_share/sdk-ameba-v7.1d/tools/arm-none-eabi-gcc/asdk/linux/newlib/arm-none-eabi/include/sys/_types.h"
	.file 6 "/home/ls/samba_share/sdk-ameba-v7.1d/tools/arm-none-eabi-gcc/asdk/linux/newlib/arm-none-eabi/include/sys/reent.h"
	.file 7 "<built-in>"
	.file 8 "/home/ls/samba_share/sdk-ameba-v7.1d/tools/arm-none-eabi-gcc/asdk/linux/newlib/arm-none-eabi/include/sys/_stdint.h"
	.file 9 "/home/ls/samba_share/sdk-ameba-v7.1d/tools/arm-none-eabi-gcc/asdk/linux/newlib/arm-none-eabi/include/sys/types.h"
	.file 10 "/home/ls/samba_share/sdk-ameba-v7.1d/tools/arm-none-eabi-gcc/asdk/linux/newlib/arm-none-eabi/include/time.h"
	.file 11 "../inc/FreeRTOSConfig.h"
	.file 12 "../../../component/soc/realtek/8710c/cmsis/rtl8710c/include/basic_types.h"
	.file 13 "/home/ls/samba_share/sdk-ameba-v7.1d/tools/arm-none-eabi-gcc/asdk/linux/newlib/lib/gcc/arm-none-eabi/6.5.0/include/stdarg.h"
	.file 14 "../../../component/soc/realtek/8710c/app/rtl_printf/include/log_buf.h"
	.file 15 "../../../component/soc/realtek/8710c/app/stdio_port/stdio_port.h"
	.file 16 "../../../component/soc/realtek/8710c/app/rtl_printf/include/printf_entry.h"
	.file 17 "../../../component/soc/realtek/8710c/app/rtl_printf/include/rt_printf.h"
	.file 18 "../../../component/soc/realtek/8710c/misc/utilities/include/utility.h"
	.file 19 "../../../component/os/freertos/freertos_v10.0.1/Source/portable/GCC/ARM_RTL8710C/portmacro.h"
	.file 20 "/home/ls/samba_share/sdk-ameba-v7.1d/tools/arm-none-eabi-gcc/asdk/linux/newlib/arm-none-eabi/include/stdlib.h"
	.file 21 "../../../component/common/network/lwip/lwip_v2.0.2/port/realtek/arch/cc.h"
	.file 22 "../../../component/common/network/lwip/lwip_v2.0.2/src/include/lwip/ip4_addr.h"
	.file 23 "../../../component/common/network/lwip/lwip_v2.0.2/src/include/lwip/ip_addr.h"
	.file 24 "../../../component/common/network/lwip/lwip_v2.0.2/src/include/lwip/inet.h"
	.file 25 "../../../component/common/network/lwip/lwip_v2.0.2/src/include/lwip/errno.h"
	.file 26 "../../../component/common/network/lwip/lwip_v2.0.2/src/include/lwip/sockets.h"
	.file 27 "../../../component/common/network/lwip/lwip_v2.0.2/src/include/lwip/netdb.h"
	.file 28 "../../../component/os/freertos/freertos_v10.0.1/Source/include/task.h"
	.file 29 "../../../component/common/api/platform/platform_stdlib_rtl8710c.h"
	.file 30 "../../../component/common/network/lwip/lwip_v2.0.2/src/include/lwip/def.h"
	.file 31 "../../../component/os/freertos/freertos_v10.0.1/Source/include/portable.h"