	.arch armv8-m.main
	.arch_extension dsp
	.eabi_attribute 20, 1
	.eabi_attribute 21, 1
	.eabi_attribute 23, 3
	.eabi_attribute 24, 1
	.eabi_attribute 25, 1
	.eabi_attribute 26, 1
	.eabi_attribute 30, 4
	.eabi_attribute 34, 1
	.eabi_attribute 18, 4
	.file	"ff.c"
	.text
.Ltext0:
	.cfi_sections	.debug_frame
	.section	.text.sum_sfn,"ax",%progbits
	.align	1
	.syntax unified
	.thumb
	.thumb_func
	.fpu softvfp
	.type	sum_sfn, %function
sum_sfn:
.LFB18:
	.file 1 "../../../component/common/file_system/fatfs/r0.10c/src/ff.c"
	.loc 1 1478 0
	.cfi_startproc
	@ args = 0, pretend = 0, frame = 0
	@ frame_needed = 0, uses_anonymous_args = 0
	@ link register save eliminated.
.LVL0:
	.loc 1 1478 0
	mov	r2, r0
	add	r1, r0, #11
	.loc 1 1479 0
	movs	r0, #0
.LVL1:
.L2:
	.loc 1 1482 0 discriminator 1
	lsls	r3, r0, #7
	orr	r3, r3, r0, lsr #1
	ldrb	r0, [r2], #1	@ zero_extendqisi2
.LVL2:
	uxtab	r3, r0, r3
	cmp	r2, r1
	uxtb	r0, r3
.LVL3:
	bne	.L2
	.loc 1 1484 0
	bx	lr
	.cfi_endproc
.LFE18:
	.size	sum_sfn, .-sum_sfn
	.section	.text.get_ldnumber,"ax",%progbits
	.align	1
	.syntax unified
	.thumb
	.thumb_func
	.fpu softvfp
	.type	get_ldnumber, %function
get_ldnumber:
.LFB26:
	.loc 1 2088 0
	.cfi_startproc
	@ args = 0, pretend = 0, frame = 0
	@ frame_needed = 0, uses_anonymous_args = 0
.LVL4:
	.loc 1 2094 0
	ldr	r2, [r0]
	.loc 1 2088 0
	push	{r4, lr}
	.cfi_def_cfa_offset 8
	.cfi_offset 4, -8
	.cfi_offset 14, -4
	.loc 1 2094 0
	cbz	r2, .L14
	mov	r1, r2
.L6:
	mov	r3, r1
.LVL5:
	.loc 1 2095 0 discriminator 1
	ldrb	r4, [r1], #1	@ zero_extendqisi2
.LVL6:
	cmp	r4, #31
	bls	.L10
	.loc 1 2095 0 is_stmt 0 discriminator 3
	cmp	r4, #58
	bne	.L6
.LVL7:
	.loc 1 2098 0 is_stmt 1
	adds	r1, r2, #1
.LVL8:
	.loc 1 2099 0
	cmp	r3, r1
	beq	.L8
.LVL9:
.L14:
	.loc 1 2091 0
	mov	r0, #-1
.LVL10:
	.loc 1 2134 0
	pop	{r4, pc}
.LVL11:
.L8:
	.loc 1 2100 0
	ldrb	r2, [r2]	@ zero_extendqisi2
.LVL12:
	cmp	r2, #48
	bne	.L14
.LVL13:
	.loc 1 2102 0
	adds	r3, r3, #1
.LVL14:
	str	r3, [r0]
.LVL15:
.L10:
	.loc 1 2130 0
	movs	r0, #0
.LVL16:
	pop	{r4, pc}
	.cfi_endproc
.LFE26:
	.size	get_ldnumber, .-get_ldnumber
	.section	.text.validate,"ax",%progbits
	.align	1
	.syntax unified
	.thumb
	.thumb_func
	.fpu softvfp
	.type	validate, %function
validate:
.LFB29:
	.loc 1 2346 0
	.cfi_startproc
	@ args = 0, pretend = 0, frame = 0
	@ frame_needed = 0, uses_anonymous_args = 0
.LVL17:
	push	{r3, lr}
	.cfi_def_cfa_offset 8
	.cfi_offset 3, -8
	.cfi_offset 14, -4
	.loc 1 2350 0
	cbz	r0, .L20
	.loc 1 2350 0 is_stmt 0 discriminator 1
	ldr	r3, [r0]
	cbz	r3, .L20
	.loc 1 2350 0 discriminator 2
	ldrb	r2, [r3]	@ zero_extendqisi2
	cbz	r2, .L20
	.loc 1 2350 0 discriminator 3
	ldrh	r1, [r3, #6]
	ldrh	r2, [r0, #4]
	cmp	r1, r2
	bne	.L20
	.loc 1 2355 0 is_stmt 1
	ldrb	r0, [r3, #1]	@ zero_extendqisi2
.LVL18:
	bl	disk_status
.LVL19:
	tst	r0, #1
	.loc 1 2358 0
	ite	ne
	movne	r0, #3
	moveq	r0, #0
	pop	{r3, pc}
.LVL20:
.L20:
	.loc 1 2351 0
	movs	r0, #9
.LVL21:
	.loc 1 2359 0
	pop	{r3, pc}
	.cfi_endproc
.LFE29:
	.size	validate, .-validate
	.section	.text.get_fileinfo,"ax",%progbits
	.align	1
	.syntax unified
	.thumb
	.thumb_func
	.fpu softvfp
	.type	get_fileinfo, %function
get_fileinfo:
.LFB23:
	.loc 1 1744 0
	.cfi_startproc
	@ args = 0, pretend = 0, frame = 0
	@ frame_needed = 0, uses_anonymous_args = 0
.LVL22:
	.loc 1 1750 0
	ldr	r3, [r0, #16]
	.loc 1 1744 0
	push	{r4, r5, r6, r7, r8, lr}
	.cfi_def_cfa_offset 24
	.cfi_offset 4, -24
	.cfi_offset 5, -20
	.cfi_offset 6, -16
	.cfi_offset 7, -12
	.cfi_offset 8, -8
	.cfi_offset 14, -4
	.loc 1 1744 0
	mov	r5, r1
	.loc 1 1749 0
	adds	r1, r1, #9
.LVL23:
	.loc 1 1750 0
	cbz	r3, .L23
.LBB5:
	.loc 1 1753 0
	movs	r4, #0
	.loc 1 1758 0
	movs	r7, #46
	.loc 1 1751 0
	ldr	r2, [r0, #20]
.LVL24:
	subs	r6, r2, #1
.LVL25:
.L29:
	.loc 1 1755 0
	ldrb	r3, [r6, #1]!	@ zero_extendqisi2
	adds	r4, r4, #1
.LVL26:
	.loc 1 1756 0
	cmp	r3, #32
	beq	.L24
	.loc 1 1757 0
	cmp	r3, #5
	beq	.L25
	.loc 1 1758 0
	cmp	r4, #9
	bne	.L26
.LVL27:
.L36:
	.loc 1 1758 0 is_stmt 0 discriminator 1
	strb	r7, [r1]
	adds	r1, r1, #1
.LVL28:
.L26:
	.loc 1 1760 0 is_stmt 1
	sub	ip, r3, #65
	cmp	ip, #25
	bhi	.L27
	.loc 1 1760 0 is_stmt 0 discriminator 1
	cmp	r4, #8
	ite	hi
	movhi	lr, #16
	movls	lr, #8
	ldrb	ip, [r2, #12]	@ zero_extendqisi2
	tst	lr, ip
	.loc 1 1761 0 is_stmt 1 discriminator 1
	itt	ne
	addne	r3, r3, #32
	uxtbne	r3, r3
.LVL29:
.L27:
	.loc 1 1769 0
	strb	r3, [r1]
	adds	r1, r1, #1
.LVL30:
.L24:
	.loc 1 1754 0
	cmp	r4, #11
	bne	.L29
	.loc 1 1771 0
	ldrb	r3, [r2, #11]	@ zero_extendqisi2
.LVL31:
	strb	r3, [r5, #8]
	.loc 1 1772 0
	ldr	r3, [r2, #28]	@ unaligned
	str	r3, [r5]
	.loc 1 1773 0
	ldrb	r4, [r2, #25]	@ zero_extendqisi2
.LVL32:
	ldrb	r3, [r2, #24]	@ zero_extendqisi2
	orr	r3, r3, r4, lsl #8
	strh	r3, [r5, #4]	@ movhi
	.loc 1 1774 0
	ldrb	r4, [r2, #23]	@ zero_extendqisi2
	ldrb	r3, [r2, #22]	@ zero_extendqisi2
	orr	r3, r3, r4, lsl #8
	strh	r3, [r5, #6]	@ movhi
.LVL33:
.L23:
.LBE5:
	.loc 1 1776 0
	movs	r4, #0
	strb	r4, [r1]
	.loc 1 1779 0
	ldr	r6, [r5, #24]
	cbz	r6, .L22
.LVL34:
.LBB6:
	.loc 1 1783 0
	ldr	r3, [r0, #16]
	cbnz	r3, .L31
.LVL35:
.L33:
	.loc 1 1782 0
	movs	r4, #0
.L32:
.LVL36:
	.loc 1 1796 0
	movs	r3, #0
	strb	r3, [r6, r4]
.LBE6:
	.loc 1 1799 0
	pop	{r4, r5, r6, r7, r8, pc}
.LVL37:
.L31:
.LBB7:
	.loc 1 1783 0 discriminator 1
	ldr	r3, [r5, #28]
	cmp	r3, #0
	beq	.L33
	.loc 1 1783 0 is_stmt 0 discriminator 2
	movw	r3, #65535
	ldrh	r2, [r0, #32]
	cmp	r2, r3
	beq	.L33
	.loc 1 1784 0 is_stmt 1
	ldr	r8, [r0, #28]
.LVL38:
	subs	r7, r6, #1
.LVL39:
.L34:
	.loc 1 1785 0
	ldrh	r0, [r8, r4, lsl #1]
.LVL40:
	cmp	r0, #0
	beq	.L32
	.loc 1 1787 0
	movs	r1, #0
	bl	ff_convert
.LVL41:
	.loc 1 1788 0
	cmp	r0, #0
	beq	.L33
	.loc 1 1792 0
	ldr	r3, [r5, #28]
	subs	r3, r3, #1
	cmp	r4, r3
	bcs	.L33
	.loc 1 1793 0
	adds	r4, r4, #1
.LVL42:
	strb	r0, [r7, #1]!
	b	.L34
.LVL43:
.L25:
.LBE7:
.LBB8:
	.loc 1 1758 0
	cmp	r4, #9
	.loc 1 1757 0
	mov	r3, #229
	.loc 1 1758 0
	bne	.L27
	b	.L36
.LVL44:
.L22:
	pop	{r4, r5, r6, r7, r8, pc}
.LBE8:
	.cfi_endproc
.LFE23:
	.size	get_fileinfo, .-get_fileinfo
	.section	.text.ld_clust.isra.0,"ax",%progbits
	.align	1
	.syntax unified
	.thumb
	.thumb_func
	.fpu softvfp
	.type	ld_clust.isra.0, %function
ld_clust.isra.0:
.LFB48:
	.loc 1 1275 0
	.cfi_startproc
	@ args = 0, pretend = 0, frame = 0
	@ frame_needed = 0, uses_anonymous_args = 0
	@ link register save eliminated.
.LVL45:
	.loc 1 1282 0
	ldrb	r2, [r1, #27]	@ zero_extendqisi2
	ldrb	r3, [r1, #26]	@ zero_extendqisi2
	.loc 1 1283 0
	cmp	r0, #3
	.loc 1 1282 0
	orr	r3, r3, r2, lsl #8
.LVL46:
	.loc 1 1284 0
	itttt	eq
	ldrbeq	r0, [r1, #21]	@ zero_extendqisi2
	ldrbeq	r2, [r1, #20]	@ zero_extendqisi2
	orreq	r2, r2, r0, lsl #8
	orreq	r3, r3, r2, lsl #16
.LVL47:
	.loc 1 1287 0
	mov	r0, r3
	bx	lr
	.cfi_endproc
.LFE48:
	.size	ld_clust.isra.0, .-ld_clust.isra.0
	.section	.text.sync_window.part.1,"ax",%progbits
	.align	1
	.syntax unified
	.thumb
	.thumb_func
	.fpu softvfp
	.type	sync_window.part.1, %function
sync_window.part.1:
.LFB49:
	.loc 1 760 0
	.cfi_startproc
	@ args = 0, pretend = 0, frame = 0
	@ frame_needed = 0, uses_anonymous_args = 0
.LVL48:
	push	{r3, r4, r5, r6, r7, lr}
	.cfi_def_cfa_offset 24
	.cfi_offset 3, -24
	.cfi_offset 4, -20
	.cfi_offset 5, -16
	.cfi_offset 6, -12
	.cfi_offset 7, -8
	.cfi_offset 14, -4
	.loc 1 769 0
	ldr	r5, [r0, #44]
.LVL49:
	.loc 1 770 0
	add	r7, r0, #48
	.loc 1 760 0
	mov	r4, r0
	.loc 1 770 0
	movs	r3, #1
	mov	r2, r5
	mov	r1, r7
	ldrb	r0, [r0, #1]	@ zero_extendqisi2
.LVL50:
	bl	disk_write
.LVL51:
	cbnz	r0, .L66
	.loc 1 773 0
	ldr	r3, [r4, #32]
	ldr	r2, [r4, #24]
	subs	r3, r5, r3
	cmp	r3, r2
	.loc 1 772 0
	strb	r0, [r4, #4]
	.loc 1 773 0
	bcc	.L62
.L65:
	.loc 1 780 0
	movs	r0, #0
	pop	{r3, r4, r5, r6, r7, pc}
.LVL52:
.L62:
	.loc 1 774 0
	ldrb	r6, [r4, #3]	@ zero_extendqisi2
.LVL53:
.L63:
	cmp	r6, #1
	bls	.L65
	.loc 1 775 0
	ldr	r3, [r4, #24]
	.loc 1 776 0
	mov	r1, r7
	.loc 1 775 0
	add	r5, r5, r3
.LVL54:
	.loc 1 776 0
	mov	r2, r5
	movs	r3, #1
	ldrb	r0, [r4, #1]	@ zero_extendqisi2
	bl	disk_write
.LVL55:
	.loc 1 774 0
	subs	r6, r6, #1
.LVL56:
	b	.L63
.LVL57:
.L66:
	.loc 1 771 0
	movs	r0, #1
	.loc 1 781 0
	pop	{r3, r4, r5, r6, r7, pc}
	.cfi_endproc
.LFE49:
	.size	sync_window.part.1, .-sync_window.part.1
	.section	.text.sync_window,"ax",%progbits
	.align	1
	.syntax unified
	.thumb
	.thumb_func
	.fpu softvfp
	.type	sync_window, %function
sync_window:
.LFB1:
	.loc 1 763 0
	.cfi_startproc
	@ args = 0, pretend = 0, frame = 0
	@ frame_needed = 0, uses_anonymous_args = 0
	@ link register save eliminated.
.LVL58:
	.loc 1 768 0
	ldrb	r3, [r0, #4]	@ zero_extendqisi2
	cbz	r3, .L68
	b	sync_window.part.1
.LVL59:
.L68:
	.loc 1 781 0
	mov	r0, r3
.LVL60:
	bx	lr
	.cfi_endproc
.LFE1:
	.size	sync_window, .-sync_window
	.section	.text.sync_fs,"ax",%progbits
	.align	1
	.syntax unified
	.thumb
	.thumb_func
	.fpu softvfp
	.type	sync_fs, %function
sync_fs:
.LFB3:
	.loc 1 815 0
	.cfi_startproc
	@ args = 0, pretend = 0, frame = 0
	@ frame_needed = 0, uses_anonymous_args = 0
.LVL61:
	push	{r3, r4, r5, r6, r7, lr}
	.cfi_def_cfa_offset 24
	.cfi_offset 3, -24
	.cfi_offset 4, -20
	.cfi_offset 5, -16
	.cfi_offset 6, -12
	.cfi_offset 7, -8
	.cfi_offset 14, -4
	.loc 1 815 0
	mov	r4, r0
	.loc 1 819 0
	bl	sync_window
.LVL62:
	mov	r5, r0
.LVL63:
	.loc 1 820 0
	cmp	r0, #0
	bne	.L70
	.loc 1 822 0
	ldrb	r3, [r4]	@ zero_extendqisi2
	cmp	r3, #3
	bne	.L71
	.loc 1 822 0 is_stmt 0 discriminator 1
	ldrb	r7, [r4, #5]	@ zero_extendqisi2
	cmp	r7, #1
	bne	.L71
	.loc 1 824 0 is_stmt 1
	add	r6, r4, #48
	mov	r1, r0
	mov	r2, #512
	mov	r0, r6
.LVL64:
	bl	memset
.LVL65:
	.loc 1 825 0
	movs	r3, #85
	strb	r3, [r4, #558]
	movs	r3, #170
	strb	r3, [r4, #559]
	.loc 1 826 0
	movs	r3, #82
	movs	r2, #65
	strb	r3, [r4, #48]
	strb	r3, [r4, #49]
	movs	r3, #97
	.loc 1 827 0
	movs	r1, #114
	.loc 1 826 0
	strb	r2, [r4, #51]
	.loc 1 827 0
	strb	r2, [r4, #534]
	.loc 1 828 0
	ldr	r2, [r4, #16]
	.loc 1 826 0
	strb	r3, [r4, #50]
	.loc 1 827 0
	strb	r3, [r4, #535]
	.loc 1 828 0
	ubfx	r3, r2, #8, #8
	strb	r2, [r4, #536]
	strb	r3, [r4, #537]
	lsrs	r3, r2, #16
	lsrs	r2, r2, #24
	strb	r2, [r4, #539]
	.loc 1 829 0
	ldr	r2, [r4, #12]
	.loc 1 828 0
	strb	r3, [r4, #538]
	.loc 1 829 0
	ubfx	r3, r2, #8, #8
	strb	r2, [r4, #540]
	strb	r3, [r4, #541]
	lsrs	r3, r2, #16
	lsrs	r2, r2, #24
	strb	r2, [r4, #543]
	.loc 1 831 0
	ldr	r2, [r4, #28]
	.loc 1 827 0
	strb	r1, [r4, #532]
	.loc 1 831 0
	adds	r2, r2, #1
	.loc 1 827 0
	strb	r1, [r4, #533]
	.loc 1 829 0
	strb	r3, [r4, #542]
	.loc 1 831 0
	str	r2, [r4, #44]
	.loc 1 832 0
	mov	r3, r7
	mov	r1, r6
	ldrb	r0, [r4, #1]	@ zero_extendqisi2
	bl	disk_write
.LVL66:
	.loc 1 833 0
	strb	r5, [r4, #5]
.L71:
	.loc 1 836 0
	movs	r2, #0
	ldrb	r0, [r4, #1]	@ zero_extendqisi2
	mov	r1, r2
	bl	disk_ioctl
.LVL67:
	adds	r0, r0, #0
	it	ne
	movne	r0, #1
.L70:
.LVL68:
	.loc 1 841 0
	pop	{r3, r4, r5, r6, r7, pc}
	.cfi_endproc
.LFE3:
	.size	sync_fs, .-sync_fs
	.section	.text.move_window,"ax",%progbits
	.align	1
	.syntax unified
	.thumb
	.thumb_func
	.fpu softvfp
	.type	move_window, %function
move_window:
.LFB2:
	.loc 1 790 0
	.cfi_startproc
	@ args = 0, pretend = 0, frame = 0
	@ frame_needed = 0, uses_anonymous_args = 0
.LVL69:
	.loc 1 791 0
	ldr	r3, [r0, #44]
	.loc 1 790 0
	push	{r4, r5, r6, lr}
	.cfi_def_cfa_offset 16
	.cfi_offset 4, -16
	.cfi_offset 5, -12
	.cfi_offset 6, -8
	.cfi_offset 14, -4
	.loc 1 791 0
	cmp	r3, r1
	.loc 1 790 0
	mov	r5, r0
	mov	r6, r1
	.loc 1 791 0
	beq	.L76
	.loc 1 793 0
	bl	sync_window
.LVL70:
	mov	r4, r0
	cbz	r0, .L74
.L75:
	.loc 1 794 0
	movs	r4, #1
.L73:
	.loc 1 802 0
	mov	r0, r4
	pop	{r4, r5, r6, pc}
.LVL71:
.L74:
.LBB11:
.LBB12:
	.loc 1 796 0
	movs	r3, #1
	mov	r2, r6
	add	r1, r5, #48
	ldrb	r0, [r5, #1]	@ zero_extendqisi2
	bl	disk_read
.LVL72:
	cmp	r0, #0
	bne	.L75
	.loc 1 798 0
	str	r6, [r5, #44]
	b	.L73
.LVL73:
.L76:
.LBE12:
.LBE11:
	.loc 1 801 0
	movs	r4, #0
	b	.L73
	.cfi_endproc
.LFE2:
	.size	move_window, .-move_window
	.section	.text.check_fs,"ax",%progbits
	.align	1
	.syntax unified
	.thumb
	.thumb_func
	.fpu softvfp
	.type	check_fs, %function
check_fs:
.LFB27:
	.loc 1 2148 0
	.cfi_startproc
	@ args = 0, pretend = 0, frame = 0
	@ frame_needed = 0, uses_anonymous_args = 0
.LVL74:
	.loc 1 2149 0
	movs	r3, #0
	.loc 1 2148 0
	push	{r4, lr}
	.cfi_def_cfa_offset 8
	.cfi_offset 4, -8
	.cfi_offset 14, -4
	.loc 1 2149 0
	strb	r3, [r0, #4]
	mov	r3, #-1
	str	r3, [r0, #44]
	.loc 1 2148 0
	mov	r4, r0
	.loc 1 2150 0
	bl	move_window
.LVL75:
	cbnz	r0, .L79
	.loc 1 2153 0
	ldrb	r2, [r4, #559]	@ zero_extendqisi2
	ldrb	r3, [r4, #558]	@ zero_extendqisi2
	orr	r3, r3, r2, lsl #8
	movw	r2, #43605
	cmp	r3, r2
	bne	.L80
	.loc 1 2156 0
	ldr	r3, [r4, #102]	@ unaligned
	ldr	r2, .L82
	bic	r3, r3, #-16777216
	cmp	r3, r2
	beq	.L78
.LVL76:
.LBB15:
.LBB16:
	.loc 1 2158 0
	ldr	r0, [r4, #130]	@ unaligned
	bic	r0, r0, #-16777216
.LBE16:
.LBE15:
	.loc 1 2151 0
	subs	r0, r0, r2
	it	ne
	movne	r0, #1
	pop	{r4, pc}
.LVL77:
.L79:
	movs	r0, #3
	pop	{r4, pc}
.LVL78:
.L80:
	.loc 1 2154 0
	movs	r0, #2
.L78:
	.loc 1 2162 0
	pop	{r4, pc}
.LVL79:
.L83:
	.align	2
.L82:
	.word	5521734
	.cfi_endproc
.LFE27:
	.size	check_fs, .-check_fs
	.section	.text.find_volume,"ax",%progbits
	.align	1
	.syntax unified
	.thumb
	.thumb_func
	.fpu softvfp
	.type	find_volume, %function
find_volume:
.LFB28:
	.loc 1 2177 0
	.cfi_startproc
	@ args = 0, pretend = 0, frame = 16
	@ frame_needed = 0, uses_anonymous_args = 0
.LVL80:
	.loc 1 2187 0
	movs	r3, #0
	.loc 1 2177 0
	push	{r4, r5, r6, r7, lr}
	.cfi_def_cfa_offset 20
	.cfi_offset 4, -20
	.cfi_offset 5, -16
	.cfi_offset 6, -12
	.cfi_offset 7, -8
	.cfi_offset 14, -4
	.loc 1 2187 0
	str	r3, [r0]
	.loc 1 2177 0
	sub	sp, sp, #20
	.cfi_def_cfa_offset 40
	.loc 1 2177 0
	mov	r7, r0
	.loc 1 2188 0
	mov	r0, r1
.LVL81:
	.loc 1 2177 0
	mov	r5, r2
	.loc 1 2188 0
	bl	get_ldnumber
.LVL82:
	.loc 1 2189 0
	subs	r6, r0, #0
	blt	.L107
	.loc 1 2192 0
	ldr	r3, .L143
	ldr	r4, [r3, r6, lsl #2]
.LVL83:
	.loc 1 2193 0
	cmp	r4, #0
	beq	.L108
	.loc 1 2196 0
	str	r4, [r7]
	.loc 1 2198 0
	ldrb	r3, [r4]	@ zero_extendqisi2
	cbz	r3, .L86
	.loc 1 2199 0
	ldrb	r0, [r4, #1]	@ zero_extendqisi2
.LVL84:
	bl	disk_status
.LVL85:
	.loc 1 2200 0
	lsls	r7, r0, #31
.LVL86:
	bmi	.L86
	.loc 1 2201 0
	cmp	r5, #0
	beq	.L142
	.loc 1 2201 0 is_stmt 0 discriminator 1
	ands	r0, r0, #4
.LVL87:
	beq	.L85
.L88:
	.loc 1 2202 0 is_stmt 1
	movs	r0, #10
.LVL88:
.L85:
	.loc 1 2333 0
	add	sp, sp, #20
	.cfi_remember_state
	.cfi_def_cfa_offset 20
	@ sp needed
	pop	{r4, r5, r6, r7, pc}
.LVL89:
.L86:
	.cfi_restore_state
	.loc 1 2210 0
	movs	r3, #0
	.loc 1 2211 0
	uxtb	r0, r6
	.loc 1 2210 0
	strb	r3, [r4]
	.loc 1 2211 0
	strb	r0, [r4, #1]
	.loc 1 2212 0
	bl	disk_initialize
.LVL90:
	.loc 1 2213 0
	lsls	r1, r0, #31
	bmi	.L111
	.loc 1 2215 0
	cbz	r5, .L87
	.loc 1 2215 0 is_stmt 0 discriminator 1
	lsls	r2, r0, #29
	bmi	.L88
.L87:
.LVL91:
	.loc 1 2223 0 is_stmt 1
	movs	r1, #0
	mov	r0, r4
.LVL92:
	bl	check_fs
.LVL93:
	.loc 1 2224 0
	cmp	r0, #1
	bne	.L112
	movs	r2, #0
	add	r1, r4, #502
.L91:
.LVL94:
.LBB17:
.LBB18:
	.loc 1 2230 0
	ldrb	r3, [r1, #-4]	@ zero_extendqisi2
	cbz	r3, .L90
	.loc 1 2230 0 is_stmt 0 discriminator 1
	ldr	r3, [r1]	@ unaligned
.L90:
	.loc 1 2230 0 discriminator 4
	str	r3, [sp, r2, lsl #2]
.LBE18:
	.loc 1 2228 0 is_stmt 1 discriminator 4
	adds	r2, r2, #1
.LVL95:
	cmp	r2, #4
	add	r1, r1, #16
.LVL96:
	bne	.L91
	movs	r6, #0
.LVL97:
.L94:
	.loc 1 2235 0
	ldr	r5, [sp, r6, lsl #2]
.LVL98:
	.loc 1 2236 0
	cmp	r5, #0
	beq	.L114
	.loc 1 2236 0 is_stmt 0 discriminator 1
	mov	r1, r5
	mov	r0, r4
	bl	check_fs
.LVL99:
	.loc 1 2237 0 is_stmt 1 discriminator 1
	cmp	r0, #0
	bne	.L92
.LVL100:
.L95:
.LBE17:
	.loc 1 2244 0
	ldrb	r2, [r4, #60]	@ zero_extendqisi2
	ldrb	r3, [r4, #59]	@ zero_extendqisi2
	orr	r3, r3, r2, lsl #8
	cmp	r3, #512
	bne	.L96
	.loc 1 2247 0
	ldrb	r3, [r4, #71]	@ zero_extendqisi2
	ldrb	r1, [r4, #70]	@ zero_extendqisi2
.LVL101:
	.loc 1 2251 0
	ldrb	r0, [r4, #64]	@ zero_extendqisi2
.LVL102:
	.loc 1 2248 0
	orrs	r1, r1, r3, lsl #8
.LVL103:
	it	eq
	ldreq	r1, [r4, #84]
.LVL104:
	.loc 1 2252 0
	subs	r3, r0, #1
	cmp	r3, #1
	.loc 1 2249 0
	str	r1, [r4, #24]
	.loc 1 2251 0
	strb	r0, [r4, #3]
	.loc 1 2252 0
	bhi	.L96
.LVL105:
	.loc 1 2256 0
	ldrb	r6, [r4, #61]	@ zero_extendqisi2
	strb	r6, [r4, #2]
	.loc 1 2257 0
	cmp	r6, #0
	beq	.L96
	.loc 1 2257 0 is_stmt 0 discriminator 1
	subs	r3, r6, #1
	tst	r3, r6
	bne	.L96
	.loc 1 2260 0 is_stmt 1
	ldrb	r3, [r4, #66]	@ zero_extendqisi2
	ldrb	r7, [r4, #65]	@ zero_extendqisi2
	orr	r7, r7, r3, lsl #8
	.loc 1 2261 0
	lsls	r3, r7, #28
	.loc 1 2260 0
	strh	r7, [r4, #8]	@ movhi
	.loc 1 2261 0
	bne	.L96
	.loc 1 2264 0
	ldrb	r2, [r4, #68]	@ zero_extendqisi2
	ldrb	r3, [r4, #67]	@ zero_extendqisi2
.LVL106:
	.loc 1 2267 0
	ldrb	ip, [r4, #63]	@ zero_extendqisi2
	.loc 1 2265 0
	orrs	r3, r3, r2, lsl #8
.LVL107:
	.loc 1 2267 0
	ldrb	r2, [r4, #62]	@ zero_extendqisi2
	.loc 1 2265 0
	it	eq
	ldreq	r3, [r4, #80]
.LVL108:
	.loc 1 2268 0
	orrs	r2, r2, ip, lsl #8
.LVL109:
	beq	.L96
	.loc 1 2254 0
	mul	ip, r1, r0
	.loc 1 2271 0
	add	r0, r2, r7, lsr #4
.LVL110:
	add	r0, r0, ip
.LVL111:
	.loc 1 2272 0
	cmp	r3, r0
	bcc	.L96
	.loc 1 2273 0
	subs	r3, r3, r0
.LVL112:
	udiv	r3, r3, r6
.LVL113:
	.loc 1 2274 0
	cmp	r3, #0
	beq	.L96
.LVL114:
	.loc 1 2276 0
	movw	r6, #4085
	cmp	r3, r6
	bls	.L116
.LVL115:
	.loc 1 2277 0
	movw	r6, #65525
	cmp	r3, r6
	ite	ls
	movls	r6, #2
	movhi	r6, #3
.LVL116:
.L100:
	.loc 1 2280 0
	adds	r3, r3, #2
.LVL117:
	.loc 1 2282 0
	add	r2, r2, r5
.LVL118:
	.loc 1 2283 0
	add	r0, r0, r5
.LVL119:
	.loc 1 2284 0
	cmp	r6, #3
	.loc 1 2280 0
	str	r3, [r4, #20]
	.loc 1 2281 0
	str	r5, [r4, #28]
	.loc 1 2282 0
	str	r2, [r4, #32]
	.loc 1 2283 0
	str	r0, [r4, #40]
	.loc 1 2284 0
	bne	.L101
.LVL120:
	.loc 1 2285 0
	cmp	r7, #0
	bne	.L96
	.loc 1 2286 0
	ldr	r2, [r4, #92]
	.loc 1 2287 0
	lsls	r3, r3, #2
.LVL121:
	.loc 1 2286 0
	str	r2, [r4, #36]
.LVL122:
.L102:
	.loc 1 2294 0
	addw	r3, r3, #511
.LVL123:
	cmp	r1, r3, lsr #9
	bcc	.L96
	.loc 1 2299 0
	mov	r3, #-1
.LVL124:
	str	r3, [r4, #16]
	str	r3, [r4, #12]
	.loc 1 2302 0
	movs	r3, #128
	.loc 1 2304 0
	cmp	r6, #3
	.loc 1 2302 0
	strb	r3, [r4, #5]
	.loc 1 2304 0
	bne	.L105
	.loc 1 2305 0
	ldrb	r2, [r4, #97]	@ zero_extendqisi2
	ldrb	r3, [r4, #96]	@ zero_extendqisi2
	orr	r3, r3, r2, lsl #8
	cmp	r3, #1
	bne	.L105
	.loc 1 2306 0
	adds	r1, r5, #1
.LVL125:
	mov	r0, r4
	bl	move_window
.LVL126:
	cbnz	r0, .L105
	.loc 1 2309 0
	ldrb	r2, [r4, #559]	@ zero_extendqisi2
	ldrb	r3, [r4, #558]	@ zero_extendqisi2
	.loc 1 2308 0
	strb	r0, [r4, #5]
	.loc 1 2309 0
	orr	r3, r3, r2, lsl #8
	movw	r2, #43605
	cmp	r3, r2
	bne	.L105
	.loc 1 2310 0
	ldr	r2, [r4, #48]
	ldr	r3, .L143+4
	cmp	r2, r3
	bne	.L105
	.loc 1 2311 0
	add	r3, r3, #534773760
	ldr	r2, [r4, #532]
	add	r3, r3, #8192
	adds	r3, r3, #32
	cmp	r2, r3
	.loc 1 2314 0
	itttt	eq
	ldreq	r3, [r4, #536]
	streq	r3, [r4, #16]
	.loc 1 2317 0
	ldreq	r3, [r4, #540]
	streq	r3, [r4, #12]
.L105:
	.loc 1 2324 0
	ldr	r2, .L143+8
	.loc 1 2323 0
	strb	r6, [r4]
	.loc 1 2324 0
	ldrh	r3, [r2]
	adds	r3, r3, #1
	uxth	r3, r3
	strh	r3, [r2]	@ movhi
	strh	r3, [r4, #6]	@ movhi
.LVL127:
.L142:
	.loc 1 2332 0
	movs	r0, #0
	b	.L85
.LVL128:
.L114:
.LBB19:
	.loc 1 2236 0
	movs	r0, #2
.L92:
	.loc 1 2237 0 discriminator 1
	adds	r6, r6, #1
.LVL129:
	cmp	r6, #4
	bne	.L94
.LVL130:
.L89:
.LBE19:
	.loc 1 2239 0
	cmp	r0, #3
	beq	.L115
	.loc 1 2240 0
	cmp	r0, #0
	beq	.L95
.LVL131:
.L96:
	movs	r0, #13
	b	.L85
.LVL132:
.L112:
	.loc 1 2222 0
	movs	r5, #0
	b	.L89
.LVL133:
.L116:
	.loc 1 2275 0
	movs	r6, #1
	b	.L100
.LVL134:
.L101:
	.loc 1 2289 0
	cmp	r7, #0
	beq	.L96
	.loc 1 2290 0
	add	r2, r2, ip
	.loc 1 2292 0
	cmp	r6, #2
	.loc 1 2290 0
	str	r2, [r4, #36]
	lsl	r2, r3, #1
	.loc 1 2292 0
	ittet	ne
	addne	r2, r2, r3
	andne	r3, r3, #1
.LVL135:
	moveq	r3, r2
	addne	r3, r3, r2, lsr #1
	b	.L102
.LVL136:
.L107:
	.loc 1 2189 0
	movs	r0, #11
.LVL137:
	b	.L85
.LVL138:
.L108:
	.loc 1 2193 0
	movs	r0, #12
.LVL139:
	b	.L85
.LVL140:
.L111:
	.loc 1 2214 0
	movs	r0, #3
.LVL141:
	b	.L85
.LVL142:
.L115:
	.loc 1 2239 0
	movs	r0, #1
.LVL143:
	b	.L85
.L144:
	.align	2
.L143:
	.word	.LANCHOR0
	.word	1096897106
	.word	.LANCHOR1
	.cfi_endproc
.LFE28:
	.size	find_volume, .-find_volume
	.section	.text.clust2sect,"ax",%progbits
	.align	1
	.global	clust2sect
	.syntax unified
	.thumb
	.thumb_func
	.fpu softvfp
	.type	clust2sect, %function
clust2sect:
.LFB4:
	.loc 1 856 0
	.cfi_startproc
	@ args = 0, pretend = 0, frame = 0
	@ frame_needed = 0, uses_anonymous_args = 0
	@ link register save eliminated.
.LVL144:
	.loc 1 858 0
	ldr	r3, [r0, #20]
	.loc 1 857 0
	subs	r1, r1, #2
.LVL145:
	.loc 1 858 0
	subs	r3, r3, #2
	cmp	r1, r3
	.loc 1 859 0
	ittte	cc
	ldrbcc	r3, [r0, #2]	@ zero_extendqisi2
	ldrcc	r0, [r0, #40]
.LVL146:
	mlacc	r0, r1, r3, r0
	.loc 1 858 0
	movcs	r0, #0
	.loc 1 860 0
	bx	lr
	.cfi_endproc
.LFE4:
	.size	clust2sect, .-clust2sect
	.section	.text.get_fat,"ax",%progbits
	.align	1
	.global	get_fat
	.syntax unified
	.thumb
	.thumb_func
	.fpu softvfp
	.type	get_fat, %function
get_fat:
.LFB5:
	.loc 1 874 0
	.cfi_startproc
	@ args = 0, pretend = 0, frame = 0
	@ frame_needed = 0, uses_anonymous_args = 0
.LVL147:
	.loc 1 879 0
	cmp	r1, #1
	.loc 1 874 0
	push	{r3, r4, r5, r6, r7, lr}
	.cfi_def_cfa_offset 24
	.cfi_offset 3, -24
	.cfi_offset 4, -20
	.cfi_offset 5, -16
	.cfi_offset 6, -12
	.cfi_offset 7, -8
	.cfi_offset 14, -4
	.loc 1 874 0
	mov	r6, r0
	mov	r5, r1
	.loc 1 879 0
	bls	.L159
	.loc 1 879 0 is_stmt 0 discriminator 1
	ldr	r3, [r0, #20]
	cmp	r1, r3
	bcs	.L159
.LVL148:
.LBB22:
.LBB23:
	.loc 1 882 0 is_stmt 1
	ldrb	r3, [r0]	@ zero_extendqisi2
	cmp	r3, #2
	beq	.L150
	cmp	r3, #3
	beq	.L151
	cmp	r3, #1
	bne	.L159
.LVL149:
	.loc 1 884 0
	add	r7, r1, r1, lsr #1
.LVL150:
	.loc 1 885 0
	ldr	r1, [r0, #32]
.LVL151:
	add	r1, r1, r7, lsr #9
	bl	move_window
.LVL152:
	cbz	r0, .L153
.LVL153:
.L154:
	.loc 1 905 0
	mov	r0, #-1
	pop	{r3, r4, r5, r6, r7, pc}
.LVL154:
.L153:
	.loc 1 887 0
	ldr	r1, [r6, #32]
	.loc 1 886 0
	ubfx	r3, r7, #0, #9
	adds	r7, r7, #1
.LVL155:
	add	r3, r3, r6
	.loc 1 887 0
	add	r1, r1, r7, lsr #9
	mov	r0, r6
	.loc 1 886 0
	ldrb	r4, [r3, #48]	@ zero_extendqisi2
.LVL156:
	.loc 1 887 0
	bl	move_window
.LVL157:
	cmp	r0, #0
	bne	.L154
	.loc 1 888 0
	ubfx	r7, r7, #0, #9
.LVL158:
	add	r6, r6, r7
.LVL159:
	ldrb	r0, [r6, #48]	@ zero_extendqisi2
	.loc 1 889 0
	lsls	r3, r5, #31
	.loc 1 888 0
	orr	r0, r4, r0, lsl #8
.LVL160:
	.loc 1 889 0
	ite	mi
	lsrmi	r0, r0, #4
.LVL161:
	ubfxpl	r0, r0, #0, #12
	pop	{r3, r4, r5, r6, r7, pc}
.LVL162:
.L150:
	.loc 1 892 0
	ldr	r1, [r0, #32]
.LVL163:
	add	r1, r1, r5, lsr #8
	bl	move_window
.LVL164:
	cmp	r0, #0
	bne	.L154
	.loc 1 893 0
	lsls	r5, r5, #1
.LVL165:
	and	r5, r5, #510
.LVL166:
	.loc 1 894 0
	add	r5, r5, r6
.LVL167:
	ldrb	r3, [r5, #49]	@ zero_extendqisi2
	ldrb	r0, [r5, #48]	@ zero_extendqisi2
	orr	r0, r0, r3, lsl #8
	pop	{r3, r4, r5, r6, r7, pc}
.LVL168:
.L151:
	.loc 1 897 0
	ldr	r1, [r0, #32]
.LVL169:
	add	r1, r1, r5, lsr #7
	bl	move_window
.LVL170:
	cmp	r0, #0
	bne	.L154
	.loc 1 898 0
	lsls	r5, r5, #2
.LVL171:
	and	r5, r5, #508
	add	r3, r5, #48
	add	r3, r3, r6
.LVL172:
	.loc 1 899 0
	ldrb	r0, [r3, #2]	@ zero_extendqisi2
	ldrb	r2, [r3, #3]	@ zero_extendqisi2
	add	r5, r5, r6
	lsls	r0, r0, #16
	orr	r0, r0, r2, lsl #24
	ldrb	r2, [r5, #48]	@ zero_extendqisi2
	ldrb	r3, [r3, #1]	@ zero_extendqisi2
.LVL173:
	orrs	r0, r0, r2
	orr	r0, r0, r3, lsl #8
	bic	r0, r0, #-268435456
	pop	{r3, r4, r5, r6, r7, pc}
.LVL174:
.L159:
	.loc 1 902 0
	movs	r0, #1
.LVL175:
.LBE23:
.LBE22:
	.loc 1 906 0
	pop	{r3, r4, r5, r6, r7, pc}
	.cfi_endproc
.LFE5:
	.size	get_fat, .-get_fat
	.section	.text.dir_sdi,"ax",%progbits
	.align	1
	.syntax unified
	.thumb
	.thumb_func
	.fpu softvfp
	.type	dir_sdi, %function
dir_sdi:
.LFB9:
	.loc 1 1126 0
	.cfi_startproc
	@ args = 0, pretend = 0, frame = 0
	@ frame_needed = 0, uses_anonymous_args = 0
.LVL176:
	push	{r4, r5, r6, lr}
	.cfi_def_cfa_offset 16
	.cfi_offset 4, -16
	.cfi_offset 5, -12
	.cfi_offset 6, -8
	.cfi_offset 14, -4
	.loc 1 1126 0
	mov	r4, r0
	.loc 1 1132 0
	ldr	r2, [r0, #8]
.LVL177:
	.loc 1 1126 0
	mov	r5, r1
	.loc 1 1133 0
	cmp	r2, #1
	.loc 1 1131 0
	strh	r1, [r4, #6]	@ movhi
	.loc 1 1133 0
	bne	.L161
.LVL178:
.L163:
	.loc 1 1134 0
	movs	r0, #2
	pop	{r4, r5, r6, pc}
.LVL179:
.L161:
	.loc 1 1133 0 discriminator 1
	ldr	r3, [r0]
	ldr	r1, [r3, #20]
.LVL180:
	cmp	r2, r1
	bcs	.L163
	.loc 1 1135 0
	cbnz	r2, .L169
	.loc 1 1135 0 is_stmt 0 discriminator 1
	ldrb	r1, [r3]	@ zero_extendqisi2
	cmp	r1, #3
	bne	.L165
	.loc 1 1136 0 is_stmt 1
	ldr	r1, [r3, #36]
.LVL181:
	.loc 1 1138 0
	cbnz	r1, .L164
.LVL182:
.L165:
	.loc 1 1139 0
	ldrh	r1, [r3, #8]
	cmp	r5, r1
	bcs	.L163
	.loc 1 1141 0
	ldr	r0, [r3, #36]
.LVL183:
.L166:
	.loc 1 1154 0
	str	r2, [r4, #12]
	.loc 1 1155 0
	cmp	r0, #0
	beq	.L163
	.loc 1 1157 0
	ldr	r3, [r4]
	.loc 1 1156 0
	add	r0, r0, r5, lsr #4
.LVL184:
	.loc 1 1157 0
	adds	r3, r3, #48
	and	r5, r5, #15
.LVL185:
	add	r5, r3, r5, lsl #5
	.loc 1 1156 0
	str	r0, [r4, #16]
	.loc 1 1157 0
	str	r5, [r4, #20]
	.loc 1 1159 0
	movs	r0, #0
	pop	{r4, r5, r6, pc}
.LVL186:
.L169:
	mov	r1, r2
.LVL187:
.L164:
	.loc 1 1145 0
	mov	r2, r1
	.loc 1 1144 0
	ldrb	r6, [r3, #2]	@ zero_extendqisi2
	lsls	r6, r6, #4
.LVL188:
.L167:
	.loc 1 1145 0
	cmp	r5, r6
	.loc 1 1146 0
	mov	r1, r2
	ldr	r0, [r4]
	.loc 1 1145 0
	bcs	.L168
.LVL189:
	.loc 1 1152 0
	bl	clust2sect
.LVL190:
	b	.L166
.LVL191:
.L168:
	.loc 1 1146 0
	bl	get_fat
.LVL192:
	.loc 1 1147 0
	adds	r3, r0, #1
	.loc 1 1146 0
	mov	r2, r0
.LVL193:
	.loc 1 1147 0
	beq	.L170
	.loc 1 1148 0
	cmp	r0, #1
	bls	.L163
	.loc 1 1148 0 is_stmt 0 discriminator 1
	ldr	r3, [r4]
	ldr	r3, [r3, #20]
	cmp	r0, r3
	bcs	.L163
	.loc 1 1150 0 is_stmt 1
	subs	r5, r5, r6
.LVL194:
	b	.L167
.L170:
	.loc 1 1147 0
	movs	r0, #1
.LVL195:
	.loc 1 1160 0
	pop	{r4, r5, r6, pc}
	.cfi_endproc
.LFE9:
	.size	dir_sdi, .-dir_sdi
	.section	.text.put_fat,"ax",%progbits
	.align	1
	.global	put_fat
	.syntax unified
	.thumb
	.thumb_func
	.fpu softvfp
	.type	put_fat, %function
put_fat:
.LFB6:
	.loc 1 921 0
	.cfi_startproc
	@ args = 0, pretend = 0, frame = 0
	@ frame_needed = 0, uses_anonymous_args = 0
.LVL196:
	.loc 1 927 0
	cmp	r1, #1
	.loc 1 921 0
	push	{r3, r4, r5, r6, r7, lr}
	.cfi_def_cfa_offset 24
	.cfi_offset 3, -24
	.cfi_offset 4, -20
	.cfi_offset 5, -16
	.cfi_offset 6, -12
	.cfi_offset 7, -8
	.cfi_offset 14, -4
	.loc 1 921 0
	mov	r5, r0
	mov	r4, r1
	mov	r6, r2
	.loc 1 927 0
	bls	.L185
	.loc 1 927 0 is_stmt 0 discriminator 1
	ldr	r3, [r0, #20]
	cmp	r1, r3
	bcs	.L185
.LVL197:
.LBB26:
.LBB27:
	.loc 1 931 0 is_stmt 1
	ldrb	r3, [r0]	@ zero_extendqisi2
	cmp	r3, #2
	beq	.L177
	cmp	r3, #3
	beq	.L178
	cmp	r3, #1
	bne	.L187
.LVL198:
	.loc 1 933 0
	add	r7, r1, r1, lsr #1
.LVL199:
	.loc 1 934 0
	ldr	r1, [r0, #32]
.LVL200:
	add	r1, r1, r7, lsr #9
	bl	move_window
.LVL201:
	.loc 1 935 0
	cbnz	r0, .L176
	.loc 1 936 0
	ubfx	r3, r7, #0, #9
.LVL202:
	.loc 1 937 0
	ands	r4, r4, #1
.LVL203:
	add	r3, r3, r5
	itett	ne
	ldrbne	r2, [r3, #48]	@ zero_extendqisi2
	uxtbeq	r2, r6
	andne	r1, r2, #15
	lslne	r2, r6, #4
	itt	ne
	andne	r2, r2, #240
	orrne	r2, r2, r1
	strb	r2, [r3, #48]
	.loc 1 939 0
	movs	r3, #1
	.loc 1 940 0
	ldr	r1, [r5, #32]
	.loc 1 938 0
	adds	r7, r7, #1
.LVL204:
	.loc 1 939 0
	strb	r3, [r5, #4]
	.loc 1 940 0
	add	r1, r1, r7, lsr #9
	mov	r0, r5
.LVL205:
	bl	move_window
.LVL206:
	.loc 1 941 0
	cbnz	r0, .L176
	.loc 1 942 0
	ubfx	r7, r7, #0, #9
.LVL207:
	add	r7, r7, r5
	.loc 1 943 0
	cbz	r4, .L182
	ubfx	r2, r6, #4, #8
.LVL208:
.L183:
	strb	r2, [r7, #48]
.LVL209:
.L176:
	.loc 1 964 0
	movs	r3, #1
	strb	r3, [r5, #4]
.LVL210:
	pop	{r3, r4, r5, r6, r7, pc}
.LVL211:
.L182:
	.loc 1 943 0
	ldrb	r2, [r7, #48]	@ zero_extendqisi2
	ubfx	r6, r6, #8, #4
.LVL212:
	bic	r2, r2, #15
	orrs	r2, r2, r6
	b	.L183
.LVL213:
.L177:
	.loc 1 947 0
	ldr	r1, [r0, #32]
.LVL214:
	add	r1, r1, r4, lsr #8
	bl	move_window
.LVL215:
	.loc 1 948 0
	cmp	r0, #0
	bne	.L176
	.loc 1 949 0
	lsls	r4, r4, #1
.LVL216:
	and	r4, r4, #510
.LVL217:
	.loc 1 950 0
	add	r4, r4, r5
.LVL218:
	ubfx	r2, r6, #8, #8
	strb	r6, [r4, #48]
	strb	r2, [r4, #49]
	b	.L176
.LVL219:
.L178:
	.loc 1 954 0
	ldr	r1, [r0, #32]
.LVL220:
	add	r1, r1, r4, lsr #7
	bl	move_window
.LVL221:
	.loc 1 955 0
	cmp	r0, #0
	bne	.L176
	.loc 1 956 0
	lsls	r4, r4, #2
.LVL222:
	and	r4, r4, #508
	add	r1, r4, #48
	add	r1, r1, r5
.LVL223:
	.loc 1 957 0
	ldrb	r3, [r1, #3]	@ zero_extendqisi2
	add	r4, r4, r5
	lsls	r3, r3, #24
	and	r3, r3, #-268435456
	orr	r2, r3, r6
.LVL224:
	.loc 1 958 0
	ubfx	r3, r2, #8, #8
	strb	r2, [r4, #48]
	strb	r3, [r1, #1]
	lsrs	r3, r2, #16
	lsrs	r2, r2, #24
.LVL225:
	strb	r3, [r1, #2]
	strb	r2, [r1, #3]
.LVL226:
	b	.L176
.LVL227:
.L187:
	.loc 1 962 0
	movs	r0, #2
.LVL228:
	b	.L176
.LVL229:
.L185:
.LBE27:
.LBE26:
	.loc 1 928 0
	movs	r0, #2
.LVL230:
	.loc 1 968 0
	pop	{r3, r4, r5, r6, r7, pc}
	.cfi_endproc
.LFE6:
	.size	put_fat, .-put_fat
	.section	.text.create_chain,"ax",%progbits
	.align	1
	.syntax unified
	.thumb
	.thumb_func
	.fpu softvfp
	.type	create_chain, %function
create_chain:
.LFB8:
	.loc 1 1036 0
	.cfi_startproc
	@ args = 0, pretend = 0, frame = 0
	@ frame_needed = 0, uses_anonymous_args = 0
.LVL231:
	push	{r3, r4, r5, r6, r7, lr}
	.cfi_def_cfa_offset 24
	.cfi_offset 3, -24
	.cfi_offset 4, -20
	.cfi_offset 5, -16
	.cfi_offset 6, -12
	.cfi_offset 7, -8
	.cfi_offset 14, -4
	.loc 1 1036 0
	mov	r5, r0
	.loc 1 1041 0
	mov	r7, r1
	cbnz	r1, .L189
	.loc 1 1042 0
	ldr	r6, [r0, #12]
.LVL232:
	.loc 1 1043 0
	cbz	r6, .L203
	.loc 1 1043 0 is_stmt 0 discriminator 2
	ldr	r3, [r0, #20]
	cmp	r6, r3
	it	cs
	movcs	r6, #1
.LVL233:
.L190:
	.loc 1 1043 0
	mov	r4, r6
.LVL234:
.L198:
	.loc 1 1056 0 is_stmt 1
	ldr	r3, [r5, #20]
	.loc 1 1055 0
	adds	r4, r4, #1
.LVL235:
	.loc 1 1056 0
	cmp	r4, r3
	bcc	.L194
.LVL236:
	.loc 1 1058 0
	cmp	r6, #1
	bhi	.L204
.LVL237:
.L197:
	movs	r4, #0
	b	.L188
.LVL238:
.L189:
	.loc 1 1046 0
	bl	get_fat
.LVL239:
	.loc 1 1047 0
	cmp	r0, #1
	.loc 1 1046 0
	mov	r4, r0
.LVL240:
	.loc 1 1047 0
	bls	.L191
	.loc 1 1048 0
	adds	r0, r0, #1
.LVL241:
	bne	.L192
.LVL242:
.L196:
	.loc 1 1057 0
	mov	r4, #-1
.L188:
	.loc 1 1082 0
	mov	r0, r4
	pop	{r3, r4, r5, r6, r7, pc}
.LVL243:
.L192:
	.loc 1 1049 0
	ldr	r3, [r5, #20]
	cmp	r4, r3
	bcc	.L188
	mov	r6, r7
	b	.L190
.LVL244:
.L203:
	.loc 1 1043 0
	movs	r6, #1
.LVL245:
	b	.L190
.LVL246:
.L204:
	.loc 1 1057 0
	movs	r4, #2
.LVL247:
.L194:
	.loc 1 1060 0
	mov	r1, r4
	mov	r0, r5
	bl	get_fat
.LVL248:
	.loc 1 1061 0
	cbz	r0, .L195
	.loc 1 1062 0
	adds	r1, r0, #1
	beq	.L196
	.loc 1 1062 0 is_stmt 0 discriminator 1
	cmp	r0, #1
	beq	.L191
	.loc 1 1064 0 is_stmt 1
	cmp	r4, r6
	bne	.L198
	b	.L197
.L195:
	.loc 1 1067 0
	mvn	r2, #-268435456
	mov	r1, r4
	mov	r0, r5
.LVL249:
	bl	put_fat
.LVL250:
	.loc 1 1068 0
	cbnz	r0, .L199
	.loc 1 1068 0 is_stmt 0 discriminator 1
	cbnz	r7, .L200
.L202:
.LVL251:
	.loc 1 1073 0 is_stmt 1
	ldr	r3, [r5, #16]
	.loc 1 1072 0
	str	r4, [r5, #12]
	.loc 1 1073 0
	adds	r2, r3, #1
	beq	.L188
	.loc 1 1074 0
	subs	r3, r3, #1
	str	r3, [r5, #16]
	.loc 1 1075 0
	ldrb	r3, [r5, #5]	@ zero_extendqisi2
	orr	r3, r3, #1
	strb	r3, [r5, #5]
	b	.L188
.LVL252:
.L200:
	.loc 1 1069 0
	mov	r2, r4
	mov	r1, r7
	mov	r0, r5
.LVL253:
	bl	put_fat
.LVL254:
	.loc 1 1071 0
	cmp	r0, #0
	beq	.L202
.L199:
	.loc 1 1078 0
	cmp	r0, #1
	beq	.L196
.LVL255:
.L191:
	.loc 1 1078 0 is_stmt 0 discriminator 2
	movs	r4, #1
	b	.L188
	.cfi_endproc
.LFE8:
	.size	create_chain, .-create_chain
	.section	.text.dir_next,"ax",%progbits
	.align	1
	.syntax unified
	.thumb
	.thumb_func
	.fpu softvfp
	.type	dir_next, %function
dir_next:
.LFB10:
	.loc 1 1174 0 is_stmt 1
	.cfi_startproc
	@ args = 0, pretend = 0, frame = 0
	@ frame_needed = 0, uses_anonymous_args = 0
.LVL256:
	push	{r3, r4, r5, r6, r7, r8, r9, lr}
	.cfi_def_cfa_offset 32
	.cfi_offset 3, -32
	.cfi_offset 4, -28
	.cfi_offset 5, -24
	.cfi_offset 6, -20
	.cfi_offset 7, -16
	.cfi_offset 8, -12
	.cfi_offset 9, -8
	.cfi_offset 14, -4
	.loc 1 1179 0
	ldrh	r6, [r0, #6]
	.loc 1 1174 0
	mov	r4, r0
	.loc 1 1179 0
	adds	r6, r6, #1
.LVL257:
	.loc 1 1180 0
	uxth	r3, r6
	.loc 1 1174 0
	mov	r9, r1
	.loc 1 1180 0
	cbnz	r3, .L218
.LVL258:
.L220:
	.loc 1 1181 0
	movs	r0, #4
	pop	{r3, r4, r5, r6, r7, r8, r9, pc}
.LVL259:
.L218:
	.loc 1 1180 0 discriminator 1
	ldr	r3, [r0, #16]
	cmp	r3, #0
	beq	.L220
	.loc 1 1183 0
	ands	r8, r6, #15
	bne	.L222
	.loc 1 1186 0
	ldr	r1, [r0, #12]
.LVL260:
	.loc 1 1184 0
	adds	r3, r3, #1
	str	r3, [r0, #16]
	ldr	r0, [r0]
.LVL261:
	.loc 1 1186 0
	cbnz	r1, .L223
	.loc 1 1187 0
	ldrh	r3, [r0, #8]
	cmp	r6, r3
	bcs	.L220
.LVL262:
.L222:
	.loc 1 1225 0
	ldr	r3, [r4]
	.loc 1 1224 0
	strh	r6, [r4, #6]	@ movhi
	.loc 1 1225 0
	adds	r3, r3, #48
	add	r3, r3, r8, lsl #5
	str	r3, [r4, #20]
	.loc 1 1227 0
	movs	r0, #0
	pop	{r3, r4, r5, r6, r7, r8, r9, pc}
.LVL263:
.L223:
	.loc 1 1191 0
	ldrb	r7, [r0, #2]	@ zero_extendqisi2
	subs	r7, r7, #1
	ands	r7, r7, r6, lsr #4
	bne	.L222
	.loc 1 1192 0
	bl	get_fat
.LVL264:
	.loc 1 1193 0
	cmp	r0, #1
	.loc 1 1192 0
	mov	r5, r0
.LVL265:
	.loc 1 1193 0
	bhi	.L225
.L228:
	movs	r0, #2
.LVL266:
	pop	{r3, r4, r5, r6, r7, r8, r9, pc}
.LVL267:
.L225:
	.loc 1 1194 0
	adds	r2, r0, #1
	bne	.L226
.LVL268:
.L229:
	movs	r0, #1
	pop	{r3, r4, r5, r6, r7, r8, r9, pc}
.LVL269:
.L226:
	.loc 1 1195 0
	ldr	r0, [r4]
.LVL270:
	ldr	r3, [r0, #20]
	cmp	r5, r3
	bcc	.L227
.LBB31:
	.loc 1 1198 0
	cmp	r9, #0
	beq	.L220
	.loc 1 1199 0
	ldr	r1, [r4, #12]
	bl	create_chain
.LVL271:
	.loc 1 1200 0
	mov	r5, r0
	cmp	r0, #0
	beq	.L232
	.loc 1 1201 0
	cmp	r0, #1
	beq	.L228
	.loc 1 1202 0
	adds	r3, r0, #1
	beq	.L229
	.loc 1 1204 0
	ldr	r0, [r4]
.LVL272:
	bl	sync_window
.LVL273:
	mov	r1, r0
	cmp	r0, #0
	bne	.L229
	.loc 1 1205 0
	ldr	r0, [r4]
	mov	r2, #512
	adds	r0, r0, #48
	bl	memset
.LVL274:
	.loc 1 1206 0
	ldr	r2, [r4]
	mov	r1, r5
	mov	r0, r2
	bl	clust2sect
.LVL275:
	.loc 1 1208 0
	mov	r9, #1
.LVL276:
	.loc 1 1206 0
	str	r0, [r2, #44]
.LVL277:
.L230:
	.loc 1 1207 0 discriminator 1
	ldr	r0, [r4]
	ldrb	r3, [r0, #2]	@ zero_extendqisi2
	cmp	r7, r3
	bcc	.L231
	.loc 1 1212 0
	ldr	r3, [r0, #44]
	subs	r7, r3, r7
.LVL278:
	str	r7, [r0, #44]
.L227:
.LBE31:
	.loc 1 1218 0
	str	r5, [r4, #12]
	.loc 1 1219 0
	mov	r1, r5
	ldr	r0, [r4]
	bl	clust2sect
.LVL279:
	str	r0, [r4, #16]
	b	.L222
.LVL280:
.L231:
.LBB34:
	.loc 1 1208 0
	strb	r9, [r0, #4]
.LVL281:
.LBB32:
.LBB33:
	bl	sync_window.part.1
.LVL282:
.LBE33:
.LBE32:
	.loc 1 1209 0
	cmp	r0, #0
	bne	.L229
	.loc 1 1210 0 discriminator 2
	ldr	r2, [r4]
	.loc 1 1207 0 discriminator 2
	adds	r7, r7, #1
.LVL283:
	.loc 1 1210 0 discriminator 2
	ldr	r3, [r2, #44]
	adds	r3, r3, #1
	str	r3, [r2, #44]
	b	.L230
.LVL284:
.L232:
	.loc 1 1200 0
	movs	r0, #7
.LVL285:
.LBE34:
	.loc 1 1228 0
	pop	{r3, r4, r5, r6, r7, r8, r9, pc}
	.cfi_endproc
.LFE10:
	.size	dir_next, .-dir_next
	.section	.text.dir_find.part.6,"ax",%progbits
	.align	1
	.syntax unified
	.thumb
	.thumb_func
	.fpu softvfp
	.type	dir_find.part.6, %function
dir_find.part.6:
.LFB54:
	.loc 1 1495 0
	.cfi_startproc
	@ args = 0, pretend = 0, frame = 8
	@ frame_needed = 0, uses_anonymous_args = 0
.LVL286:
	push	{r0, r1, r2, r4, r5, r6, r7, r8, r9, r10, fp, lr}
	.cfi_def_cfa_offset 48
	.cfi_offset 4, -36
	.cfi_offset 5, -32
	.cfi_offset 6, -28
	.cfi_offset 7, -24
	.cfi_offset 8, -20
	.cfi_offset 9, -16
	.cfi_offset 10, -12
	.cfi_offset 11, -8
	.cfi_offset 14, -4
	.loc 1 1509 0
	mov	r9, #255
	movw	r8, #65535
	.loc 1 1495 0
	mov	r5, r0
	.loc 1 1509 0
	mov	r4, r9
	strh	r8, [r0, #32]	@ movhi
.LVL287:
.L260:
	.loc 1 1512 0
	ldr	r1, [r5, #16]
	ldr	r0, [r5]
	bl	move_window
.LVL288:
	.loc 1 1513 0
	mov	r7, r0
	cmp	r0, #0
	bne	.L268
	.loc 1 1514 0
	ldr	r6, [r5, #20]
.LVL289:
	.loc 1 1515 0
	ldrb	r3, [r6]	@ zero_extendqisi2
.LVL290:
	.loc 1 1516 0
	cmp	r3, #0
	beq	.L261
.LVL291:
	.loc 1 1519 0
	cmp	r3, #229
	beq	.L259
	.loc 1 1518 0
	ldrb	r1, [r6, #11]	@ zero_extendqisi2
	.loc 1 1519 0
	lsls	r0, r1, #28
.LVL292:
	.loc 1 1518 0
	and	r2, r1, #63
	.loc 1 1519 0
	bpl	.L248
	cmp	r2, #15
	beq	.L249
.LVL293:
.L259:
	.loc 1 1535 0
	strh	r8, [r5, #32]	@ movhi
	b	.L267
.LVL294:
.L248:
	.loc 1 1522 0
	cmp	r2, #15
	bne	.L251
.L249:
	.loc 1 1523 0
	ldr	fp, [r5, #28]
	cmp	fp, #0
	beq	.L250
	.loc 1 1524 0
	lsls	r1, r3, #25
	bpl	.L252
	.loc 1 1526 0
	and	r4, r3, #191
.LVL295:
	.loc 1 1527 0
	ldrh	r3, [r5, #6]
.LVL296:
	.loc 1 1525 0
	ldrb	r9, [r6, #13]	@ zero_extendqisi2
.LVL297:
	.loc 1 1527 0
	strh	r3, [r5, #32]	@ movhi
.LVL298:
.L253:
	.loc 1 1530 0
	ldrb	r3, [r6, #13]	@ zero_extendqisi2
	cmp	r3, r9
	bne	.L267
.LVL299:
.LBB37:
.LBB38:
	.loc 1 1323 0
	ldrb	r7, [r6]	@ zero_extendqisi2
	.loc 1 1324 0
	movs	r0, #1
	.loc 1 1323 0
	bic	r7, r7, #64
	subs	r3, r7, #1
	movs	r7, #13
	.loc 1 1324 0
	mov	r10, #0
	.loc 1 1323 0
	muls	r7, r3, r7
.LVL300:
.L256:
	.loc 1 1326 0
	ldr	r3, .L290
	ldrb	r1, [r10, r3]	@ zero_extendqisi2
	adds	r2, r6, r1
	ldrb	ip, [r2, #1]	@ zero_extendqisi2
	ldrb	r2, [r6, r1]	@ zero_extendqisi2
	orr	r2, r2, ip, lsl #8
.LVL301:
	.loc 1 1327 0
	cbz	r0, .L254
	.loc 1 1328 0
	mov	r0, r2
.LVL302:
	bl	ff_wtoupper
.LVL303:
	.loc 1 1329 0
	cmp	r7, #254
	.loc 1 1328 0
	str	r0, [sp, #4]
.LVL304:
	.loc 1 1329 0
	bhi	.L267
	adds	r2, r7, #1
	ldrh	r0, [fp, r7, lsl #1]
	str	r2, [sp]
.LVL305:
	bl	ff_wtoupper
.LVL306:
	ldr	r1, [sp, #4]
	cmp	r1, r0
	bne	.L267
	ldr	r2, [sp]
	mov	r7, r2
.LVL307:
.L255:
	.loc 1 1334 0
	add	r10, r10, #1
.LVL308:
	cmp	r10, #13
	bne	.L256
	.loc 1 1336 0
	ldrb	r3, [r6]	@ zero_extendqisi2
	lsls	r2, r3, #25
	bpl	.L257
	cbz	r0, .L257
	ldrh	r3, [fp, r7, lsl #1]
	cbnz	r3, .L267
.L257:
.LVL309:
.LBE38:
.LBE37:
	.loc 1 1530 0
	subs	r4, r4, #1
.LVL310:
	uxtb	r4, r4
	b	.L250
.LVL311:
.L252:
	cmp	r3, r4
	beq	.L253
.LVL312:
.L267:
	movs	r4, #255
.L250:
.LVL313:
	.loc 1 1542 0
	movs	r1, #0
	mov	r0, r5
	bl	dir_next
.LVL314:
	.loc 1 1543 0
	mov	r7, r0
	cmp	r0, #0
	beq	.L260
	b	.L268
.LVL315:
.L254:
.LBB40:
.LBB39:
	.loc 1 1332 0
	cmp	r2, r8
	beq	.L255
	b	.L267
.LVL316:
.L251:
.LBE39:
.LBE40:
	.loc 1 1533 0
	cbnz	r4, .L258
	mov	r0, r6
	bl	sum_sfn
.LVL317:
	cmp	r0, r9
	beq	.L268
.L258:
	.loc 1 1534 0
	ldr	r1, [r5, #24]
	ldrb	r3, [r1, #11]	@ zero_extendqisi2
	lsls	r3, r3, #31
	bmi	.L259
	movs	r2, #11
	mov	r0, r6
	bl	memcmp
.LVL318:
	cmp	r0, #0
	bne	.L259
.LVL319:
.L268:
	.loc 1 1546 0
	mov	r0, r7
	add	sp, sp, #12
	.cfi_remember_state
	.cfi_def_cfa_offset 36
	@ sp needed
	pop	{r4, r5, r6, r7, r8, r9, r10, fp, pc}
.LVL320:
.L261:
	.cfi_restore_state
	.loc 1 1516 0
	movs	r7, #4
	b	.L268
.L291:
	.align	2
.L290:
	.word	.LANCHOR2
	.cfi_endproc
.LFE54:
	.size	dir_find.part.6, .-dir_find.part.6
	.section	.text.follow_path,"ax",%progbits
	.align	1
	.syntax unified
	.thumb
	.thumb_func
	.fpu softvfp
	.type	follow_path, %function
follow_path:
.LFB25:
	.loc 1 2026 0
	.cfi_startproc
	@ args = 0, pretend = 0, frame = 8
	@ frame_needed = 0, uses_anonymous_args = 0
.LVL321:
	push	{r0, r1, r2, r4, r5, r6, r7, r8, r9, r10, fp, lr}
	.cfi_def_cfa_offset 48
	.cfi_offset 4, -36
	.cfi_offset 5, -32
	.cfi_offset 6, -28
	.cfi_offset 7, -24
	.cfi_offset 8, -20
	.cfi_offset 9, -16
	.cfi_offset 10, -12
	.cfi_offset 11, -8
	.cfi_offset 14, -4
	.loc 1 2038 0
	ldrb	r3, [r1]	@ zero_extendqisi2
	.loc 1 2026 0
	mov	r7, r0
	.loc 1 2038 0
	cmp	r3, #47
	.loc 1 2026 0
	mov	r8, r1
	.loc 1 2038 0
	beq	.L293
	.loc 1 2038 0 is_stmt 0 discriminator 1
	cmp	r3, #92
	bne	.L294
.L293:
	.loc 1 2039 0 is_stmt 1
	add	r8, r8, #1
.LVL322:
.L294:
	.loc 1 2040 0
	movs	r4, #0
	str	r4, [r7, #8]
	.loc 1 2043 0
	ldrb	r3, [r8]	@ zero_extendqisi2
	cmp	r3, #31
	bhi	.L298
	.loc 1 2044 0
	mov	r1, r4
	mov	r0, r7
.LVL323:
	bl	dir_sdi
.LVL324:
	.loc 1 2045 0
	str	r4, [r7, #20]
.LVL325:
.L348:
	.loc 1 2075 0
	add	sp, sp, #12
	.cfi_remember_state
	.cfi_def_cfa_offset 36
	@ sp needed
	pop	{r4, r5, r6, r7, r8, r9, r10, fp, pc}
.LVL326:
.L302:
	.cfi_restore_state
.LBB49:
.LBB50:
	.loc 1 1845 0
	strh	r0, [r5, #2]!	@ movhi
	mov	r6, r8
	b	.L304
.LVL327:
.L300:
	.loc 1 1848 0
	cmp	r0, #32
	.loc 1 1847 0
	add	r8, r8, r4
.LVL328:
	.loc 1 1848 0
	ite	cc
	movcc	r4, #4
.LVL329:
	movcs	r4, #0
.LVL330:
	add	r2, fp, r6, lsl #1
.LVL331:
.L306:
	.loc 1 1859 0
	cmp	r6, #0
	beq	.L301
	.loc 1 1860 0
	ldrh	r1, [r2, #-2]!
.LVL332:
	.loc 1 1861 0
	cmp	r1, #32
	beq	.L307
	cmp	r1, #46
	bne	.L308
.L307:
	.loc 1 1862 0
	subs	r6, r6, #1
.LVL333:
	b	.L306
.LVL334:
.L310:
	.loc 1 1870 0
	adds	r1, r1, #1
.LVL335:
.L340:
	ldrh	r0, [fp, r1, lsl #1]
	cmp	r0, #32
	beq	.L310
	cmp	r0, #46
	beq	.L310
	.loc 1 1871 0
	cbz	r1, .L312
	orr	r4, r4, #3
.LVL336:
.L312:
	.loc 1 1872 0
	ldrh	r0, [r2, #-2]!
	cmp	r0, #46
	beq	.L315
.LVL337:
	subs	r6, r6, #1
.LVL338:
	bne	.L312
.L315:
	.loc 1 1920 0
	mov	r10, #0
	mov	r9, #8
	mov	r5, r10
.LVL339:
.L313:
	.loc 1 1876 0
	ldrh	r0, [fp, r1, lsl #1]
	adds	r2, r1, #1
.LVL340:
	.loc 1 1877 0
	cmp	r0, #0
	beq	.L316
	.loc 1 1878 0
	cmp	r0, #32
	beq	.L317
	cmp	r0, #46
	bne	.L318
	cmp	r2, r6
	beq	.L319
.L317:
	.loc 1 1879 0
	orr	r4, r4, #3
.LVL341:
.L320:
	.loc 1 1920 0
	mov	r1, r2
	b	.L313
.LVL342:
.L318:
	.loc 1 1882 0
	cmp	r10, r9
	bcs	.L321
	cmp	r2, r6
	bne	.L403
.L322:
	.loc 1 1883 0
	cmp	r9, #11
	bne	.L325
	b	.L341
.L324:
	.loc 1 1886 0
	cmp	r2, r6
	beq	.L325
	orr	r4, r4, #3
.LVL343:
	.loc 1 1887 0
	bhi	.L316
.L325:
.LVL344:
	.loc 1 1889 0
	lsls	r5, r5, #2
.LVL345:
	uxtb	r5, r5
.LVL346:
	mov	r2, r6
	.loc 1 1888 0
	mov	r9, #11
	mov	r10, #8
	b	.L320
.LVL347:
.L403:
	.loc 1 1892 0
	cmp	r0, #127
	bls	.L326
	.loc 1 1894 0
	movs	r1, #0
	str	r2, [sp, #4]
	bl	ff_convert
.LVL348:
	.loc 1 1895 0
	ldr	r2, [sp, #4]
	cbz	r0, .L327
	ldr	r3, .L405
	add	r0, r0, r3
.LVL349:
	ldrb	r0, [r0, #-128]	@ zero_extendqisi2
.LVL350:
.L327:
	uxth	r0, r0
.LVL351:
	.loc 1 1899 0
	orr	r4, r4, #2
.LVL352:
	.loc 1 1908 0
	cbz	r0, .L328
.LVL353:
.L326:
	ldr	r3, .L405+4
.LVL354:
.L330:
.LBB51:
.LBB52:
	.loc 1 605 0
	ldrb	r1, [r3, #1]!	@ zero_extendqisi2
.LVL355:
	cmp	r1, #0
	beq	.L329
	cmp	r1, r0
	bne	.L330
.LVL356:
.L328:
.LBE52:
.LBE51:
	.loc 1 1909 0
	movs	r0, #95
	orr	r4, r4, #3
.LVL357:
.L331:
	.loc 1 1920 0
	ldr	r1, [r7, #24]
	strb	r0, [r1, r10]
	add	r10, r10, #1
.LVL358:
	b	.L320
.L342:
	.loc 1 1912 0
	orr	r5, r5, #2
.LVL359:
	b	.L331
.LVL360:
.L339:
.LBE50:
.LBE49:
	.loc 1 2065 0
	lsls	r2, r3, #29
	bmi	.L348
	.loc 1 2066 0
	ldr	r1, [r7, #20]
.LVL361:
	.loc 1 2067 0
	ldrb	r3, [r1, #11]	@ zero_extendqisi2
.LVL362:
	lsls	r3, r3, #27
	bpl	.L347
	.loc 1 2070 0
	ldr	r3, [r7]
	ldrb	r0, [r3]	@ zero_extendqisi2
	bl	ld_clust.isra.0
.LVL363:
	str	r0, [r7, #8]
.LVL364:
.L298:
.LBB59:
.LBB55:
	.loc 1 1822 0
	ldrb	r3, [r8]	@ zero_extendqisi2
	mov	r4, r8
.LVL365:
	cmp	r3, #47
	add	r8, r8, #1
	beq	.L298
	cmp	r3, #92
	beq	.L298
	.loc 1 1824 0
	movs	r6, #0
	.loc 1 1823 0
	ldr	fp, [r7, #28]
.LVL366:
	add	r9, r4, #-1
	sub	r5, fp, #2
.LVL367:
.L304:
	.loc 1 1826 0
	ldrb	r0, [r9, #1]!	@ zero_extendqisi2
	add	r8, r6, #1
.LVL368:
	.loc 1 1827 0
	cmp	r0, #31
	bls	.L300
	cmp	r0, #47
	beq	.L300
	cmp	r0, #92
	beq	.L300
	.loc 1 1828 0
	cmp	r8, #256
	beq	.L301
	.loc 1 1840 0
	movs	r1, #1
	bl	ff_convert
.LVL369:
	.loc 1 1841 0
	cbz	r0, .L301
	.loc 1 1843 0
	cmp	r0, #127
	bhi	.L302
	ldr	r1, .L405+8
.L303:
.LVL370:
.LBB53:
.LBB54:
	.loc 1 605 0
	ldrb	r2, [r1, #1]!	@ zero_extendqisi2
.LVL371:
	cmp	r2, #0
	beq	.L302
	cmp	r2, r0
	bne	.L303
.LVL372:
.L301:
.LBE54:
.LBE53:
.LBE55:
.LBE59:
	.loc 1 2060 0
	movs	r0, #6
	b	.L348
.LVL373:
.L347:
	movs	r0, #5
.LVL374:
	.loc 1 2074 0
	b	.L348
.LVL375:
.L308:
.LBB60:
.LBB56:
	.loc 1 1869 0
	mov	r5, #538976288
	.loc 1 1866 0
	movs	r1, #0
.LVL376:
	.loc 1 1869 0
	ldr	r0, [r7, #24]
	.loc 1 1866 0
	strh	r1, [fp, r6, lsl #1]	@ movhi
.LVL377:
	add	r2, fp, r6, lsl #1
	.loc 1 1869 0
	str	r5, [r0, #4]	@ unaligned
	str	r5, [r0]	@ unaligned
	str	r5, [r0, #7]	@ unaligned
.LVL378:
	b	.L340
.LVL379:
.L319:
	.loc 1 1882 0
	cmp	r10, r9
	bcc	.L322
.L321:
	.loc 1 1883 0
	cmp	r9, #11
	bne	.L324
.L341:
	.loc 1 1884 0
	mov	r9, #11
.LVL380:
	orr	r4, r4, #3
.LVL381:
.L316:
	.loc 1 1923 0
	ldr	r3, [r7, #24]
	ldrb	r2, [r3]	@ zero_extendqisi2
.LVL382:
	cmp	r2, #229
	itt	eq
	moveq	r2, #5
	strbeq	r2, [r3]
	.loc 1 1925 0
	cmp	r9, #8
	itt	eq
	lsleq	r5, r5, #2
.LVL383:
	uxtbeq	r5, r5
.LVL384:
	and	r3, r5, #12
	.loc 1 1926 0
	cmp	r3, #12
	beq	.L334
	and	r2, r5, #3
	cmp	r2, #3
	bne	.L335
.L334:
	.loc 1 1927 0
	orr	r4, r4, #2
.LVL385:
.L335:
	.loc 1 1928 0
	lsls	r1, r4, #30
.LVL386:
	bmi	.L336
	.loc 1 1929 0
	and	r5, r5, #3
.LVL387:
	cmp	r5, #1
	it	eq
	orreq	r4, r4, #16
.LVL388:
	.loc 1 1930 0
	cmp	r3, #4
	it	eq
	orreq	r4, r4, #8
.LVL389:
.L336:
	.loc 1 1933 0
	ldr	r3, [r7, #24]
.LBE56:
.LBE60:
.LBB61:
.LBB62:
	.loc 1 1505 0
	movs	r1, #0
.LBE62:
.LBE61:
.LBB64:
.LBB57:
	.loc 1 1933 0
	strb	r4, [r3, #11]
.LVL390:
.LBE57:
.LBE64:
.LBB65:
.LBB63:
	.loc 1 1505 0
	mov	r0, r7
	bl	dir_sdi
.LVL391:
	.loc 1 1506 0
	cbnz	r0, .L338
	mov	r0, r7
.LVL392:
	bl	dir_find.part.6
.LVL393:
.L338:
.LBE63:
.LBE65:
	.loc 1 2052 0
	ldr	r3, [r7, #24]
	ldrb	r3, [r3, #11]	@ zero_extendqisi2
.LVL394:
	.loc 1 2053 0
	cmp	r0, #0
	beq	.L339
	.loc 1 2054 0
	cmp	r0, #4
	bne	.L348
	.loc 1 2060 0
	tst	r3, #4
	it	eq
	moveq	r0, #5
	b	.L348
.LVL395:
.L329:
.LBB66:
.LBB58:
	.loc 1 1911 0
	sub	r1, r0, #65
	cmp	r1, #25
	bls	.L342
	.loc 1 1914 0
	sub	r1, r0, #97
	cmp	r1, #25
	.loc 1 1915 0
	ittt	ls
	subls	r0, r0, #32
.LVL396:
	orrls	r5, r5, #1
.LVL397:
	uxthls	r0, r0
.LVL398:
	b	.L331
.L406:
	.align	2
.L405:
	.word	.LANCHOR3
	.word	.LC1-1
	.word	.LC0-1
.LBE58:
.LBE66:
	.cfi_endproc
.LFE25:
	.size	follow_path, .-follow_path
	.section	.text.dir_register,"ax",%progbits
	.align	1
	.syntax unified
	.thumb
	.thumb_func
	.fpu softvfp
	.type	dir_register, %function
dir_register:
.LFB21:
	.loc 1 1618 0
	.cfi_startproc
	@ args = 0, pretend = 0, frame = 24
	@ frame_needed = 0, uses_anonymous_args = 0
.LVL399:
	push	{r4, r5, r6, r7, r8, r9, r10, lr}
	.cfi_def_cfa_offset 32
	.cfi_offset 4, -32
	.cfi_offset 5, -28
	.cfi_offset 6, -24
	.cfi_offset 7, -20
	.cfi_offset 8, -16
	.cfi_offset 9, -12
	.cfi_offset 10, -8
	.cfi_offset 14, -4
	.loc 1 1626 0
	ldr	r6, [r0, #24]
.LVL400:
	.loc 1 1618 0
	sub	sp, sp, #24
	.cfi_def_cfa_offset 56
	.loc 1 1618 0
	mov	r4, r0
	.loc 1 1626 0
	ldr	r9, [r0, #28]
.LVL401:
	.loc 1 1627 0
	ldr	r1, [r6, #4]	@ unaligned
	ldr	r0, [r6]	@ unaligned
.LVL402:
	add	r3, sp, #12
	stmia	r3!, {r0, r1}
	ldr	r0, [r6, #8]	@ unaligned
	.loc 1 1632 0
	lsr	r10, r0, #24
	tst	r10, #1
	.loc 1 1627 0
	str	r0, [r3]
	.loc 1 1632 0
	beq	.L408
	.loc 1 1633 0
	movs	r3, #0
	.loc 1 1634 0
	movs	r7, #1
.LBB76:
.LBB77:
.LBB78:
	.loc 1 1438 0
	ldr	r8, .L471
.LBE78:
.LBE77:
.LBE76:
	.loc 1 1633 0
	strb	r3, [r6, #11]
	str	r3, [r4, #28]
.LVL403:
.L423:
.LBB83:
.LBB81:
	.loc 1 1427 0
	add	r3, sp, #12
.LVL404:
	ldmia	r3!, {r0, r1}
.LVL405:
	ldrh	r2, [r3]	@ unaligned
	ldrb	r3, [r3, #2]	@ zero_extendqisi2
.LVL406:
	.loc 1 1429 0
	cmp	r7, #5
	.loc 1 1427 0
	str	r0, [r6]	@ unaligned
	str	r1, [r6, #4]	@ unaligned
	strh	r2, [r6, #8]	@ unaligned
	strb	r3, [r6, #10]
	.loc 1 1429 0
	bhi	.L409
	mov	r3, r7
.L410:
.LBB79:
	.loc 1 1433 0
	movs	r2, #7
.LVL407:
.L416:
.LBE79:
	.loc 1 1447 0
	and	r0, r3, #15
	add	r1, r0, #48
.LVL408:
	.loc 1 1448 0
	cmp	r1, #57
	it	hi
	addhi	r1, r0, #55
.LVL409:
	.loc 1 1449 0
	subs	r2, r2, #1
.LVL410:
	add	r0, sp, #4
	add	r0, r0, r2
	.loc 1 1451 0
	lsrs	r3, r3, #4
.LVL411:
	.loc 1 1449 0
	strb	r1, [r0, #1]
	.loc 1 1451 0
	bne	.L416
	.loc 1 1452 0
	movs	r0, #126
	add	r1, sp, #24
.LVL412:
	add	r1, r1, r2
	strb	r0, [r1, #-20]
.LVL413:
.L417:
	.loc 1 1455 0
	cmp	r2, r3
	beq	.L443
	ldrb	r1, [r6, r3]	@ zero_extendqisi2
	cmp	r1, #32
	bne	.L419
.LVL414:
.L418:
	add	r3, r3, r6
.LVL415:
.L421:
	.loc 1 1462 0
	cmp	r2, #7
	iteee	hi
	movhi	r1, #32
	addls	r1, sp, #24
	addls	r1, r1, r2
	ldrbls	r1, [r1, #-20]	@ zero_extendqisi2
	it	ls
	addls	r2, r2, #1
.LVL416:
	strb	r1, [r3], #1
	.loc 1 1463 0
	subs	r1, r3, r6
	cmp	r1, #7
	bls	.L421
.LVL417:
.LBE81:
.LBE83:
.LBB84:
.LBB85:
	.loc 1 1505 0
	movs	r1, #0
	mov	r0, r4
	bl	dir_sdi
.LVL418:
	.loc 1 1506 0
	mov	r5, r0
	cbnz	r0, .L422
	mov	r0, r4
.LVL419:
	bl	dir_find.part.6
.LVL420:
.LBE85:
.LBE84:
	.loc 1 1637 0
	mov	r5, r0
	cbnz	r0, .L422
	.loc 1 1634 0 discriminator 2
	adds	r7, r7, #1
.LVL421:
	cmp	r7, #100
	bne	.L423
.LVL422:
.L442:
	.loc 1 1639 0
	movs	r5, #7
.LVL423:
.L448:
	.loc 1 1682 0
	mov	r0, r5
	add	sp, sp, #24
	.cfi_remember_state
	.cfi_def_cfa_offset 32
	@ sp needed
	pop	{r4, r5, r6, r7, r8, r9, r10, pc}
.LVL424:
.L414:
	.cfi_restore_state
.LBB86:
.LBB82:
.LBB80:
	.loc 1 1433 0
	movs	r1, #16
.L412:
.LVL425:
	.loc 1 1436 0
	and	r5, r2, #1
	add	r3, r5, r3, lsl #1
.LVL426:
	.loc 1 1438 0
	lsls	r5, r3, #15
	it	mi
	eormi	r3, r3, r8
.LVL427:
	.loc 1 1435 0
	subs	r1, r1, #1
.LVL428:
	.loc 1 1437 0
	lsr	r2, r2, #1
.LVL429:
	.loc 1 1435 0
	bne	.L412
.LVL430:
.L413:
	.loc 1 1433 0
	ldrh	r2, [r0, #2]!
.LVL431:
	cmp	r2, #0
	bne	.L414
	b	.L410
.LVL432:
.L409:
	sub	r0, r9, #2
.LBE80:
	.loc 1 1429 0
	mov	r3, r7
	b	.L413
.LVL433:
.L419:
	.loc 1 1455 0
	adds	r3, r3, #1
.LVL434:
	b	.L417
.L443:
	mov	r3, r2
.LVL435:
	b	.L418
.LVL436:
.L427:
.LBE82:
.LBE86:
	.loc 1 1645 0 discriminator 3
	adds	r6, r6, #1
.LVL437:
	b	.L426
.LVL438:
.L445:
	.loc 1 1648 0
	movs	r6, #1
.LVL439:
	b	.L425
.LVL440:
.L446:
.LBB87:
.LBB88:
	.loc 1 1257 0
	mov	r7, r0
.LVL441:
.L430:
	.loc 1 1259 0
	movs	r1, #1
	mov	r0, r4
.LVL442:
	bl	dir_next
.LVL443:
	.loc 1 1260 0
	mov	r5, r0
	cbz	r0, .L433
.LVL444:
.L428:
	.loc 1 1262 0
	cmp	r5, #4
	beq	.L442
	b	.L448
.LVL445:
.L422:
.LBE88:
.LBE87:
	.loc 1 1640 0
	cmp	r5, #4
	bne	.L448
	.loc 1 1641 0
	strb	r10, [r6, #11]
	str	r9, [r4, #28]
.LVL446:
.L408:
	.loc 1 1644 0
	tst	r10, #2
	beq	.L445
	movs	r6, #0
.LVL447:
.L426:
	.loc 1 1645 0 discriminator 1
	ldrh	r3, [r9, r6, lsl #1]
	cmp	r3, #0
	bne	.L427
	.loc 1 1646 0
	movs	r3, #13
	adds	r6, r6, #25
.LVL448:
	udiv	r6, r6, r3
.LVL449:
.L425:
.LBB90:
.LBB89:
	.loc 1 1248 0
	movs	r1, #0
	mov	r0, r4
	bl	dir_sdi
.LVL450:
	.loc 1 1249 0
	mov	r5, r0
	cmp	r0, #0
	bne	.L428
	mov	r7, r0
.L433:
.LVL451:
	.loc 1 1252 0
	ldr	r1, [r4, #16]
	ldr	r0, [r4]
.LVL452:
	bl	move_window
.LVL453:
	.loc 1 1253 0
	mov	r5, r0
	cmp	r0, #0
	bne	.L428
	.loc 1 1254 0
	ldr	r3, [r4, #20]
	ldrb	r3, [r3]	@ zero_extendqisi2
	cmp	r3, #229
	beq	.L429
	cmp	r3, #0
	bne	.L446
.L429:
	.loc 1 1255 0
	adds	r7, r7, #1
.LVL454:
	cmp	r6, r7
	bne	.L430
.LVL455:
.LBE89:
.LBE90:
	.loc 1 1652 0
	subs	r6, r6, #1
.LVL456:
	beq	.L432
	.loc 1 1653 0
	ldrh	r1, [r4, #6]
	mov	r0, r4
	subs	r1, r1, r6
	bl	dir_sdi
.LVL457:
	.loc 1 1654 0
	mov	r5, r0
	cmp	r0, #0
	bne	.L448
	.loc 1 1655 0
	ldr	r0, [r4, #24]
.LVL458:
	bl	sum_sfn
.LVL459:
.LBB91:
.LBB92:
	.loc 1 1397 0
	movw	r9, #65535
.LVL460:
.LBE92:
.LBE91:
	.loc 1 1655 0
	mov	r7, r0
.LVL461:
.LBB97:
.LBB93:
	.loc 1 1398 0
	ldr	r8, .L471+4
.L439:
.LBE93:
.LBE97:
	.loc 1 1657 0
	ldr	r1, [r4, #16]
	ldr	r0, [r4]
	bl	move_window
.LVL462:
	mov	r5, r0
.LVL463:
	.loc 1 1658 0
	cmp	r0, #0
	bne	.L448
.LBB98:
.LBB94:
	.loc 1 1390 0
	movs	r2, #15
	.loc 1 1394 0
	movs	r5, #13
.LBE94:
.LBE98:
	.loc 1 1659 0
	ldr	r3, [r4, #20]
	uxtb	r1, r6
	ldr	lr, [r4, #28]
.LVL464:
.LBB99:
.LBB95:
	.loc 1 1390 0
	strb	r2, [r3, #11]
	.loc 1 1394 0
	subs	r2, r1, #1
	muls	r2, r5, r2
.LVL465:
	.loc 1 1395 0
	mov	r5, r0
	.loc 1 1389 0
	strb	r7, [r3, #13]
	.loc 1 1391 0
	strb	r0, [r3, #12]
	.loc 1 1392 0
	strb	r0, [r3, #26]
	strb	r0, [r3, #27]
.LVL466:
.L436:
	.loc 1 1397 0
	cmp	r0, r9
.LVL467:
	it	ne
	ldrhne	r0, [lr, r2, lsl #1]
	.loc 1 1398 0
	ldrb	ip, [r5, r8]	@ zero_extendqisi2
	.loc 1 1400 0
	add	r5, r5, #1
.LVL468:
	.loc 1 1398 0
	strb	r0, [r3, ip]
.LVL469:
	.loc 1 1397 0
	it	ne
	addne	r2, r2, #1
.LVL470:
	.loc 1 1398 0
	lsr	r10, r0, #8
	add	ip, ip, r3
	.loc 1 1399 0
	cmp	r0, #0
	it	eq
	moveq	r0, r9
.LVL471:
	.loc 1 1400 0
	cmp	r5, #13
	.loc 1 1398 0
	strb	r10, [ip, #1]
	.loc 1 1400 0
	bne	.L436
	.loc 1 1401 0
	cmp	r0, r9
	beq	.L437
	ldrh	r2, [lr, r2, lsl #1]
.LVL472:
	cbnz	r2, .L438
.L437:
	orr	r1, r1, #64
.LVL473:
.L438:
.LBE95:
.LBE99:
	.loc 1 1660 0
	movs	r2, #1
.LBB100:
.LBB96:
	.loc 1 1402 0
	strb	r1, [r3]
.LVL474:
.LBE96:
.LBE100:
	.loc 1 1660 0
	ldr	r3, [r4]
	.loc 1 1661 0
	movs	r1, #0
	.loc 1 1660 0
	strb	r2, [r3, #4]
	.loc 1 1661 0
	mov	r0, r4
	bl	dir_next
.LVL475:
	.loc 1 1662 0
	mov	r5, r0
	cmp	r0, #0
	bne	.L448
.LVL476:
	.loc 1 1662 0 is_stmt 0 discriminator 1
	subs	r6, r6, #1
.LVL477:
	bne	.L439
.LVL478:
.L432:
	.loc 1 1670 0 is_stmt 1
	ldr	r1, [r4, #16]
	ldr	r0, [r4]
	bl	move_window
.LVL479:
	.loc 1 1671 0
	mov	r5, r0
	cmp	r0, #0
	bne	.L448
	.loc 1 1672 0
	movs	r2, #32
	mov	r1, r5
	ldr	r0, [r4, #20]
.LVL480:
	bl	memset
.LVL481:
	.loc 1 1673 0
	ldr	r2, [r4, #24]
	ldr	r3, [r4, #20]
	ldr	r1, [r2]	@ unaligned
	str	r1, [r3]	@ unaligned
	ldr	r1, [r2, #4]	@ unaligned
	str	r1, [r3, #4]	@ unaligned
	ldrh	r1, [r2, #8]	@ unaligned
	strh	r1, [r3, #8]	@ unaligned
	ldrb	r2, [r2, #10]	@ zero_extendqisi2
	strb	r2, [r3, #10]
	.loc 1 1675 0
	ldr	r3, [r4, #24]
	ldr	r2, [r4, #20]
	ldrb	r3, [r3, #11]	@ zero_extendqisi2
	and	r3, r3, #24
	strb	r3, [r2, #12]
	.loc 1 1677 0
	movs	r2, #1
	ldr	r3, [r4]
	strb	r2, [r3, #4]
	b	.L448
.L472:
	.align	2
.L471:
	.word	69665
	.word	.LANCHOR2
	.cfi_endproc
.LFE21:
	.size	dir_register, .-dir_register
	.section	.text.dir_remove,"ax",%progbits
	.align	1
	.syntax unified
	.thumb
	.thumb_func
	.fpu softvfp
	.type	dir_remove, %function
dir_remove:
.LFB22:
	.loc 1 1696 0
	.cfi_startproc
	@ args = 0, pretend = 0, frame = 0
	@ frame_needed = 0, uses_anonymous_args = 0
.LVL482:
	push	{r3, r4, r5, r6, r7, lr}
	.cfi_def_cfa_offset 24
	.cfi_offset 3, -24
	.cfi_offset 4, -20
	.cfi_offset 5, -16
	.cfi_offset 6, -12
	.cfi_offset 7, -8
	.cfi_offset 14, -4
	.loc 1 1702 0
	movw	r3, #65535
	.loc 1 1701 0
	ldrh	r6, [r0, #6]
.LVL483:
	.loc 1 1702 0
	ldrh	r1, [r0, #32]
	.loc 1 1696 0
	mov	r5, r0
	.loc 1 1702 0
	cmp	r1, r3
	it	eq
	moveq	r1, r6
	bl	dir_sdi
.LVL484:
	.loc 1 1703 0
	mov	r4, r0
	cbnz	r0, .L475
	.loc 1 1708 0
	movs	r7, #229
.L477:
	.loc 1 1705 0
	ldr	r1, [r5, #16]
	ldr	r0, [r5]
.LVL485:
	bl	move_window
.LVL486:
	.loc 1 1706 0
	mov	r4, r0
	cbnz	r0, .L476
	.loc 1 1707 0
	movs	r2, #32
	mov	r1, r0
	ldr	r0, [r5, #20]
.LVL487:
	bl	memset
.LVL488:
	.loc 1 1709 0
	movs	r2, #1
	.loc 1 1708 0
	ldr	r3, [r5, #20]
	strb	r7, [r3]
	.loc 1 1709 0
	ldr	r3, [r5]
	strb	r2, [r3, #4]
	.loc 1 1710 0
	ldrh	r3, [r5, #6]
	cmp	r6, r3
	bls	.L475
	.loc 1 1711 0
	mov	r1, r4
	mov	r0, r5
	bl	dir_next
.LVL489:
	.loc 1 1712 0
	mov	r4, r0
	cmp	r0, #0
	beq	.L477
.L476:
.LVL490:
	.loc 1 1713 0
	cmp	r4, #4
	it	eq
	moveq	r4, #2
.LVL491:
.L475:
	.loc 1 1729 0
	mov	r0, r4
	pop	{r3, r4, r5, r6, r7, pc}
	.cfi_endproc
.LFE22:
	.size	dir_remove, .-dir_remove
	.section	.text.dir_read.constprop.9,"ax",%progbits
	.align	1
	.syntax unified
	.thumb
	.thumb_func
	.fpu softvfp
	.type	dir_read.constprop.9, %function
dir_read.constprop.9:
.LFB57:
	.loc 1 1556 0
	.cfi_startproc
	@ args = 0, pretend = 0, frame = 0
	@ frame_needed = 0, uses_anonymous_args = 0
.LVL492:
	push	{r4, r5, r6, r7, r8, r9, r10, lr}
	.cfi_def_cfa_offset 32
	.cfi_offset 4, -32
	.cfi_offset 5, -28
	.cfi_offset 6, -24
	.cfi_offset 7, -20
	.cfi_offset 8, -16
	.cfi_offset 9, -12
	.cfi_offset 10, -8
	.cfi_offset 14, -4
	.loc 1 1564 0
	movs	r7, #255
	.loc 1 1556 0
	mov	r5, r0
	.loc 1 1564 0
	mov	r4, r7
	.loc 1 1567 0
	movs	r6, #4
.LBB103:
.LBB104:
	.loc 1 1363 0
	movw	r9, #65535
	.loc 1 1358 0
	ldr	r8, .L513
.LVL493:
.L482:
.LBE104:
.LBE103:
	.loc 1 1568 0
	ldr	r1, [r5, #16]
	cbnz	r1, .L494
.LVL494:
	.loc 1 1601 0
	cmp	r6, #0
	beq	.L495
	b	.L483
.LVL495:
.L494:
	.loc 1 1569 0
	ldr	r0, [r5]
	bl	move_window
.LVL496:
	.loc 1 1570 0
	mov	r6, r0
	cmp	r0, #0
	bne	.L483
	.loc 1 1571 0
	ldr	r0, [r5, #20]
.LVL497:
	.loc 1 1572 0
	ldrb	r3, [r0]	@ zero_extendqisi2
.LVL498:
	.loc 1 1573 0
	cmp	r3, #0
	beq	.L496
.LVL499:
	.loc 1 1576 0
	cmp	r3, #229
	beq	.L504
	cmp	r3, #46
	beq	.L504
	.loc 1 1574 0
	ldrb	r2, [r0, #11]	@ zero_extendqisi2
	and	r2, r2, #63
	.loc 1 1576 0
	cmp	r2, #8
	beq	.L504
	.loc 1 1579 0
	cmp	r2, #15
	bne	.L485
	.loc 1 1580 0
	lsls	r1, r3, #25
	bpl	.L486
	.loc 1 1582 0
	and	r4, r3, #191
.LVL500:
	.loc 1 1583 0
	ldrh	r3, [r5, #6]
.LVL501:
	.loc 1 1581 0
	ldrb	r7, [r0, #13]	@ zero_extendqisi2
.LVL502:
	.loc 1 1583 0
	strh	r3, [r5, #32]	@ movhi
.LVL503:
.L487:
	.loc 1 1586 0
	ldrb	r3, [r0, #13]	@ zero_extendqisi2
	cmp	r3, r7
	bne	.L504
.LBB108:
.LBB105:
	.loc 1 1354 0
	movs	r2, #13
	.loc 1 1356 0
	mov	ip, #1
	movs	r1, #0
	.loc 1 1354 0
	ldrb	r3, [r0]	@ zero_extendqisi2
.LBE105:
.LBE108:
	.loc 1 1586 0
	ldr	r6, [r5, #28]
.LVL504:
.LBB109:
.LBB106:
	.loc 1 1354 0
	and	r3, r3, #63
	subs	r3, r3, #1
	muls	r3, r2, r3
.LVL505:
.L490:
	.loc 1 1358 0
	ldrb	lr, [r1, r8]	@ zero_extendqisi2
	add	r2, r0, lr
	ldrb	r10, [r2, #1]	@ zero_extendqisi2
	ldrb	r2, [r0, lr]	@ zero_extendqisi2
	orr	r2, r2, r10, lsl #8
.LVL506:
	.loc 1 1359 0
	cmp	ip, #0
	beq	.L488
	.loc 1 1360 0
	cmp	r3, #254
	bhi	.L504
.LVL507:
	.loc 1 1358 0
	mov	ip, r2
	.loc 1 1361 0
	strh	r2, [r6, r3, lsl #1]	@ movhi
	adds	r3, r3, #1
.LVL508:
.L489:
	.loc 1 1365 0
	adds	r1, r1, #1
.LVL509:
	cmp	r1, #13
	bne	.L490
	.loc 1 1367 0
	ldrb	r2, [r0]	@ zero_extendqisi2
.LVL510:
	lsls	r2, r2, #25
	bpl	.L491
	.loc 1 1368 0
	cmp	r3, #254
	bhi	.L504
	.loc 1 1369 0
	movs	r2, #0
	strh	r2, [r6, r3, lsl #1]	@ movhi
.L491:
.LVL511:
.LBE106:
.LBE109:
	.loc 1 1586 0
	subs	r4, r4, #1
.LVL512:
	uxtb	r4, r4
	b	.L484
.LVL513:
.L486:
	cmp	r3, r4
	beq	.L487
.LVL514:
.L504:
	movs	r4, #255
.LVL515:
.L484:
	.loc 1 1597 0
	movs	r1, #0
	mov	r0, r5
.LVL516:
	bl	dir_next
.LVL517:
	.loc 1 1598 0
	mov	r6, r0
	cmp	r0, #0
	beq	.L482
.LVL518:
.L483:
	.loc 1 1601 0
	movs	r3, #0
	str	r3, [r5, #16]
	b	.L512
.LVL519:
.L488:
.LBB110:
.LBB107:
	.loc 1 1363 0
	cmp	r2, r9
	beq	.L489
	b	.L504
.LVL520:
.L485:
.LBE107:
.LBE110:
	.loc 1 1588 0
	cbnz	r4, .L492
	bl	sum_sfn
.LVL521:
	cmp	r0, r7
	bne	.L492
.L495:
	.loc 1 1573 0
	movs	r6, #0
.L512:
	.loc 1 1604 0
	mov	r0, r6
	pop	{r4, r5, r6, r7, r8, r9, r10, pc}
.LVL522:
.L492:
	.loc 1 1589 0
	movw	r3, #65535
	strh	r3, [r5, #32]	@ movhi
	b	.L512
.LVL523:
.L496:
	.loc 1 1573 0
	movs	r6, #4
	b	.L483
.L514:
	.align	2
.L513:
	.word	.LANCHOR2
	.cfi_endproc
.LFE57:
	.size	dir_read.constprop.9, .-dir_read.constprop.9
	.section	.text.remove_chain,"ax",%progbits
	.align	1
	.syntax unified
	.thumb
	.thumb_func
	.fpu softvfp
	.type	remove_chain, %function
remove_chain:
.LFB7:
	.loc 1 983 0
	.cfi_startproc
	@ args = 0, pretend = 0, frame = 0
	@ frame_needed = 0, uses_anonymous_args = 0
.LVL524:
	.loc 1 990 0
	cmp	r1, #1
	.loc 1 983 0
	push	{r4, r5, r6, lr}
	.cfi_def_cfa_offset 16
	.cfi_offset 4, -16
	.cfi_offset 5, -12
	.cfi_offset 6, -8
	.cfi_offset 14, -4
	.loc 1 983 0
	mov	r4, r0
	mov	r5, r1
	.loc 1 990 0
	bhi	.L516
.LVL525:
.L518:
	.loc 1 991 0
	movs	r0, #2
	pop	{r4, r5, r6, pc}
.LVL526:
.L516:
	.loc 1 990 0 discriminator 1
	ldr	r3, [r0, #20]
	cmp	r1, r3
	bcs	.L518
.LVL527:
.L519:
.LBB113:
.LBB114:
	.loc 1 995 0
	ldr	r3, [r4, #20]
	cmp	r5, r3
	bcs	.L523
	.loc 1 996 0
	mov	r1, r5
	mov	r0, r4
	bl	get_fat
.LVL528:
	.loc 1 997 0
	mov	r6, r0
	cbnz	r0, .L520
.LVL529:
.L523:
.LBE114:
.LBE113:
	.loc 1 991 0
	movs	r0, #0
	pop	{r4, r5, r6, pc}
.LVL530:
.L520:
.LBB117:
.LBB115:
	.loc 1 998 0
	cmp	r0, #1
	beq	.L518
	.loc 1 999 0
	adds	r1, r0, #1
	beq	.L524
	.loc 1 1000 0
	movs	r2, #0
	mov	r1, r5
	mov	r0, r4
.LVL531:
	bl	put_fat
.LVL532:
	.loc 1 1001 0
	cbnz	r0, .L517
	.loc 1 1002 0
	ldr	r3, [r4, #16]
	adds	r2, r3, #1
	beq	.L521
	.loc 1 1003 0
	adds	r3, r3, #1
	str	r3, [r4, #16]
	.loc 1 1004 0
	ldrb	r3, [r4, #5]	@ zero_extendqisi2
	orr	r3, r3, #1
	strb	r3, [r4, #5]
.L521:
.LBE115:
.LBE117:
	.loc 1 983 0
	mov	r5, r6
.LVL533:
	b	.L519
.LVL534:
.L524:
.LBB118:
.LBB116:
	.loc 1 999 0
	movs	r0, #1
.LVL535:
.L517:
.LBE116:
.LBE118:
	.loc 1 1021 0
	pop	{r4, r5, r6, pc}
	.cfi_endproc
.LFE7:
	.size	remove_chain, .-remove_chain
	.section	.text.f_mount,"ax",%progbits
	.align	1
	.global	f_mount
	.syntax unified
	.thumb
	.thumb_func
	.fpu softvfp
	.type	f_mount, %function
f_mount:
.LFB30:
	.loc 1 2381 0
	.cfi_startproc
	@ args = 0, pretend = 0, frame = 16
	@ frame_needed = 0, uses_anonymous_args = 0
.LVL536:
	push	{r4, r5, r6, r7, lr}
	.cfi_def_cfa_offset 20
	.cfi_offset 4, -20
	.cfi_offset 5, -16
	.cfi_offset 6, -12
	.cfi_offset 7, -8
	.cfi_offset 14, -4
	sub	sp, sp, #20
	.cfi_def_cfa_offset 40
	.loc 1 2381 0
	str	r0, [sp, #4]
	.loc 1 2385 0
	add	r0, sp, #16
.LVL537:
	str	r1, [r0, #-4]!
	.loc 1 2381 0
	str	r1, [sp]
	mov	r7, r2
	.loc 1 2388 0
	bl	get_ldnumber
.LVL538:
	.loc 1 2389 0
	subs	r5, r0, #0
	blt	.L536
	.loc 1 2390 0
	ldr	r4, .L545
	ldr	r6, [r4, r5, lsl #2]
.LVL539:
	.loc 1 2392 0
	cbz	r6, .L533
.LVL540:
	.loc 1 2394 0
	ldr	r3, [sp, #4]
	cbnz	r3, .L534
	.loc 1 2395 0
	uxtb	r0, r5
.LVL541:
	bl	disk_deinitialize
.LVL542:
.L534:
	.loc 1 2402 0
	movs	r3, #0
	strb	r3, [r6]
.LVL543:
.L533:
	.loc 1 2405 0
	ldr	r0, [sp, #4]
	cbz	r0, .L535
	.loc 1 2406 0
	movs	r3, #0
	strb	r3, [r0]
.L535:
	.loc 1 2411 0
	str	r0, [r4, r5, lsl #2]
	.loc 1 2413 0
	cbz	r0, .L532
	.loc 1 2413 0 is_stmt 0 discriminator 2
	cmp	r7, #1
	bne	.L538
	.loc 1 2415 0 is_stmt 1
	movs	r2, #0
	mov	r1, sp
	add	r0, sp, #4
	bl	find_volume
.LVL544:
.L532:
	.loc 1 2417 0
	add	sp, sp, #20
	.cfi_remember_state
	.cfi_def_cfa_offset 20
	@ sp needed
	pop	{r4, r5, r6, r7, pc}
.LVL545:
.L536:
	.cfi_restore_state
	.loc 1 2389 0
	movs	r0, #11
.LVL546:
	b	.L532
.LVL547:
.L538:
	.loc 1 2413 0
	movs	r0, #0
	b	.L532
.L546:
	.align	2
.L545:
	.word	.LANCHOR0
	.cfi_endproc
.LFE30:
	.size	f_mount, .-f_mount
	.section	.text.f_open,"ax",%progbits
	.align	1
	.global	f_open
	.syntax unified
	.thumb
	.thumb_func
	.fpu softvfp
	.type	f_open, %function
f_open:
.LFB31:
	.loc 1 2431 0
	.cfi_startproc
	@ args = 0, pretend = 0, frame = 56
	@ frame_needed = 0, uses_anonymous_args = 0
.LVL548:
	push	{r4, r5, r6, r7, r8, r9, lr}
	.cfi_def_cfa_offset 28
	.cfi_offset 4, -28
	.cfi_offset 5, -24
	.cfi_offset 6, -20
	.cfi_offset 7, -16
	.cfi_offset 8, -12
	.cfi_offset 9, -8
	.cfi_offset 14, -4
	sub	sp, sp, #60
	.cfi_def_cfa_offset 88
	.loc 1 2431 0
	str	r1, [sp, #4]
	mov	r4, r2
	.loc 1 2438 0
	mov	r6, r0
	cmp	r0, #0
	beq	.L555
	.loc 1 2439 0
	movs	r3, #0
	.loc 1 2444 0
	and	r2, r2, #30
.LVL549:
	.loc 1 2439 0
	str	r3, [r0]
.LVL550:
	.loc 1 2444 0
	add	r1, sp, #4
.LVL551:
	add	r0, sp, #20
.LVL552:
	bl	find_volume
.LVL553:
	.loc 1 2449 0
	cmp	r0, #0
	bne	.L548
	.loc 1 2450 0
	add	r3, sp, #8
	str	r3, [sp, #44]
	ldr	r3, .L576
	.loc 1 2451 0
	ldr	r1, [sp, #4]
	add	r0, sp, #20
.LVL554:
	.loc 1 2450 0
	str	r3, [sp, #48]
	.loc 1 2451 0
	bl	follow_path
.LVL555:
	.loc 1 2452 0
	ldr	r5, [sp, #40]
.LVL556:
	.loc 1 2454 0
	cbnz	r0, .L549
	.loc 1 2456 0
	cmp	r5, #0
	it	eq
	moveq	r0, #6
.LVL557:
.L549:
	.loc 1 2463 0
	tst	r4, #28
	.loc 1 2443 0
	and	r7, r4, #31
.LVL558:
	.loc 1 2463 0
	beq	.L550
.LBB119:
	.loc 1 2466 0
	cmp	r0, #0
	beq	.L551
	.loc 1 2467 0
	cmp	r0, #4
	bne	.L548
	.loc 1 2471 0
	add	r0, sp, #20
.LVL559:
	bl	dir_register
.LVL560:
	.loc 1 2484 0
	cbnz	r0, .L548
	.loc 1 2474 0
	ldr	r5, [sp, #40]
	.loc 1 2473 0
	orr	r7, r7, #8
.LVL561:
.L552:
	.loc 1 2484 0 discriminator 1
	lsls	r4, r7, #28
	bpl	.L553
	.loc 1 2485 0
	bl	get_fattime
.LVL562:
	.loc 1 2487 0
	movs	r4, #0
	.loc 1 2486 0
	ubfx	r3, r0, #8, #8
	strb	r0, [r5, #14]
	strb	r3, [r5, #15]
	.loc 1 2489 0
	ldr	r8, [sp, #20]
	.loc 1 2486 0
	lsrs	r3, r0, #16
	lsrs	r0, r0, #24
.LVL563:
	strb	r3, [r5, #16]
	.loc 1 2487 0
	strb	r4, [r5, #11]
	.loc 1 2488 0
	strb	r4, [r5, #28]
	strb	r4, [r5, #29]
	strb	r4, [r5, #30]
	strb	r4, [r5, #31]
	.loc 1 2486 0
	strb	r0, [r5, #17]
	.loc 1 2489 0
	ldrb	r0, [r8]	@ zero_extendqisi2
	mov	r1, r5
	bl	ld_clust.isra.0
.LVL564:
	.loc 1 2491 0
	movs	r3, #1
.LBB120:
.LBB121:
	.loc 1 1297 0
	strb	r4, [r5, #26]
	strb	r4, [r5, #27]
	.loc 1 1298 0
	strb	r4, [r5, #20]
	strb	r4, [r5, #21]
.LVL565:
.LBE121:
.LBE120:
	.loc 1 2491 0
	strb	r3, [r8, #4]
	.loc 1 2492 0
	mov	r4, r0
	cbz	r0, .L553
	.loc 1 2494 0
	mov	r1, r0
	mov	r0, r8
.LVL566:
	.loc 1 2493 0
	ldr	r9, [r8, #44]
.LVL567:
	.loc 1 2494 0
	bl	remove_chain
.LVL568:
	.loc 1 2495 0
	cbnz	r0, .L548
	.loc 1 2496 0
	ldr	r0, [sp, #20]
.LVL569:
	subs	r4, r4, #1
.LVL570:
	str	r4, [r0, #12]
	.loc 1 2497 0
	mov	r1, r9
	bl	move_window
.LVL571:
.LBE119:
	.loc 1 2512 0
	cbz	r0, .L553
.LVL572:
.L548:
	.loc 1 2552 0
	add	sp, sp, #60
	.cfi_remember_state
	.cfi_def_cfa_offset 28
	@ sp needed
	pop	{r4, r5, r6, r7, r8, r9, pc}
.LVL573:
.L551:
	.cfi_restore_state
.LBB122:
	.loc 1 2477 0
	ldrb	r3, [r5, #11]	@ zero_extendqisi2
	tst	r3, #17
	bne	.L560
	.loc 1 2480 0
	lsls	r3, r4, #29
	bpl	.L552
	.loc 1 2481 0
	movs	r0, #8
.LVL574:
	b	.L548
.LVL575:
.L550:
.LBE122:
	.loc 1 2503 0
	cmp	r0, #0
	bne	.L548
	.loc 1 2504 0
	ldrb	r3, [r5, #11]	@ zero_extendqisi2
	lsls	r0, r3, #27
.LVL576:
	bmi	.L559
	.loc 1 2507 0
	lsls	r1, r4, #30
	bpl	.L553
	.loc 1 2507 0 is_stmt 0 discriminator 1
	lsls	r2, r3, #31
	bmi	.L560
.L553:
.LVL577:
	.loc 1 2538 0 is_stmt 1
	movs	r4, #0
	.loc 1 2515 0
	ldr	r8, [sp, #20]
	.loc 1 2513 0
	lsls	r3, r7, #28
	.loc 1 2515 0
	ldr	r3, [r8, #44]
	.loc 1 2514 0
	it	mi
	orrmi	r7, r7, #32
.LVL578:
	.loc 1 2515 0
	str	r3, [r6, #28]
	.loc 1 2516 0
	str	r5, [r6, #32]
	.loc 1 2537 0
	strb	r7, [r6, #6]
	.loc 1 2538 0
	strb	r4, [r6, #7]
	.loc 1 2539 0
	ldrb	r0, [r8]	@ zero_extendqisi2
	mov	r1, r5
	bl	ld_clust.isra.0
.LVL579:
	str	r0, [r6, #16]
	.loc 1 2540 0
	ldr	r3, [r5, #28]	@ unaligned
	.loc 1 2547 0
	mov	r0, r4
	.loc 1 2540 0
	str	r3, [r6, #12]
	.loc 1 2547 0
	ldrh	r3, [r8, #6]
	.loc 1 2541 0
	str	r4, [r6, #8]
	.loc 1 2542 0
	str	r4, [r6, #24]
	.loc 1 2546 0
	str	r8, [r6]
	.loc 1 2547 0
	strh	r3, [r6, #4]	@ movhi
	b	.L548
.LVL580:
.L555:
	.loc 1 2438 0
	movs	r0, #9
.LVL581:
	b	.L548
.LVL582:
.L559:
	.loc 1 2505 0
	movs	r0, #4
	b	.L548
.L560:
.LBB123:
	.loc 1 2478 0
	movs	r0, #7
	b	.L548
.L577:
	.align	2
.L576:
	.word	.LANCHOR4
.LBE123:
	.cfi_endproc
.LFE31:
	.size	f_open, .-f_open
	.section	.text.f_read,"ax",%progbits
	.align	1
	.global	f_read
	.syntax unified
	.thumb
	.thumb_func
	.fpu softvfp
	.type	f_read, %function
f_read:
.LFB32:
	.loc 1 2567 0
	.cfi_startproc
	@ args = 0, pretend = 0, frame = 8
	@ frame_needed = 0, uses_anonymous_args = 0
.LVL583:
	push	{r0, r1, r2, r4, r5, r6, r7, r8, r9, r10, fp, lr}
	.cfi_def_cfa_offset 48
	.cfi_offset 4, -36
	.cfi_offset 5, -32
	.cfi_offset 6, -28
	.cfi_offset 7, -24
	.cfi_offset 8, -20
	.cfi_offset 9, -16
	.cfi_offset 10, -12
	.cfi_offset 11, -8
	.cfi_offset 14, -4
	.loc 1 2567 0
	mov	fp, r3
	.loc 1 2574 0
	movs	r3, #0
.LVL584:
	str	r3, [fp]
	.loc 1 2567 0
	mov	r4, r0
	mov	r9, r1
.LVL585:
	mov	r5, r2
	.loc 1 2576 0
	bl	validate
.LVL586:
	.loc 1 2577 0
	mov	r6, r0
	cbnz	r0, .L579
	.loc 1 2578 0
	ldrb	r3, [r4, #7]	@ zero_extendqisi2
	cmp	r3, #0
	bne	.L596
	.loc 1 2580 0
	ldrb	r3, [r4, #6]	@ zero_extendqisi2
	lsls	r0, r3, #31
.LVL587:
	bpl	.L597
.LVL588:
	.loc 1 2582 0
	ldr	r3, [r4, #12]
	ldr	r7, [r4, #8]
	subs	r7, r3, r7
.LVL589:
	cmp	r7, r5
	it	cs
	movcs	r7, r5
.LVL590:
	add	r3, r4, #36
	str	r3, [sp]
.LVL591:
.L580:
	.loc 1 2585 0
	cbz	r7, .L579
	.loc 1 2587 0
	ldr	r2, [r4, #8]
	ubfx	r3, r2, #0, #9
	cmp	r3, #0
	bne	.L581
	.loc 1 2588 0
	ldr	r0, [r4]
	ldrb	r3, [r0, #2]	@ zero_extendqisi2
	subs	r3, r3, #1
	and	r3, r3, r2, lsr #9
.LVL592:
	.loc 1 2589 0
	ands	r3, r3, #255
.LVL593:
	bne	.L582
	.loc 1 2590 0
	cbnz	r2, .L583
	.loc 1 2591 0
	ldr	r0, [r4, #16]
.LVL594:
.L584:
	.loc 1 2600 0
	cmp	r0, #1
	bhi	.L585
.LVL595:
.L587:
	.loc 1 2600 0 is_stmt 0 discriminator 1
	movs	r6, #2
.L607:
	.loc 1 2601 0 is_stmt 1 discriminator 1
	strb	r6, [r4, #7]
.LVL596:
.L579:
	.loc 1 2652 0
	mov	r0, r6
	add	sp, sp, #12
	.cfi_remember_state
	.cfi_def_cfa_offset 36
	@ sp needed
	pop	{r4, r5, r6, r7, r8, r9, r10, fp, pc}
.LVL597:
.L583:
	.cfi_restore_state
	.loc 1 2598 0
	ldr	r1, [r4, #20]
	str	r3, [sp, #4]
	bl	get_fat
.LVL598:
	ldr	r3, [sp, #4]
.LVL599:
	b	.L584
.L585:
	.loc 1 2601 0
	adds	r1, r0, #1
	bne	.L586
.LVL600:
.L590:
	.loc 1 2601 0 is_stmt 0 discriminator 1
	movs	r6, #1
	b	.L607
.LVL601:
.L586:
	.loc 1 2602 0 is_stmt 1
	str	r0, [r4, #20]
.LVL602:
.L582:
	.loc 1 2604 0
	ldr	r10, [r4]
	ldr	r1, [r4, #20]
	mov	r0, r10
	str	r3, [sp, #4]
	bl	clust2sect
.LVL603:
	.loc 1 2605 0
	cmp	r0, #0
	beq	.L587
	.loc 1 2606 0
	ldr	r3, [sp, #4]
	.loc 1 2608 0
	lsrs	r5, r7, #9
	.loc 1 2606 0
	add	r8, r0, r3
.LVL604:
	.loc 1 2608 0
	beq	.L588
	.loc 1 2609 0
	ldrb	r2, [r10, #2]	@ zero_extendqisi2
	adds	r1, r3, r5
	cmp	r1, r2
	.loc 1 2610 0
	it	hi
	subhi	r5, r2, r3
.LVL605:
	.loc 1 2611 0
	mov	r3, r5
	mov	r2, r8
	mov	r1, r9
	ldrb	r0, [r10, #1]	@ zero_extendqisi2
	bl	disk_read
.LVL606:
	cmp	r0, #0
	bne	.L590
	.loc 1 2618 0
	ldrb	r3, [r4, #6]	@ zero_extendqisi2
	lsls	r2, r3, #25
	bpl	.L591
	.loc 1 2618 0 is_stmt 0 discriminator 1
	ldr	r0, [r4, #24]
	sub	r0, r0, r8
	cmp	r5, r0
	bls	.L591
	.loc 1 2619 0 is_stmt 1
	mov	r2, #512
	ldr	r1, [sp]
	add	r0, r9, r0, lsl #9
	bl	memcpy
.LVL607:
.L591:
	.loc 1 2622 0
	lsls	r5, r5, #9
.LVL608:
.L592:
	.loc 1 2586 0
	ldr	r3, [r4, #8]
	add	r9, r9, r5
.LVL609:
	add	r3, r3, r5
	str	r3, [r4, #8]
	ldr	r3, [fp]
	subs	r7, r7, r5
.LVL610:
	add	r3, r3, r5
	str	r3, [fp]
	b	.L580
.LVL611:
.L588:
	.loc 1 2626 0
	ldr	r2, [r4, #24]
	cmp	r8, r2
	beq	.L593
	.loc 1 2628 0
	ldrb	r3, [r4, #6]	@ zero_extendqisi2
	lsls	r3, r3, #25
	bpl	.L594
	.loc 1 2629 0
	movs	r3, #1
	ldr	r1, [sp]
	ldrb	r0, [r10, #1]	@ zero_extendqisi2
	bl	disk_write
.LVL612:
	cmp	r0, #0
	bne	.L590
	.loc 1 2631 0
	ldrb	r3, [r4, #6]	@ zero_extendqisi2
	bic	r3, r3, #64
	strb	r3, [r4, #6]
.L594:
	.loc 1 2634 0
	ldr	r0, [r4]
	movs	r3, #1
	mov	r2, r8
	ldr	r1, [sp]
	ldrb	r0, [r0, #1]	@ zero_extendqisi2
	bl	disk_read
.LVL613:
	cmp	r0, #0
	bne	.L590
.L593:
	.loc 1 2638 0
	str	r8, [r4, #24]
.LVL614:
.L581:
	.loc 1 2640 0
	ldr	r1, [r4, #8]
	.loc 1 2647 0
	mov	r0, r9
	.loc 1 2640 0
	ubfx	r1, r1, #0, #9
	rsb	r5, r1, #512
.LVL615:
	cmp	r5, r7
	it	cs
	movcs	r5, r7
.LVL616:
	.loc 1 2647 0
	adds	r1, r1, #36
	mov	r2, r5
	add	r1, r1, r4
	bl	memcpy
.LVL617:
	b	.L592
.LVL618:
.L596:
	mov	r6, r3
	b	.L579
.LVL619:
.L597:
	.loc 1 2581 0
	movs	r6, #7
	b	.L579
	.cfi_endproc
.LFE32:
	.size	f_read, .-f_read
	.section	.text.f_write,"ax",%progbits
	.align	1
	.global	f_write
	.syntax unified
	.thumb
	.thumb_func
	.fpu softvfp
	.type	f_write, %function
f_write:
.LFB33:
	.loc 1 2668 0
	.cfi_startproc
	@ args = 0, pretend = 0, frame = 8
	@ frame_needed = 0, uses_anonymous_args = 0
.LVL620:
	push	{r0, r1, r2, r4, r5, r6, r7, r8, r9, r10, fp, lr}
	.cfi_def_cfa_offset 48
	.cfi_offset 4, -36
	.cfi_offset 5, -32
	.cfi_offset 6, -28
	.cfi_offset 7, -24
	.cfi_offset 8, -20
	.cfi_offset 9, -16
	.cfi_offset 10, -12
	.cfi_offset 11, -8
	.cfi_offset 14, -4
	.loc 1 2668 0
	mov	fp, r3
	.loc 1 2676 0
	movs	r3, #0
.LVL621:
	str	r3, [fp]
	.loc 1 2668 0
	mov	r4, r0
	mov	r9, r1
.LVL622:
	mov	r8, r2
	.loc 1 2678 0
	bl	validate
.LVL623:
	.loc 1 2679 0
	mov	r6, r0
	cmp	r0, #0
	bne	.L609
	.loc 1 2680 0
	ldrb	r3, [r4, #7]	@ zero_extendqisi2
	cmp	r3, #0
	bne	.L632
	.loc 1 2682 0
	ldrb	r3, [r4, #6]	@ zero_extendqisi2
	lsls	r1, r3, #30
	bpl	.L633
	.loc 1 2684 0
	ldr	r3, [r4, #8]
	cmn	r3, r8
	bcs	.L610
	.loc 1 2752 0
	add	r3, r4, #36
	str	r3, [sp, #4]
.LVL624:
.L611:
	.loc 1 2686 0
	cmp	r8, #0
	bne	.L631
.L610:
	.loc 1 2771 0
	ldr	r3, [r4, #8]
	ldr	r2, [r4, #12]
	cmp	r3, r2
	bhi	.L612
.L613:
	.loc 1 2772 0
	ldrb	r3, [r4, #6]	@ zero_extendqisi2
	orr	r3, r3, #32
	strb	r3, [r4, #6]
	.loc 1 2774 0
	b	.L609
.L631:
	.loc 1 2688 0
	ldr	r2, [r4, #8]
	ubfx	r3, r2, #0, #9
	cmp	r3, #0
	bne	.L614
	.loc 1 2689 0
	ldr	r0, [r4]
	ldrb	r3, [r0, #2]	@ zero_extendqisi2
	subs	r3, r3, #1
	and	r3, r3, r2, lsr #9
.LVL625:
	.loc 1 2690 0
	ands	r3, r3, #255
.LVL626:
	str	r3, [sp]
	bne	.L616
	.loc 1 2691 0
	cbnz	r2, .L617
	.loc 1 2692 0
	ldr	r1, [r4, #16]
.LVL627:
	.loc 1 2693 0
	cbnz	r1, .L618
.LVL628:
.L643:
	.loc 1 2701 0
	bl	create_chain
.LVL629:
	mov	r1, r0
.LVL630:
	.loc 1 2703 0
	cmp	r0, #0
	beq	.L610
.LVL631:
.L618:
	.loc 1 2704 0
	cmp	r1, #1
	bne	.L620
.LVL632:
.L625:
	.loc 1 2704 0 is_stmt 0 discriminator 1
	movs	r6, #2
.L644:
	.loc 1 2705 0 is_stmt 1 discriminator 1
	strb	r6, [r4, #7]
.L609:
	.loc 1 2775 0
	mov	r0, r6
	add	sp, sp, #12
	.cfi_remember_state
	.cfi_def_cfa_offset 36
	@ sp needed
	pop	{r4, r5, r6, r7, r8, r9, r10, fp, pc}
.LVL633:
.L617:
	.cfi_restore_state
	.loc 1 2701 0
	ldr	r1, [r4, #20]
	b	.L643
.LVL634:
.L620:
	.loc 1 2705 0
	adds	r2, r1, #1
	bne	.L621
.LVL635:
.L624:
	.loc 1 2705 0 is_stmt 0 discriminator 1
	movs	r6, #1
	b	.L644
.LVL636:
.L621:
	.loc 1 2707 0 is_stmt 1
	ldr	r3, [r4, #16]
	.loc 1 2706 0
	str	r1, [r4, #20]
	.loc 1 2707 0
	cbnz	r3, .L616
	.loc 1 2707 0 is_stmt 0 discriminator 1
	str	r1, [r4, #16]
.LVL637:
.L616:
	.loc 1 2713 0 is_stmt 1
	ldrb	r3, [r4, #6]	@ zero_extendqisi2
	lsls	r3, r3, #25
	bpl	.L623
	.loc 1 2714 0
	ldr	r0, [r4]
	movs	r3, #1
	ldr	r2, [r4, #24]
	ldr	r1, [sp, #4]
	ldrb	r0, [r0, #1]	@ zero_extendqisi2
	bl	disk_write
.LVL638:
	cmp	r0, #0
	bne	.L624
	.loc 1 2716 0
	ldrb	r3, [r4, #6]	@ zero_extendqisi2
	bic	r3, r3, #64
	strb	r3, [r4, #6]
.L623:
	.loc 1 2719 0
	ldr	r10, [r4]
	ldr	r1, [r4, #20]
	mov	r0, r10
	bl	clust2sect
.LVL639:
	.loc 1 2720 0
	cmp	r0, #0
	beq	.L625
	.loc 1 2721 0
	ldr	r3, [sp]
	.loc 1 2723 0
	lsrs	r5, r8, #9
	.loc 1 2721 0
	add	r7, r0, r3
.LVL640:
	.loc 1 2723 0
	beq	.L626
	.loc 1 2724 0
	ldr	r2, [sp]
	ldrb	r3, [r10, #2]	@ zero_extendqisi2
	add	r2, r2, r5
	cmp	r2, r3
	.loc 1 2725 0
	it	hi
	ldrhi	r2, [sp]
	.loc 1 2726 0
	mov	r1, r9
	.loc 1 2725 0
	it	hi
	subhi	r5, r3, r2
.LVL641:
	.loc 1 2726 0
	mov	r3, r5
	mov	r2, r7
	ldrb	r0, [r10, #1]	@ zero_extendqisi2
	bl	disk_write
.LVL642:
	cmp	r0, #0
	bne	.L624
	.loc 1 2735 0
	ldr	r1, [r4, #24]
	subs	r1, r1, r7
	cmp	r5, r1
	bls	.L628
	.loc 1 2736 0
	mov	r2, #512
	add	r1, r9, r1, lsl #9
	ldr	r0, [sp, #4]
	bl	memcpy
.LVL643:
	.loc 1 2737 0
	ldrb	r3, [r4, #6]	@ zero_extendqisi2
	bic	r3, r3, #64
	strb	r3, [r4, #6]
.L628:
	.loc 1 2741 0
	lsls	r5, r5, #9
.LVL644:
.L629:
	.loc 1 2687 0
	ldr	r3, [r4, #8]
	add	r9, r9, r5
.LVL645:
	add	r3, r3, r5
	str	r3, [r4, #8]
	ldr	r3, [fp]
	sub	r8, r8, r5
.LVL646:
	add	r3, r3, r5
	str	r3, [fp]
	b	.L611
.LVL647:
.L626:
	.loc 1 2750 0
	ldr	r3, [r4, #24]
	cmp	r7, r3
	beq	.L630
	.loc 1 2751 0
	ldr	r2, [r4, #8]
	ldr	r3, [r4, #12]
	cmp	r2, r3
	bcs	.L630
	.loc 1 2752 0 discriminator 1
	movs	r3, #1
	mov	r2, r7
	ldr	r1, [sp, #4]
	ldrb	r0, [r10, #1]	@ zero_extendqisi2
	bl	disk_read
.LVL648:
	.loc 1 2751 0 discriminator 1
	cmp	r0, #0
	bne	.L624
.L630:
	.loc 1 2756 0
	str	r7, [r4, #24]
.LVL649:
.L614:
	.loc 1 2758 0
	ldr	r0, [r4, #8]
	.loc 1 2766 0
	mov	r1, r9
	.loc 1 2758 0
	ubfx	r0, r0, #0, #9
	rsb	r5, r0, #512
.LVL650:
	cmp	r5, r8
	it	cs
	movcs	r5, r8
.LVL651:
	.loc 1 2766 0
	adds	r0, r0, #36
	mov	r2, r5
	add	r0, r0, r4
	bl	memcpy
.LVL652:
	.loc 1 2767 0
	ldrb	r3, [r4, #6]	@ zero_extendqisi2
	orr	r3, r3, #64
	strb	r3, [r4, #6]
	b	.L629
.LVL653:
.L612:
	.loc 1 2771 0 discriminator 1
	str	r3, [r4, #12]
	b	.L613
.LVL654:
.L632:
	mov	r6, r3
	b	.L609
.L633:
	.loc 1 2683 0
	movs	r6, #7
	b	.L609
	.cfi_endproc
.LFE33:
	.size	f_write, .-f_write
	.section	.text.f_sync,"ax",%progbits
	.align	1
	.global	f_sync
	.syntax unified
	.thumb
	.thumb_func
	.fpu softvfp
	.type	f_sync, %function
f_sync:
.LFB34:
	.loc 1 2787 0
	.cfi_startproc
	@ args = 0, pretend = 0, frame = 0
	@ frame_needed = 0, uses_anonymous_args = 0
.LVL655:
	push	{r4, r5, r6, lr}
	.cfi_def_cfa_offset 16
	.cfi_offset 4, -16
	.cfi_offset 5, -12
	.cfi_offset 6, -8
	.cfi_offset 14, -4
	.loc 1 2787 0
	mov	r4, r0
	.loc 1 2793 0
	bl	validate
.LVL656:
	.loc 1 2794 0
	cmp	r0, #0
	bne	.L646
	.loc 1 2795 0
	ldrb	r3, [r4, #6]	@ zero_extendqisi2
	lsls	r2, r3, #26
	bpl	.L646
	.loc 1 2798 0
	lsls	r3, r3, #25
	bpl	.L647
	.loc 1 2799 0
	ldr	r0, [r4]
.LVL657:
	movs	r3, #1
	ldr	r2, [r4, #24]
	add	r1, r4, #36
	ldrb	r0, [r0, #1]	@ zero_extendqisi2
	bl	disk_write
.LVL658:
	cmp	r0, #0
	bne	.L648
	.loc 1 2801 0
	ldrb	r3, [r4, #6]	@ zero_extendqisi2
	bic	r3, r3, #64
	strb	r3, [r4, #6]
.L647:
	.loc 1 2805 0
	ldr	r1, [r4, #28]
	ldr	r0, [r4]
	bl	move_window
.LVL659:
	mov	r6, r0
.LVL660:
	.loc 1 2806 0
	cbnz	r0, .L646
.LVL661:
.LBB128:
.LBB129:
	.loc 1 2807 0
	ldr	r5, [r4, #32]
.LVL662:
	.loc 1 2808 0
	ldrb	r3, [r5, #11]	@ zero_extendqisi2
	orr	r3, r3, #32
	strb	r3, [r5, #11]
	.loc 1 2809 0
	ldr	r3, [r4, #12]
	strb	r3, [r5, #28]
	ldrh	r3, [r4, #12]
	lsrs	r3, r3, #8
	strb	r3, [r5, #29]
	ldrh	r3, [r4, #14]
	strb	r3, [r5, #30]
	ldrb	r3, [r4, #15]	@ zero_extendqisi2
	strb	r3, [r5, #31]
	.loc 1 2810 0
	ldr	r3, [r4, #16]
.LVL663:
.LBB130:
.LBB131:
	.loc 1 1297 0
	strb	r3, [r5, #26]
	ubfx	r2, r3, #8, #8
	.loc 1 1298 0
	lsrs	r3, r3, #16
.LVL664:
	strb	r3, [r5, #20]
	lsrs	r3, r3, #8
	strb	r3, [r5, #21]
.LVL665:
	.loc 1 1297 0
	strb	r2, [r5, #27]
.LBE131:
.LBE130:
	.loc 1 2811 0
	bl	get_fattime
.LVL666:
	.loc 1 2812 0
	ubfx	r3, r0, #8, #8
	strb	r0, [r5, #22]
	strb	r3, [r5, #23]
	lsrs	r3, r0, #16
	lsrs	r0, r0, #24
.LVL667:
	strb	r3, [r5, #24]
	strb	r0, [r5, #25]
	.loc 1 2813 0
	strb	r6, [r5, #18]
	strb	r6, [r5, #19]
	.loc 1 2814 0
	ldrb	r3, [r4, #6]	@ zero_extendqisi2
	.loc 1 2815 0
	ldr	r0, [r4]
	.loc 1 2814 0
	bic	r3, r3, #32
	strb	r3, [r4, #6]
	.loc 1 2815 0
	movs	r3, #1
	strb	r3, [r0, #4]
.LBE129:
.LBE128:
	.loc 1 2822 0
	pop	{r4, r5, r6, lr}
	.cfi_remember_state
	.cfi_restore 14
	.cfi_restore 6
	.cfi_restore 5
	.cfi_restore 4
	.cfi_def_cfa_offset 0
.LVL668:
.LBB133:
.LBB132:
	.loc 1 2816 0
	b	sync_fs
.LVL669:
.L648:
	.cfi_restore_state
.LBE132:
.LBE133:
	.loc 1 2800 0
	movs	r0, #1
.L646:
	.loc 1 2822 0
	pop	{r4, r5, r6, pc}
	.cfi_endproc
.LFE34:
	.size	f_sync, .-f_sync
	.section	.text.f_close,"ax",%progbits
	.align	1
	.global	f_close
	.syntax unified
	.thumb
	.thumb_func
	.fpu softvfp
	.type	f_close, %function
f_close:
.LFB35:
	.loc 1 2836 0
	.cfi_startproc
	@ args = 0, pretend = 0, frame = 0
	@ frame_needed = 0, uses_anonymous_args = 0
.LVL670:
	push	{r4, lr}
	.cfi_def_cfa_offset 8
	.cfi_offset 4, -8
	.cfi_offset 14, -4
	.loc 1 2836 0
	mov	r4, r0
	.loc 1 2841 0
	bl	f_sync
.LVL671:
	.loc 1 2842 0
	cbnz	r0, .L656
	.loc 1 2845 0
	mov	r0, r4
.LVL672:
	bl	validate
.LVL673:
	.loc 1 2846 0
	cbnz	r0, .L656
	.loc 1 2854 0
	str	r0, [r4]
.L656:
	.loc 1 2861 0
	pop	{r4, pc}
	.cfi_endproc
.LFE35:
	.size	f_close, .-f_close
	.section	.text.f_lseek,"ax",%progbits
	.align	1
	.global	f_lseek
	.syntax unified
	.thumb
	.thumb_func
	.fpu softvfp
	.type	f_lseek, %function
f_lseek:
.LFB36:
	.loc 1 3009 0
	.cfi_startproc
	@ args = 0, pretend = 0, frame = 0
	@ frame_needed = 0, uses_anonymous_args = 0
.LVL674:
	push	{r3, r4, r5, r6, r7, lr}
	.cfi_def_cfa_offset 24
	.cfi_offset 3, -24
	.cfi_offset 4, -20
	.cfi_offset 5, -16
	.cfi_offset 6, -12
	.cfi_offset 7, -8
	.cfi_offset 14, -4
	.loc 1 3009 0
	mov	r4, r0
	mov	r5, r1
	.loc 1 3013 0
	bl	validate
.LVL675:
	.loc 1 3014 0
	mov	r6, r0
	cmp	r0, #0
	bne	.L658
	.loc 1 3015 0
	ldrb	r3, [r4, #7]	@ zero_extendqisi2
	cmp	r3, #0
	bne	.L677
.LBB134:
	.loc 1 3079 0
	ldr	r3, [r4, #12]
	cmp	r3, r5
	bcs	.L659
	.loc 1 3081 0
	ldrb	r2, [r4, #6]	@ zero_extendqisi2
	tst	r2, #2
	it	eq
	moveq	r5, r3
.LVL676:
.L659:
	.loc 1 3086 0
	movs	r2, #0
	.loc 1 3085 0
	ldr	r3, [r4, #8]
.LVL677:
	.loc 1 3086 0
	str	r2, [r4, #8]
	.loc 1 3087 0
	cbnz	r5, .L660
.LVL678:
.L661:
	.loc 1 3146 0
	ldr	r3, [r4, #8]
	ldr	r2, [r4, #12]
	cmp	r3, r2
	bls	.L658
	.loc 1 3147 0
	str	r3, [r4, #12]
	.loc 1 3148 0
	ldrb	r3, [r4, #6]	@ zero_extendqisi2
	orr	r3, r3, #32
	strb	r3, [r4, #6]
	b	.L658
.LVL679:
.L668:
	.loc 1 3086 0
	movs	r5, #0
.LVL680:
.L662:
	.loc 1 3131 0
	ldr	r3, [r4, #8]
	ubfx	r3, r3, #0, #9
	cmp	r3, #0
	beq	.L661
	.loc 1 3131 0 is_stmt 0 discriminator 1
	ldr	r2, [r4, #24]
	cmp	r5, r2
	beq	.L661
	.loc 1 3134 0 is_stmt 1
	ldrb	r3, [r4, #6]	@ zero_extendqisi2
	add	r7, r4, #36
.LVL681:
	tst	r3, #64
	beq	.L676
	.loc 1 3135 0
	ldr	r0, [r4]
	movs	r3, #1
	mov	r1, r7
	ldrb	r0, [r0, #1]	@ zero_extendqisi2
	bl	disk_write
.LVL682:
	cmp	r0, #0
	bne	.L673
	.loc 1 3137 0
	ldrb	r3, [r4, #6]	@ zero_extendqisi2
	bic	r3, r3, #64
	strb	r3, [r4, #6]
.L676:
	.loc 1 3140 0
	ldr	r0, [r4]
	movs	r3, #1
	mov	r2, r5
	mov	r1, r7
	ldrb	r0, [r0, #1]	@ zero_extendqisi2
	bl	disk_read
.LVL683:
	cbnz	r0, .L673
	.loc 1 3143 0
	str	r5, [r4, #24]
	b	.L661
.LVL684:
.L660:
	.loc 1 3088 0
	ldr	r0, [r4]
.LVL685:
	ldrb	r7, [r0, #2]	@ zero_extendqisi2
	lsls	r7, r7, #9
.LVL686:
	.loc 1 3089 0
	cbz	r3, .L663
	.loc 1 3090 0 discriminator 1
	subs	r3, r3, #1
.LVL687:
	subs	r2, r5, #1
	udiv	r2, r2, r7
	udiv	r1, r3, r7
	.loc 1 3089 0 discriminator 1
	cmp	r2, r1
	bcc	.L663
	.loc 1 3091 0
	negs	r2, r7
	ands	r3, r3, r2
.LVL688:
	.loc 1 3093 0
	ldr	r1, [r4, #20]
	.loc 1 3091 0
	str	r3, [r4, #8]
	.loc 1 3092 0
	subs	r5, r5, r3
.LVL689:
.L664:
	.loc 1 3106 0
	cmp	r1, #0
	beq	.L668
.L669:
	.loc 1 3107 0
	cmp	r5, r7
	bhi	.L675
.LVL690:
.L671:
	.loc 1 3123 0
	ldr	r3, [r4, #8]
	add	r3, r3, r5
	str	r3, [r4, #8]
	.loc 1 3124 0
	ubfx	r3, r5, #0, #9
	cmp	r3, #0
	beq	.L668
	.loc 1 3125 0
	ldr	r0, [r4]
	bl	clust2sect
.LVL691:
	.loc 1 3126 0
	cbz	r0, .L674
	.loc 1 3127 0
	add	r5, r0, r5, lsr #9
.LVL692:
	b	.L662
.LVL693:
.L663:
	.loc 1 3095 0
	ldr	r1, [r4, #16]
.LVL694:
	.loc 1 3097 0
	cbnz	r1, .L665
	.loc 1 3098 0
	bl	create_chain
.LVL695:
	.loc 1 3099 0
	cmp	r0, #1
	.loc 1 3098 0
	mov	r1, r0
.LVL696:
	.loc 1 3099 0
	bne	.L666
.LVL697:
.L674:
	.loc 1 3099 0 is_stmt 0 discriminator 1
	movs	r6, #2
.LVL698:
.L700:
	.loc 1 3100 0 is_stmt 1 discriminator 1
	strb	r6, [r4, #7]
.L658:
.LBE134:
	.loc 1 3154 0
	mov	r0, r6
	pop	{r3, r4, r5, r6, r7, pc}
.LVL699:
.L666:
.LBB135:
	.loc 1 3100 0
	adds	r0, r0, #1
.LVL700:
	bne	.L667
.LVL701:
.L673:
	.loc 1 3100 0 is_stmt 0 discriminator 1
	movs	r6, #1
	b	.L700
.LVL702:
.L667:
	.loc 1 3101 0 is_stmt 1
	str	r1, [r4, #16]
.L665:
	.loc 1 3104 0
	str	r1, [r4, #20]
	b	.L664
.L675:
	.loc 1 3109 0
	ldrb	r3, [r4, #6]	@ zero_extendqisi2
	.loc 1 3110 0
	ldr	r0, [r4]
	.loc 1 3109 0
	lsls	r2, r3, #30
	bpl	.L670
	.loc 1 3110 0
	bl	create_chain
.LVL703:
	.loc 1 3111 0
	mov	r1, r0
	cbnz	r0, .L672
	mov	r5, r7
.LVL704:
	b	.L671
.LVL705:
.L670:
	.loc 1 3116 0
	bl	get_fat
.LVL706:
	mov	r1, r0
.LVL707:
.L672:
	.loc 1 3117 0
	adds	r3, r1, #1
	beq	.L673
	.loc 1 3118 0
	cmp	r1, #1
	bls	.L674
	.loc 1 3118 0 is_stmt 0 discriminator 2
	ldr	r3, [r4]
	ldr	r3, [r3, #20]
	cmp	r1, r3
	bcs	.L674
	.loc 1 3120 0 is_stmt 1
	ldr	r3, [r4, #8]
	.loc 1 3119 0
	str	r1, [r4, #20]
	.loc 1 3120 0
	add	r3, r3, r7
	str	r3, [r4, #8]
	.loc 1 3121 0
	subs	r5, r5, r7
.LVL708:
	b	.L669
.LVL709:
.L677:
.LBE135:
	mov	r6, r3
	b	.L658
	.cfi_endproc
.LFE36:
	.size	f_lseek, .-f_lseek
	.section	.text.f_opendir,"ax",%progbits
	.align	1
	.global	f_opendir
	.syntax unified
	.thumb
	.thumb_func
	.fpu softvfp
	.type	f_opendir, %function
f_opendir:
.LFB37:
	.loc 1 3167 0
	.cfi_startproc
	@ args = 0, pretend = 0, frame = 24
	@ frame_needed = 0, uses_anonymous_args = 0
.LVL710:
	push	{r4, lr}
	.cfi_def_cfa_offset 8
	.cfi_offset 4, -8
	.cfi_offset 14, -4
	sub	sp, sp, #24
	.cfi_def_cfa_offset 32
	.loc 1 3167 0
	str	r1, [sp, #4]
	.loc 1 3173 0
	mov	r4, r0
	cmp	r0, #0
	beq	.L709
	.loc 1 3176 0
	movs	r2, #0
	add	r1, sp, #4
.LVL711:
	add	r0, sp, #8
.LVL712:
	bl	find_volume
.LVL713:
	.loc 1 3177 0
	cbnz	r0, .L703
	.loc 1 3178 0
	ldr	r3, [sp, #8]
	.loc 1 3180 0
	ldr	r1, [sp, #4]
	.loc 1 3178 0
	str	r3, [r4]
	.loc 1 3179 0
	add	r3, sp, #12
	str	r3, [r4, #24]
	ldr	r3, .L724
	.loc 1 3180 0
	mov	r0, r4
.LVL714:
	.loc 1 3179 0
	str	r3, [r4, #28]
	.loc 1 3180 0
	bl	follow_path
.LVL715:
	.loc 1 3182 0
	cbnz	r0, .L704
	.loc 1 3183 0
	ldr	r1, [r4, #20]
	cbz	r1, .L705
	.loc 1 3184 0
	ldrb	r3, [r1, #11]	@ zero_extendqisi2
	lsls	r3, r3, #27
	bmi	.L706
.L707:
	.loc 1 3187 0
	movs	r0, #5
.LVL716:
.L703:
	.loc 1 3207 0 discriminator 1
	movs	r3, #0
	str	r3, [r4]
	b	.L710
.L706:
	.loc 1 3185 0
	ldr	r3, [sp, #8]
	ldrb	r0, [r3]	@ zero_extendqisi2
.LVL717:
	bl	ld_clust.isra.0
.LVL718:
	str	r0, [r4, #8]
.L705:
.LVL719:
	.loc 1 3190 0
	ldr	r3, [sp, #8]
	.loc 1 3191 0
	movs	r1, #0
	.loc 1 3190 0
	ldrh	r3, [r3, #6]
	.loc 1 3191 0
	mov	r0, r4
	.loc 1 3190 0
	strh	r3, [r4, #4]	@ movhi
	.loc 1 3191 0
	bl	dir_sdi
.LVL720:
	.loc 1 3205 0
	cmp	r0, #4
	beq	.L707
	.loc 1 3207 0
	cmp	r0, #0
	bne	.L703
.LVL721:
.L710:
	.loc 1 3210 0
	add	sp, sp, #24
	.cfi_remember_state
	.cfi_def_cfa_offset 8
	@ sp needed
	pop	{r4, pc}
.LVL722:
.L709:
	.cfi_restore_state
	.loc 1 3173 0
	movs	r0, #9
.LVL723:
	b	.L710
.LVL724:
.L704:
	.loc 1 3205 0
	cmp	r0, #4
	beq	.L707
	b	.L703
.L725:
	.align	2
.L724:
	.word	.LANCHOR4
	.cfi_endproc
.LFE37:
	.size	f_opendir, .-f_opendir
	.section	.text.f_closedir,"ax",%progbits
	.align	1
	.global	f_closedir
	.syntax unified
	.thumb
	.thumb_func
	.fpu softvfp
	.type	f_closedir, %function
f_closedir:
.LFB38:
	.loc 1 3222 0
	.cfi_startproc
	@ args = 0, pretend = 0, frame = 0
	@ frame_needed = 0, uses_anonymous_args = 0
.LVL725:
	push	{r4, lr}
	.cfi_def_cfa_offset 8
	.cfi_offset 4, -8
	.cfi_offset 14, -4
	.loc 1 3222 0
	mov	r4, r0
	.loc 1 3226 0
	bl	validate
.LVL726:
	.loc 1 3227 0
	cbnz	r0, .L727
	.loc 1 3236 0
	str	r0, [r4]
.L727:
	.loc 1 3242 0
	pop	{r4, pc}
	.cfi_endproc
.LFE38:
	.size	f_closedir, .-f_closedir
	.section	.text.f_readdir,"ax",%progbits
	.align	1
	.global	f_readdir
	.syntax unified
	.thumb
	.thumb_func
	.fpu softvfp
	.type	f_readdir, %function
f_readdir:
.LFB39:
	.loc 1 3255 0
	.cfi_startproc
	@ args = 0, pretend = 0, frame = 16
	@ frame_needed = 0, uses_anonymous_args = 0
.LVL727:
	push	{r0, r1, r2, r3, r4, r5, r6, lr}
	.cfi_def_cfa_offset 32
	.cfi_offset 4, -16
	.cfi_offset 5, -12
	.cfi_offset 6, -8
	.cfi_offset 14, -4
	.loc 1 3255 0
	mov	r4, r0
	mov	r6, r1
	.loc 1 3260 0
	bl	validate
.LVL728:
	.loc 1 3261 0
	mov	r5, r0
	cbnz	r0, .L729
	.loc 1 3262 0
	cbnz	r6, .L730
	.loc 1 3263 0
	mov	r1, r0
	mov	r0, r4
.LVL729:
	bl	dir_sdi
.LVL730:
.L734:
	mov	r5, r0
	b	.L729
.LVL731:
.L730:
	.loc 1 3265 0
	add	r3, sp, #4
	str	r3, [r4, #24]
	ldr	r3, .L735
	.loc 1 3266 0
	mov	r0, r4
.LVL732:
	.loc 1 3265 0
	str	r3, [r4, #28]
	.loc 1 3266 0
	bl	dir_read.constprop.9
.LVL733:
	.loc 1 3267 0
	cmp	r0, #4
	bne	.L731
	.loc 1 3268 0
	str	r5, [r4, #16]
.LVL734:
.L732:
	.loc 1 3272 0
	mov	r1, r6
	mov	r0, r4
	bl	get_fileinfo
.LVL735:
	.loc 1 3273 0
	movs	r1, #0
	mov	r0, r4
	bl	dir_next
.LVL736:
	.loc 1 3274 0
	cmp	r0, #4
	bne	.L734
	.loc 1 3275 0
	movs	r3, #0
	str	r3, [r4, #16]
.LVL737:
.L729:
	.loc 1 3284 0
	mov	r0, r5
	add	sp, sp, #16
	.cfi_remember_state
	.cfi_def_cfa_offset 16
	@ sp needed
	pop	{r4, r5, r6, pc}
.LVL738:
.L731:
	.cfi_restore_state
	.loc 1 3271 0
	cmp	r0, #0
	bne	.L734
	b	.L732
.L736:
	.align	2
.L735:
	.word	.LANCHOR4
	.cfi_endproc
.LFE39:
	.size	f_readdir, .-f_readdir
	.section	.text.f_stat,"ax",%progbits
	.align	1
	.global	f_stat
	.syntax unified
	.thumb
	.thumb_func
	.fpu softvfp
	.type	f_stat, %function
f_stat:
.LFB40:
	.loc 1 3297 0
	.cfi_startproc
	@ args = 0, pretend = 0, frame = 56
	@ frame_needed = 0, uses_anonymous_args = 0
.LVL739:
	push	{r4, r5, lr}
	.cfi_def_cfa_offset 12
	.cfi_offset 4, -12
	.cfi_offset 5, -8
	.cfi_offset 14, -4
	sub	sp, sp, #60
	.cfi_def_cfa_offset 72
	.loc 1 3297 0
	add	r3, sp, #56
	str	r0, [r3, #-52]!
	mov	r5, r1
	.loc 1 3304 0
	movs	r2, #0
	mov	r1, r3
.LVL740:
	add	r0, sp, #20
.LVL741:
	bl	find_volume
.LVL742:
	.loc 1 3305 0
	mov	r4, r0
	cbnz	r0, .L738
	.loc 1 3306 0
	add	r3, sp, #8
	str	r3, [sp, #44]
	ldr	r3, .L743
	.loc 1 3307 0
	ldr	r1, [sp, #4]
	add	r0, sp, #20
.LVL743:
	.loc 1 3306 0
	str	r3, [sp, #48]
	.loc 1 3307 0
	bl	follow_path
.LVL744:
	.loc 1 3308 0
	mov	r4, r0
	cbnz	r0, .L738
	.loc 1 3309 0
	ldr	r3, [sp, #40]
	cbz	r3, .L739
	.loc 1 3310 0
	cbz	r5, .L738
	.loc 1 3310 0 is_stmt 0 discriminator 1
	mov	r1, r5
	add	r0, sp, #20
.LVL745:
	bl	get_fileinfo
.LVL746:
.L738:
	.loc 1 3319 0 is_stmt 1
	mov	r0, r4
	add	sp, sp, #60
	.cfi_remember_state
	.cfi_def_cfa_offset 12
	@ sp needed
	pop	{r4, r5, pc}
.LVL747:
.L739:
	.cfi_restore_state
	.loc 1 3312 0
	movs	r4, #6
	b	.L738
.L744:
	.align	2
.L743:
	.word	.LANCHOR4
	.cfi_endproc
.LFE40:
	.size	f_stat, .-f_stat
	.section	.text.f_getfree,"ax",%progbits
	.align	1
	.global	f_getfree
	.syntax unified
	.thumb
	.thumb_func
	.fpu softvfp
	.type	f_getfree, %function
f_getfree:
.LFB41:
	.loc 1 3333 0
	.cfi_startproc
	@ args = 0, pretend = 0, frame = 8
	@ frame_needed = 0, uses_anonymous_args = 0
.LVL748:
	push	{r0, r1, r4, r5, r6, r7, r8, r9, r10, lr}
	.cfi_def_cfa_offset 40
	.cfi_offset 4, -32
	.cfi_offset 5, -28
	.cfi_offset 6, -24
	.cfi_offset 7, -20
	.cfi_offset 8, -16
	.cfi_offset 9, -12
	.cfi_offset 10, -8
	.cfi_offset 14, -4
	.loc 1 3333 0
	mov	r4, r2
	add	r3, sp, #8
	str	r0, [r3, #-4]!
	mov	r8, r1
	.loc 1 3342 0
	movs	r2, #0
.LVL749:
	mov	r1, r3
.LVL750:
	mov	r0, r4
.LVL751:
	bl	find_volume
.LVL752:
	.loc 1 3344 0
	mov	r5, r0
	cbnz	r0, .L746
	.loc 1 3343 0
	ldr	r4, [r4]
.LVL753:
	.loc 1 3346 0
	ldr	r7, [r4, #20]
	ldr	r3, [r4, #16]
	subs	r2, r7, #2
	cmp	r3, r2
	bhi	.L747
	.loc 1 3347 0
	str	r3, [r8]
.LVL754:
.L746:
	.loc 1 3386 0
	mov	r0, r5
	add	sp, sp, #8
	.cfi_remember_state
	.cfi_def_cfa_offset 32
	@ sp needed
	pop	{r4, r5, r6, r7, r8, r9, r10, pc}
.LVL755:
.L747:
	.cfi_restore_state
	.loc 1 3350 0
	ldrb	r9, [r4]	@ zero_extendqisi2
.LVL756:
	.loc 1 3352 0
	cmp	r9, #1
	bne	.L748
	movs	r7, #2
	mov	r6, r0
.LVL757:
.L751:
	.loc 1 3355 0
	mov	r1, r7
	mov	r0, r4
	bl	get_fat
.LVL758:
	.loc 1 3356 0
	adds	r3, r0, #1
	beq	.L758
	.loc 1 3357 0
	cmp	r0, #1
	beq	.L759
	.loc 1 3358 0
	cbnz	r0, .L750
	.loc 1 3358 0 is_stmt 0 discriminator 1
	adds	r6, r6, #1
.LVL759:
.L750:
	.loc 1 3359 0 is_stmt 1
	ldr	r3, [r4, #20]
	adds	r7, r7, #1
.LVL760:
	cmp	r7, r3
	bcc	.L751
.LVL761:
.L749:
	.loc 1 3381 0
	ldrb	r3, [r4, #5]	@ zero_extendqisi2
	.loc 1 3380 0
	str	r6, [r4, #16]
	.loc 1 3381 0
	orr	r3, r3, #1
	strb	r3, [r4, #5]
	.loc 1 3382 0
	str	r6, [r8]
	b	.L746
.LVL762:
.L748:
	.loc 1 3363 0
	mov	r3, r0
	mov	r2, r0
	.loc 1 3351 0
	mov	r6, r0
	.loc 1 3362 0
	ldr	r1, [r4, #32]
.LVL763:
.L757:
	.loc 1 3365 0
	cbnz	r2, .L752
.LVL764:
	.loc 1 3366 0
	mov	r0, r4
	add	r10, r1, #1
.LVL765:
	bl	move_window
.LVL766:
	.loc 1 3367 0
	cbnz	r0, .L760
.LVL767:
	.loc 1 3366 0
	mov	r1, r10
	.loc 1 3369 0
	mov	r2, #512
	.loc 1 3368 0
	add	r3, r4, #48
.LVL768:
.L752:
	.loc 1 3371 0
	cmp	r9, #2
	bne	.L753
	.loc 1 3372 0
	ldrb	ip, [r3, #1]	@ zero_extendqisi2
	ldrb	r0, [r3]	@ zero_extendqisi2
	.loc 1 3373 0
	subs	r2, r2, #2
.LVL769:
	.loc 1 3372 0
	orrs	r0, r0, ip, lsl #8
	it	eq
	addeq	r6, r6, #1
.LVL770:
	.loc 1 3373 0
	adds	r3, r3, #2
.LVL771:
.L755:
	.loc 1 3378 0
	subs	r7, r7, #1
.LVL772:
	bne	.L757
	b	.L749
.LVL773:
.L753:
	.loc 1 3375 0
	ldr	r0, [r3]	@ unaligned
	.loc 1 3376 0
	subs	r2, r2, #4
.LVL774:
	.loc 1 3375 0
	bics	r0, r0, #-268435456
	it	eq
	addeq	r6, r6, #1
.LVL775:
	.loc 1 3376 0
	adds	r3, r3, #4
.LVL776:
	b	.L755
.LVL777:
.L758:
	.loc 1 3356 0
	movs	r5, #1
	b	.L749
.L759:
	.loc 1 3357 0
	movs	r5, #2
	b	.L749
.LVL778:
.L760:
	.loc 1 3366 0
	mov	r5, r0
	b	.L749
	.cfi_endproc
.LFE41:
	.size	f_getfree, .-f_getfree
	.section	.text.f_truncate,"ax",%progbits
	.align	1
	.global	f_truncate
	.syntax unified
	.thumb
	.thumb_func
	.fpu softvfp
	.type	f_truncate, %function
f_truncate:
.LFB42:
	.loc 1 3398 0
	.cfi_startproc
	@ args = 0, pretend = 0, frame = 0
	@ frame_needed = 0, uses_anonymous_args = 0
.LVL779:
	push	{r4, r5, r6, lr}
	.cfi_def_cfa_offset 16
	.cfi_offset 4, -16
	.cfi_offset 5, -12
	.cfi_offset 6, -8
	.cfi_offset 14, -4
	.loc 1 3398 0
	mov	r4, r0
	.loc 1 3403 0
	bl	validate
.LVL780:
	.loc 1 3404 0
	mov	r5, r0
	cbnz	r0, .L779
	.loc 1 3405 0
	ldrb	r3, [r4, #7]	@ zero_extendqisi2
	cbnz	r3, .L776
	.loc 1 3408 0
	ldrb	r3, [r4, #6]	@ zero_extendqisi2
	lsls	r1, r3, #30
	bpl	.L777
.LVL781:
	.loc 1 3413 0
	ldr	r2, [r4, #8]
	ldr	r1, [r4, #12]
	cmp	r1, r2
	bls	.L779
	.loc 1 3415 0
	orr	r3, r3, #32
	.loc 1 3414 0
	str	r2, [r4, #12]
	.loc 1 3415 0
	strb	r3, [r4, #6]
	.loc 1 3416 0
	cbnz	r2, .L766
	.loc 1 3417 0
	ldr	r1, [r4, #16]
	ldr	r0, [r4]
	bl	remove_chain
.LVL782:
	.loc 1 3418 0
	str	r5, [r4, #16]
.L767:
	.loc 1 3430 0
	cbnz	r0, .L769
.LVL783:
.L775:
	ldrb	r3, [r4, #6]	@ zero_extendqisi2
	lsls	r3, r3, #25
	bpl	.L779
	.loc 1 3431 0
	ldr	r0, [r4]
	movs	r3, #1
	ldr	r2, [r4, #24]
	add	r1, r4, #36
	ldrb	r0, [r0, #1]	@ zero_extendqisi2
	bl	disk_write
.LVL784:
	cbnz	r0, .L768
	.loc 1 3434 0
	ldrb	r3, [r4, #6]	@ zero_extendqisi2
	bic	r3, r3, #64
	strb	r3, [r4, #6]
.L779:
	.loc 1 3442 0
	mov	r0, r5
	pop	{r4, r5, r6, pc}
.LVL785:
.L766:
	.loc 1 3420 0
	ldr	r1, [r4, #20]
	ldr	r0, [r4]
	bl	get_fat
.LVL786:
	.loc 1 3422 0
	adds	r2, r0, #1
	.loc 1 3420 0
	mov	r6, r0
.LVL787:
	.loc 1 3422 0
	beq	.L768
	.loc 1 3423 0
	cmp	r0, #1
	bne	.L784
	movs	r0, #2
.LVL788:
	b	.L769
.LVL789:
.L776:
	mov	r5, r3
	b	.L779
.L777:
	.loc 1 3409 0
	movs	r5, #7
	b	.L779
.LVL790:
.L768:
	.loc 1 3422 0
	movs	r0, #1
.L769:
.LVL791:
	.loc 1 3438 0
	strb	r0, [r4, #7]
	mov	r5, r0
	.loc 1 3441 0
	b	.L779
.LVL792:
.L784:
	.loc 1 3424 0
	ldr	r0, [r4]
.LVL793:
	ldr	r3, [r0, #20]
	cmp	r6, r3
	bcs	.L775
	.loc 1 3425 0
	mvn	r2, #-268435456
	ldr	r1, [r4, #20]
	bl	put_fat
.LVL794:
	.loc 1 3426 0
	cmp	r0, #0
	bne	.L769
	.loc 1 3426 0 is_stmt 0 discriminator 1
	mov	r1, r6
	ldr	r0, [r4]
.LVL795:
	bl	remove_chain
.LVL796:
	b	.L767
	.cfi_endproc
.LFE42:
	.size	f_truncate, .-f_truncate
	.section	.text.f_unlink,"ax",%progbits
	.align	1
	.global	f_unlink
	.syntax unified
	.thumb
	.thumb_func
	.fpu softvfp
	.type	f_unlink, %function
f_unlink:
.LFB43:
	.loc 1 3454 0 is_stmt 1
	.cfi_startproc
	@ args = 0, pretend = 0, frame = 96
	@ frame_needed = 0, uses_anonymous_args = 0
.LVL797:
	push	{r4, r5, r6, lr}
	.cfi_def_cfa_offset 16
	.cfi_offset 4, -16
	.cfi_offset 5, -12
	.cfi_offset 6, -8
	.cfi_offset 14, -4
	sub	sp, sp, #96
	.cfi_def_cfa_offset 112
	.loc 1 3454 0
	add	r1, sp, #96
	str	r0, [r1, #-92]!
	.loc 1 3463 0
	movs	r2, #1
	add	r0, sp, #24
.LVL798:
	bl	find_volume
.LVL799:
	.loc 1 3464 0
	mov	r4, r0
	cmp	r0, #0
	bne	.L795
	.loc 1 3465 0
	add	r3, sp, #12
	str	r3, [sp, #48]
	ldr	r3, .L807
	.loc 1 3466 0
	ldr	r1, [sp, #4]
	add	r0, sp, #24
.LVL800:
	.loc 1 3465 0
	str	r3, [sp, #52]
	.loc 1 3466 0
	bl	follow_path
.LVL801:
	.loc 1 3472 0
	mov	r4, r0
	cbnz	r0, .L795
	.loc 1 3473 0
	ldr	r5, [sp, #44]
.LVL802:
	.loc 1 3474 0
	cbz	r5, .L792
	.loc 1 3477 0
	ldrb	r3, [r5, #11]	@ zero_extendqisi2
	.loc 1 3478 0
	tst	r3, #1
	it	ne
	movne	r4, #7
.L787:
.LVL803:
	.loc 1 3480 0
	ldr	r3, [sp, #24]
	mov	r1, r5
	ldrb	r0, [r3]	@ zero_extendqisi2
	bl	ld_clust.isra.0
.LVL804:
	mov	r6, r0
.LVL805:
	.loc 1 3481 0
	cbnz	r4, .L795
.LVL806:
	.loc 1 3481 0 is_stmt 0 discriminator 1
	ldrb	r3, [r5, #11]	@ zero_extendqisi2
	lsls	r3, r3, #27
	bpl	.L788
	.loc 1 3482 0 is_stmt 1
	cmp	r0, #1
	bls	.L793
	.loc 1 3485 0
	add	r4, sp, #60
	add	r5, sp, #24
	ldmia	r5!, {r0, r1, r2, r3}
.LVL807:
	stmia	r4!, {r0, r1, r2, r3}
	ldmia	r5!, {r0, r1, r2, r3}
	stmia	r4!, {r0, r1, r2, r3}
	ldr	r3, [r5]
	.loc 1 3487 0
	movs	r1, #2
	.loc 1 3485 0
	str	r3, [r4]
	.loc 1 3487 0
	add	r0, sp, #60
	.loc 1 3486 0
	str	r6, [sp, #68]
	.loc 1 3487 0
	bl	dir_sdi
.LVL808:
	.loc 1 3488 0
	mov	r4, r0
	cbnz	r0, .L795
	.loc 1 3489 0
	add	r0, sp, #60
.LVL809:
	bl	dir_read.constprop.9
.LVL810:
	.loc 1 3490 0
	mov	r4, r0
	cbz	r0, .L794
	.loc 1 3495 0
	cmp	r0, #4
	beq	.L788
.LVL811:
.L795:
	.loc 1 3512 0
	mov	r0, r4
	add	sp, sp, #96
	.cfi_remember_state
	.cfi_def_cfa_offset 16
	@ sp needed
	pop	{r4, r5, r6, pc}
.LVL812:
.L792:
	.cfi_restore_state
	.loc 1 3475 0
	movs	r4, #6
	b	.L787
.LVL813:
.L789:
	.loc 1 3503 0
	mov	r1, r6
	ldr	r0, [sp, #24]
.LVL814:
	bl	remove_chain
.LVL815:
	.loc 1 3504 0
	mov	r4, r0
	cmp	r0, #0
	bne	.L795
	b	.L790
.LVL816:
.L793:
	.loc 1 3483 0
	movs	r4, #2
	b	.L795
.LVL817:
.L794:
	.loc 1 3494 0
	movs	r4, #7
	b	.L795
.LVL818:
.L788:
	.loc 1 3500 0
	add	r0, sp, #24
	bl	dir_remove
.LVL819:
	.loc 1 3501 0
	mov	r4, r0
	cmp	r0, #0
	bne	.L795
	.loc 1 3502 0
	cmp	r6, #0
	bne	.L789
.L790:
.LVL820:
	.loc 1 3504 0
	ldr	r0, [sp, #24]
	bl	sync_fs
.LVL821:
	mov	r4, r0
.LVL822:
	b	.L795
.L808:
	.align	2
.L807:
	.word	.LANCHOR4
	.cfi_endproc
.LFE43:
	.size	f_unlink, .-f_unlink
	.section	.text.f_mkdir,"ax",%progbits
	.align	1
	.global	f_mkdir
	.syntax unified
	.thumb
	.thumb_func
	.fpu softvfp
	.type	f_mkdir, %function
f_mkdir:
.LFB44:
	.loc 1 3524 0
	.cfi_startproc
	@ args = 0, pretend = 0, frame = 72
	@ frame_needed = 0, uses_anonymous_args = 0
.LVL823:
	push	{r4, r5, r6, r7, r8, r9, r10, fp, lr}
	.cfi_def_cfa_offset 36
	.cfi_offset 4, -36
	.cfi_offset 5, -32
	.cfi_offset 6, -28
	.cfi_offset 7, -24
	.cfi_offset 8, -20
	.cfi_offset 9, -16
	.cfi_offset 10, -12
	.cfi_offset 11, -8
	.cfi_offset 14, -4
	sub	sp, sp, #76
	.cfi_def_cfa_offset 112
	.loc 1 3524 0
	add	r4, sp, #72
	str	r0, [r4, #-52]!
	.loc 1 3528 0
	bl	get_fattime
.LVL824:
	.loc 1 3533 0
	mov	r1, r4
	.loc 1 3528 0
	mov	r6, r0
.LVL825:
	.loc 1 3533 0
	movs	r2, #1
	add	r0, sp, #36
.LVL826:
	bl	find_volume
.LVL827:
	mov	r4, r0
	mov	r5, r0
.LVL828:
	.loc 1 3534 0
	cmp	r0, #0
	bne	.L824
	.loc 1 3535 0
	add	r3, sp, #24
	str	r3, [sp, #60]
	ldr	r3, .L830
	.loc 1 3536 0
	ldr	r1, [sp, #20]
	add	r0, sp, #36
.LVL829:
	.loc 1 3535 0
	str	r3, [sp, #64]
	.loc 1 3536 0
	bl	follow_path
.LVL830:
	.loc 1 3537 0
	mov	r4, r0
	cmp	r0, #0
	beq	.L820
	.loc 1 3540 0
	cmp	r0, #4
	bne	.L824
	.loc 1 3541 0
	mov	r1, r5
	ldr	r0, [sp, #36]
.LVL831:
	bl	create_chain
.LVL832:
	.loc 1 3543 0
	mov	r5, r0
	cmp	r0, #0
	beq	.L821
	.loc 1 3544 0
	cmp	r0, #1
	beq	.L822
	.loc 1 3545 0
	adds	r3, r0, #1
	beq	.L823
	.loc 1 3547 0
	ldr	r0, [sp, #36]
.LVL833:
	bl	sync_window
.LVL834:
	.loc 1 3548 0
	mov	r4, r0
	cmp	r0, #0
	bne	.L811
	.loc 1 3549 0
	ldr	r7, [sp, #36]
	mov	r1, r5
	mov	r0, r7
.LVL835:
	bl	clust2sect
.LVL836:
	.loc 1 3550 0
	add	r8, r7, #48
	.loc 1 3549 0
	str	r0, [sp, #16]
.LVL837:
	.loc 1 3551 0
	mov	r2, #512
	mov	r1, r4
	mov	r0, r8
.LVL838:
	bl	memset
.LVL839:
	.loc 1 3552 0
	mov	r2, #538976288
	str	r2, [r7, #48]	@ unaligned
	str	r2, [r8, #4]	@ unaligned
	str	r2, [r8, #7]	@ unaligned
	.loc 1 3553 0
	movs	r2, #46
	strb	r2, [r7, #48]
	.loc 1 3554 0
	movs	r2, #16
	.loc 1 3555 0
	ubfx	r3, r6, #16, #8
	str	r3, [sp]
	ldrb	r3, [sp]	@ zero_extendqisi2
	.loc 1 3557 0
	add	r1, r7, #80
	.loc 1 3555 0
	uxtb	r10, r6
	ubfx	fp, r6, #8, #8
	.loc 1 3554 0
	strb	r2, [r7, #59]
	.loc 1 3555 0
	strb	r3, [r7, #72]
	.loc 1 3557 0
	mov	r0, r1
	.loc 1 3555 0
	lsrs	r3, r6, #24
.LBB144:
.LBB145:
	.loc 1 1298 0
	lsr	r6, r5, r2
.LVL840:
.LBE145:
.LBE144:
	.loc 1 3557 0
	mov	r2, r8
	.loc 1 3555 0
	str	r3, [sp, #4]
	ldrb	r3, [sp, #4]	@ zero_extendqisi2
.LBB150:
.LBB146:
	.loc 1 1298 0
	uxtb	r9, r6
.LBE146:
.LBE150:
	.loc 1 3555 0
	strb	r3, [r7, #73]
.LVL841:
.LBB151:
.LBB147:
	.loc 1 1297 0
	uxtb	r3, r5
	str	r3, [sp, #8]
	ldrb	r3, [sp, #8]	@ zero_extendqisi2
	.loc 1 1298 0
	lsrs	r6, r6, #8
	.loc 1 1297 0
	strb	r3, [r7, #74]
	ubfx	r3, r5, #8, #8
	str	r3, [sp, #12]
	ldrb	r3, [sp, #12]	@ zero_extendqisi2
.LBE147:
.LBE151:
	.loc 1 3555 0
	strb	r10, [r7, #70]
.LBB152:
.LBB148:
	.loc 1 1297 0
	strb	r3, [r7, #75]
.LBE148:
.LBE152:
	.loc 1 3557 0
	ldr	r3, [sp, #16]
	.loc 1 3555 0
	strb	fp, [r7, #71]
.LBB153:
.LBB149:
	.loc 1 1298 0
	strb	r9, [r7, #68]
	strb	r6, [r7, #69]
.LVL842:
.L813:
.LBE149:
.LBE153:
	.loc 1 3557 0
	ldr	r4, [r2], #4	@ unaligned
	cmp	r2, r1
	str	r4, [r0], #4	@ unaligned
	bne	.L813
	.loc 1 3558 0
	movs	r2, #46
	.loc 1 3559 0
	ldrb	r1, [r7]	@ zero_extendqisi2
	.loc 1 3558 0
	strb	r2, [r7, #81]
	.loc 1 3559 0
	cmp	r1, #3
	.loc 1 3558 0
	ldr	r2, [sp, #44]
.LVL843:
	.loc 1 3559 0
	bne	.L814
	.loc 1 3559 0 is_stmt 0 discriminator 1
	ldr	r1, [r7, #36]
	.loc 1 3560 0 is_stmt 1 discriminator 1
	cmp	r2, r1
	it	eq
	moveq	r2, #0
.LVL844:
.L814:
.LBB154:
.LBB155:
	.loc 1 1297 0
	strb	r2, [r7, #106]
	ubfx	r1, r2, #8, #8
	.loc 1 1298 0
	lsrs	r2, r2, #16
.LVL845:
	strb	r2, [r7, #100]
	lsrs	r2, r2, #8
	.loc 1 1297 0
	strb	r1, [r7, #107]
	.loc 1 1298 0
	strb	r2, [r7, #101]
.LVL846:
.LBE155:
.LBE154:
	.loc 1 3562 0
	ldrb	r7, [r7, #2]	@ zero_extendqisi2
.LVL847:
.L815:
	.loc 1 3562 0 is_stmt 0 discriminator 1
	cbnz	r7, .L816
	.loc 1 3570 0 is_stmt 1
	add	r0, sp, #36
	bl	dir_register
.LVL848:
	.loc 1 3571 0
	mov	r4, r0
	cbnz	r0, .L811
	.loc 1 3575 0
	movs	r2, #16
	.loc 1 3574 0
	ldr	r3, [sp, #56]
.LVL849:
	.loc 1 3578 0
	ldr	r0, [sp, #36]
.LVL850:
	.loc 1 3575 0
	strb	r2, [r3, #11]
	.loc 1 3576 0
	ldrb	r2, [sp]	@ zero_extendqisi2
	strb	r10, [r3, #22]
	strb	r2, [r3, #24]
	ldrb	r2, [sp, #4]	@ zero_extendqisi2
	strb	fp, [r3, #23]
	strb	r2, [r3, #25]
.LVL851:
.LBB156:
.LBB157:
	.loc 1 1297 0
	ldrb	r2, [sp, #8]	@ zero_extendqisi2
	.loc 1 1298 0
	strb	r9, [r3, #20]
	.loc 1 1297 0
	strb	r2, [r3, #26]
	ldrb	r2, [sp, #12]	@ zero_extendqisi2
	.loc 1 1298 0
	strb	r6, [r3, #21]
.LVL852:
	.loc 1 1297 0
	strb	r2, [r3, #27]
.LBE157:
.LBE156:
	.loc 1 3578 0
	movs	r3, #1
.LVL853:
	strb	r3, [r0, #4]
	.loc 1 3579 0
	bl	sync_fs
.LVL854:
	mov	r4, r0
.LVL855:
	b	.L824
.LVL856:
.L816:
	.loc 1 3563 0
	ldr	r0, [sp, #36]
	adds	r2, r3, #1
	str	r3, [r0, #44]
	.loc 1 3564 0
	mov	r3, #1
.LVL857:
	strb	r3, [r0, #4]
	.loc 1 3563 0
	str	r2, [sp, #16]
.LVL858:
.LBB158:
.LBB159:
	bl	sync_window.part.1
.LVL859:
.LBE159:
.LBE158:
	.loc 1 3566 0
	mov	r4, r0
	cbnz	r0, .L811
	.loc 1 3567 0 discriminator 2
	mov	r1, r0
	mov	r2, #512
	mov	r0, r8
	.loc 1 3562 0 discriminator 2
	subs	r7, r7, #1
.LVL860:
	.loc 1 3567 0 discriminator 2
	bl	memset
.LVL861:
	.loc 1 3562 0 discriminator 2
	uxtb	r7, r7
.LVL862:
	.loc 1 3563 0 discriminator 2
	ldr	r3, [sp, #16]
	b	.L815
.LVL863:
.L821:
	.loc 1 3543 0
	movs	r4, #7
.LVL864:
.L811:
	.loc 1 3572 0
	mov	r1, r5
	ldr	r0, [sp, #36]
	bl	remove_chain
.LVL865:
.L824:
	.loc 1 3586 0
	mov	r0, r4
	add	sp, sp, #76
	.cfi_remember_state
	.cfi_def_cfa_offset 36
	@ sp needed
	pop	{r4, r5, r6, r7, r8, r9, r10, fp, pc}
.LVL866:
.L822:
	.cfi_restore_state
	.loc 1 3544 0
	movs	r4, #2
	b	.L811
.L823:
	.loc 1 3545 0
	movs	r4, #1
	b	.L811
.LVL867:
.L820:
	.loc 1 3537 0
	movs	r4, #8
	.loc 1 3585 0
	b	.L824
.L831:
	.align	2
.L830:
	.word	.LANCHOR4
	.cfi_endproc
.LFE44:
	.size	f_mkdir, .-f_mkdir
	.section	.text.f_chmod,"ax",%progbits
	.align	1
	.global	f_chmod
	.syntax unified
	.thumb
	.thumb_func
	.fpu softvfp
	.type	f_chmod, %function
f_chmod:
.LFB45:
	.loc 1 3600 0
	.cfi_startproc
	@ args = 0, pretend = 0, frame = 56
	@ frame_needed = 0, uses_anonymous_args = 0
.LVL868:
	push	{r4, r5, lr}
	.cfi_def_cfa_offset 12
	.cfi_offset 4, -12
	.cfi_offset 5, -8
	.cfi_offset 14, -4
	sub	sp, sp, #60
	.cfi_def_cfa_offset 72
	.loc 1 3600 0
	add	r3, sp, #56
	str	r0, [r3, #-52]!
	mov	r5, r1
	mov	r4, r2
	.loc 1 3608 0
	mov	r1, r3
.LVL869:
	movs	r2, #1
.LVL870:
	add	r0, sp, #20
.LVL871:
	bl	find_volume
.LVL872:
	.loc 1 3609 0
	cbnz	r0, .L833
	.loc 1 3610 0
	add	r3, sp, #8
	str	r3, [sp, #44]
	ldr	r3, .L835
	.loc 1 3611 0
	ldr	r1, [sp, #4]
	add	r0, sp, #20
.LVL873:
	.loc 1 3610 0
	str	r3, [sp, #48]
	.loc 1 3611 0
	bl	follow_path
.LVL874:
	.loc 1 3615 0
	cbnz	r0, .L833
	.loc 1 3616 0
	ldr	r2, [sp, #40]
.LVL875:
	.loc 1 3617 0
	cbz	r2, .L834
.LVL876:
	.loc 1 3621 0
	ldrb	r3, [r2, #11]	@ zero_extendqisi2
	.loc 1 3622 0
	ldr	r0, [sp, #20]
.LVL877:
	.loc 1 3621 0
	eors	r5, r5, r3
	ands	r4, r4, r5
.LVL878:
	and	r4, r4, #39
	eors	r4, r4, r3
	.loc 1 3622 0
	movs	r3, #1
	.loc 1 3621 0
	strb	r4, [r2, #11]
	.loc 1 3622 0
	strb	r3, [r0, #4]
	.loc 1 3623 0
	bl	sync_fs
.LVL879:
.L833:
	.loc 1 3629 0
	add	sp, sp, #60
	.cfi_remember_state
	.cfi_def_cfa_offset 12
	@ sp needed
	pop	{r4, r5, pc}
.LVL880:
.L834:
	.cfi_restore_state
	.loc 1 3618 0
	movs	r0, #6
.LVL881:
	b	.L833
.L836:
	.align	2
.L835:
	.word	.LANCHOR4
	.cfi_endproc
.LFE45:
	.size	f_chmod, .-f_chmod
	.section	.text.f_utime,"ax",%progbits
	.align	1
	.global	f_utime
	.syntax unified
	.thumb
	.thumb_func
	.fpu softvfp
	.type	f_utime, %function
f_utime:
.LFB46:
	.loc 1 3642 0
	.cfi_startproc
	@ args = 0, pretend = 0, frame = 56
	@ frame_needed = 0, uses_anonymous_args = 0
.LVL882:
	push	{r4, lr}
	.cfi_def_cfa_offset 8
	.cfi_offset 4, -8
	.cfi_offset 14, -4
	sub	sp, sp, #56
	.cfi_def_cfa_offset 64
	.loc 1 3642 0
	add	r3, sp, #56
	str	r0, [r3, #-52]!
	mov	r4, r1
	.loc 1 3650 0
	movs	r2, #1
	mov	r1, r3
.LVL883:
	add	r0, sp, #20
.LVL884:
	bl	find_volume
.LVL885:
	.loc 1 3651 0
	cbnz	r0, .L838
	.loc 1 3652 0
	add	r3, sp, #8
	str	r3, [sp, #44]
	ldr	r3, .L840
	.loc 1 3653 0
	ldr	r1, [sp, #4]
	add	r0, sp, #20
.LVL886:
	.loc 1 3652 0
	str	r3, [sp, #48]
	.loc 1 3653 0
	bl	follow_path
.LVL887:
	.loc 1 3657 0
	cbnz	r0, .L838
	.loc 1 3658 0
	ldr	r3, [sp, #40]
.LVL888:
	.loc 1 3659 0
	cbz	r3, .L839
	.loc 1 3662 0
	ldrh	r2, [r4, #6]
	.loc 1 3664 0
	ldr	r0, [sp, #20]
.LVL889:
	.loc 1 3662 0
	strb	r2, [r3, #22]
	ldrh	r2, [r4, #6]
	lsrs	r2, r2, #8
	strb	r2, [r3, #23]
	.loc 1 3663 0
	ldrh	r2, [r4, #4]
	strb	r2, [r3, #24]
	ldrh	r2, [r4, #4]
	lsrs	r2, r2, #8
	strb	r2, [r3, #25]
	.loc 1 3664 0
	movs	r3, #1
.LVL890:
	strb	r3, [r0, #4]
	.loc 1 3665 0
	bl	sync_fs
.LVL891:
.L838:
	.loc 1 3671 0
	add	sp, sp, #56
	.cfi_remember_state
	.cfi_def_cfa_offset 8
	@ sp needed
	pop	{r4, pc}
.LVL892:
.L839:
	.cfi_restore_state
	.loc 1 3660 0
	movs	r0, #6
.LVL893:
	b	.L838
.L841:
	.align	2
.L840:
	.word	.LANCHOR4
	.cfi_endproc
.LFE46:
	.size	f_utime, .-f_utime
	.section	.text.f_rename,"ax",%progbits
	.align	1
	.global	f_rename
	.syntax unified
	.thumb
	.thumb_func
	.fpu softvfp
	.type	f_rename, %function
f_rename:
.LFB47:
	.loc 1 3684 0
	.cfi_startproc
	@ args = 0, pretend = 0, frame = 120
	@ frame_needed = 0, uses_anonymous_args = 0
.LVL894:
	push	{r4, r5, lr}
	.cfi_def_cfa_offset 12
	.cfi_offset 4, -12
	.cfi_offset 5, -8
	.cfi_offset 14, -4
	sub	sp, sp, #124
	.cfi_def_cfa_offset 136
	.loc 1 3684 0
	str	r0, [sp, #4]
	str	r1, [sp]
	.loc 1 3693 0
	movs	r2, #1
	add	r1, sp, #4
.LVL895:
	add	r0, sp, #48
.LVL896:
	bl	find_volume
.LVL897:
	.loc 1 3694 0
	cmp	r0, #0
	bne	.L856
	.loc 1 3695 0
	ldr	r3, [sp, #48]
	.loc 1 3697 0
	ldr	r1, [sp, #4]
	.loc 1 3695 0
	str	r3, [sp, #84]
	.loc 1 3696 0
	add	r3, sp, #12
	str	r3, [sp, #72]
	ldr	r3, .L862
	.loc 1 3697 0
	add	r0, sp, #48
.LVL898:
	.loc 1 3696 0
	str	r3, [sp, #76]
	.loc 1 3697 0
	bl	follow_path
.LVL899:
	.loc 1 3703 0
	cmp	r0, #0
	bne	.L856
	.loc 1 3704 0
	ldr	r4, [sp, #68]
	cmp	r4, #0
	beq	.L851
	.loc 1 3707 0
	add	r3, r4, #11
	add	r2, sp, #24
	adds	r4, r4, #27
.LVL900:
.L844:
	mov	r5, r2
	ldr	r0, [r3]	@ unaligned
	ldr	r1, [r3, #4]	@ unaligned
	adds	r3, r3, #8
	stmia	r5!, {r0, r1}
	cmp	r3, r4
	mov	r2, r5
	bne	.L844
	ldr	r0, [r3]	@ unaligned
	.loc 1 3708 0
	add	r4, sp, #84
	.loc 1 3707 0
	str	r0, [r5]
	ldrb	r3, [r3, #4]	@ zero_extendqisi2
	strb	r3, [r5, #4]
	.loc 1 3708 0
	add	r5, sp, #48
	ldmia	r5!, {r0, r1, r2, r3}
	stmia	r4!, {r0, r1, r2, r3}
	ldmia	r5!, {r0, r1, r2, r3}
	stmia	r4!, {r0, r1, r2, r3}
	ldr	r3, [r5]
	.loc 1 3709 0
	mov	r0, sp
	.loc 1 3708 0
	str	r3, [r4]
	.loc 1 3709 0
	bl	get_ldnumber
.LVL901:
	cmp	r0, #0
	blt	.L852
	.loc 1 3710 0
	ldr	r1, [sp]
	add	r0, sp, #84
	bl	follow_path
.LVL902:
	.loc 1 3713 0
	cmp	r0, #0
	beq	.L853
	.loc 1 3714 0
	cmp	r0, #4
	bne	.L856
	.loc 1 3716 0
	add	r0, sp, #84
.LVL903:
	bl	dir_register
.LVL904:
	.loc 1 3717 0
	cmp	r0, #0
	bne	.L856
	.loc 1 3718 0
	ldr	r1, [sp, #104]
.LVL905:
	.loc 1 3719 0
	add	r3, sp, #26
	add	r2, r1, #13
	add	r0, sp, #42
.LVL906:
.L845:
	ldr	r4, [r3], #4	@ unaligned
	cmp	r3, r0
	str	r4, [r2], #4	@ unaligned
	bne	.L845
	ldrh	r0, [r3]	@ unaligned
	strh	r0, [r2]	@ unaligned
	ldrb	r3, [r3, #2]	@ zero_extendqisi2
	strb	r3, [r2, #2]
	.loc 1 3720 0
	ldrb	r3, [sp, #24]	@ zero_extendqisi2
	.loc 1 3721 0
	ldr	r4, [sp, #48]
	.loc 1 3720 0
	orr	r3, r3, #32
	strb	r3, [r1, #11]
	.loc 1 3721 0
	movs	r3, #1
	strb	r3, [r4, #4]
	.loc 1 3722 0
	ldr	r3, [sp, #92]
	ldr	r2, [sp, #56]
	cmp	r2, r3
	beq	.L849
	.loc 1 3722 0 is_stmt 0 discriminator 1
	ldrb	r3, [r1, #11]	@ zero_extendqisi2
	lsls	r3, r3, #27
	bpl	.L849
	.loc 1 3723 0 is_stmt 1
	ldrb	r0, [r4]	@ zero_extendqisi2
	bl	ld_clust.isra.0
.LVL907:
	mov	r1, r0
.LVL908:
	mov	r0, r4
	bl	clust2sect
.LVL909:
	.loc 1 3724 0
	mov	r1, r0
	cbz	r0, .L854
	.loc 1 3727 0
	mov	r0, r4
.LVL910:
	bl	move_window
.LVL911:
	.loc 1 3729 0
	cbnz	r0, .L856
	.loc 1 3728 0 discriminator 1
	ldr	r3, [sp, #48]
	.loc 1 3729 0 discriminator 1
	ldrb	r2, [r3, #81]	@ zero_extendqisi2
	cmp	r2, #46
	bne	.L849
	.loc 1 3730 0
	ldrb	r2, [r3]	@ zero_extendqisi2
	cmp	r2, #3
	ldr	r2, [sp, #92]
	bne	.L847
	.loc 1 3730 0 is_stmt 0 discriminator 2
	ldr	r1, [r3, #36]
	cmp	r2, r1
	beq	.L848
.L847:
	.loc 1 3730 0 discriminator 3
	mov	r0, r2
.LVL912:
.L848:
.LBB162:
.LBB163:
	.loc 1 1297 0 is_stmt 1 discriminator 6
	ubfx	r2, r0, #8, #8
	strb	r2, [r3, #107]
.LBE163:
.LBE162:
	.loc 1 3732 0 discriminator 6
	movs	r2, #1
.LBB165:
.LBB164:
	.loc 1 1297 0 discriminator 6
	strb	r0, [r3, #106]
	.loc 1 1298 0 discriminator 6
	lsrs	r0, r0, #16
.LVL913:
	strb	r0, [r3, #100]
	lsrs	r0, r0, #8
	strb	r0, [r3, #101]
.LVL914:
.LBE164:
.LBE165:
	.loc 1 3732 0 discriminator 6
	strb	r2, [r3, #4]
.LVL915:
.L849:
	.loc 1 3737 0
	add	r0, sp, #48
	bl	dir_remove
.LVL916:
	.loc 1 3738 0
	cbnz	r0, .L856
	.loc 1 3739 0
	ldr	r0, [sp, #48]
.LVL917:
	bl	sync_fs
.LVL918:
.L856:
	.loc 1 3750 0
	add	sp, sp, #124
	.cfi_remember_state
	.cfi_def_cfa_offset 12
	@ sp needed
	pop	{r4, r5, pc}
.LVL919:
.L851:
	.cfi_restore_state
	.loc 1 3705 0
	movs	r0, #4
.LVL920:
	b	.L856
.L852:
	.loc 1 3712 0
	movs	r0, #11
	b	.L856
.LVL921:
.L853:
	.loc 1 3713 0
	movs	r0, #8
.LVL922:
	b	.L856
.LVL923:
.L854:
	.loc 1 3725 0
	movs	r0, #2
.LVL924:
	b	.L856
.L863:
	.align	2
.L862:
	.word	.LANCHOR4
	.cfi_endproc
.LFE47:
	.size	f_rename, .-f_rename
	.section	.bss.FatFs,"aw",%nobits
	.align	2
	.set	.LANCHOR0,. + 0
	.type	FatFs, %object
	.size	FatFs, 4
FatFs:
	.space	4
	.section	.bss.Fsid,"aw",%nobits
	.align	1
	.set	.LANCHOR1,. + 0
	.type	Fsid, %object
	.size	Fsid, 2
Fsid:
	.space	2
	.section	.bss.LfnBuf,"aw",%nobits
	.align	1
	.set	.LANCHOR4,. + 0
	.type	LfnBuf, %object
	.size	LfnBuf, 512
LfnBuf:
	.space	512
	.section	.rodata.ExCvt,"a",%progbits
	.set	.LANCHOR3,. + 0
	.type	ExCvt, %object
	.size	ExCvt, 128
ExCvt:
	.byte	-128
	.byte	-102
	.byte	-112
	.byte	65
	.byte	-114
	.byte	65
	.byte	-113
	.byte	-128
	.byte	69
	.byte	69
	.byte	69
	.byte	73
	.byte	73
	.byte	73
	.byte	-114
	.byte	-113
	.byte	-112
	.byte	-110
	.byte	-110
	.byte	79
	.byte	-103
	.byte	79
	.byte	85
	.byte	85
	.byte	89
	.byte	-103
	.byte	-102
	.byte	-101
	.byte	-100
	.byte	-99
	.byte	-98
	.byte	-97
	.byte	65
	.byte	73
	.byte	79
	.byte	85
	.byte	-91
	.byte	-91
	.byte	-90
	.byte	-89
	.byte	-88
	.byte	-87
	.byte	-86
	.byte	-85
	.byte	-84
	.byte	33
	.byte	-82
	.byte	-81
	.byte	-80
	.byte	-79
	.byte	-78
	.byte	-77
	.byte	-76
	.byte	-75
	.byte	-74
	.byte	-73
	.byte	-72
	.byte	-71
	.byte	-70
	.byte	-69
	.byte	-68
	.byte	-67
	.byte	-66
	.byte	-65
	.byte	-64
	.byte	-63
	.byte	-62
	.byte	-61
	.byte	-60
	.byte	-59
	.byte	-58
	.byte	-57
	.byte	-56
	.byte	-55
	.byte	-54
	.byte	-53
	.byte	-52
	.byte	-51
	.byte	-50
	.byte	-49
	.byte	-48
	.byte	-47
	.byte	-46
	.byte	-45
	.byte	-44
	.byte	-43
	.byte	-42
	.byte	-41
	.byte	-40
	.byte	-39
	.byte	-38
	.byte	-37
	.byte	-36
	.byte	-35
	.byte	-34
	.byte	-33
	.byte	-32
	.byte	-31
	.byte	-30
	.byte	-29
	.byte	-28
	.byte	-27
	.byte	-26
	.byte	-25
	.byte	-24
	.byte	-23
	.byte	-22
	.byte	-21
	.byte	-20
	.byte	-19
	.byte	-18
	.byte	-17
	.byte	-16
	.byte	-15
	.byte	-14
	.byte	-13
	.byte	-12
	.byte	-11
	.byte	-10
	.byte	-9
	.byte	-8
	.byte	-7
	.byte	-6
	.byte	-5
	.byte	-4
	.byte	-3
	.byte	-2
	.byte	-1
	.section	.rodata.LfnOfs,"a",%progbits
	.set	.LANCHOR2,. + 0
	.type	LfnOfs, %object
	.size	LfnOfs, 13
LfnOfs:
	.byte	1
	.byte	3
	.byte	5
	.byte	7
	.byte	9
	.byte	14
	.byte	16
	.byte	18
	.byte	20
	.byte	22
	.byte	24
	.byte	28
	.byte	30
	.section	.rodata.follow_path.str1.1,"aMS",%progbits,1
.LC0:
	.ascii	"\"*:<>?|\177\000"
.LC1:
	.ascii	"+,;=[]\000"
	.text
.Letext0:
	.file 2 "/home/ls/samba_share/sdk-ameba-v7.1d/tools/arm-none-eabi-gcc/asdk/linux/newlib/arm-none-eabi/include/sys/lock.h"
	.file 3 "/home/ls/samba_share/sdk-ameba-v7.1d/tools/arm-none-eabi-gcc/asdk/linux/newlib/arm-none-eabi/include/sys/_types.h"
	.file 4 "/home/ls/samba_share/sdk-ameba-v7.1d/tools/arm-none-eabi-gcc/asdk/linux/newlib/lib/gcc/arm-none-eabi/6.5.0/include/stddef.h"
	.file 5 "/home/ls/samba_share/sdk-ameba-v7.1d/tools/arm-none-eabi-gcc/asdk/linux/newlib/arm-none-eabi/include/sys/reent.h"
	.file 6 "/home/ls/samba_share/sdk-ameba-v7.1d/tools/arm-none-eabi-gcc/asdk/linux/newlib/arm-none-eabi/include/time.h"
	.file 7 "../../../component/common/file_system/fatfs/r0.10c/include/integer.h"
	.file 8 "../../../component/common/file_system/fatfs/r0.10c/include/ff.h"
	.file 9 "../../../component/common/file_system/fatfs/r0.10c/include/diskio.h"
	.file 10 "/home/ls/samba_share/sdk-ameba-v7.1d/tools/arm-none-eabi-gcc/asdk/linux/newlib/arm-none-eabi/include/string.h"