	.arch armv8-m.main
	.arch_extension dsp
	.eabi_attribute 20, 1
	.eabi_attribute 21, 1
	.eabi_attribute 23, 3
	.eabi_attribute 24, 1
	.eabi_attribute 25, 1
	.eabi_attribute 26, 1
	.eabi_attribute 30, 4
	.eabi_attribute 34, 1
	.eabi_attribute 18, 4
	.file	"ftl.c"
	.text
.Ltext0:
	.cfi_sections	.debug_frame
	.section	.text.ftl_page_read,"ax",%progbits
	.align	1
	.global	ftl_page_read
	.syntax unified
	.thumb
	.thumb_func
	.fpu softvfp
	.type	ftl_page_read, %function
ftl_page_read:
.LFB570:
	.file 1 "../../../component/common/file_system/ftl/ftl.c"
	.loc 1 116 0
	.cfi_startproc
	@ args = 0, pretend = 0, frame = 16
	@ frame_needed = 0, uses_anonymous_args = 0
.LVL0:
	push	{r0, r1, r2, r3, r4, lr}
	.cfi_def_cfa_offset 24
	.cfi_offset 14, -4
	.loc 1 117 0
	movs	r3, #0
	.loc 1 120 0
	cmp	r1, #1024
	.loc 1 117 0
	str	r3, [sp, #4]
	.loc 1 120 0
	bcs	.L2
	.loc 1 122 0
	add	r1, r0, r1, lsl #2
.LVL1:
	add	r2, sp, #4
	add	r0, sp, #8
.LVL2:
	bl	flash_read_word
.LVL3:
.L2:
	.loc 1 133 0
	ldr	r0, [sp, #4]
	.loc 1 134 0
	add	sp, sp, #20
	.cfi_def_cfa_offset 4
	@ sp needed
	ldr	pc, [sp], #4
	.cfi_endproc
.LFE570:
	.size	ftl_page_read, .-ftl_page_read
	.section	.text.ftl_flash_write,"ax",%progbits
	.align	1
	.global	ftl_flash_write
	.syntax unified
	.thumb
	.thumb_func
	.fpu softvfp
	.type	ftl_flash_write, %function
ftl_flash_write:
.LFB571:
	.loc 1 137 0
	.cfi_startproc
	@ args = 0, pretend = 0, frame = 8
	@ frame_needed = 0, uses_anonymous_args = 0
.LVL4:
	push	{r0, r1, r2, r4, r5, lr}
	.cfi_def_cfa_offset 24
	.cfi_offset 4, -12
	.cfi_offset 5, -8
	.cfi_offset 14, -4
	.loc 1 137 0
	mov	r5, r1
	mov	r4, r0
	.loc 1 140 0
	movs	r0, #1
.LVL5:
	bl	device_mutex_lock
.LVL6:
	.loc 1 141 0
	mov	r2, r5
	mov	r1, r4
	mov	r0, sp
	bl	flash_write_word
.LVL7:
	.loc 1 142 0
	movs	r0, #1
	bl	device_mutex_unlock
.LVL8:
	.loc 1 143 0
	add	sp, sp, #12
	.cfi_def_cfa_offset 12
	@ sp needed
	pop	{r4, r5, pc}
	.cfi_endproc
.LFE571:
	.size	ftl_flash_write, .-ftl_flash_write
	.section	.text.ftl_page_write.part.0,"ax",%progbits
	.align	1
	.syntax unified
	.thumb
	.thumb_func
	.fpu softvfp
	.type	ftl_page_write.part.0, %function
ftl_page_write.part.0:
.LFB602:
	.loc 1 156 0
	.cfi_startproc
	@ args = 0, pretend = 0, frame = 16
	@ frame_needed = 0, uses_anonymous_args = 0
.LVL9:
	push	{r4, r5, r6, r7, r8, lr}
	.cfi_def_cfa_offset 24
	.cfi_offset 4, -24
	.cfi_offset 5, -20
	.cfi_offset 6, -16
	.cfi_offset 7, -12
	.cfi_offset 8, -8
	.cfi_offset 14, -4
.LBB87:
	.loc 1 163 0
	movs	r4, #0
.LBE87:
	.loc 1 156 0
	mov	r5, r2
.LBB88:
	.loc 1 162 0
	add	r8, r0, r1, lsl #2
.LBE88:
	.loc 1 156 0
	sub	sp, sp, #24
	.cfi_def_cfa_offset 48
	.loc 1 156 0
	mov	r6, r0
	mov	r7, r1
.LBB89:
	.loc 1 162 0
	mov	r0, r8
.LVL10:
	mov	r1, r2
.LVL11:
	bl	ftl_flash_write
.LVL12:
	.loc 1 163 0
	add	r2, sp, #24
	str	r4, [r2, #-12]!
	.loc 1 164 0
	mov	r1, r8
	add	r0, sp, #16
	bl	flash_read_word
.LVL13:
	.loc 1 165 0
	ldr	r3, [sp, #12]
	cmp	r5, r3
	beq	.L10
	.loc 1 167 0
	str	r3, [sp]
	mov	r2, r7
	mov	r3, r5
	mov	r1, r6
	ldr	r0, .L11
	bl	__wrap_printf
.LVL14:
	.loc 1 169 0
	movs	r0, #4
.L8:
.LBE89:
	.loc 1 182 0
	add	sp, sp, #24
	.cfi_remember_state
	.cfi_def_cfa_offset 24
	@ sp needed
	pop	{r4, r5, r6, r7, r8, pc}
.LVL15:
.L10:
	.cfi_restore_state
.LBB90:
	.loc 1 172 0
	mov	r0, r4
	b	.L8
.L12:
	.align	2
.L11:
	.word	.LC0
.LBE90:
	.cfi_endproc
.LFE602:
	.size	ftl_page_write.part.0, .-ftl_page_write.part.0
	.section	.text.ftl_flash_erase_sector,"ax",%progbits
	.align	1
	.global	ftl_flash_erase_sector
	.syntax unified
	.thumb
	.thumb_func
	.fpu softvfp
	.type	ftl_flash_erase_sector, %function
ftl_flash_erase_sector:
.LFB572:
	.loc 1 146 0
	.cfi_startproc
	@ args = 0, pretend = 0, frame = 8
	@ frame_needed = 0, uses_anonymous_args = 0
.LVL16:
	push	{r0, r1, r4, lr}
	.cfi_def_cfa_offset 16
	.cfi_offset 4, -8
	.cfi_offset 14, -4
	.loc 1 146 0
	mov	r4, r0
	.loc 1 149 0
	movs	r0, #1
.LVL17:
	bl	device_mutex_lock
.LVL18:
	.loc 1 150 0
	mov	r1, r4
	mov	r0, sp
	bl	flash_erase_sector
.LVL19:
	.loc 1 151 0
	movs	r0, #1
	bl	device_mutex_unlock
.LVL20:
	.loc 1 154 0
	movs	r0, #1
	add	sp, sp, #8
	.cfi_def_cfa_offset 8
	@ sp needed
	pop	{r4, pc}
	.cfi_endproc
.LFE572:
	.size	ftl_flash_erase_sector, .-ftl_flash_erase_sector
	.section	.text.ftl_page_write,"ax",%progbits
	.align	1
	.global	ftl_page_write
	.syntax unified
	.thumb
	.thumb_func
	.fpu softvfp
	.type	ftl_page_write, %function
ftl_page_write:
.LFB573:
	.loc 1 157 0
	.cfi_startproc
	@ args = 0, pretend = 0, frame = 0
	@ frame_needed = 0, uses_anonymous_args = 0
	@ link register save eliminated.
.LVL21:
	.loc 1 160 0
	cmp	r1, #1024
	bcs	.L15
	b	ftl_page_write.part.0
.LVL22:
.L15:
	.loc 1 182 0 discriminator 1
	movs	r0, #3
.LVL23:
	bx	lr
	.cfi_endproc
.LFE573:
	.size	ftl_page_write, .-ftl_page_write
	.section	.text.ftl_get_page_seq,"ax",%progbits
	.align	1
	.global	ftl_get_page_seq
	.syntax unified
	.thumb
	.thumb_func
	.fpu softvfp
	.type	ftl_get_page_seq, %function
ftl_get_page_seq:
.LFB574:
	.loc 1 185 0
	.cfi_startproc
	@ args = 0, pretend = 0, frame = 0
	@ frame_needed = 0, uses_anonymous_args = 0
.LVL24:
	push	{r3, lr}
	.cfi_def_cfa_offset 8
	.cfi_offset 3, -8
	.cfi_offset 14, -4
	.loc 1 186 0
	movs	r1, #0
	bl	ftl_page_read
.LVL25:
	.loc 1 191 0
	ubfx	r0, r0, #16, #8
.LVL26:
	pop	{r3, pc}
	.cfi_endproc
.LFE574:
	.size	ftl_get_page_seq, .-ftl_get_page_seq
	.section	.text.ftl_key_get_length,"ax",%progbits
	.align	1
	.global	ftl_key_get_length
	.syntax unified
	.thumb
	.thumb_func
	.fpu softvfp
	.type	ftl_key_get_length, %function
ftl_key_get_length:
.LFB575:
	.loc 1 195 0
	.cfi_startproc
	@ args = 0, pretend = 0, frame = 0
	@ frame_needed = 0, uses_anonymous_args = 0
	@ link register save eliminated.
.LVL27:
	.loc 1 196 0
	cmp	r0, #0
	ite	lt
	movlt	r0, #0
.LVL28:
.LBB91:
	.loc 1 199 0
	lsrge	r0, r0, #16
.LBE91:
	.loc 1 207 0
	uxtb	r0, r0
	bx	lr
	.cfi_endproc
.LFE575:
	.size	ftl_key_get_length, .-ftl_key_get_length
	.section	.text.ftl_key_init,"ax",%progbits
	.align	1
	.global	ftl_key_init
	.syntax unified
	.thumb
	.thumb_func
	.fpu softvfp
	.type	ftl_key_init, %function
ftl_key_init:
.LFB576:
	.loc 1 210 0
	.cfi_startproc
	@ args = 0, pretend = 0, frame = 0
	@ frame_needed = 0, uses_anonymous_args = 0
	@ link register save eliminated.
.LVL29:
	.loc 1 219 0
	orr	r0, r0, #-16777216
.LVL30:
	.loc 1 222 0
	orr	r0, r0, r1, lsl #16
	bx	lr
	.cfi_endproc
.LFE576:
	.size	ftl_key_init, .-ftl_key_init
	.section	.text.ftl_check_logical_addr,"ax",%progbits
	.align	1
	.global	ftl_check_logical_addr
	.syntax unified
	.thumb
	.thumb_func
	.fpu softvfp
	.type	ftl_check_logical_addr, %function
ftl_check_logical_addr:
.LFB577:
	.loc 1 226 0
	.cfi_startproc
	@ args = 0, pretend = 0, frame = 0
	@ frame_needed = 0, uses_anonymous_args = 0
.LVL31:
	push	{r3, lr}
	.cfi_def_cfa_offset 8
	.cfi_offset 3, -8
	.cfi_offset 14, -4
	.loc 1 227 0
	ands	r3, r0, #3
	.loc 1 226 0
	mov	r1, r0
	.loc 1 227 0
	bne	.L23
	.loc 1 233 0
	ldr	r2, .L25
	ldrb	r2, [r2]	@ zero_extendqisi2
	rsb	r2, r2, r2, lsl #9
	sub	r2, r2, #512
	lsls	r2, r2, #2
	cmp	r0, r2
	blt	.L24
	.loc 1 235 0 discriminator 1
	ldr	r0, .L25+4
.LVL32:
	bl	__wrap_printf
.LVL33:
	.loc 1 238 0 discriminator 1
	movs	r0, #241
	pop	{r3, pc}
.LVL34:
.L23:
	.loc 1 230 0
	movs	r0, #240
.LVL35:
	pop	{r3, pc}
.LVL36:
.L24:
	.loc 1 241 0
	mov	r0, r3
.LVL37:
	.loc 1 242 0
	pop	{r3, pc}
.L26:
	.align	2
.L25:
	.word	.LANCHOR0
	.word	.LC1
	.cfi_endproc
.LFE577:
	.size	ftl_check_logical_addr, .-ftl_check_logical_addr
	.section	.text.ftl_page_is_valid,"ax",%progbits
	.align	1
	.global	ftl_page_is_valid
	.syntax unified
	.thumb
	.thumb_func
	.fpu softvfp
	.type	ftl_page_is_valid, %function
ftl_page_is_valid:
.LFB578:
	.loc 1 246 0
	.cfi_startproc
	@ args = 0, pretend = 0, frame = 0
	@ frame_needed = 0, uses_anonymous_args = 0
.LVL38:
	push	{r3, lr}
	.cfi_def_cfa_offset 8
	.cfi_offset 3, -8
	.cfi_offset 14, -4
	.loc 1 247 0
	movs	r1, #0
	bl	ftl_page_read
.LVL39:
	.loc 1 249 0
	cmp	r0, #0
	blt	.L29
.LVL40:
	.loc 1 255 0
	movw	r3, #25438
	.loc 1 251 0
	uxth	r0, r0
.LVL41:
	.loc 1 255 0
	cmp	r0, r3
	ite	ne
	movne	r0, #242
	moveq	r0, #0
	pop	{r3, pc}
.LVL42:
.L29:
	.loc 1 259 0
	movs	r0, #242
.LVL43:
	.loc 1 260 0
	pop	{r3, pc}
	.cfi_endproc
.LFE578:
	.size	ftl_page_is_valid, .-ftl_page_is_valid
	.section	.text.ftl_get_free_page_count,"ax",%progbits
	.align	1
	.global	ftl_get_free_page_count
	.syntax unified
	.thumb
	.thumb_func
	.fpu softvfp
	.type	ftl_get_free_page_count, %function
ftl_get_free_page_count:
.LFB579:
	.loc 1 264 0
	.cfi_startproc
	@ args = 0, pretend = 0, frame = 0
	@ frame_needed = 0, uses_anonymous_args = 0
	push	{r4, r5, r6, r7, r8, lr}
	.cfi_def_cfa_offset 24
	.cfi_offset 4, -24
	.cfi_offset 5, -20
	.cfi_offset 6, -16
	.cfi_offset 7, -12
	.cfi_offset 8, -8
	.cfi_offset 14, -4
	.loc 1 269 0
	movs	r5, #0
	.loc 1 265 0
	ldr	r3, .L37
	.loc 1 272 0
	ldr	r6, .L37+4
	.loc 1 265 0
	ldrb	r4, [r3]	@ zero_extendqisi2
.LVL44:
	.loc 1 272 0
	ldrb	r7, [r6]	@ zero_extendqisi2
.LVL45:
	.loc 1 279 0
	ldr	r8, .L37+8
.LVL46:
.L32:
	.loc 1 274 0
	cmp	r5, r7
	bne	.L34
.L36:
	.loc 1 290 0
	mov	r0, r5
	pop	{r4, r5, r6, r7, r8, pc}
.LVL47:
.L34:
	.loc 1 277 0
	ldrb	r2, [r6]	@ zero_extendqisi2
	.loc 1 276 0
	adds	r4, r4, #1
.LVL48:
	uxtb	r4, r4
.LVL49:
	.loc 1 277 0
	udiv	r3, r4, r2
	mls	r4, r2, r3, r4
.LVL50:
	.loc 1 279 0
	ldr	r0, [r8]
	.loc 1 277 0
	uxtb	r4, r4
.LVL51:
	.loc 1 279 0
	add	r0, r0, r4, lsl #12
	bl	ftl_page_is_valid
.LVL52:
	cmp	r0, #0
	beq	.L36
	.loc 1 281 0
	adds	r5, r5, #1
.LVL53:
	uxtb	r5, r5
.LVL54:
	b	.L32
.L38:
	.align	2
.L37:
	.word	g_cur_pageID
	.word	.LANCHOR0
	.word	.LANCHOR1
	.cfi_endproc
.LFE579:
	.size	ftl_get_free_page_count, .-ftl_get_free_page_count
	.section	.text.ftl_get_page_end_position,"ax",%progbits
	.align	1
	.global	ftl_get_page_end_position
	.syntax unified
	.thumb
	.thumb_func
	.fpu softvfp
	.type	ftl_get_page_end_position, %function
ftl_get_page_end_position:
.LFB580:
	.loc 1 294 0
	.cfi_startproc
	@ args = 0, pretend = 0, frame = 0
	@ frame_needed = 0, uses_anonymous_args = 0
.LVL55:
	push	{r4, lr}
	.cfi_def_cfa_offset 8
	.cfi_offset 4, -8
	.cfi_offset 14, -4
	.loc 1 294 0
	mov	r4, r1
	.loc 1 296 0
	movs	r1, #1
.LVL56:
	bl	ftl_page_read
.LVL57:
	.loc 1 298 0
	cmp	r0, #0
.LVL58:
	.loc 1 302 0
	itte	ge
	strhge	r0, [r4]	@ movhi
	.loc 1 304 0
	movge	r0, #0
.LVL59:
	.loc 1 308 0
	movlt	r0, #243
	.loc 1 311 0
	pop	{r4, pc}
	.cfi_endproc
.LFE580:
	.size	ftl_get_page_end_position, .-ftl_get_page_end_position
	.section	.text.ftl_get_prev_page,"ax",%progbits
	.align	1
	.global	ftl_get_prev_page
	.syntax unified
	.thumb
	.thumb_func
	.fpu softvfp
	.type	ftl_get_prev_page, %function
ftl_get_prev_page:
.LFB581:
	.loc 1 315 0
	.cfi_startproc
	@ args = 0, pretend = 0, frame = 0
	@ frame_needed = 0, uses_anonymous_args = 0
.LVL60:
	push	{r3, r4, r5, r6, r7, r8, r9, lr}
	.cfi_def_cfa_offset 32
	.cfi_offset 3, -32
	.cfi_offset 4, -28
	.cfi_offset 5, -24
	.cfi_offset 6, -20
	.cfi_offset 7, -16
	.cfi_offset 8, -12
	.cfi_offset 9, -8
	.cfi_offset 14, -4
	.loc 1 315 0
	mov	r7, r1
	.loc 1 319 0
	mov	r5, r0
	cbnz	r0, .L43
	.loc 1 321 0
	ldr	r3, .L51
	ldrb	r4, [r3]	@ zero_extendqisi2
	subs	r4, r4, #1
.L50:
	.loc 1 328 0
	ldr	r6, .L51+4
	.loc 1 325 0
	uxtb	r4, r4
.LVL61:
	.loc 1 328 0
	ldr	r0, [r6]
.LVL62:
	lsl	r9, r4, #12
	add	r0, r0, r9
	bl	ftl_page_is_valid
.LVL63:
	mov	r8, r0
	cbnz	r0, .L47
.LBB92:
	.loc 1 330 0
	ldr	r0, [r6]
	add	r0, r0, r5, lsl #12
	bl	ftl_get_page_seq
.LVL64:
	mov	r5, r0
.LVL65:
	.loc 1 331 0
	ldr	r0, [r6]
	add	r0, r0, r9
	bl	ftl_get_page_seq
.LVL66:
	.loc 1 333 0
	cbz	r5, .L46
	.loc 1 335 0
	adds	r0, r0, #1
.LVL67:
	cmp	r0, r5
	bne	.L49
	.loc 1 339 0
	mov	r5, r8
.LVL68:
	.loc 1 338 0
	strb	r4, [r7]
.LVL69:
.L45:
.LBE92:
	.loc 1 358 0
	mov	r0, r5
	pop	{r3, r4, r5, r6, r7, r8, r9, pc}
.LVL70:
.L43:
	.loc 1 325 0
	subs	r4, r0, #1
	b	.L50
.LVL71:
.L46:
.LBB93:
	.loc 1 345 0
	cmp	r0, #255
	bne	.L49
	.loc 1 347 0
	strb	r4, [r7]
.LVL72:
	b	.L45
.LVL73:
.L47:
.LBE93:
	.loc 1 354 0
	movs	r5, #2
	b	.L45
.LVL74:
.L49:
	.loc 1 316 0
	movs	r5, #1
.LVL75:
	b	.L45
.L52:
	.align	2
.L51:
	.word	.LANCHOR0
	.word	.LANCHOR1
	.cfi_endproc
.LFE581:
	.size	ftl_get_prev_page, .-ftl_get_prev_page
	.section	.text.ftl_page_get_oldest,"ax",%progbits
	.align	1
	.global	ftl_page_get_oldest
	.syntax unified
	.thumb
	.thumb_func
	.fpu softvfp
	.type	ftl_page_get_oldest, %function
ftl_page_get_oldest:
.LFB583:
	.loc 1 433 0
	.cfi_startproc
	@ args = 0, pretend = 0, frame = 0
	@ frame_needed = 0, uses_anonymous_args = 0
	push	{r3, r4, r5, lr}
	.cfi_def_cfa_offset 16
	.cfi_offset 3, -16
	.cfi_offset 4, -12
	.cfi_offset 5, -8
	.cfi_offset 14, -4
	.loc 1 434 0
	ldr	r5, .L57
	ldrb	r4, [r5]	@ zero_extendqisi2
	bl	ftl_get_free_page_count
.LVL76:
	.loc 1 442 0
	ldr	r3, .L57+4
	.loc 1 438 0
	subs	r4, r4, #1
.LVL77:
	subs	r0, r4, r0
.LVL78:
	.loc 1 442 0
	ldrb	r3, [r3]	@ zero_extendqisi2
	.loc 1 438 0
	uxtb	r2, r0
.LVL79:
	.loc 1 442 0
	cmp	r2, r3
	.loc 1 448 0
	itett	hi
	ldrbhi	r0, [r5]	@ zero_extendqisi2
	.loc 1 444 0
	subls	r0, r3, r2
	.loc 1 448 0
	addhi	r0, r0, r3
	subhi	r0, r0, r2
	uxtb	r0, r0
.LVL80:
	.loc 1 472 0
	pop	{r3, r4, r5, pc}
.L58:
	.align	2
.L57:
	.word	.LANCHOR0
	.word	g_cur_pageID
	.cfi_endproc
.LFE583:
	.size	ftl_page_get_oldest, .-ftl_page_get_oldest
	.section	.text.ftl_set_page_end_position,"ax",%progbits
	.align	1
	.global	ftl_set_page_end_position
	.syntax unified
	.thumb
	.thumb_func
	.fpu softvfp
	.type	ftl_set_page_end_position, %function
ftl_set_page_end_position:
.LFB587:
	.loc 1 633 0
	.cfi_startproc
	@ args = 0, pretend = 0, frame = 0
	@ frame_needed = 0, uses_anonymous_args = 0
	@ link register save eliminated.
.LVL81:
	.loc 1 642 0
	orr	r2, r1, #2139095040
	orr	r2, r2, #8323072
	movs	r1, #1
.LVL82:
	b	ftl_page_write
.LVL83:
	.cfi_endproc
.LFE587:
	.size	ftl_set_page_end_position, .-ftl_set_page_end_position
	.section	.text.ftl_page_erase,"ax",%progbits
	.align	1
	.global	ftl_page_erase
	.syntax unified
	.thumb
	.thumb_func
	.fpu softvfp
	.type	ftl_page_erase, %function
ftl_page_erase:
.LFB588:
	.loc 1 646 0
	.cfi_startproc
	@ args = 0, pretend = 0, frame = 0
	@ frame_needed = 0, uses_anonymous_args = 0
.LVL84:
	push	{r4, lr}
	.cfi_def_cfa_offset 8
	.cfi_offset 4, -8
	.cfi_offset 14, -4
	.loc 1 647 0
	movs	r1, #0
	.loc 1 646 0
	mov	r4, r0
	.loc 1 647 0
	bl	ftl_page_read
.LVL85:
	.loc 1 650 0
	movw	r3, #30591
	uxth	r0, r0
.LVL86:
	cmp	r0, r3
	beq	.L62
	.loc 1 656 0
	mov	r0, r4
	bl	ftl_flash_erase_sector
.LVL87:
	cbz	r0, .L61
.LVL88:
.LBB98:
.LBB99:
.LBB100:
.LBB101:
	ldr	r2, .L66
	movs	r1, #0
	mov	r0, r4
	bl	ftl_page_write.part.0
.LVL89:
.LBE101:
.LBE100:
.LBE99:
.LBE98:
	.loc 1 653 0
	clz	r0, r0
	lsrs	r0, r0, #5
	pop	{r4, pc}
.LVL90:
.L62:
	movs	r0, #1
.L61:
	.loc 1 664 0
	pop	{r4, pc}
.LVL91:
.L67:
	.align	2
.L66:
	.word	-34945
	.cfi_endproc
.LFE588:
	.size	ftl_page_erase, .-ftl_page_erase
	.section	.text.ftl_page_format,"ax",%progbits
	.align	1
	.global	ftl_page_format
	.syntax unified
	.thumb
	.thumb_func
	.fpu softvfp
	.type	ftl_page_format, %function
ftl_page_format:
.LFB589:
	.loc 1 667 0
	.cfi_startproc
	@ args = 0, pretend = 0, frame = 8
	@ frame_needed = 0, uses_anonymous_args = 0
.LVL92:
	push	{r0, r1, r2, r4, r5, lr}
	.cfi_def_cfa_offset 24
	.cfi_offset 4, -12
	.cfi_offset 5, -8
	.cfi_offset 14, -4
	.loc 1 667 0
	mov	r4, r0
	mov	r5, r1
	.loc 1 670 0
	bl	ftl_page_erase
.LVL93:
	cbz	r0, .L69
.LVL94:
.LBB106:
.LBB107:
	.loc 1 680 0
	str	r5, [sp, #4]
	.loc 1 683 0
	ldr	r3, [sp, #4]
	.loc 1 691 0
	movs	r1, #0
	.loc 1 683 0
	lsls	r3, r3, #16
	str	r3, [sp, #4]
	.loc 1 684 0
	ldr	r3, [sp, #4]
	.loc 1 691 0
	mov	r0, r4
	.loc 1 684 0
	orr	r3, r3, #25344
	orr	r3, r3, #94
	str	r3, [sp, #4]
	.loc 1 685 0
	ldr	r3, [sp, #4]
	orr	r3, r3, #-16777216
	str	r3, [sp, #4]
.LVL95:
.LBB108:
.LBB109:
	.file 2 "../../../component/common/file_system/ftl/ftl.h"
	.loc 2 141 0
	ldr	r3, [sp, #4]
	bic	r3, r3, #-2147483648
	str	r3, [sp, #4]
.LVL96:
.LBE109:
.LBE108:
	.loc 1 691 0
	ldr	r2, [sp, #4]
	bl	ftl_page_write
.LVL97:
	.loc 1 693 0
	movs	r0, #1
	ldr	r2, .L73
	ldrb	r3, [r2]	@ zero_extendqisi2
	subs	r3, r3, #1
	strb	r3, [r2]
.LVL98:
.L69:
.LBE107:
.LBE106:
	.loc 1 700 0
	add	sp, sp, #12
	.cfi_def_cfa_offset 12
	@ sp needed
	pop	{r4, r5, pc}
.LVL99:
.L74:
	.align	2
.L73:
	.word	g_free_page_count
	.cfi_endproc
.LFE589:
	.size	ftl_page_format, .-ftl_page_format
	.section	.text.read_mapping_table,"ax",%progbits
	.align	1
	.global	read_mapping_table
	.syntax unified
	.thumb
	.thumb_func
	.fpu softvfp
	.type	read_mapping_table, %function
read_mapping_table:
.LFB591:
	.loc 1 810 0
	.cfi_startproc
	@ args = 0, pretend = 0, frame = 0
	@ frame_needed = 0, uses_anonymous_args = 0
.LVL100:
	.loc 1 811 0
	movs	r3, #12
	lsrs	r0, r0, #2
.LVL101:
	muls	r0, r3, r0
.LVL102:
	.loc 1 810 0
	push	{r4, lr}
	.cfi_def_cfa_offset 8
	.cfi_offset 4, -8
	.cfi_offset 14, -4
	.loc 1 815 0
	ldr	r1, .L76
	.loc 1 812 0
	lsrs	r2, r0, #3
.LVL103:
	.loc 1 815 0
	ldr	r1, [r1]
	.loc 1 813 0
	and	r3, r0, #7
.LVL104:
	.loc 1 815 0
	adds	r0, r1, r2
.LVL105:
	ldrb	r4, [r0, #1]	@ zero_extendqisi2
	ldrb	r0, [r1, r2]	@ zero_extendqisi2
.LVL106:
	.loc 1 816 0
	movw	r2, #4095
.LVL107:
	.loc 1 815 0
	add	r0, r0, r4, lsl #8
	.loc 1 816 0
	lsls	r2, r2, r3
	uxth	r0, r0
	ands	r0, r0, r2
	asrs	r0, r0, r3
	uxth	r0, r0
.LVL108:
	.loc 1 817 0
	lsls	r0, r0, #1
.LVL109:
	.loc 1 819 0
	uxth	r0, r0
	.loc 1 820 0
	pop	{r4, pc}
.L77:
	.align	2
.L76:
	.word	.LANCHOR2
	.cfi_endproc
.LFE591:
	.size	read_mapping_table, .-read_mapping_table
	.section	.text.ftl_page_can_addr_drop,"ax",%progbits
	.align	1
	.global	ftl_page_can_addr_drop
	.syntax unified
	.thumb
	.thumb_func
	.fpu softvfp
	.type	ftl_page_can_addr_drop, %function
ftl_page_can_addr_drop:
.LFB582:
	.loc 1 362 0
	.cfi_startproc
	@ args = 0, pretend = 0, frame = 0
	@ frame_needed = 0, uses_anonymous_args = 0
.LVL110:
	push	{r4, lr}
	.cfi_def_cfa_offset 8
	.cfi_offset 4, -8
	.cfi_offset 14, -4
	.loc 1 362 0
	mov	r4, r1
.LBB110:
	.loc 1 367 0
	bl	read_mapping_table
.LVL111:
	.loc 1 368 0
	cbz	r0, .L79
	.loc 1 368 0 is_stmt 0 discriminator 1
	ubfx	r0, r0, #10, #16
.LVL112:
	subs	r0, r0, r4
	it	ne
	movne	r0, #1
.L79:
.LVL113:
.LBE110:
	.loc 1 430 0 is_stmt 1
	pop	{r4, pc}
	.cfi_endproc
.LFE582:
	.size	ftl_page_can_addr_drop, .-ftl_page_can_addr_drop
	.section	.text.write_mapping_table,"ax",%progbits
	.align	1
	.global	write_mapping_table
	.syntax unified
	.thumb
	.thumb_func
	.fpu softvfp
	.type	write_mapping_table, %function
write_mapping_table:
.LFB592:
	.loc 1 823 0
	.cfi_startproc
	@ args = 0, pretend = 0, frame = 0
	@ frame_needed = 0, uses_anonymous_args = 0
.LVL114:
	.loc 1 824 0
	movs	r3, #12
	lsrs	r0, r0, #2
.LVL115:
	muls	r0, r3, r0
.LVL116:
	.loc 1 828 0
	add	r2, r2, r1, lsl #10
.LVL117:
	.loc 1 826 0
	lsrs	r3, r0, #3
.LVL118:
	.loc 1 830 0
	ands	r0, r0, #7
.LVL119:
	.loc 1 823 0
	push	{r4, r5, r6, lr}
	.cfi_def_cfa_offset 16
	.cfi_offset 4, -16
	.cfi_offset 5, -12
	.cfi_offset 6, -8
	.cfi_offset 14, -4
	.loc 1 828 0
	asr	r2, r2, #1
.LVL120:
	.loc 1 830 0
	beq	.L82
.LVL121:
.LBB111:
	.loc 1 834 0
	ldr	r1, .L84
.LVL122:
	.loc 1 833 0
	and	r6, r2, #15
.LVL123:
	.loc 1 834 0
	ldr	r5, [r1]
	.loc 1 837 0
	lsrs	r2, r2, #4
.LVL124:
	.loc 1 834 0
	ldrb	r4, [r5, r3]	@ zero_extendqisi2
	and	r4, r4, #15
	strb	r4, [r5, r3]
	.loc 1 835 0
	ldr	r4, [r1]
	ldrb	r0, [r4, r3]	@ zero_extendqisi2
.LVL125:
	orr	r0, r0, r6, lsl #4
	strb	r0, [r4, r3]
	.loc 1 838 0
	ldr	r1, [r1]
	add	r3, r3, r1
.LVL126:
	.loc 1 837 0
	strb	r2, [r3, #1]
.LBE111:
	pop	{r4, r5, r6, pc}
.LVL127:
.L82:
	.loc 1 840 0
	cbnz	r0, .L81
.LVL128:
.LBB112:
	.loc 1 843 0
	ldr	r1, .L84
.LVL129:
	ldr	r0, [r1]
.LVL130:
	.loc 1 842 0
	strb	r2, [r0, r3]
.LVL131:
	.loc 1 846 0
	ldr	r4, [r1]
	adds	r3, r3, #1
.LVL132:
	ldrb	r0, [r4, r3]	@ zero_extendqisi2
	.loc 1 845 0
	ubfx	r2, r2, #8, #4
.LVL133:
	.loc 1 846 0
	bic	r0, r0, #15
	strb	r0, [r4, r3]
	.loc 1 847 0
	ldr	r1, [r1]
	ldrb	r0, [r1, r3]	@ zero_extendqisi2
	orrs	r2, r2, r0
	strb	r2, [r1, r3]
.LVL134:
.L81:
	pop	{r4, r5, r6, pc}
.L85:
	.align	2
.L84:
	.word	.LANCHOR2
.LBE112:
	.cfi_endproc
.LFE592:
	.size	write_mapping_table, .-write_mapping_table
	.section	.text.ftl_read,"ax",%progbits
	.align	1
	.global	ftl_read
	.syntax unified
	.thumb
	.thumb_func
	.fpu softvfp
	.type	ftl_read, %function
ftl_read:
.LFB593:
	.loc 1 857 0
	.cfi_startproc
	@ args = 0, pretend = 0, frame = 0
	@ frame_needed = 0, uses_anonymous_args = 0
.LVL135:
	push	{r3, r4, r5, r6, r7, r8, r9, lr}
	.cfi_def_cfa_offset 32
	.cfi_offset 3, -32
	.cfi_offset 4, -28
	.cfi_offset 5, -24
	.cfi_offset 6, -20
	.cfi_offset 7, -16
	.cfi_offset 8, -12
	.cfi_offset 9, -8
	.cfi_offset 14, -4
	.loc 1 857 0
	mov	r6, r0
	mov	r7, r1
	.loc 1 861 0
	bl	ftl_check_logical_addr
.LVL136:
	mov	r5, r0
	cbnz	r0, .L90
.LVL137:
.LBB120:
.LBB121:
.LBB122:
	.loc 1 948 0
	mov	r0, r6
	bl	read_mapping_table
.LVL138:
	.loc 1 950 0
	cbz	r0, .L91
.LVL139:
	.loc 1 959 0
	ldr	r9, .L93+12
	.loc 1 957 0
	ubfx	r8, r0, #0, #10
.LVL140:
	.loc 1 959 0
	ubfx	r0, r0, #10, #16
.LVL141:
	lsls	r4, r0, #12
	ldr	r0, [r9]
	add	r1, r8, #1
	add	r0, r0, r4
	bl	ftl_page_read
.LVL142:
.LBB123:
.LBB124:
	.loc 1 196 0
	cmp	r0, #0
	blt	.L88
.LVL143:
.LBE124:
.LBE123:
	.loc 1 965 0
	ubfx	r3, r0, #16, #8
	cmp	r3, #1
	bne	.L88
.LVL144:
.LBB125:
	.loc 1 968 0
	uxth	r0, r0
.LVL145:
	cmp	r6, r0
	bne	.L89
	.loc 1 970 0
	ldr	r0, [r9]
.LVL146:
	mov	r1, r8
	add	r0, r0, r4
	bl	ftl_page_read
.LVL147:
	str	r0, [r7]
.LVL148:
.L86:
.LBE125:
.LBE122:
.LBE121:
.LBE120:
	.loc 1 990 0
	mov	r0, r5
	pop	{r3, r4, r5, r6, r7, r8, r9, pc}
.LVL149:
.L89:
.LBB131:
.LBB129:
.LBB127:
.LBB126:
	.loc 1 976 0
	mov	r2, #976
	ldr	r1, .L93
	ldr	r0, .L93+4
.LVL150:
.L92:
.LBE126:
	.loc 1 982 0
	bl	__wrap_printf
.LVL151:
	.loc 1 981 0
	movs	r5, #3
	b	.L86
.LVL152:
.L88:
	.loc 1 982 0
	movw	r2, #982
	ldr	r1, .L93
	ldr	r0, .L93+8
.LVL153:
	b	.L92
.LVL154:
.L90:
.LBE127:
.LBE129:
.LBE131:
	.loc 1 864 0
	movs	r5, #1
	b	.L86
.LVL155:
.L91:
.LBB132:
.LBB130:
.LBB128:
	.loc 1 953 0
	movs	r5, #2
	b	.L86
.L94:
	.align	2
.L93:
	.word	.LANCHOR3
	.word	.LC2
	.word	.LC3
	.word	.LANCHOR1
.LBE128:
.LBE130:
.LBE132:
	.cfi_endproc
.LFE593:
	.size	ftl_read, .-ftl_read
	.section	.text.ftl_load_from_storage_i,"ax",%progbits
	.align	1
	.global	ftl_load_from_storage_i
	.syntax unified
	.thumb
	.thumb_func
	.fpu softvfp
	.type	ftl_load_from_storage_i, %function
ftl_load_from_storage_i:
.LFB596:
	.loc 1 1089 0
	.cfi_startproc
	@ args = 0, pretend = 0, frame = 8
	@ frame_needed = 0, uses_anonymous_args = 0
.LVL156:
	.loc 1 1090 0
	ldr	r3, .L104
	.loc 1 1089 0
	push	{r0, r1, r2, r4, r5, r6, r7, lr}
	.cfi_def_cfa_offset 32
	.cfi_offset 4, -20
	.cfi_offset 5, -16
	.cfi_offset 6, -12
	.cfi_offset 7, -8
	.cfi_offset 14, -4
	.loc 1 1090 0
	ldr	r3, [r3]
	.loc 1 1089 0
	mov	r7, r1
	mov	r6, r2
	.loc 1 1090 0
	cbz	r3, .L99
	.loc 1 1095 0
	lsls	r3, r1, #30
	bne	.L102
	.loc 1 1095 0 is_stmt 0 discriminator 1
	cbz	r2, .L102
	.loc 1 1095 0 discriminator 2
	ands	r5, r2, #3
	bne	.L102
	adds	r4, r0, #4
.LVL157:
.L98:
.LBB135:
.LBB136:
	.loc 1 1105 0 is_stmt 1
	adds	r0, r7, r5
	add	r1, sp, #4
	uxth	r0, r0
	bl	ftl_read
.LVL158:
	.loc 1 1106 0
	cbnz	r0, .L95
	.loc 1 1111 0
	ldr	r3, [sp, #4]
	adds	r5, r5, #4
.LVL159:
	.loc 1 1112 0
	lsrs	r2, r3, #8
	.loc 1 1111 0
	strb	r3, [r4, #-4]
	.loc 1 1112 0
	strb	r2, [r4, #-3]
	.loc 1 1113 0
	lsrs	r2, r3, #16
	.loc 1 1114 0
	lsrs	r3, r3, #24
	strb	r3, [r4, #-1]
.LVL160:
	.loc 1 1103 0
	uxth	r3, r5
	cmp	r6, r3
	.loc 1 1113 0
	strb	r2, [r4, #-2]
	add	r4, r4, #4
	.loc 1 1103 0
	bne	.L98
.LVL161:
.L95:
.LBE136:
.LBE135:
	.loc 1 1122 0
	add	sp, sp, #12
	.cfi_remember_state
	.cfi_def_cfa_offset 20
	@ sp needed
	pop	{r4, r5, r6, r7, pc}
.LVL162:
.L99:
	.cfi_restore_state
	.loc 1 1092 0
	movs	r0, #5
.LVL163:
	b	.L95
.LVL164:
.L102:
	.loc 1 1097 0
	movs	r0, #4
.LVL165:
	b	.L95
.L105:
	.align	2
.L104:
	.word	.LANCHOR1
	.cfi_endproc
.LFE596:
	.size	ftl_load_from_storage_i, .-ftl_load_from_storage_i
	.section	.text.ftl_write,"ax",%progbits
	.align	1
	.global	ftl_write
	.syntax unified
	.thumb
	.thumb_func
	.fpu softvfp
	.type	ftl_write, %function
ftl_write:
.LFB597:
	.loc 1 1125 0
	.cfi_startproc
	@ args = 0, pretend = 0, frame = 16
	@ frame_needed = 0, uses_anonymous_args = 0
.LVL166:
	push	{r4, r5, r6, r7, r8, r9, r10, fp, lr}
	.cfi_def_cfa_offset 36
	.cfi_offset 4, -36
	.cfi_offset 5, -32
	.cfi_offset 6, -28
	.cfi_offset 7, -24
	.cfi_offset 8, -20
	.cfi_offset 9, -16
	.cfi_offset 10, -12
	.cfi_offset 11, -8
	.cfi_offset 14, -4
	sub	sp, sp, #20
	.cfi_def_cfa_offset 56
	.loc 1 1125 0
	mov	r9, r0
	str	r1, [sp]
.LBB151:
.LBB152:
	.file 3 "../../../component/soc/realtek/8710c/cmsis/cmsis-core/include/cmsis_gcc.h"
	.loc 3 209 0
	.syntax unified
@ 209 "../../../component/soc/realtek/8710c/cmsis/cmsis-core/include/cmsis_gcc.h" 1
	MRS r3, ipsr
@ 0 "" 2
	.thumb
	.syntax unified
.LBE152:
.LBE151:
	.loc 1 1130 0
	cmp	r3, #0
	bne	.L116
.LVL167:
.LBB153:
.LBB154:
	.loc 1 1136 0
	ldr	r3, .L125
	ldr	r0, [r3]
.LVL168:
	str	r3, [sp, #4]
	.loc 1 1136 0
	cmp	r0, #0
	beq	.L117
	.loc 1 1138 0
	mov	r1, #-1
.LVL169:
	bl	xQueueTakeMutexRecursive
.LVL170:
	.loc 1 1128 0
	subs	r3, r0, #1
	rsbs	r7, r3, #0
	adcs	r7, r7, r3
.L108:
.LVL171:
	.loc 1 1144 0
	mov	r0, r9
	bl	ftl_check_logical_addr
.LVL172:
	mov	r6, r0
	cmp	r0, #0
	bne	.L118
.LBB155:
	.loc 1 1159 0
	ldr	r5, .L125+4
	ldr	fp, .L125+20
.L115:
	movw	r2, #1022
	ldrh	r1, [r5]
	ldr	r4, .L125+8
	cmp	r1, r2
	bgt	.L110
.LVL173:
.LBB156:
	.loc 1 1168 0
	ldrb	ip, [r4]	@ zero_extendqisi2
	ldr	r0, [fp]
	ldr	r2, [sp]
	add	r0, r0, ip, lsl #12
	bl	ftl_page_write
.LVL174:
	.loc 1 1172 0
	ldr	r3, [fp]
	ldrh	r1, [r5]
	ldrb	r0, [r4]	@ zero_extendqisi2
	orr	r2, r9, #2130706432
	add	r0, r3, r0, lsl #12
	orr	r2, r2, #65536
	adds	r1, r1, #1
	bl	ftl_page_write
.LVL175:
	.loc 1 1176 0
	ldrh	r2, [r5]
	ldrb	r1, [r4]	@ zero_extendqisi2
	mov	r0, r9
	bl	write_mapping_table
.LVL176:
	.loc 1 1179 0
	ldrh	r3, [r5]
	adds	r3, r3, #2
	strh	r3, [r5]	@ movhi
.LVL177:
.L109:
.LBE156:
.LBE155:
	.loc 1 1238 0
	cmp	r7, #0
	beq	.L106
	.loc 1 1240 0
	ldr	r3, [sp, #4]
	ldr	r0, [r3]
	bl	xQueueGiveMutexRecursive
.LVL178:
	b	.L106
.LVL179:
.L117:
	.loc 1 1128 0
	mov	r7, r0
	b	.L108
.LVL180:
.L110:
.LBB161:
.LBB157:
	.loc 1 1188 0
	ldrb	r0, [r4]	@ zero_extendqisi2
	ldr	r2, [fp]
	add	r1, sp, #14
	add	r0, r2, r0, lsl #12
	bl	ftl_get_page_end_position
.LVL181:
	cbz	r0, .L111
	.loc 1 1192 0
	ldrh	r1, [r5]
	ldrb	r0, [r4]	@ zero_extendqisi2
	ldr	r2, [fp]
	subs	r1, r1, #1
	uxth	r1, r1
	add	r0, r2, r0, lsl #12
	bl	ftl_set_page_end_position
.LVL182:
.L111:
	.loc 1 1196 0
	ldrb	r2, [r4]	@ zero_extendqisi2
	.loc 1 1197 0
	ldr	r1, .L125+12
	.loc 1 1196 0
	adds	r2, r2, #1
	.loc 1 1197 0
	ldrb	r1, [r1]	@ zero_extendqisi2
	.loc 1 1196 0
	uxtb	r2, r2
.LVL183:
	.loc 1 1197 0
	udiv	r8, r2, r1
	mls	r8, r1, r8, r2
	.loc 1 1199 0
	ldr	r0, [fp]
	.loc 1 1197 0
	uxtb	r8, r8
.LVL184:
	.loc 1 1199 0
	lsl	r10, r8, #12
	add	r0, r0, r10
	bl	ftl_page_is_valid
.LVL185:
	cbz	r0, .L112
.LBB158:
	.loc 1 1205 0
	ldrb	r0, [r4]	@ zero_extendqisi2
	ldr	r2, [fp]
	add	r0, r2, r0, lsl #12
	bl	ftl_get_page_seq
.LVL186:
	adds	r1, r0, #1
	.loc 1 1206 0
	ldr	r0, [fp]
.LVL187:
	uxtb	r1, r1
	add	r0, r0, r10
	bl	ftl_page_format
.LVL188:
	cbnz	r0, .L113
	.loc 1 1208 0
	movs	r6, #7
.LVL189:
.L106:
.LBE158:
.LBE157:
.LBE161:
.LBE154:
.LBE153:
	.loc 1 1246 0
	mov	r0, r6
	add	sp, sp, #20
	.cfi_remember_state
	.cfi_def_cfa_offset 36
.LVL190:
	@ sp needed
	pop	{r4, r5, r6, r7, r8, r9, r10, fp, pc}
.LVL191:
.L113:
	.cfi_restore_state
.LBB164:
.LBB163:
.LBB162:
.LBB160:
.LBB159:
	.loc 1 1213 0
	movs	r2, #2
	ldr	r3, .L125+4
	.loc 1 1212 0
	strb	r8, [r4]
	.loc 1 1213 0
	strh	r2, [r3]	@ movhi
	.loc 1 1215 0
	ldr	r2, .L125+16
	ldrb	r0, [r2]	@ zero_extendqisi2
	cmp	r0, #0
	bne	.L115
	.loc 1 1223 0
	mov	r1, #512
	bl	ftl_page_garbage_collect
.LVL192:
	b	.L115
.L112:
.LVL193:
.LBE159:
	.loc 1 1233 0
	movs	r6, #3
	b	.L109
.LVL194:
.L118:
.LBE160:
.LBE162:
	.loc 1 1147 0
	movs	r6, #2
	b	.L109
.LVL195:
.L116:
.LBE163:
.LBE164:
	.loc 1 1133 0
	movs	r6, #1
	b	.L106
.L126:
	.align	2
.L125:
	.word	.LANCHOR4
	.word	g_free_cell_index
	.word	g_cur_pageID
	.word	.LANCHOR0
	.word	.LANCHOR5
	.word	.LANCHOR1
	.cfi_endproc
.LFE597:
	.size	ftl_write, .-ftl_write
	.section	.text.ftl_page_garbage_collect_Imp,"ax",%progbits
	.align	1
	.global	ftl_page_garbage_collect_Imp
	.syntax unified
	.thumb
	.thumb_func
	.fpu softvfp
	.type	ftl_page_garbage_collect_Imp, %function
ftl_page_garbage_collect_Imp:
.LFB584:
	.loc 1 477 0
	.cfi_startproc
	@ args = 0, pretend = 0, frame = 8
	@ frame_needed = 0, uses_anonymous_args = 0
.LVL196:
	push	{r4, r5, r6, r7, r8, r9, r10, fp, lr}
	.cfi_def_cfa_offset 36
	.cfi_offset 4, -36
	.cfi_offset 5, -32
	.cfi_offset 6, -28
	.cfi_offset 7, -24
	.cfi_offset 8, -20
	.cfi_offset 9, -16
	.cfi_offset 10, -12
	.cfi_offset 11, -8
	.cfi_offset 14, -4
	.loc 1 483 0
	ldr	r3, .L145
	.loc 1 477 0
	sub	sp, sp, #20
	.cfi_def_cfa_offset 56
	.loc 1 483 0
	ldrb	r4, [r3]	@ zero_extendqisi2
	.loc 1 502 0
	ldr	r9, .L145+8
	.loc 1 483 0
	bl	ftl_get_free_page_count
.LVL197:
	mov	r7, r9
	subs	r4, r4, #1
	subs	r4, r4, r0
.LBB165:
	.loc 1 540 0
	ldr	r10, .L145+12
.LBE165:
	.loc 1 483 0
	sxtb	r4, r4
.LVL198:
.L128:
	.loc 1 500 0
	bl	ftl_page_get_oldest
.LVL199:
	.loc 1 502 0
	lsls	r6, r0, #12
	.loc 1 500 0
	mov	r8, r0
.LVL200:
	.loc 1 502 0
	ldr	r0, [r9]
.LVL201:
	add	r1, sp, #14
	add	r0, r0, r6
	bl	ftl_get_page_end_position
.LVL202:
	.loc 1 503 0
	uxth	r0, r0
	cbz	r0, .L129
	.loc 1 506 0
	movw	r3, #1023
	strh	r3, [sp, #14]	@ movhi
.L129:
	.loc 1 477 0 discriminator 1
	movs	r5, #0
.LVL203:
.L130:
	.loc 1 511 0 discriminator 1
	ldrh	r1, [sp, #14]
.LBB171:
	.loc 1 513 0 discriminator 1
	ldr	r0, [r7]
.LBE171:
	.loc 1 511 0 discriminator 1
	cmp	r1, #2
.LBB172:
	.loc 1 513 0 discriminator 1
	add	r0, r0, r6
.LBE172:
	.loc 1 511 0 discriminator 1
	bhi	.L134
	.loc 1 549 0
	bl	ftl_page_erase
.LVL204:
	cbnz	r0, .L135
.L137:
	.loc 1 575 0
	bl	ftl_get_free_page_count
.LVL205:
	ldr	r3, .L145+4
	strb	r0, [r3]
	.loc 1 577 0
	mov	r0, r5
	add	sp, sp, #20
	.cfi_remember_state
	.cfi_def_cfa_offset 36
	@ sp needed
	pop	{r4, r5, r6, r7, r8, r9, r10, fp, pc}
.LVL206:
.L134:
	.cfi_restore_state
.LBB173:
	.loc 1 513 0
	bl	ftl_page_read
.LVL207:
.LBB166:
.LBB167:
	.loc 1 196 0
	cmp	r0, #0
	blt	.L131
.LVL208:
.LBE167:
.LBE166:
	.loc 1 516 0
	ubfx	r3, r0, #16, #8
	cmp	r3, #1
	bne	.L131
.LBB168:
	.loc 1 518 0
	uxth	fp, r0
.LVL209:
	.loc 1 520 0
	mov	r1, r8
	mov	r0, fp
.LVL210:
	bl	ftl_page_can_addr_drop
.LVL211:
	cbz	r0, .L132
.LVL212:
.L144:
.LBE168:
	.loc 1 543 0 discriminator 1
	adds	r5, r5, #1
.LVL213:
	uxth	r5, r5
.LVL214:
	b	.L133
.LVL215:
.L132:
.LBB170:
.LBB169:
	.loc 1 532 0
	ldrh	r1, [sp, #14]
	ldr	r0, [r7]
	subs	r1, r1, #1
	add	r0, r0, r6
	bl	ftl_page_read
.LVL216:
	.loc 1 535 0
	mov	r1, r0
	mov	r0, fp
.LVL217:
	bl	ftl_write
.LVL218:
.L133:
.LBE169:
.LBE170:
.LBE173:
	.loc 1 511 0
	ldrh	r3, [sp, #14]
	subs	r3, r3, #2
	strh	r3, [sp, #14]	@ movhi
	b	.L130
.LVL219:
.L131:
.LBB174:
	.loc 1 540 0 discriminator 1
	str	r0, [sp]
	ldrh	r3, [sp, #14]
	mov	r2, r4
	mov	r1, r8
	mov	r0, r10
.LVL220:
	bl	__wrap_printf
.LVL221:
	b	.L144
.L135:
.LBE174:
	.loc 1 559 0
	cmp	r5, #0
	bne	.L137
	.loc 1 561 0
	cmp	r4, #0
	beq	.L137
	subs	r4, r4, #1
.LVL222:
	sxtb	r4, r4
.LVL223:
	.loc 1 566 0
	b	.L128
.L146:
	.align	2
.L145:
	.word	.LANCHOR0
	.word	g_free_page_count
	.word	.LANCHOR1
	.word	.LC4
	.cfi_endproc
.LFE584:
	.size	ftl_page_garbage_collect_Imp, .-ftl_page_garbage_collect_Imp
	.section	.text.ftl_page_garbage_collect,"ax",%progbits
	.align	1
	.global	ftl_page_garbage_collect
	.syntax unified
	.thumb
	.thumb_func
	.fpu softvfp
	.type	ftl_page_garbage_collect, %function
ftl_page_garbage_collect:
.LFB585:
	.loc 1 580 0
	.cfi_startproc
	@ args = 0, pretend = 0, frame = 0
	@ frame_needed = 0, uses_anonymous_args = 0
.LVL224:
	push	{r3, r4, r5, r6, r7, r8, r9, lr}
	.cfi_def_cfa_offset 32
	.cfi_offset 3, -32
	.cfi_offset 4, -28
	.cfi_offset 5, -24
	.cfi_offset 6, -20
	.cfi_offset 7, -16
	.cfi_offset 8, -12
	.cfi_offset 9, -8
	.cfi_offset 14, -4
	.loc 1 583 0
	ldr	r7, .L159
	.loc 1 580 0
	mov	r9, r0
	.loc 1 583 0
	ldr	r0, [r7]
.LVL225:
	.loc 1 580 0
	mov	r8, r1
	.loc 1 583 0
	cbz	r0, .L148
	.loc 1 585 0
	mov	r1, #-1
.LVL226:
	bl	xQueueTakeMutexRecursive
.LVL227:
.L148:
	.loc 1 588 0
	ldr	r4, .L159+4
	ldrb	r5, [r4]	@ zero_extendqisi2
	cbnz	r5, .L152
	.loc 1 590 0
	movs	r6, #1
	.loc 1 592 0
	ldr	r3, .L159+8
	.loc 1 590 0
	strb	r6, [r4]
	.loc 1 592 0
	ldrb	r3, [r3]	@ zero_extendqisi2
	cmp	r3, r9
	bhi	.L150
	.loc 1 594 0
	ldr	r3, .L159+12
	ldrh	r3, [r3]
	cmp	r3, r8
	bhi	.L150
	.loc 1 598 0
	bl	ftl_page_garbage_collect_Imp
.LVL228:
	.loc 1 599 0
	mov	r5, r6
.LVL229:
.L150:
	.loc 1 603 0
	movs	r3, #0
	strb	r3, [r4]
.LVL230:
.L149:
	.loc 1 606 0
	ldr	r0, [r7]
	.loc 1 606 0
	cbz	r0, .L151
	.loc 1 608 0
	bl	xQueueGiveMutexRecursive
.LVL231:
.L151:
	.loc 1 612 0
	mov	r0, r5
	pop	{r3, r4, r5, r6, r7, r8, r9, pc}
.LVL232:
.L152:
	.loc 1 581 0
	movs	r5, #0
	b	.L149
.L160:
	.align	2
.L159:
	.word	.LANCHOR4
	.word	.LANCHOR5
	.word	g_free_page_count
	.word	g_free_cell_index
	.cfi_endproc
.LFE585:
	.size	ftl_page_garbage_collect, .-ftl_page_garbage_collect
	.section	.text.ftl_garbage_collect_in_idle,"ax",%progbits
	.align	1
	.global	ftl_garbage_collect_in_idle
	.syntax unified
	.thumb
	.thumb_func
	.fpu softvfp
	.type	ftl_garbage_collect_in_idle, %function
ftl_garbage_collect_in_idle:
.LFB586:
	.loc 1 615 0
	.cfi_startproc
	@ args = 0, pretend = 0, frame = 0
	@ frame_needed = 0, uses_anonymous_args = 0
	@ link register save eliminated.
	.loc 1 616 0
	ldr	r3, .L169
	ldr	r3, [r3]
	cbz	r3, .L161
	.loc 1 620 0
	ldr	r3, .L169+4
	ldrb	r3, [r3]	@ zero_extendqisi2
	cbz	r3, .L161
	.loc 1 622 0
	ldr	r3, .L169+8
	ldrb	r0, [r3]	@ zero_extendqisi2
	ldr	r3, .L169+12
	ldrb	r3, [r3]	@ zero_extendqisi2
	cmp	r3, r0
	bhi	.L161
	.loc 1 624 0
	ldr	r3, .L169+16
	ldrh	r1, [r3]
	ldr	r3, .L169+20
	ldrh	r3, [r3]
	cmp	r3, r1
	bhi	.L161
	.loc 1 626 0
	b	ftl_page_garbage_collect
.LVL233:
.L161:
	bx	lr
.L170:
	.align	2
.L169:
	.word	.LANCHOR1
	.word	.LANCHOR6
	.word	.LANCHOR7
	.word	g_free_page_count
	.word	.LANCHOR8
	.word	g_free_cell_index
	.cfi_endproc
.LFE586:
	.size	ftl_garbage_collect_in_idle, .-ftl_garbage_collect_in_idle
	.section	.text.ftl_save_to_storage_i,"ax",%progbits
	.align	1
	.global	ftl_save_to_storage_i
	.syntax unified
	.thumb
	.thumb_func
	.fpu softvfp
	.type	ftl_save_to_storage_i, %function
ftl_save_to_storage_i:
.LFB594:
	.loc 1 995 0
	.cfi_startproc
	@ args = 0, pretend = 0, frame = 0
	@ frame_needed = 0, uses_anonymous_args = 0
.LVL234:
	push	{r3, r4, r5, r6, r7, lr}
	.cfi_def_cfa_offset 24
	.cfi_offset 3, -24
	.cfi_offset 4, -20
	.cfi_offset 5, -16
	.cfi_offset 6, -12
	.cfi_offset 7, -8
	.cfi_offset 14, -4
	.loc 1 998 0
	ldr	r3, .L179
	.loc 1 995 0
	mov	r7, r0
.LVL235:
	.loc 1 998 0
	ldr	r3, [r3]
	.loc 1 995 0
	mov	r6, r1
	mov	r5, r2
	.loc 1 998 0
	cbz	r3, .L174
	.loc 1 1003 0
	lsls	r3, r1, #30
	bne	.L177
	.loc 1 1003 0 is_stmt 0 discriminator 1
	cbz	r2, .L177
	.loc 1 1003 0 discriminator 2
	ands	r4, r2, #3
	bne	.L177
.LVL236:
.L173:
.LBB178:
.LBB179:
.LBB180:
	.loc 1 1023 0 is_stmt 1
	adds	r0, r6, r4
	ldr	r1, [r7, r4]	@ unaligned
	uxth	r0, r0
	bl	ftl_write
.LVL237:
	.loc 1 1026 0
	cbnz	r0, .L171
.LVL238:
	adds	r4, r4, #4
.LVL239:
.LBE180:
	.loc 1 1016 0
	uxth	r3, r4
	cmp	r5, r3
	bne	.L173
	pop	{r3, r4, r5, r6, r7, pc}
.LVL240:
.L174:
.LBE179:
.LBE178:
	.loc 1 1000 0
	movs	r0, #8
.LVL241:
	pop	{r3, r4, r5, r6, r7, pc}
.LVL242:
.L177:
	.loc 1 1005 0
	movs	r0, #6
.LVL243:
.L171:
	.loc 1 1079 0
	pop	{r3, r4, r5, r6, r7, pc}
.LVL244:
.L180:
	.align	2
.L179:
	.word	.LANCHOR1
	.cfi_endproc
.LFE594:
	.size	ftl_save_to_storage_i, .-ftl_save_to_storage_i
	.section	.text.ftl_save_to_storage,"ax",%progbits
	.align	1
	.weak	ftl_save_to_storage
	.syntax unified
	.thumb
	.thumb_func
	.fpu softvfp
	.type	ftl_save_to_storage, %function
ftl_save_to_storage:
.LFB595:
	.loc 1 1082 0
	.cfi_startproc
	@ args = 0, pretend = 0, frame = 0
	@ frame_needed = 0, uses_anonymous_args = 0
	@ link register save eliminated.
.LVL245:
	.loc 1 1083 0
	b	ftl_save_to_storage_i
.LVL246:
	.cfi_endproc
.LFE595:
	.size	ftl_save_to_storage, .-ftl_save_to_storage
	.section	.text.ftl_load_from_storage,"ax",%progbits
	.align	1
	.weak	ftl_load_from_storage
	.syntax unified
	.thumb
	.thumb_func
	.fpu softvfp
	.type	ftl_load_from_storage, %function
ftl_load_from_storage:
.LFB598:
	.loc 1 1249 0
	.cfi_startproc
	@ args = 0, pretend = 0, frame = 0
	@ frame_needed = 0, uses_anonymous_args = 0
	@ link register save eliminated.
.LVL247:
	.loc 1 1250 0
	b	ftl_load_from_storage_i
.LVL248:
	.cfi_endproc
.LFE598:
	.size	ftl_load_from_storage, .-ftl_load_from_storage
	.section	.text.ftl_ioctl,"ax",%progbits
	.align	1
	.global	ftl_ioctl
	.syntax unified
	.thumb
	.thumb_func
	.fpu softvfp
	.type	ftl_ioctl, %function
ftl_ioctl:
.LFB599:
	.loc 1 1254 0
	.cfi_startproc
	@ args = 0, pretend = 0, frame = 0
	@ frame_needed = 0, uses_anonymous_args = 0
.LVL249:
	push	{r4, r5, r6, r7, r8, r9, r10, lr}
	.cfi_def_cfa_offset 32
	.cfi_offset 4, -32
	.cfi_offset 5, -28
	.cfi_offset 6, -24
	.cfi_offset 7, -20
	.cfi_offset 8, -16
	.cfi_offset 9, -12
	.cfi_offset 10, -8
	.cfi_offset 14, -4
	.loc 1 1255 0
	ldr	r5, .L204
	.loc 1 1254 0
	mov	r4, r0
	.loc 1 1255 0
	ldr	r3, [r5]
	.loc 1 1254 0
	mov	r0, r1
.LVL250:
	.loc 1 1255 0
	cmp	r3, #0
	beq	.L197
.LVL251:
	.loc 1 1262 0
	cmp	r4, #6
	bhi	.L198
	tbb	[pc, r4]
.L186:
	.byte	(.L185-.L186)/2
	.byte	(.L198-.L186)/2
	.byte	(.L187-.L186)/2
	.byte	(.L188-.L186)/2
	.byte	(.L189-.L186)/2
	.byte	(.L190-.L186)/2
	.byte	(.L191-.L186)/2
	.p2align 1
.L187:
	.loc 1 1262 0 is_stmt 0 discriminator 1
	movs	r4, #0
.LVL252:
.LBB181:
	.loc 1 1294 0 is_stmt 1 discriminator 1
	ldr	r6, .L204+4
.LVL253:
.L192:
	ldrb	r3, [r6]	@ zero_extendqisi2
	cmp	r4, r3
	bcc	.L193
	.loc 1 1300 0
	rsb	r2, r3, r3, lsl #9
	movs	r3, #4
	sub	r2, r2, #512
	lsls	r2, r2, #2
	sdiv	r2, r2, r3
	movs	r3, #12
	muls	r2, r3, r2
	movs	r3, #8
	sdiv	r2, r2, r3
	ldr	r3, .L204+8
	movs	r1, #0
	ldr	r0, [r3]
	bl	memset
.LVL254:
	.loc 1 1303 0
	movs	r4, #0
.LVL255:
	.loc 1 1304 0
	movs	r2, #2
	ldr	r3, .L204+12
	.loc 1 1303 0
	ldr	r6, .L204+16
	.loc 1 1304 0
	strh	r2, [r3]	@ movhi
	.loc 1 1303 0
	strb	r4, [r6]
	.loc 1 1307 0
	bl	ftl_get_free_page_count
.LVL256:
	ldr	r3, .L204+20
	.loc 1 1309 0
	mov	r1, r4
	.loc 1 1307 0
	strb	r0, [r3]
	.loc 1 1309 0
	ldrb	r0, [r6]	@ zero_extendqisi2
	ldr	r3, [r5]
	add	r0, r3, r0, lsl #12
	bl	ftl_page_format
.LVL257:
	clz	r4, r0
	lsrs	r4, r4, #5
.LVL258:
.LBE181:
	.loc 1 1325 0
	b	.L184
.LVL259:
.L185:
.LBB182:
	.loc 1 1266 0
	bl	ftl_get_free_page_count
.LVL260:
.L184:
.LBE182:
	.loc 1 1370 0
	mov	r0, r4
	pop	{r4, r5, r6, r7, r8, r9, r10, pc}
.LVL261:
.L193:
.LBB183:
	.loc 1 1296 0 discriminator 3
	movs	r2, #0
	ldr	r0, [r5]
	mov	r1, r2
	add	r0, r0, r4, lsl #12
	bl	ftl_page_write
.LVL262:
	.loc 1 1294 0 discriminator 3
	adds	r4, r4, #1
.LVL263:
	b	.L192
.LVL264:
.L188:
.LBE183:
.LBB184:
	.loc 1 1328 0
	bl	ftl_get_free_page_count
.LVL265:
	.loc 1 1331 0
	mov	r8, r0
	cbz	r0, .L199
	movs	r6, #1
	movw	r4, #1260
.LVL266:
	.loc 1 1337 0 discriminator 1
	ldr	r9, .L204+16
	ldr	r10, .L204+4
.LVL267:
.L194:
	.loc 1 1335 0 discriminator 1
	cmp	r6, r8
	bhi	.L184
.LVL268:
	.loc 1 1337 0
	ldrb	r7, [r9]	@ zero_extendqisi2
	ldrb	r2, [r10]	@ zero_extendqisi2
	adds	r3, r7, r6
	sdiv	r7, r3, r2
	mls	r7, r2, r7, r3
	.loc 1 1338 0
	ldr	r0, [r5]
	lsls	r7, r7, #12
	add	r0, r0, r7
	bl	ftl_page_is_valid
.LVL269:
	cbz	r0, .L195
	.loc 1 1340 0
	ldr	r0, [r5]
	add	r0, r0, r7
	bl	ftl_page_erase
.LVL270:
	clz	r4, r0
	lsrs	r4, r4, #5
.LVL271:
.L195:
	.loc 1 1335 0
	adds	r6, r6, #1
.LVL272:
	uxtb	r6, r6
.LVL273:
	b	.L194
.LVL274:
.L189:
.LBE184:
	.loc 1 1347 0
	movs	r1, #1
	ldr	r3, .L204+24
	strb	r1, [r3]
	.loc 1 1348 0
	ldr	r3, .L204+28
	strb	r0, [r3]
	.loc 1 1349 0
	ldr	r3, .L204+32
	strh	r2, [r3]	@ movhi
.LVL275:
.L203:
	.loc 1 1362 0
	movs	r4, #0
.LVL276:
	.loc 1 1364 0
	b	.L184
.LVL277:
.L190:
	.loc 1 1355 0
	movs	r4, #0
.LVL278:
	ldr	r3, .L204+24
	strb	r4, [r3]
.LVL279:
	.loc 1 1358 0
	b	.L184
.LVL280:
.L191:
	.loc 1 1361 0
	mov	r1, r2
	bl	ftl_page_garbage_collect
.LVL281:
	b	.L203
.LVL282:
.L197:
	.loc 1 1257 0
	movs	r4, #5
.LVL283:
	b	.L184
.LVL284:
.L198:
	.loc 1 1260 0
	movw	r4, #1260
.LVL285:
	b	.L184
.LVL286:
.L199:
.LBB185:
	.loc 1 1333 0
	movw	r4, #1333
.LVL287:
	b	.L184
.L205:
	.align	2
.L204:
	.word	.LANCHOR1
	.word	.LANCHOR0
	.word	.LANCHOR2
	.word	g_free_cell_index
	.word	g_cur_pageID
	.word	g_free_page_count
	.word	.LANCHOR6
	.word	.LANCHOR7
	.word	.LANCHOR8
.LBE185:
	.cfi_endproc
.LFE599:
	.size	ftl_ioctl, .-ftl_ioctl
	.section	.text.ftl_recover_from_power_lost,"ax",%progbits
	.align	1
	.global	ftl_recover_from_power_lost
	.syntax unified
	.thumb
	.thumb_func
	.fpu softvfp
	.type	ftl_recover_from_power_lost, %function
ftl_recover_from_power_lost:
.LFB590:
	.loc 1 704 0
	.cfi_startproc
	@ args = 0, pretend = 0, frame = 8
	@ frame_needed = 0, uses_anonymous_args = 0
	push	{r0, r1, r2, r4, r5, r6, r7, r8, r9, r10, fp, lr}
	.cfi_def_cfa_offset 48
	.cfi_offset 4, -36
	.cfi_offset 5, -32
	.cfi_offset 6, -28
	.cfi_offset 7, -24
	.cfi_offset 8, -20
	.cfi_offset 9, -16
	.cfi_offset 10, -12
	.cfi_offset 11, -8
	.cfi_offset 14, -4
	.loc 1 707 0
	bl	ftl_get_free_page_count
.LVL288:
	cbnz	r0, .L206
.LVL289:
.LBB194:
.LBB195:
	.loc 1 724 0
	bl	ftl_page_get_oldest
.LVL290:
	.loc 1 728 0
	ldr	r4, .L223
	lsls	r7, r0, #12
	.loc 1 724 0
	mov	r8, r0
.LVL291:
	.loc 1 728 0
	ldr	r0, [r4]
.LVL292:
	add	r1, sp, #6
	add	r0, r0, r7
	bl	ftl_get_page_end_position
.LVL293:
	.loc 1 729 0
	uxth	r0, r0
	cbz	r0, .L208
	.loc 1 732 0
	movw	r3, #1023
	strh	r3, [sp, #6]	@ movhi
.L208:
.LBB196:
.LBB197:
.LBB198:
	.loc 1 196 0
	movs	r5, #0
.LBE198:
.LBE197:
	.loc 1 782 0
	ldr	r9, .L223+4
	ldr	r10, .L223+8
.LBB201:
.LBB202:
	.loc 1 761 0
	ldr	fp, .L223+12
.LVL294:
.L209:
.LBE202:
.LBE201:
.LBE196:
	.loc 1 736 0
	ldrh	r1, [sp, #6]
.LBB208:
	.loc 1 738 0
	ldr	r0, [r4]
.LBE208:
	.loc 1 736 0
	cmp	r1, #2
	bhi	.L214
.LVL295:
	.loc 1 794 0
	movs	r2, #0
	add	r0, r0, r7
	mov	r1, r2
	bl	ftl_page_write
.LVL296:
	.loc 1 796 0
	cbz	r5, .L206
	.loc 1 798 0
	movs	r2, #0
	movs	r0, #2
	mov	r1, r2
	bl	ftl_ioctl
.LVL297:
.L206:
.LBE195:
.LBE194:
	.loc 1 807 0
	add	sp, sp, #12
	.cfi_remember_state
	.cfi_def_cfa_offset 36
	@ sp needed
	pop	{r4, r5, r6, r7, r8, r9, r10, fp, pc}
.LVL298:
.L214:
	.cfi_restore_state
.LBB212:
.LBB211:
.LBB209:
	.loc 1 738 0
	add	r0, r0, r7
	bl	ftl_page_read
.LVL299:
.LBB205:
.LBB200:
	.loc 1 196 0
	cmp	r0, #0
	ite	lt
	movlt	r3, #0
.LBB199:
	.loc 1 199 0
	lsrge	r3, r0, #16
.LVL300:
.LBE199:
.LBE200:
.LBE205:
	.loc 1 742 0
	uxtb	r3, r3
.LVL301:
	cmp	r3, #1
	bne	.L211
.LBB206:
	.loc 1 744 0
	uxth	r6, r0
.LVL302:
	.loc 1 746 0
	mov	r1, r8
	mov	r0, r6
.LVL303:
	bl	ftl_page_can_addr_drop
.LVL304:
	cbnz	r0, .L212
.LBB203:
	.loc 1 758 0
	ldrh	r1, [sp, #6]
	ldr	r0, [r4]
	subs	r1, r1, #1
	add	r0, r0, r7
	bl	ftl_page_read
.LVL305:
	.loc 1 761 0
	ldrh	r3, [fp]
	.loc 1 758 0
	mov	r1, r0
.LVL306:
	.loc 1 761 0
	adds	r3, r3, #1
	cmp	r3, #1024
	bcs	.L213
	.loc 1 769 0
	mov	r0, r6
.LVL307:
	bl	ftl_write
.LVL308:
.L212:
.LBE203:
.LBE206:
.LBE209:
	.loc 1 736 0
	ldrh	r3, [sp, #6]
	subs	r3, r3, #2
	strh	r3, [sp, #6]	@ movhi
	b	.L209
.LVL309:
.L213:
.LBB210:
.LBB207:
.LBB204:
	.loc 1 773 0
	adds	r5, r5, #1
.LVL310:
	uxth	r5, r5
.LVL311:
	b	.L212
.LVL312:
.L211:
.LBE204:
.LBE207:
	.loc 1 782 0
	movw	r2, #782
	mov	r1, r9
	mov	r0, r10
.LVL313:
	bl	__wrap_printf
.LVL314:
	b	.L212
.L224:
	.align	2
.L223:
	.word	.LANCHOR1
	.word	.LANCHOR9
	.word	.LC3
	.word	g_free_cell_index
.LBE210:
.LBE211:
.LBE212:
	.cfi_endproc
.LFE590:
	.size	ftl_recover_from_power_lost, .-ftl_recover_from_power_lost
	.section	.text.ftl_mapping_table_init,"ax",%progbits
	.align	1
	.global	ftl_mapping_table_init
	.syntax unified
	.thumb
	.thumb_func
	.fpu softvfp
	.type	ftl_mapping_table_init, %function
ftl_mapping_table_init:
.LFB601:
	.loc 1 1533 0
	.cfi_startproc
	@ args = 0, pretend = 0, frame = 8
	@ frame_needed = 0, uses_anonymous_args = 0
	push	{r0, r1, r2, r4, r5, r6, r7, r8, r9, lr}
	.cfi_def_cfa_offset 40
	.cfi_offset 4, -28
	.cfi_offset 5, -24
	.cfi_offset 6, -20
	.cfi_offset 7, -16
	.cfi_offset 8, -12
	.cfi_offset 9, -8
	.cfi_offset 14, -4
	.loc 1 1534 0
	ldr	r4, .L240
	.loc 1 1534 0
	ldr	r3, [r4]
	cbnz	r3, .L226
	.loc 1 1539 0
	ldr	r3, .L240+4
	ldrb	r3, [r3]	@ zero_extendqisi2
	rsb	r0, r3, r3, lsl #9
	movs	r3, #4
	sub	r0, r0, #512
	lsls	r0, r0, #2
	sdiv	r0, r0, r3
	movs	r3, #12
	muls	r0, r3, r0
	movs	r3, #8
	sdiv	r0, r0, r3
	bl	rtw_zmalloc
.LVL315:
	str	r0, [r4]
.L226:
	.loc 1 1542 0
	ldr	r3, .L240+8
.LBB213:
	.loc 1 1583 0
	ldr	r7, .L240+12
.LBE213:
	.loc 1 1542 0
	ldrb	r5, [r3]	@ zero_extendqisi2
.LVL316:
	.loc 1 1543 0
	ldr	r3, .L240+16
.LBB214:
	.loc 1 1573 0
	ldr	r8, .L240+20
.LBE214:
	.loc 1 1543 0
	ldrh	r4, [r3]
.LBB219:
	.loc 1 1573 0
	ldr	r9, .L240+24
.LBE219:
	.loc 1 1543 0
	subs	r4, r4, #1
.LVL317:
.L227:
	.loc 1 1550 0 discriminator 1
	cmp	r4, #2
	bgt	.L231
	.loc 1 1579 0
	add	r1, sp, #5
	mov	r0, r5
	bl	ftl_get_prev_page
.LVL318:
	cbnz	r0, .L225
.LBB220:
	.loc 1 1583 0
	ldrb	r0, [sp, #5]	@ zero_extendqisi2
	ldr	r3, [r7]
	add	r1, sp, #6
	add	r0, r3, r0, lsl #12
	bl	ftl_get_page_end_position
.LVL319:
	ldrb	r5, [sp, #5]	@ zero_extendqisi2
.LVL320:
	cbnz	r0, .L233
	.loc 1 1585 0
	ldrh	r4, [sp, #6]
.LVL321:
	.loc 1 1588 0
	b	.L227
.LVL322:
.L230:
.LBE220:
.LBB221:
	.loc 1 1573 0 discriminator 1
	movw	r2, #1573
	mov	r1, r8
	mov	r0, r9
.LVL323:
	bl	__wrap_printf
.LVL324:
	b	.L229
.LVL325:
.L233:
.LBE221:
.LBB222:
	.loc 1 1595 0
	movw	r4, #1023
.LVL326:
.L231:
.LBE222:
.LBB223:
	.loc 1 1552 0
	ldr	r0, [r7]
	mov	r1, r4
	add	r0, r0, r5, lsl #12
	bl	ftl_page_read
.LVL327:
.LBB215:
.LBB216:
	.loc 1 196 0
	cmp	r0, #0
	ite	lt
	movlt	r3, #0
.LBB217:
	.loc 1 199 0
	lsrge	r3, r0, #16
.LVL328:
.LBE217:
.LBE216:
.LBE215:
	.loc 1 1556 0
	ands	r3, r3, #255
.LVL329:
	beq	.L229
	.loc 1 1563 0
	cmp	r3, #1
	bne	.L230
.LBB218:
	.loc 1 1565 0
	uxth	r6, r0
.LVL330:
	.loc 1 1566 0
	mov	r0, r6
.LVL331:
	bl	read_mapping_table
.LVL332:
	cbnz	r0, .L229
	.loc 1 1568 0
	subs	r2, r4, #1
	uxth	r2, r2
	mov	r1, r5
	mov	r0, r6
	bl	write_mapping_table
.LVL333:
.L229:
.LBE218:
.LBE223:
	.loc 1 1550 0
	subs	r4, r4, #2
.LVL334:
	b	.L227
.LVL335:
.L225:
	.loc 1 1601 0
	add	sp, sp, #12
	.cfi_def_cfa_offset 28
	@ sp needed
	pop	{r4, r5, r6, r7, r8, r9, pc}
.LVL336:
.L241:
	.align	2
.L240:
	.word	.LANCHOR2
	.word	.LANCHOR0
	.word	g_cur_pageID
	.word	.LANCHOR1
	.word	g_free_cell_index
	.word	.LANCHOR10
	.word	.LC3
	.cfi_endproc
.LFE601:
	.size	ftl_mapping_table_init, .-ftl_mapping_table_init
	.section	.text.ftl_init,"ax",%progbits
	.align	1
	.global	ftl_init
	.syntax unified
	.thumb
	.thumb_func
	.fpu softvfp
	.type	ftl_init, %function
ftl_init:
.LFB600:
	.loc 1 1386 0
	.cfi_startproc
	@ args = 0, pretend = 0, frame = 0
	@ frame_needed = 0, uses_anonymous_args = 0
.LVL337:
	.loc 1 1391 0
	cmp	r1, #3
	it	cc
	movcc	r1, #3
.LVL338:
	.loc 1 1386 0
	push	{r4, r5, r6, r7, r8, r9, r10, lr}
	.cfi_def_cfa_offset 32
	.cfi_offset 4, -32
	.cfi_offset 5, -28
	.cfi_offset 6, -24
	.cfi_offset 7, -20
	.cfi_offset 8, -16
	.cfi_offset 9, -12
	.cfi_offset 10, -8
	.cfi_offset 14, -4
	.loc 1 1393 0
	ldr	r4, .L267
	.loc 1 1391 0
	ldr	r3, .L267+4
	.loc 1 1393 0
	ldr	r2, [r4]
	.loc 1 1386 0
	mov	r5, r0
	.loc 1 1391 0
	strb	r1, [r3]
	mov	r9, r3
	.loc 1 1393 0
	cbnz	r2, .L243
	.loc 1 1395 0
	movs	r0, #4
.LVL339:
	bl	xQueueCreateMutex
.LVL340:
	str	r0, [r4]
.L243:
	.loc 1 1398 0
	ldr	r4, .L267+8
	str	r5, [r4]
.LVL341:
	.loc 1 1409 0
	movs	r5, #0
.LVL342:
	.loc 1 1404 0
	mov	r8, r5
	.loc 1 1403 0
	mov	r7, r5
	.loc 1 1402 0
	mov	r6, r5
.LVL343:
.L244:
	.loc 1 1409 0 discriminator 1
	ldrb	r3, [r9]	@ zero_extendqisi2
	cmp	r5, r3
	bcc	.L248
	.loc 1 1453 0
	cbnz	r6, .L249
.LVL344:
	.loc 1 1460 0
	mov	r1, r6
	ldr	r0, [r4]
	bl	ftl_page_format
.LVL345:
	cbnz	r0, .L255
	.loc 1 1463 0
	ldr	r0, .L267+12
	.loc 1 1462 0
	str	r6, [r4]
	.loc 1 1463 0
	bl	__wrap_printf
.LVL346:
	.loc 1 1464 0
	movs	r0, #1
	pop	{r4, r5, r6, r7, r8, r9, r10, pc}
.LVL347:
.L248:
	.loc 1 1411 0
	ldr	r0, [r4]
	lsl	r10, r5, #12
	add	r0, r0, r10
	bl	ftl_page_is_valid
.LVL348:
	cbnz	r0, .L245
	.loc 1 1413 0
	cmp	r6, #0
	beq	.L246
.LBB224:
	.loc 1 1415 0
	ldr	r0, [r4]
	add	r0, r0, r10
	bl	ftl_get_page_seq
.LVL349:
	.loc 1 1416 0
	cmp	r7, r0
	bcs	.L247
	.loc 1 1418 0
	adds	r3, r7, #1
	cmp	r0, r3
.L266:
	.loc 1 1428 0 discriminator 1
	beq	.L246
.LVL350:
.L245:
.LBE224:
	.loc 1 1409 0 discriminator 2
	adds	r5, r5, #1
.LVL351:
	b	.L244
.LVL352:
.L247:
.LBB225:
	.loc 1 1428 0
	cmp	r0, #0
	bne	.L245
	.loc 1 1428 0 is_stmt 0 discriminator 1
	cmp	r7, #255
	b	.L266
.LVL353:
.L255:
.LBE225:
	.loc 1 1457 0 is_stmt 1
	mov	r8, r6
.LVL354:
.L249:
	.loc 1 1470 0
	movw	r5, #1023
	.loc 1 1472 0
	lsl	r6, r8, #12
.LVL355:
.L253:
	ldr	r0, [r4]
	mov	r1, r5
	add	r0, r0, r6
	bl	ftl_page_read
.LVL356:
	adds	r0, r0, #1
	beq	.L251
	.loc 1 1474 0
	adds	r5, r5, #1
.LVL357:
	uxth	r5, r5
.LVL358:
.L252:
	.loc 1 1487 0
	ldr	r3, .L267+16
	strb	r8, [r3]
	.loc 1 1488 0
	ldr	r3, .L267+20
	strh	r5, [r3]	@ movhi
.LVL359:
.LBB226:
.LBB227:
	.loc 1 1255 0
	ldr	r3, [r4]
	cbz	r3, .L254
.LVL360:
.LBB228:
	.loc 1 1266 0
	bl	ftl_get_free_page_count
.LVL361:
.L254:
.LBE228:
.LBE227:
.LBE226:
	.loc 1 1523 0
	bl	ftl_mapping_table_init
.LVL362:
	.loc 1 1526 0
	bl	ftl_recover_from_power_lost
.LVL363:
	.loc 1 1527 0
	bl	ftl_get_free_page_count
.LVL364:
	ldr	r3, .L267+24
	strb	r0, [r3]
	.loc 1 1529 0
	movs	r0, #0
	pop	{r4, r5, r6, r7, r8, r9, r10, pc}
.LVL365:
.L251:
	.loc 1 1470 0 discriminator 2
	subs	r5, r5, #1
.LVL366:
	cmp	r5, #1
	bne	.L253
	.loc 1 1469 0
	movs	r5, #2
.LVL367:
	b	.L252
.LVL368:
.L246:
	.loc 1 1449 0
	ldr	r0, [r4]
	.loc 1 1448 0
	uxtb	r8, r5
.LVL369:
	.loc 1 1449 0
	add	r0, r0, r10
	bl	ftl_get_page_seq
.LVL370:
	.loc 1 1447 0
	movs	r6, #1
	.loc 1 1449 0
	mov	r7, r0
.LVL371:
	b	.L245
.L268:
	.align	2
.L267:
	.word	.LANCHOR4
	.word	.LANCHOR0
	.word	.LANCHOR1
	.word	.LC5
	.word	g_cur_pageID
	.word	g_free_cell_index
	.word	g_free_page_count
	.cfi_endproc
.LFE600:
	.size	ftl_init, .-ftl_init
	.global	idle_gc_cell_thres
	.global	idle_gc_page_thres
	.global	do_gc_in_idle
	.global	ftl_mapping_table
	.global	ftl_sem
	.comm	g_free_page_count,1,1
	.global	g_PAGE_num
	.global	g_doingGarbageCollection
	.comm	g_cur_pageID,1,1
	.comm	g_free_cell_index,2,2
	.global	g_pPage
	.section	.bss.do_gc_in_idle,"aw",%nobits
	.set	.LANCHOR6,. + 0
	.type	do_gc_in_idle, %object
	.size	do_gc_in_idle, 1
do_gc_in_idle:
	.space	1
	.section	.bss.ftl_mapping_table,"aw",%nobits
	.align	2
	.set	.LANCHOR2,. + 0
	.type	ftl_mapping_table, %object
	.size	ftl_mapping_table, 4
ftl_mapping_table:
	.space	4
	.section	.bss.ftl_sem,"aw",%nobits
	.align	2
	.set	.LANCHOR4,. + 0
	.type	ftl_sem, %object
	.size	ftl_sem, 4
ftl_sem:
	.space	4
	.section	.bss.g_PAGE_num,"aw",%nobits
	.set	.LANCHOR0,. + 0
	.type	g_PAGE_num, %object
	.size	g_PAGE_num, 1
g_PAGE_num:
	.space	1
	.section	.bss.g_doingGarbageCollection,"aw",%nobits
	.set	.LANCHOR5,. + 0
	.type	g_doingGarbageCollection, %object
	.size	g_doingGarbageCollection, 1
g_doingGarbageCollection:
	.space	1
	.section	.bss.g_pPage,"aw",%nobits
	.align	2
	.set	.LANCHOR1,. + 0
	.type	g_pPage, %object
	.size	g_pPage, 4
g_pPage:
	.space	4
	.section	.data.idle_gc_cell_thres,"aw",%progbits
	.align	1
	.set	.LANCHOR8,. + 0
	.type	idle_gc_cell_thres, %object
	.size	idle_gc_cell_thres, 2
idle_gc_cell_thres:
	.short	512
	.section	.data.idle_gc_page_thres,"aw",%progbits
	.set	.LANCHOR7,. + 0
	.type	idle_gc_page_thres, %object
	.size	idle_gc_page_thres, 1
idle_gc_page_thres:
	.byte	1
	.section	.rodata.__FUNCTION__.21530,"a",%progbits
	.set	.LANCHOR9,. + 0
	.type	__FUNCTION__.21530, %object
	.size	__FUNCTION__.21530, 28
__FUNCTION__.21530:
	.ascii	"ftl_recover_from_power_lost\000"
	.section	.rodata.__FUNCTION__.21579,"a",%progbits
	.set	.LANCHOR3,. + 0
	.type	__FUNCTION__.21579, %object
	.size	__FUNCTION__.21579, 9
__FUNCTION__.21579:
	.ascii	"ftl_read\000"
	.section	.rodata.__FUNCTION__.21676,"a",%progbits
	.set	.LANCHOR10,. + 0
	.type	__FUNCTION__.21676, %object
	.size	__FUNCTION__.21676, 23
__FUNCTION__.21676:
	.ascii	"ftl_mapping_table_init\000"
	.section	.rodata.ftl_check_logical_addr.str1.1,"aMS",%progbits,1
.LC1:
	.ascii	"[FTL_LEVEL_ERROR]:ftl_check_logical_addr logical_ad"
	.ascii	"dr exceed MAX_logical_address_size (0x%x, 0x%x)\000"
	.section	.rodata.ftl_init.str1.1,"aMS",%progbits,1
.LC5:
	.ascii	"[FTL_LEVEL_ERROR]:ftl init fail\000"
	.section	.rodata.ftl_page_garbage_collect_Imp.str1.1,"aMS",%progbits,1
.LC4:
	.ascii	"[FTL_LEVEL_ERROR]:ftl_page_garbage_collect_Imp:leng"
	.ascii	"th != 1!recycle page:%x, retry_count:%x, index:%x, "
	.ascii	"read value:%x\000"
	.section	.rodata.ftl_page_write.part.0.str1.1,"aMS",%progbits,1
.LC0:
	.ascii	"[FTL_LEVEL_ERROR]:[ftl](ftl_page_write) P: %x, idx:"
	.ascii	" %d, D: 0x%08x, read back: %x \012\000"
	.section	.rodata.ftl_read.str1.1,"aMS",%progbits,1
.LC2:
	.ascii	"[FTL_LEVEL_ERROR]:[ftl] logical address parse error"
	.ascii	"! func: %s, line: %d\000"
.LC3:
	.ascii	"[FTL_LEVEL_ERROR]:[ftl] length != 1! func: %s, line"
	.ascii	": %d\000"
	.text
.Letext0:
	.file 4 "/home/ls/8720cf/sdk-ameba-v7.1d/tools/arm-none-eabi-gcc/asdk/linux/newlib/arm-none-eabi/include/machine/_default_types.h"
	.file 5 "/home/ls/8720cf/sdk-ameba-v7.1d/tools/arm-none-eabi-gcc/asdk/linux/newlib/lib/gcc/arm-none-eabi/6.5.0/include/stddef.h"
	.file 6 "/home/ls/8720cf/sdk-ameba-v7.1d/tools/arm-none-eabi-gcc/asdk/linux/newlib/arm-none-eabi/include/sys/lock.h"
	.file 7 "/home/ls/8720cf/sdk-ameba-v7.1d/tools/arm-none-eabi-gcc/asdk/linux/newlib/arm-none-eabi/include/sys/_types.h"
	.file 8 "/home/ls/8720cf/sdk-ameba-v7.1d/tools/arm-none-eabi-gcc/asdk/linux/newlib/arm-none-eabi/include/sys/reent.h"
	.file 9 "<built-in>"
	.file 10 "/home/ls/8720cf/sdk-ameba-v7.1d/tools/arm-none-eabi-gcc/asdk/linux/newlib/arm-none-eabi/include/sys/_stdint.h"
	.file 11 "/home/ls/8720cf/sdk-ameba-v7.1d/tools/arm-none-eabi-gcc/asdk/linux/newlib/arm-none-eabi/include/time.h"
	.file 12 "/home/ls/8720cf/sdk-ameba-v7.1d/tools/arm-none-eabi-gcc/asdk/linux/newlib/lib/gcc/arm-none-eabi/6.5.0/include/stdarg.h"
	.file 13 "/home/ls/8720cf/sdk-ameba-v7.1d/tools/arm-none-eabi-gcc/asdk/linux/newlib/arm-none-eabi/include/stdio.h"
	.file 14 "/home/ls/8720cf/sdk-ameba-v7.1d/tools/arm-none-eabi-gcc/asdk/linux/newlib/arm-none-eabi/include/stdlib.h"
	.file 15 "../../../component/soc/realtek/8710c/cmsis/rtl8710c/include/basic_types.h"
	.file 16 "../inc/FreeRTOSConfig.h"
	.file 17 "../../../component/soc/realtek/8710c/app/rtl_printf/include/log_buf.h"
	.file 18 "../../../component/soc/realtek/8710c/app/stdio_port/stdio_port.h"
	.file 19 "../../../component/soc/realtek/8710c/app/rtl_printf/include/printf_entry.h"
	.file 20 "../../../component/soc/realtek/8710c/app/rtl_printf/include/rt_printf.h"
	.file 21 "../../../component/soc/realtek/8710c/misc/utilities/include/utility.h"
	.file 22 "../../../component/os/freertos/freertos_v10.0.1/Source/portable/GCC/ARM_RTL8710C/portmacro.h"
	.file 23 "../../../component/os/freertos/freertos_v10.0.1/Source/include/queue.h"
	.file 24 "../../../component/soc/realtek/8710c/cmsis/cmsis-core/include/core_armv8mml.h"
	.file 25 "../../../component/soc/realtek/8710c/cmsis/rtl8710c/include/rtl8710c.h"
	.file 26 "../../../component/soc/realtek/8710c/fwlib/include/hal_api.h"
	.file 27 "../../../component/soc/realtek/8710c/cmsis/rtl8710c/include/rtl8710c_irq.h"
	.file 28 "../../../component/soc/realtek/8710c/fwlib/include/rtl8710c_syson_ctrl.h"
	.file 29 "../../../component/soc/realtek/8710c/fwlib/include/rtl8710c_pin_name.h"
	.file 30 "../../../component/soc/realtek/8710c/fwlib/include/rtl8710c_cache.h"
	.file 31 "../../../component/soc/realtek/8710c/fwlib/include/rtl8710c_gdma.h"
	.file 32 "../../../component/soc/realtek/8710c/fwlib/include/rtl8710c_uart.h"
	.file 33 "../../../component/soc/realtek/8710c/fwlib/include/rtl8710c_timer.h"
	.file 34 "../../../component/soc/realtek/8710c/fwlib/include/rtl8710c_pwm.h"
	.file 35 "../../../component/soc/realtek/8710c/fwlib/include/rtl8710c_flash.h"
	.file 36 "../../../component/soc/realtek/8710c/fwlib/include/rtl8710c_spic.h"
	.file 37 "../../../component/soc/realtek/8710c/fwlib/include/rtl8710c_ssi.h"
	.file 38 "../../../component/soc/realtek/8710c/fwlib/include/rtl8710c_gpio.h"
	.file 39 "../../../component/soc/realtek/8710c/fwlib/include/rtl8710c_lpi.h"
	.file 40 "../../../component/soc/realtek/8710c/fwlib/include/rtl8710c_sce.h"
	.file 41 "../../../component/soc/realtek/8710c/fwlib/include/rtl8710c_misc.h"
	.file 42 "../../../component/soc/realtek/8710c/fwlib/include/hal_cache.h"
	.file 43 "../../../component/soc/realtek/8710c/fwlib/include/hal_crypto.h"
	.file 44 "../../../component/soc/realtek/8710c/fwlib/include/hal_gdma.h"
	.file 45 "../../../component/soc/realtek/8710c/fwlib/include/hal_gpio.h"
	.file 46 "../../../component/soc/realtek/8710c/fwlib/include/hal_irq.h"
	.file 47 "../../../component/soc/realtek/8710c/fwlib/include/hal_misc.h"
	.file 48 "../../../component/soc/realtek/8710c/fwlib/include/hal_pwm.h"
	.file 49 "../../../component/soc/realtek/8710c/fwlib/include/hal_ssi.h"
	.file 50 "../../../component/soc/realtek/8710c/fwlib/include/hal_timer.h"
	.file 51 "../../../component/soc/realtek/8710c/fwlib/include/hal_uart.h"
	.file 52 "../../../component/soc/realtek/8710c/fwlib/include/hal_lpi.h"
	.file 53 "../../../component/soc/realtek/8710c/fwlib/include/hal_sce.h"
	.file 54 "../../../component/common/mbed/targets/hal/rtl8710c/objects.h"
	.file 55 "../../../component/common/mbed/hal_ext/flash_api.h"
	.file 56 "../../../component/common/api/platform/platform_stdlib_rtl8710c.h"
	.file 57 "../../../component/os/os_dep/include/osdep_service.h"
	.file 58 "../../../component/os/os_dep/include/device_lock.h"