	.arch armv8-m.main
	.arch_extension dsp
	.eabi_attribute 20, 1
	.eabi_attribute 21, 1
	.eabi_attribute 23, 3
	.eabi_attribute 24, 1
	.eabi_attribute 25, 1
	.eabi_attribute 26, 1
	.eabi_attribute 30, 4
	.eabi_attribute 34, 1
	.eabi_attribute 18, 4
	.file	"gcs_client.c"
	.text
.Ltext0:
	.cfi_sections	.debug_frame
	.section	.text.gcs_client_notify_ind_cb,"ax",%progbits
	.align	1
	.syntax unified
	.thumb
	.thumb_func
	.fpu softvfp
	.type	gcs_client_notify_ind_cb, %function
gcs_client_notify_ind_cb:
.LFB18:
	.file 1 "../../../component/common/bluetooth/realtek/sdk/src/ble/profile/client/gcs_client.c"
	.loc 1 337 0
	.cfi_startproc
	@ args = 4, pretend = 0, frame = 16
	@ frame_needed = 0, uses_anonymous_args = 0
.LVL0:
	push	{r0, r1, r2, r3, r4, lr}
	.cfi_def_cfa_offset 24
	.cfi_offset 4, -8
	.cfi_offset 14, -4
	.loc 1 341 0
	movs	r4, #3
	.loc 1 344 0
	strh	r3, [sp, #8]	@ movhi
	.loc 1 345 0
	ldr	r3, [sp, #24]
.LVL1:
	.loc 1 341 0
	strb	r4, [sp]
	.loc 1 345 0
	str	r3, [sp, #12]
	.loc 1 347 0
	ldr	r3, .L4
	.loc 1 342 0
	strb	r1, [sp, #4]
	.loc 1 347 0
	ldr	r3, [r3]
	.loc 1 343 0
	strh	r2, [sp, #6]	@ movhi
	.loc 1 347 0
	cbz	r3, .L3
	.loc 1 349 0
	mov	r1, r0
.LVL2:
	ldr	r0, .L4+4
.LVL3:
	mov	r2, sp
.LVL4:
	ldrb	r0, [r0]	@ zero_extendqisi2
	blx	r3
.LVL5:
.L2:
	.loc 1 352 0
	add	sp, sp, #16
	.cfi_remember_state
	.cfi_def_cfa_offset 8
	@ sp needed
	pop	{r4, pc}
.LVL6:
.L3:
	.cfi_restore_state
	.loc 1 339 0
	mov	r0, r3
.LVL7:
	b	.L2
.L5:
	.align	2
.L4:
	.word	.LANCHOR0
	.word	.LANCHOR1
	.cfi_endproc
.LFE18:
	.size	gcs_client_notify_ind_cb, .-gcs_client_notify_ind_cb
	.section	.text.gcs_client_write_result_cb,"ax",%progbits
	.align	1
	.syntax unified
	.thumb
	.thumb_func
	.fpu softvfp
	.type	gcs_client_write_result_cb, %function
gcs_client_write_result_cb:
.LFB17:
	.loc 1 317 0
	.cfi_startproc
	@ args = 4, pretend = 0, frame = 16
	@ frame_needed = 0, uses_anonymous_args = 0
.LVL8:
	push	{r4, r5, r6, r7, lr}
	.cfi_def_cfa_offset 20
	.cfi_offset 4, -20
	.cfi_offset 5, -16
	.cfi_offset 6, -12
	.cfi_offset 7, -8
	.cfi_offset 14, -4
	sub	sp, sp, #28
	.cfi_def_cfa_offset 48
	.loc 1 317 0
	mov	r7, r1
	mov	r4, r2
	mov	r5, r3
.LBB3:
	.loc 1 320 0
	str	r3, [sp]
.LBE3:
	.loc 1 317 0
	mov	r6, r0
.LBB4:
	.loc 1 320 0
	mov	r3, r2
.LVL9:
	ldr	r1, .L11
.LVL10:
	movs	r2, #2
.LVL11:
	ldr	r0, .L11+4
.LVL12:
	bl	trace_log_buffer
.LVL13:
.LBE4:
	.loc 1 322 0
	movs	r3, #2
	strb	r3, [sp, #8]
	.loc 1 327 0
	ldr	r3, .L11+8
	.loc 1 323 0
	strh	r5, [sp, #12]	@ movhi
	.loc 1 327 0
	ldr	r3, [r3]
	.loc 1 324 0
	strh	r4, [sp, #14]	@ movhi
	.loc 1 325 0
	strb	r7, [sp, #16]
	.loc 1 327 0
	cbz	r3, .L6
	.loc 1 329 0
	ldr	r0, .L11+12
	add	r2, sp, #8
	mov	r1, r6
	ldrb	r0, [r0]	@ zero_extendqisi2
	blx	r3
.LVL14:
.L6:
	.loc 1 332 0
	add	sp, sp, #28
	.cfi_def_cfa_offset 20
	@ sp needed
	pop	{r4, r5, r6, r7, pc}
.LVL15:
.L12:
	.align	2
.L11:
	.word	.LANCHOR2
	.word	1058025474
	.word	.LANCHOR0
	.word	.LANCHOR1
	.cfi_endproc
.LFE17:
	.size	gcs_client_write_result_cb, .-gcs_client_write_result_cb
	.section	.text.gcs_client_read_result_cb,"ax",%progbits
	.align	1
	.syntax unified
	.thumb
	.thumb_func
	.fpu softvfp
	.type	gcs_client_read_result_cb, %function
gcs_client_read_result_cb:
.LFB16:
	.loc 1 296 0
	.cfi_startproc
	@ args = 4, pretend = 0, frame = 16
	@ frame_needed = 0, uses_anonymous_args = 0
.LVL16:
	push	{r4, r5, r6, r7, lr}
	.cfi_def_cfa_offset 20
	.cfi_offset 4, -20
	.cfi_offset 5, -16
	.cfi_offset 6, -12
	.cfi_offset 7, -8
	.cfi_offset 14, -4
	sub	sp, sp, #28
	.cfi_def_cfa_offset 48
	.loc 1 296 0
	mov	r5, r1
	mov	r4, r2
	mov	r7, r3
.LBB5:
	.loc 1 298 0
	str	r1, [sp]
	mov	r3, r2
.LVL17:
.LBE5:
	.loc 1 296 0
	mov	r6, r0
.LBB6:
	.loc 1 298 0
	movs	r2, #2
.LVL18:
	ldr	r1, .L18
.LVL19:
	ldr	r0, .L18+4
.LVL20:
	bl	trace_log_buffer
.LVL21:
.LBE6:
	.loc 1 300 0
	movs	r3, #1
	strb	r3, [sp, #8]
	.loc 1 304 0
	ldr	r3, [sp, #48]
	.loc 1 301 0
	strh	r5, [sp, #12]	@ movhi
	.loc 1 304 0
	str	r3, [sp, #20]
	.loc 1 306 0
	ldr	r3, .L18+8
	.loc 1 302 0
	strh	r4, [sp, #14]	@ movhi
	.loc 1 306 0
	ldr	r3, [r3]
	.loc 1 303 0
	strh	r7, [sp, #16]	@ movhi
	.loc 1 306 0
	cbz	r3, .L13
	.loc 1 308 0
	ldr	r0, .L18+12
	add	r2, sp, #8
	mov	r1, r6
	ldrb	r0, [r0]	@ zero_extendqisi2
	blx	r3
.LVL22:
.L13:
	.loc 1 312 0
	add	sp, sp, #28
	.cfi_def_cfa_offset 20
	@ sp needed
	pop	{r4, r5, r6, r7, pc}
.LVL23:
.L19:
	.align	2
.L18:
	.word	.LANCHOR2+56
	.word	1058025474
	.word	.LANCHOR0
	.word	.LANCHOR1
	.cfi_endproc
.LFE16:
	.size	gcs_client_read_result_cb, .-gcs_client_read_result_cb
	.section	.text.gcs_client_discover_state_cb,"ax",%progbits
	.align	1
	.syntax unified
	.thumb
	.thumb_func
	.fpu softvfp
	.type	gcs_client_discover_state_cb, %function
gcs_client_discover_state_cb:
.LFB14:
	.loc 1 260 0
	.cfi_startproc
	@ args = 0, pretend = 0, frame = 16
	@ frame_needed = 0, uses_anonymous_args = 0
.LVL24:
	.loc 1 262 0
	movs	r3, #0
	.loc 1 260 0
	push	{r4, r5, r6, r7, lr}
	.cfi_def_cfa_offset 20
	.cfi_offset 4, -20
	.cfi_offset 5, -16
	.cfi_offset 6, -12
	.cfi_offset 7, -8
	.cfi_offset 14, -4
	mov	r7, r1
	.loc 1 263 0
	ldr	r4, .L33
	.loc 1 260 0
	sub	sp, sp, #20
	.cfi_def_cfa_offset 40
	.loc 1 263 0
	ldr	r2, [r4]
	.loc 1 262 0
	strb	r3, [sp]
	.loc 1 263 0
	sxth	r3, r0
	lsls	r5, r3, #3
	ldrb	r3, [r2, r3, lsl #3]	@ zero_extendqisi2
	.loc 1 260 0
	mov	r6, r0
	.loc 1 263 0
	strb	r3, [sp, #5]
.LBB10:
	.loc 1 264 0
	movs	r2, #1
	mov	r3, r1
	ldr	r0, .L33+4
.LVL25:
	ldr	r1, .L33+8
.LVL26:
	bl	trace_log_buffer
.LVL27:
.LBE10:
	.loc 1 265 0
	cmp	r7, #11
	beq	.L21
	.loc 1 265 0 is_stmt 0 discriminator 1
	ldr	r3, [r4]
	add	r3, r3, r5
	ldrh	r2, [r3, #2]
	cbnz	r2, .L22
.L21:
	.loc 1 267 0 is_stmt 1
	movs	r3, #0
	strb	r3, [sp, #4]
	.loc 1 268 0
	strh	r3, [sp, #6]	@ movhi
.L32:
	.loc 1 275 0
	str	r3, [sp, #8]
	.loc 1 277 0
	ldr	r3, .L33+12
	ldr	r3, [r3]
	cbz	r3, .L24
	.loc 1 279 0
	ldr	r0, .L33+16
	mov	r2, sp
	mov	r1, r6
	ldrb	r0, [r0]	@ zero_extendqisi2
	blx	r3
.LVL28:
.L24:
.LBB11:
.LBB12:
	.loc 1 251 0
	ldr	r3, .L33+20
	ldrb	r3, [r3]	@ zero_extendqisi2
	cmp	r3, r6
	.loc 1 253 0
	itttt	hi
	movhi	r2, #0
	ldrhi	r3, [r4]
	addhi	r3, r3, r5
	strhhi	r2, [r3, #2]	@ movhi
.LVL29:
.LBE12:
.LBE11:
	.loc 1 283 0
	add	sp, sp, #20
	.cfi_remember_state
	.cfi_def_cfa_offset 20
	@ sp needed
	pop	{r4, r5, r6, r7, pc}
.L22:
	.cfi_restore_state
	.loc 1 273 0
	movs	r1, #1
	.loc 1 274 0
	strh	r2, [sp, #6]	@ movhi
	.loc 1 273 0
	strb	r1, [sp, #4]
	.loc 1 275 0
	ldr	r3, [r3, #4]
	b	.L32
.L34:
	.align	2
.L33:
	.word	.LANCHOR3
	.word	1058025474
	.word	.LANCHOR2+112
	.word	.LANCHOR0
	.word	.LANCHOR1
	.word	.LANCHOR4
	.cfi_endproc
.LFE14:
	.size	gcs_client_discover_state_cb, .-gcs_client_discover_state_cb
	.section	.text.gcs_client_discover_result_cb,"ax",%progbits
	.align	1
	.syntax unified
	.thumb
	.thumb_func
	.fpu softvfp
	.type	gcs_client_discover_result_cb, %function
gcs_client_discover_result_cb:
.LFB15:
	.loc 1 287 0
	.cfi_startproc
	@ args = 0, pretend = 0, frame = 0
	@ frame_needed = 0, uses_anonymous_args = 0
.LVL30:
	push	{r4, r5, r6, r7, r8, lr}
	.cfi_def_cfa_offset 24
	.cfi_offset 4, -24
	.cfi_offset 5, -20
	.cfi_offset 6, -16
	.cfi_offset 7, -12
	.cfi_offset 8, -8
	.cfi_offset 14, -4
	.loc 1 287 0
	mov	r6, r0
.LBB18:
	.loc 1 288 0
	mov	r3, r1
.LBE18:
	.loc 1 287 0
	mov	r5, r1
	mov	r4, r2
.LBB19:
	.loc 1 288 0
	ldr	r1, .L41
.LVL31:
	movs	r2, #1
.LVL32:
	ldr	r0, .L41+4
.LVL33:
	bl	trace_log_buffer
.LVL34:
.LBE19:
.LBB20:
.LBB21:
	.loc 1 229 0
	ldr	r3, .L41+8
	ldrb	r3, [r3]	@ zero_extendqisi2
	cmp	r3, r6
	bhi	.L36
.LBB22:
	.loc 1 231 0
	mov	r3, r6
	movs	r2, #1
	ldr	r1, .L41+12
.L40:
.LBE22:
.LBB23:
	.loc 1 237 0
	ldr	r0, .L41+16
.LBE23:
.LBE21:
.LBE20:
	.loc 1 292 0
	pop	{r4, r5, r6, r7, r8, lr}
	.cfi_remember_state
	.cfi_restore 14
	.cfi_restore 8
	.cfi_restore 7
	.cfi_restore 6
	.cfi_restore 5
	.cfi_restore 4
	.cfi_def_cfa_offset 0
.LVL35:
.LBB27:
.LBB26:
.LBB24:
	.loc 1 237 0
	b	trace_log_buffer
.LVL36:
.L36:
	.cfi_restore_state
.LBE24:
	.loc 1 234 0
	ldr	r3, .L41+20
	ldr	r0, [r3]
	.loc 1 235 0
	ldr	r3, .L41+24
	.loc 1 234 0
	add	r0, r0, r6, lsl #3
.LVL37:
	.loc 1 235 0
	ldrh	r2, [r0, #2]
	ldrh	r3, [r3]
	cmp	r2, r3
	bcc	.L37
.LBB25:
	.loc 1 237 0
	movs	r2, #1
	ldr	r1, .L41+28
	b	.L40
.L37:
.LBE25:
	.loc 1 241 0
	movs	r1, #24
	muls	r1, r2, r1
	ldr	r6, [r0, #4]
.LVL38:
	.loc 1 242 0
	mov	r2, r4
	.loc 1 241 0
	adds	r3, r6, r1
.LVL39:
	.loc 1 242 0
	adds	r3, r3, #2
.LVL40:
	adds	r4, r4, #20
.LVL41:
.L38:
	ldr	r7, [r2], #4	@ unaligned
.LVL42:
	cmp	r2, r4
	str	r7, [r3], #4	@ unaligned
	bne	.L38
	ldrh	r2, [r2]	@ unaligned
.LVL43:
	strh	r2, [r3]	@ unaligned
	.loc 1 245 0
	ldrh	r3, [r0, #2]
	.loc 1 244 0
	strb	r5, [r6, r1]
	.loc 1 245 0
	adds	r3, r3, #1
	strh	r3, [r0, #2]	@ movhi
.LVL44:
	pop	{r4, r5, r6, r7, r8, pc}
.LVL45:
.L42:
	.align	2
.L41:
	.word	.LANCHOR2+140
	.word	1058025474
	.word	.LANCHOR4
	.word	.LANCHOR2+192
	.word	1058025472
	.word	.LANCHOR3
	.word	.LANCHOR5
	.word	.LANCHOR2+244
.LBE26:
.LBE27:
	.cfi_endproc
.LFE15:
	.size	gcs_client_discover_result_cb, .-gcs_client_discover_result_cb
	.section	.text.gcs_client_disc_cb,"ax",%progbits
	.align	1
	.syntax unified
	.thumb
	.thumb_func
	.fpu softvfp
	.type	gcs_client_disc_cb, %function
gcs_client_disc_cb:
.LFB19:
	.loc 1 355 0
	.cfi_startproc
	@ args = 0, pretend = 0, frame = 0
	@ frame_needed = 0, uses_anonymous_args = 0
.LVL46:
	push	{r4, lr}
	.cfi_def_cfa_offset 8
	.cfi_offset 4, -8
	.cfi_offset 14, -4
	.loc 1 355 0
	mov	r4, r0
.LBB32:
	.loc 1 356 0
	movs	r2, #0
	ldr	r1, .L45
	ldr	r0, .L45+4
.LVL47:
	bl	trace_log_buffer
.LVL48:
.LBE32:
	.loc 1 357 0
	ldr	r3, .L45+8
	ldrb	r3, [r3]	@ zero_extendqisi2
	cmp	r3, r4
	bls	.L43
.LVL49:
.LBB33:
.LBB34:
	.loc 1 359 0
	ldr	r3, .L45+12
	ldr	r0, [r3]
	movs	r3, #0
	add	r0, r0, r4, lsl #3
	strh	r3, [r0, #2]	@ movhi
.LVL50:
.L43:
	pop	{r4, pc}
.L46:
	.align	2
.L45:
	.word	.LANCHOR2+316
	.word	1058025474
	.word	.LANCHOR4
	.word	.LANCHOR3
.LBE34:
.LBE33:
	.cfi_endproc
.LFE19:
	.size	gcs_client_disc_cb, .-gcs_client_disc_cb
	.section	.text.gcs_all_primary_srv_discovery,"ax",%progbits
	.align	1
	.global	gcs_all_primary_srv_discovery
	.syntax unified
	.thumb
	.thumb_func
	.fpu softvfp
	.type	gcs_all_primary_srv_discovery, %function
gcs_all_primary_srv_discovery:
.LFB0:
	.loc 1 47 0
	.cfi_startproc
	@ args = 0, pretend = 0, frame = 0
	@ frame_needed = 0, uses_anonymous_args = 0
.LVL51:
	push	{r0, r1, r2, r4, r5, lr}
	.cfi_def_cfa_offset 24
	.cfi_offset 4, -12
	.cfi_offset 5, -8
	.cfi_offset 14, -4
	.loc 1 49 0
	ldr	r3, .L50
	.loc 1 47 0
	mov	r5, r0
	.loc 1 49 0
	ldrb	r1, [r3]	@ zero_extendqisi2
	bl	client_all_primary_srv_discovery
.LVL52:
	.loc 1 50 0
	mov	r4, r0
	cbz	r0, .L48
.LBB35:
	.loc 1 52 0
	str	r0, [sp]
	mov	r3, r5
	movs	r2, #2
	ldr	r1, .L50+4
	ldr	r0, .L50+8
.LVL53:
	bl	trace_log_buffer
.LVL54:
.L49:
.LBE35:
	.loc 1 60 0
	mov	r0, r4
	add	sp, sp, #12
	.cfi_remember_state
	.cfi_def_cfa_offset 12
	@ sp needed
	pop	{r4, r5, pc}
.LVL55:
.L48:
	.cfi_restore_state
	.loc 1 57 0
	ldr	r3, .L50+12
	ldr	r3, [r3]
	strb	r0, [r3, r5, lsl #3]
	b	.L49
.L51:
	.align	2
.L50:
	.word	.LANCHOR1
	.word	.LANCHOR2+340
	.word	1058025472
	.word	.LANCHOR3
	.cfi_endproc
.LFE0:
	.size	gcs_all_primary_srv_discovery, .-gcs_all_primary_srv_discovery
	.section	.text.gcs_by_uuid128_srv_discovery,"ax",%progbits
	.align	1
	.global	gcs_by_uuid128_srv_discovery
	.syntax unified
	.thumb
	.thumb_func
	.fpu softvfp
	.type	gcs_by_uuid128_srv_discovery, %function
gcs_by_uuid128_srv_discovery:
.LFB1:
	.loc 1 63 0
	.cfi_startproc
	@ args = 0, pretend = 0, frame = 0
	@ frame_needed = 0, uses_anonymous_args = 0
.LVL56:
	push	{r0, r1, r4, r5, r6, lr}
	.cfi_def_cfa_offset 24
	.cfi_offset 4, -16
	.cfi_offset 5, -12
	.cfi_offset 6, -8
	.cfi_offset 14, -4
	.loc 1 65 0
	ldr	r3, .L55
	mov	r2, r1
	.loc 1 63 0
	mov	r6, r1
	.loc 1 65 0
	ldrb	r1, [r3]	@ zero_extendqisi2
.LVL57:
	.loc 1 63 0
	mov	r5, r0
	.loc 1 65 0
	bl	client_by_uuid128_srv_discovery
.LVL58:
	.loc 1 66 0
	mov	r4, r0
	cbz	r0, .L53
.LBB36:
	.loc 1 68 0
	stm	sp, {r4, r6}
	mov	r3, r5
	movs	r2, #3
	ldr	r1, .L55+4
	ldr	r0, .L55+8
.LVL59:
	bl	trace_log_buffer
.LVL60:
.L54:
.LBE36:
	.loc 1 76 0
	mov	r0, r4
	add	sp, sp, #8
	.cfi_remember_state
	.cfi_def_cfa_offset 16
	@ sp needed
	pop	{r4, r5, r6, pc}
.LVL61:
.L53:
	.cfi_restore_state
	.loc 1 73 0
	movs	r2, #1
	ldr	r3, .L55+12
	ldr	r3, [r3]
	strb	r2, [r3, r5, lsl #3]
	b	.L54
.L56:
	.align	2
.L55:
	.word	.LANCHOR1
	.word	.LANCHOR2+404
	.word	1058025472
	.word	.LANCHOR3
	.cfi_endproc
.LFE1:
	.size	gcs_by_uuid128_srv_discovery, .-gcs_by_uuid128_srv_discovery
	.section	.text.gcs_by_uuid_srv_discovery,"ax",%progbits
	.align	1
	.global	gcs_by_uuid_srv_discovery
	.syntax unified
	.thumb
	.thumb_func
	.fpu softvfp
	.type	gcs_by_uuid_srv_discovery, %function
gcs_by_uuid_srv_discovery:
.LFB2:
	.loc 1 79 0
	.cfi_startproc
	@ args = 0, pretend = 0, frame = 0
	@ frame_needed = 0, uses_anonymous_args = 0
.LVL62:
	push	{r0, r1, r4, r5, r6, lr}
	.cfi_def_cfa_offset 24
	.cfi_offset 4, -16
	.cfi_offset 5, -12
	.cfi_offset 6, -8
	.cfi_offset 14, -4
	.loc 1 81 0
	ldr	r3, .L60
	mov	r2, r1
	.loc 1 79 0
	mov	r6, r1
	.loc 1 81 0
	ldrb	r1, [r3]	@ zero_extendqisi2
.LVL63:
	.loc 1 79 0
	mov	r5, r0
	.loc 1 81 0
	bl	client_by_uuid_srv_discovery
.LVL64:
	.loc 1 82 0
	mov	r4, r0
	cbz	r0, .L58
.LBB37:
	.loc 1 84 0
	stm	sp, {r4, r6}
	mov	r3, r5
	movs	r2, #3
	ldr	r1, .L60+4
	ldr	r0, .L60+8
.LVL65:
	bl	trace_log_buffer
.LVL66:
.L59:
.LBE37:
	.loc 1 92 0
	mov	r0, r4
	add	sp, sp, #8
	.cfi_remember_state
	.cfi_def_cfa_offset 16
	@ sp needed
	pop	{r4, r5, r6, pc}
.LVL67:
.L58:
	.cfi_restore_state
	.loc 1 89 0
	movs	r2, #2
	ldr	r3, .L60+12
	ldr	r3, [r3]
	strb	r2, [r3, r5, lsl #3]
	b	.L59
.L61:
	.align	2
.L60:
	.word	.LANCHOR1
	.word	.LANCHOR2+480
	.word	1058025472
	.word	.LANCHOR3
	.cfi_endproc
.LFE2:
	.size	gcs_by_uuid_srv_discovery, .-gcs_by_uuid_srv_discovery
	.section	.text.gcs_all_char_discovery,"ax",%progbits
	.align	1
	.global	gcs_all_char_discovery
	.syntax unified
	.thumb
	.thumb_func
	.fpu softvfp
	.type	gcs_all_char_discovery, %function
gcs_all_char_discovery:
.LFB3:
	.loc 1 95 0
	.cfi_startproc
	@ args = 0, pretend = 0, frame = 0
	@ frame_needed = 0, uses_anonymous_args = 0
.LVL68:
	push	{r4, r5, r6, r7, lr}
	.cfi_def_cfa_offset 20
	.cfi_offset 4, -20
	.cfi_offset 5, -16
	.cfi_offset 6, -12
	.cfi_offset 7, -8
	.cfi_offset 14, -4
	.loc 1 97 0
	mov	r3, r2
	.loc 1 95 0
	mov	r6, r1
	mov	r7, r2
	.loc 1 97 0
	mov	r2, r1
.LVL69:
	ldr	r1, .L65
.LVL70:
	.loc 1 95 0
	sub	sp, sp, #20
	.cfi_def_cfa_offset 40
	.loc 1 97 0
	ldrb	r1, [r1]	@ zero_extendqisi2
	.loc 1 95 0
	mov	r5, r0
	.loc 1 97 0
	bl	client_all_char_discovery
.LVL71:
	.loc 1 98 0
	mov	r4, r0
	cbz	r0, .L63
.LBB38:
	.loc 1 100 0
	stm	sp, {r4, r6, r7}
	mov	r3, r5
	movs	r2, #4
	ldr	r1, .L65+4
	ldr	r0, .L65+8
.LVL72:
	bl	trace_log_buffer
.LVL73:
.L64:
.LBE38:
	.loc 1 108 0
	mov	r0, r4
	add	sp, sp, #20
	.cfi_remember_state
	.cfi_def_cfa_offset 20
	@ sp needed
	pop	{r4, r5, r6, r7, pc}
.LVL74:
.L63:
	.cfi_restore_state
	.loc 1 105 0
	movs	r2, #3
	ldr	r3, .L65+12
	ldr	r3, [r3]
	strb	r2, [r3, r5, lsl #3]
	b	.L64
.L66:
	.align	2
.L65:
	.word	.LANCHOR1
	.word	.LANCHOR2+552
	.word	1058025472
	.word	.LANCHOR3
	.cfi_endproc
.LFE3:
	.size	gcs_all_char_discovery, .-gcs_all_char_discovery
	.section	.text.gcs_by_uuid_char_discovery,"ax",%progbits
	.align	1
	.global	gcs_by_uuid_char_discovery
	.syntax unified
	.thumb
	.thumb_func
	.fpu softvfp
	.type	gcs_by_uuid_char_discovery, %function
gcs_by_uuid_char_discovery:
.LFB4:
	.loc 1 112 0
	.cfi_startproc
	@ args = 0, pretend = 0, frame = 0
	@ frame_needed = 0, uses_anonymous_args = 0
.LVL75:
	push	{r0, r1, r2, r3, r4, r5, r6, r7, r8, lr}
	.cfi_def_cfa_offset 40
	.cfi_offset 4, -24
	.cfi_offset 5, -20
	.cfi_offset 6, -16
	.cfi_offset 7, -12
	.cfi_offset 8, -8
	.cfi_offset 14, -4
	.loc 1 112 0
	mov	r6, r1
	mov	r8, r3
	.loc 1 114 0
	ldr	r3, .L70
.LVL76:
	.loc 1 112 0
	mov	r7, r2
	.loc 1 114 0
	ldrb	r1, [r3]	@ zero_extendqisi2
.LVL77:
	mov	r3, r2
	str	r8, [sp]
	mov	r2, r6
.LVL78:
	.loc 1 112 0
	mov	r5, r0
	.loc 1 114 0
	bl	client_by_uuid_char_discovery
.LVL79:
	.loc 1 115 0
	mov	r4, r0
	cbz	r0, .L68
.LBB39:
	.loc 1 117 0
	stm	sp, {r4, r6, r7, r8}
	mov	r3, r5
	movs	r2, #5
	ldr	r1, .L70+4
	ldr	r0, .L70+8
.LVL80:
	bl	trace_log_buffer
.LVL81:
.L69:
.LBE39:
	.loc 1 125 0
	mov	r0, r4
	add	sp, sp, #16
	.cfi_remember_state
	.cfi_def_cfa_offset 24
	@ sp needed
	pop	{r4, r5, r6, r7, r8, pc}
.LVL82:
.L68:
	.cfi_restore_state
	.loc 1 122 0
	movs	r2, #4
	ldr	r3, .L70+12
	ldr	r3, [r3]
	strb	r2, [r3, r5, lsl #3]
	b	.L69
.L71:
	.align	2
.L70:
	.word	.LANCHOR1
	.word	.LANCHOR2+644
	.word	1058025472
	.word	.LANCHOR3
	.cfi_endproc
.LFE4:
	.size	gcs_by_uuid_char_discovery, .-gcs_by_uuid_char_discovery
	.section	.text.gcs_by_uuid128_char_discovery,"ax",%progbits
	.align	1
	.global	gcs_by_uuid128_char_discovery
	.syntax unified
	.thumb
	.thumb_func
	.fpu softvfp
	.type	gcs_by_uuid128_char_discovery, %function
gcs_by_uuid128_char_discovery:
.LFB5:
	.loc 1 129 0
	.cfi_startproc
	@ args = 0, pretend = 0, frame = 0
	@ frame_needed = 0, uses_anonymous_args = 0
.LVL83:
	push	{r0, r1, r2, r3, r4, r5, r6, r7, r8, lr}
	.cfi_def_cfa_offset 40
	.cfi_offset 4, -24
	.cfi_offset 5, -20
	.cfi_offset 6, -16
	.cfi_offset 7, -12
	.cfi_offset 8, -8
	.cfi_offset 14, -4
	.loc 1 129 0
	mov	r6, r1
	mov	r8, r3
	.loc 1 131 0
	ldr	r3, .L75
.LVL84:
	.loc 1 129 0
	mov	r7, r2
	.loc 1 131 0
	ldrb	r1, [r3]	@ zero_extendqisi2
.LVL85:
	mov	r3, r2
	str	r8, [sp]
	mov	r2, r6
.LVL86:
	.loc 1 129 0
	mov	r5, r0
	.loc 1 131 0
	bl	client_by_uuid128_char_discovery
.LVL87:
	.loc 1 132 0
	mov	r4, r0
	cbz	r0, .L73
.LBB40:
	.loc 1 134 0
	stm	sp, {r4, r6, r7, r8}
	mov	r3, r5
	movs	r2, #5
	ldr	r1, .L75+4
	ldr	r0, .L75+8
.LVL88:
	bl	trace_log_buffer
.LVL89:
.L74:
.LBE40:
	.loc 1 142 0
	mov	r0, r4
	add	sp, sp, #16
	.cfi_remember_state
	.cfi_def_cfa_offset 24
	@ sp needed
	pop	{r4, r5, r6, r7, r8, pc}
.LVL90:
.L73:
	.cfi_restore_state
	.loc 1 139 0
	movs	r2, #5
	ldr	r3, .L75+12
	ldr	r3, [r3]
	strb	r2, [r3, r5, lsl #3]
	b	.L74
.L76:
	.align	2
.L75:
	.word	.LANCHOR1
	.word	.LANCHOR2+756
	.word	1058025472
	.word	.LANCHOR3
	.cfi_endproc
.LFE5:
	.size	gcs_by_uuid128_char_discovery, .-gcs_by_uuid128_char_discovery
	.section	.text.gcs_all_char_descriptor_discovery,"ax",%progbits
	.align	1
	.global	gcs_all_char_descriptor_discovery
	.syntax unified
	.thumb
	.thumb_func
	.fpu softvfp
	.type	gcs_all_char_descriptor_discovery, %function
gcs_all_char_descriptor_discovery:
.LFB6:
	.loc 1 146 0
	.cfi_startproc
	@ args = 0, pretend = 0, frame = 0
	@ frame_needed = 0, uses_anonymous_args = 0
.LVL91:
	push	{r4, r5, r6, r7, lr}
	.cfi_def_cfa_offset 20
	.cfi_offset 4, -20
	.cfi_offset 5, -16
	.cfi_offset 6, -12
	.cfi_offset 7, -8
	.cfi_offset 14, -4
	.loc 1 148 0
	mov	r3, r2
	.loc 1 146 0
	mov	r6, r1
	mov	r7, r2
	.loc 1 148 0
	mov	r2, r1
.LVL92:
	ldr	r1, .L80
.LVL93:
	.loc 1 146 0
	sub	sp, sp, #20
	.cfi_def_cfa_offset 40
	.loc 1 148 0
	ldrb	r1, [r1]	@ zero_extendqisi2
	.loc 1 146 0
	mov	r5, r0
	.loc 1 148 0
	bl	client_all_char_descriptor_discovery
.LVL94:
	.loc 1 149 0
	mov	r4, r0
	cbz	r0, .L78
.LBB41:
	.loc 1 151 0
	stm	sp, {r4, r6, r7}
	mov	r3, r5
	movs	r2, #4
	ldr	r1, .L80+4
	ldr	r0, .L80+8
.LVL95:
	bl	trace_log_buffer
.LVL96:
.L79:
.LBE41:
	.loc 1 159 0
	mov	r0, r4
	add	sp, sp, #20
	.cfi_remember_state
	.cfi_def_cfa_offset 20
	@ sp needed
	pop	{r4, r5, r6, r7, pc}
.LVL97:
.L78:
	.cfi_restore_state
	.loc 1 156 0
	movs	r2, #6
	ldr	r3, .L80+12
	ldr	r3, [r3]
	strb	r2, [r3, r5, lsl #3]
	b	.L79
.L81:
	.align	2
.L80:
	.word	.LANCHOR1
	.word	.LANCHOR2+872
	.word	1058025472
	.word	.LANCHOR3
	.cfi_endproc
.LFE6:
	.size	gcs_all_char_descriptor_discovery, .-gcs_all_char_descriptor_discovery
	.section	.text.gcs_attr_read,"ax",%progbits
	.align	1
	.global	gcs_attr_read
	.syntax unified
	.thumb
	.thumb_func
	.fpu softvfp
	.type	gcs_attr_read, %function
gcs_attr_read:
.LFB7:
	.loc 1 162 0
	.cfi_startproc
	@ args = 0, pretend = 0, frame = 0
	@ frame_needed = 0, uses_anonymous_args = 0
.LVL98:
	push	{r0, r1, r4, r5, r6, lr}
	.cfi_def_cfa_offset 24
	.cfi_offset 4, -16
	.cfi_offset 5, -12
	.cfi_offset 6, -8
	.cfi_offset 14, -4
	.loc 1 164 0
	ldr	r3, .L87
	mov	r2, r1
	.loc 1 162 0
	mov	r5, r1
	.loc 1 164 0
	ldrb	r1, [r3]	@ zero_extendqisi2
.LVL99:
	.loc 1 162 0
	mov	r6, r0
	.loc 1 164 0
	bl	client_attr_read
.LVL100:
	.loc 1 165 0
	mov	r4, r0
	cbz	r0, .L83
.LBB42:
	.loc 1 167 0
	stm	sp, {r4, r5}
	mov	r3, r6
	movs	r2, #3
	ldr	r1, .L87+4
	ldr	r0, .L87+8
.LVL101:
	bl	trace_log_buffer
.LVL102:
.L83:
.LBE42:
	.loc 1 171 0
	mov	r0, r4
	add	sp, sp, #8
	.cfi_def_cfa_offset 16
	@ sp needed
	pop	{r4, r5, r6, pc}
.L88:
	.align	2
.L87:
	.word	.LANCHOR1
	.word	.LANCHOR2+976
	.word	1058025472
	.cfi_endproc
.LFE7:
	.size	gcs_attr_read, .-gcs_attr_read
	.section	.text.gcs_attr_read_using_uuid16,"ax",%progbits
	.align	1
	.global	gcs_attr_read_using_uuid16
	.syntax unified
	.thumb
	.thumb_func
	.fpu softvfp
	.type	gcs_attr_read_using_uuid16, %function
gcs_attr_read_using_uuid16:
.LFB8:
	.loc 1 175 0
	.cfi_startproc
	@ args = 0, pretend = 0, frame = 0
	@ frame_needed = 0, uses_anonymous_args = 0
.LVL103:
	push	{r0, r1, r2, r3, r4, r5, r6, r7, r8, lr}
	.cfi_def_cfa_offset 40
	.cfi_offset 4, -24
	.cfi_offset 5, -20
	.cfi_offset 6, -16
	.cfi_offset 7, -12
	.cfi_offset 8, -8
	.cfi_offset 14, -4
	.loc 1 175 0
	mov	r7, r3
	.loc 1 177 0
	ldr	r3, .L94
.LVL104:
	.loc 1 175 0
	mov	r5, r1
	.loc 1 177 0
	ldrb	r1, [r3]	@ zero_extendqisi2
.LVL105:
	movs	r3, #0
	.loc 1 175 0
	mov	r6, r2
	.loc 1 177 0
	str	r3, [sp, #4]
	str	r7, [sp]
	mov	r3, r2
	mov	r2, r5
.LVL106:
	.loc 1 175 0
	mov	r8, r0
	.loc 1 177 0
	bl	client_attr_read_using_uuid
.LVL107:
	.loc 1 178 0
	mov	r4, r0
	cbz	r0, .L90
.LBB43:
	.loc 1 180 0
	stm	sp, {r4, r5, r6, r7}
	mov	r3, r8
	movs	r2, #5
	ldr	r1, .L94+4
	ldr	r0, .L94+8
.LVL108:
	bl	trace_log_buffer
.LVL109:
.L90:
.LBE43:
	.loc 1 184 0
	mov	r0, r4
	add	sp, sp, #16
	.cfi_def_cfa_offset 24
	@ sp needed
	pop	{r4, r5, r6, r7, r8, pc}
.L95:
	.align	2
.L94:
	.word	.LANCHOR1
	.word	.LANCHOR2+1036
	.word	1058025472
	.cfi_endproc
.LFE8:
	.size	gcs_attr_read_using_uuid16, .-gcs_attr_read_using_uuid16
	.section	.text.gcs_attr_read_using_uuid128,"ax",%progbits
	.align	1
	.global	gcs_attr_read_using_uuid128
	.syntax unified
	.thumb
	.thumb_func
	.fpu softvfp
	.type	gcs_attr_read_using_uuid128, %function
gcs_attr_read_using_uuid128:
.LFB9:
	.loc 1 188 0
	.cfi_startproc
	@ args = 0, pretend = 0, frame = 0
	@ frame_needed = 0, uses_anonymous_args = 0
.LVL110:
	push	{r0, r1, r2, r3, r4, r5, r6, r7, r8, lr}
	.cfi_def_cfa_offset 40
	.cfi_offset 4, -24
	.cfi_offset 5, -20
	.cfi_offset 6, -16
	.cfi_offset 7, -12
	.cfi_offset 8, -8
	.cfi_offset 14, -4
	.loc 1 188 0
	mov	r7, r3
	.loc 1 190 0
	ldr	r3, .L101
.LVL111:
	.loc 1 188 0
	mov	r5, r1
	.loc 1 190 0
	ldrb	r1, [r3]	@ zero_extendqisi2
.LVL112:
	movs	r3, #0
	.loc 1 188 0
	mov	r6, r2
	.loc 1 190 0
	str	r3, [sp]
	str	r7, [sp, #4]
	mov	r3, r2
	mov	r2, r5
.LVL113:
	.loc 1 188 0
	mov	r8, r0
	.loc 1 190 0
	bl	client_attr_read_using_uuid
.LVL114:
	.loc 1 191 0
	mov	r4, r0
	cbz	r0, .L97
.LBB44:
	.loc 1 193 0
	stm	sp, {r4, r5, r6, r7}
	mov	r3, r8
	movs	r2, #5
	ldr	r1, .L101+4
	ldr	r0, .L101+8
.LVL115:
	bl	trace_log_buffer
.LVL116:
.L97:
.LBE44:
	.loc 1 197 0
	mov	r0, r4
	add	sp, sp, #16
	.cfi_def_cfa_offset 24
	@ sp needed
	pop	{r4, r5, r6, r7, r8, pc}
.LVL117:
.L102:
	.align	2
.L101:
	.word	.LANCHOR1
	.word	.LANCHOR2+1148
	.word	1058025472
	.cfi_endproc
.LFE9:
	.size	gcs_attr_read_using_uuid128, .-gcs_attr_read_using_uuid128
	.section	.text.gcs_attr_ind_confirm,"ax",%progbits
	.align	1
	.global	gcs_attr_ind_confirm
	.syntax unified
	.thumb
	.thumb_func
	.fpu softvfp
	.type	gcs_attr_ind_confirm, %function
gcs_attr_ind_confirm:
.LFB10:
	.loc 1 200 0
	.cfi_startproc
	@ args = 0, pretend = 0, frame = 0
	@ frame_needed = 0, uses_anonymous_args = 0
.LVL118:
	push	{r0, r1, r2, r4, r5, lr}
	.cfi_def_cfa_offset 24
	.cfi_offset 4, -12
	.cfi_offset 5, -8
	.cfi_offset 14, -4
	.loc 1 200 0
	mov	r5, r0
	.loc 1 202 0
	bl	client_attr_ind_confirm
.LVL119:
	.loc 1 203 0
	mov	r4, r0
	cbz	r0, .L104
.LBB45:
	.loc 1 205 0
	str	r0, [sp]
	mov	r3, r5
	movs	r2, #2
	ldr	r1, .L108
	ldr	r0, .L108+4
.LVL120:
	bl	trace_log_buffer
.LVL121:
.L104:
.LBE45:
	.loc 1 209 0
	mov	r0, r4
	add	sp, sp, #12
	.cfi_def_cfa_offset 12
	@ sp needed
	pop	{r4, r5, pc}
.L109:
	.align	2
.L108:
	.word	.LANCHOR2+1260
	.word	1058025472
	.cfi_endproc
.LFE10:
	.size	gcs_attr_ind_confirm, .-gcs_attr_ind_confirm
	.section	.text.gcs_attr_write,"ax",%progbits
	.align	1
	.global	gcs_attr_write
	.syntax unified
	.thumb
	.thumb_func
	.fpu softvfp
	.type	gcs_attr_write, %function
gcs_attr_write:
.LFB11:
	.loc 1 213 0
	.cfi_startproc
	@ args = 4, pretend = 0, frame = 0
	@ frame_needed = 0, uses_anonymous_args = 0
.LVL122:
	push	{r0, r1, r2, r3, r4, r5, r6, r7, r8, lr}
	.cfi_def_cfa_offset 40
	.cfi_offset 4, -24
	.cfi_offset 5, -20
	.cfi_offset 6, -16
	.cfi_offset 7, -12
	.cfi_offset 8, -8
	.cfi_offset 14, -4
	.loc 1 213 0
	mov	r5, r1
	mov	r7, r3
	.loc 1 215 0
	ldr	r3, .L115
.LVL123:
	.loc 1 213 0
	mov	r6, r2
	.loc 1 215 0
	ldrb	r1, [r3]	@ zero_extendqisi2
.LVL124:
	ldr	r3, [sp, #40]
	str	r7, [sp]
	str	r3, [sp, #4]
	mov	r3, r2
	mov	r2, r5
.LVL125:
	.loc 1 213 0
	mov	r8, r0
	.loc 1 215 0
	bl	client_attr_write
.LVL126:
	.loc 1 216 0
	mov	r4, r0
	cbz	r0, .L111
.LBB46:
	.loc 1 218 0
	stm	sp, {r4, r5, r6, r7}
	mov	r3, r8
	movs	r2, #5
	ldr	r1, .L115+4
	ldr	r0, .L115+8
.LVL127:
	bl	trace_log_buffer
.LVL128:
.L111:
.LBE46:
	.loc 1 222 0
	mov	r0, r4
	add	sp, sp, #16
	.cfi_def_cfa_offset 24
	@ sp needed
	pop	{r4, r5, r6, r7, r8, pc}
.LVL129:
.L116:
	.align	2
.L115:
	.word	.LANCHOR1
	.word	.LANCHOR2+1316
	.word	1058025472
	.cfi_endproc
.LFE11:
	.size	gcs_attr_write, .-gcs_attr_write
	.section	.text.gcs_add_client,"ax",%progbits
	.align	1
	.global	gcs_add_client
	.syntax unified
	.thumb
	.thumb_func
	.fpu softvfp
	.type	gcs_add_client, %function
gcs_add_client:
.LFB20:
	.loc 1 378 0
	.cfi_startproc
	@ args = 0, pretend = 0, frame = 0
	@ frame_needed = 0, uses_anonymous_args = 0
.LVL130:
	.loc 1 381 0
	cmp	r1, #4
	.loc 1 378 0
	push	{r4, r5, r6, r7, r8, r9, r10, lr}
	.cfi_def_cfa_offset 32
	.cfi_offset 4, -32
	.cfi_offset 5, -28
	.cfi_offset 6, -24
	.cfi_offset 7, -20
	.cfi_offset 8, -16
	.cfi_offset 9, -12
	.cfi_offset 10, -8
	.cfi_offset 14, -4
	.loc 1 381 0
	bls	.L118
.LBB47:
	.loc 1 383 0
	mov	r3, r1
	movs	r2, #1
.LVL131:
	ldr	r1, .L127
.LVL132:
	ldr	r0, .L127+4
.LVL133:
	bl	trace_log_buffer
.LVL134:
.LBE47:
	.loc 1 384 0
	movs	r0, #255
	pop	{r4, r5, r6, r7, r8, r9, r10, pc}
.LVL135:
.L118:
	.loc 1 387 0
	ldr	r3, .L127+8
	.loc 1 388 0
	ldr	r7, .L127+12
	.loc 1 389 0
	ldr	r4, .L127+16
	.loc 1 387 0
	str	r0, [r3]
	.loc 1 388 0
	strb	r1, [r7]
	.loc 1 389 0
	strh	r2, [r4]	@ movhi
.LVL136:
	.loc 1 391 0
	movw	r3, #391
	ldr	r2, .L127+20
.LVL137:
	lsls	r1, r1, #3
.LVL138:
	movs	r0, #0
.LVL139:
	bl	os_mem_zalloc_intern
.LVL140:
	ldr	r6, .L127+24
	mov	r2, r0
	str	r0, [r6]
	.loc 1 392 0
	cbnz	r0, .L120
.LBB48:
	.loc 1 394 0
	ldr	r1, .L127+28
.LVL141:
.L125:
.LBE48:
.LBB49:
	.loc 1 405 0
	ldr	r0, .L127+4
	bl	trace_log_buffer
.LVL142:
.LBE49:
	.loc 1 406 0
	movs	r0, #255
	ldr	r3, .L127+32
	strb	r0, [r3]
	.loc 1 407 0
	pop	{r4, r5, r6, r7, r8, r9, r10, pc}
.LVL143:
.L120:
	.loc 1 399 0
	mov	r8, #0
	.loc 1 398 0
	ldrh	r1, [r4]
	.loc 1 402 0
	ldr	r9, .L127+20
	.loc 1 398 0
	add	r1, r1, r1, lsl #1
	lsls	r4, r1, #3
	uxth	r4, r4
.LVL144:
.L121:
	.loc 1 399 0 discriminator 1
	ldrb	r3, [r7]	@ zero_extendqisi2
	uxtb	r5, r8
	cmp	r3, r5
	bhi	.L122
	.loc 1 410 0
	ldr	r4, .L127+32
.LVL145:
	ldr	r1, .L127+36
	mov	r0, r4
	bl	client_register_spec_client_cb
.LVL146:
	.loc 1 410 0
	mov	r2, r0
	cbnz	r0, .L123
	.loc 1 412 0
	movs	r3, #255
.LBB50:
	.loc 1 413 0
	ldr	r1, .L127+40
	ldr	r0, .L127+4
.LBE50:
	.loc 1 412 0
	strb	r3, [r4]
.LBB51:
	.loc 1 413 0
	bl	trace_log_buffer
.LVL147:
.L126:
.LBE51:
	.loc 1 418 0
	ldrb	r0, [r4]	@ zero_extendqisi2
	.loc 1 419 0
	pop	{r4, r5, r6, r7, r8, r9, r10, pc}
.LVL148:
.L122:
	.loc 1 402 0
	ldr	r3, [r6]
	lsls	r5, r5, #3
	add	r10, r3, r5
	mov	r2, r9
	mov	r3, #402
	mov	r1, r4
	movs	r0, #0
	bl	os_mem_zalloc_intern
.LVL149:
	.loc 1 403 0
	ldr	r3, [r6]
	.loc 1 402 0
	str	r0, [r10, #4]
	.loc 1 403 0
	add	r5, r5, r3
	ldr	r2, [r5, #4]
	add	r8, r8, #1
.LVL150:
	cmp	r2, #0
	bne	.L121
.LBB52:
	.loc 1 405 0
	ldr	r1, .L127+44
	b	.L125
.LVL151:
.L123:
.LBE52:
.LBB53:
	.loc 1 417 0
	ldrb	r3, [r4]	@ zero_extendqisi2
	movs	r2, #1
	ldr	r1, .L127+48
	ldr	r0, .L127+52
	bl	trace_log_buffer
.LVL152:
	b	.L126
.L128:
	.align	2
.L127:
	.word	.LANCHOR2+1404
	.word	1058025472
	.word	.LANCHOR0
	.word	.LANCHOR4
	.word	.LANCHOR5
	.word	.LANCHOR6
	.word	.LANCHOR3
	.word	.LANCHOR2+1444
	.word	.LANCHOR1
	.word	.LANCHOR7
	.word	.LANCHOR2+1544
	.word	.LANCHOR2+1492
	.word	.LANCHOR2+1580
	.word	1058025474
.LBE53:
	.cfi_endproc
.LFE20:
	.size	gcs_add_client, .-gcs_add_client
	.section	.text.gcs_delete_client,"ax",%progbits
	.align	1
	.global	gcs_delete_client
	.syntax unified
	.thumb
	.thumb_func
	.fpu softvfp
	.type	gcs_delete_client, %function
gcs_delete_client:
.LFB21:
	.loc 1 422 0
	.cfi_startproc
	@ args = 0, pretend = 0, frame = 0
	@ frame_needed = 0, uses_anonymous_args = 0
.LVL153:
	push	{r4, r5, r6, r7, r8, lr}
	.cfi_def_cfa_offset 24
	.cfi_offset 4, -24
	.cfi_offset 5, -20
	.cfi_offset 6, -16
	.cfi_offset 7, -12
	.cfi_offset 8, -8
	.cfi_offset 14, -4
	.loc 1 425 0
	movs	r6, #0
	.loc 1 429 0
	mov	r8, r6
	.loc 1 425 0
	ldr	r7, .L140
	ldr	r5, .L140+4
.LVL154:
.L130:
	.loc 1 425 0 is_stmt 0 discriminator 1
	ldrb	r3, [r7]	@ zero_extendqisi2
	uxtb	r4, r6
	cmp	r3, r4
	bhi	.L132
	.loc 1 433 0 is_stmt 1
	ldr	r0, [r5]
	cbz	r0, .L129
	.loc 1 434 0
	bl	os_mem_free
.LVL155:
	.loc 1 435 0
	movs	r3, #0
	str	r3, [r5]
.L129:
	pop	{r4, r5, r6, r7, r8, pc}
.LVL156:
.L132:
	.loc 1 427 0
	ldr	r3, [r5]
	lsls	r4, r4, #3
	add	r3, r3, r4
	ldr	r0, [r3, #4]
	cbz	r0, .L131
	.loc 1 428 0
	bl	os_mem_free
.LVL157:
	.loc 1 429 0
	ldr	r3, [r5]
	add	r4, r4, r3
	str	r8, [r4, #4]
.L131:
.LVL158:
	adds	r6, r6, #1
.LVL159:
	b	.L130
.L141:
	.align	2
.L140:
	.word	.LANCHOR4
	.word	.LANCHOR3
	.cfi_endproc
.LFE21:
	.size	gcs_delete_client, .-gcs_delete_client
	.global	gcs_client_cbs
	.section	.BTTRACE,"a",%progbits
	.align	2
	.set	.LANCHOR2,. + 0
	.type	format.5631, %object
	.size	format.5631, 55
format.5631:
	.ascii	"!**gcs_client_write_result_cb: handle 0x%x, cause 0"
	.ascii	"x%x\000"
	.space	1
	.type	format.5622, %object
	.size	format.5622, 54
format.5622:
	.ascii	"!**gcs_client_read_result_cb: handle 0x%x, cause 0x"
	.ascii	"%x\000"
	.space	2
	.type	format.5607, %object
	.size	format.5607, 26
format.5607:
	.ascii	"!**gcs discovery_state %d\000"
	.space	2
	.type	format.5613, %object
	.size	format.5613, 51
format.5613:
	.ascii	"!**gcs_client_discover_result_cb: result_type = %d\000"
	.space	1
	.type	format.5597, %object
	.size	format.5597, 52
format.5597:
	.ascii	"!!!gcs_client_add_discov_result: invalid conn_id %d"
	.ascii	"\000"
	.type	format.5598, %object
	.size	format.5598, 69
format.5598:
	.ascii	"!!!gcs_client_add_discov_result: failed, gcs_max_di"
	.ascii	"scov_table_num %d\000"
	.space	3
	.type	format.5644, %object
	.size	format.5644, 23
format.5644:
	.ascii	"!**gcs_client_disc_cb.\000"
	.space	1
	.type	format.5511, %object
	.size	format.5511, 63
format.5511:
	.ascii	"!!!gcs_all_primary_srv_discovery: failed, conn_id %"
	.ascii	"d, cause %d\000"
	.space	1
	.type	format.5517, %object
	.size	format.5517, 76
format.5517:
	.ascii	"!!!gcs_by_uuid128_srv_discovery: failed, conn_id %d"
	.ascii	", cause %d, p_uuid128 %p\000"
	.type	format.5523, %object
	.size	format.5523, 72
format.5523:
	.ascii	"!!!gcs_by_uuid_srv_discovery: failed, conn_id %d, c"
	.ascii	"ause %d, uuid16 0x%x\000"
	.type	format.5530, %object
	.size	format.5530, 92
format.5530:
	.ascii	"!!!gcs_all_char_discovery: failed, conn_id %d, caus"
	.ascii	"e %d, start_handle 0x%x, end_handle 0x%x\000"
	.type	format.5538, %object
	.size	format.5538, 109
format.5538:
	.ascii	"!!!gcs_by_uuid_char_discovery: failed, conn_id %d, "
	.ascii	"cause %d, start_handle 0x%x, end_handle 0x%x, uuid1"
	.ascii	"6 0x%x\000"
	.space	3
	.type	format.5546, %object
	.size	format.5546, 113
format.5546:
	.ascii	"!!!gcs_by_uuid128_char_discovery: failed, conn_id %"
	.ascii	"d, cause %d, start_handle 0x%x, end_handle 0x%x, p_"
	.ascii	"uuid128 %p\000"
	.space	3
	.type	format.5553, %object
	.size	format.5553, 103
format.5553:
	.ascii	"!!!gcs_all_char_descriptor_discovery: failed, conn_"
	.ascii	"id %d, cause %d, start_handle 0x%x, end_handle 0x%x"
	.ascii	"\000"
	.space	1
	.type	format.5559, %object
	.size	format.5559, 60
format.5559:
	.ascii	"!!!gcs_attr_read: failed, conn_id %d, cause %d, han"
	.ascii	"dle 0x%x\000"
	.type	format.5567, %object
	.size	format.5567, 109
format.5567:
	.ascii	"!!!gcs_attr_read_using_uuid16: failed, conn_id %d, "
	.ascii	"cause %d, start_handle 0x%x, end_handle 0x%x, uuid1"
	.ascii	"6 0x%x\000"
	.space	3
	.type	format.5575, %object
	.size	format.5575, 111
format.5575:
	.ascii	"!!!gcs_attr_read_using_uuid128: failed, conn_id %d,"
	.ascii	" cause %d, start_handle 0x%x, end_handle 0x%x, p_uu"
	.ascii	"id128 %p\000"
	.space	1
	.type	format.5580, %object
	.size	format.5580, 54
format.5580:
	.ascii	"!!!gcs_attr_ind_confirm: failed, conn_id %d, cause "
	.ascii	"%d\000"
	.space	2
	.type	format.5589, %object
	.size	format.5589, 87
format.5589:
	.ascii	"!!!gcs_attr_write: failed, conn_id %d, cause %d, wr"
	.ascii	"ite_type %d, handle 0x%x, length %d\000"
	.space	1
	.type	format.5653, %object
	.size	format.5653, 39
format.5653:
	.ascii	"!!!gcs_add_client: invalid link_num %d\000"
	.space	1
	.type	format.5655, %object
	.size	format.5655, 48
format.5655:
	.ascii	"!!!gcs_add_client: allocate link table mem fail\000"
	.type	format.5656, %object
	.size	format.5656, 50
format.5656:
	.ascii	"!!!gcs_add_client: allocate discov table mem fail\000"
	.space	2
	.type	format.5660, %object
	.size	format.5660, 33
format.5660:
	.ascii	"!!!gcs_add_client: register fail\000"
	.space	3
	.type	format.5661, %object
	.size	format.5661, 32
format.5661:
	.ascii	"!**gcs_add_client: client id %d\000"
	.section	.bss.gcs_client_cb,"aw",%nobits
	.align	2
	.set	.LANCHOR0,. + 0
	.type	gcs_client_cb, %object
	.size	gcs_client_cb, 4
gcs_client_cb:
	.space	4
	.section	.bss.gcs_link_num,"aw",%nobits
	.set	.LANCHOR4,. + 0
	.type	gcs_link_num, %object
	.size	gcs_link_num, 1
gcs_link_num:
	.space	1
	.section	.bss.gcs_max_discov_table_num,"aw",%nobits
	.align	1
	.set	.LANCHOR5,. + 0
	.type	gcs_max_discov_table_num, %object
	.size	gcs_max_discov_table_num, 2
gcs_max_discov_table_num:
	.space	2
	.section	.bss.gcs_table,"aw",%nobits
	.align	2
	.set	.LANCHOR3,. + 0
	.type	gcs_table, %object
	.size	gcs_table, 4
gcs_table:
	.space	4
	.section	.data.gcs_cl_id,"aw",%progbits
	.set	.LANCHOR1,. + 0
	.type	gcs_cl_id, %object
	.size	gcs_cl_id, 1
gcs_cl_id:
	.byte	-1
	.section	.rodata.__func__.5654,"a",%progbits
	.set	.LANCHOR6,. + 0
	.type	__func__.5654, %object
	.size	__func__.5654, 15
__func__.5654:
	.ascii	"gcs_add_client\000"
	.section	.rodata.gcs_client_cbs,"a",%progbits
	.align	2
	.set	.LANCHOR7,. + 0
	.type	gcs_client_cbs, %object
	.size	gcs_client_cbs, 24
gcs_client_cbs:
	.word	gcs_client_discover_state_cb
	.word	gcs_client_discover_result_cb
	.word	gcs_client_read_result_cb
	.word	gcs_client_write_result_cb
	.word	gcs_client_notify_ind_cb
	.word	gcs_client_disc_cb
	.text
.Letext0:
	.file 2 "/home/ls/8720cf/sdk-ameba-v7.1d/tools/arm-none-eabi-gcc/asdk/linux/newlib/arm-none-eabi/include/machine/_default_types.h"
	.file 3 "/home/ls/8720cf/sdk-ameba-v7.1d/tools/arm-none-eabi-gcc/asdk/linux/newlib/arm-none-eabi/include/sys/lock.h"
	.file 4 "/home/ls/8720cf/sdk-ameba-v7.1d/tools/arm-none-eabi-gcc/asdk/linux/newlib/arm-none-eabi/include/sys/_types.h"
	.file 5 "/home/ls/8720cf/sdk-ameba-v7.1d/tools/arm-none-eabi-gcc/asdk/linux/newlib/lib/gcc/arm-none-eabi/6.5.0/include/stddef.h"
	.file 6 "/home/ls/8720cf/sdk-ameba-v7.1d/tools/arm-none-eabi-gcc/asdk/linux/newlib/arm-none-eabi/include/sys/reent.h"
	.file 7 "/home/ls/8720cf/sdk-ameba-v7.1d/tools/arm-none-eabi-gcc/asdk/linux/newlib/arm-none-eabi/include/sys/_stdint.h"
	.file 8 "/home/ls/8720cf/sdk-ameba-v7.1d/tools/arm-none-eabi-gcc/asdk/linux/newlib/arm-none-eabi/include/time.h"
	.file 9 "../../../component/common/bluetooth/realtek/sdk/inc/platform/trace.h"
	.file 10 "../../../component/common/bluetooth/realtek/sdk/inc/bluetooth/gap/gap.h"
	.file 11 "../../../component/common/bluetooth/realtek/sdk/inc/bluetooth/gap/gap_storage_le.h"
	.file 12 "../../../component/common/bluetooth/realtek/sdk/inc/bluetooth/profile/profile_client.h"
	.file 13 "../../../component/common/bluetooth/realtek/sdk/inc/bluetooth/profile/client/gcs_client.h"
	.file 14 "../../../component/common/bluetooth/realtek/sdk/inc/platform/mem_types.h"
	.file 15 "../../../component/common/bluetooth/realtek/sdk/inc/os/os_mem.h"