	.arch armv8-m.main
	.arch_extension dsp
	.eabi_attribute 20, 1
	.eabi_attribute 21, 1
	.eabi_attribute 23, 3
	.eabi_attribute 24, 1
	.eabi_attribute 25, 1
	.eabi_attribute 26, 1
	.eabi_attribute 30, 4
	.eabi_attribute 34, 1
	.eabi_attribute 18, 4
	.file	"hal_gpio.c"
	.text
.Ltext0:
	.cfi_sections	.debug_frame
	.section	.text.hal_gpio_init,"ax",%progbits
	.align	1
	.global	hal_gpio_init
	.syntax unified
	.thumb
	.thumb_func
	.fpu softvfp
	.type	hal_gpio_init, %function
hal_gpio_init:
.LFB310:
	.file 1 "../../../component/soc/realtek/8710c/fwlib/source/ram/hal_gpio.c"
	.loc 1 70 0
	.cfi_startproc
	@ args = 0, pretend = 0, frame = 8
	@ frame_needed = 0, uses_anonymous_args = 0
.LVL0:
	push	{r0, r1, r2, r4, r5, lr}
	.cfi_def_cfa_offset 24
	.cfi_offset 4, -12
	.cfi_offset 5, -8
	.cfi_offset 14, -4
	.loc 1 70 0
	mov	r4, r1
	mov	r5, r0
	.loc 1 73 0
	movs	r1, #112
.LVL1:
	uxtb	r0, r4
.LVL2:
	bl	hal_pinmux_register
.LVL3:
	.loc 1 74 0
	cbnz	r0, .L1
	.loc 1 77 0
	mov	r1, r4
	mov	r0, r5
.LVL4:
	ldr	r3, .L3
	ldr	r3, [r3, #32]
	str	r3, [sp, #4]
	.loc 1 78 0
	add	sp, sp, #12
	.cfi_remember_state
	.cfi_def_cfa_offset 12
	@ sp needed
	pop	{r4, r5, lr}
	.cfi_restore 14
	.cfi_restore 5
	.cfi_restore 4
	.cfi_def_cfa_offset 0
.LVL5:
	.loc 1 77 0
	bx	r3
.LVL6:
.L1:
	.cfi_restore_state
	.loc 1 78 0
	add	sp, sp, #12
	.cfi_def_cfa_offset 12
	@ sp needed
	pop	{r4, r5, pc}
.LVL7:
.L4:
	.align	2
.L3:
	.word	hal_gpio_stubs
	.cfi_endproc
.LFE310:
	.size	hal_gpio_init, .-hal_gpio_init
	.section	.text.hal_gpio_deinit,"ax",%progbits
	.align	1
	.global	hal_gpio_deinit
	.syntax unified
	.thumb
	.thumb_func
	.fpu softvfp
	.type	hal_gpio_deinit, %function
hal_gpio_deinit:
.LFB311:
	.loc 1 88 0
	.cfi_startproc
	@ args = 0, pretend = 0, frame = 0
	@ frame_needed = 0, uses_anonymous_args = 0
.LVL8:
	push	{r4, lr}
	.cfi_def_cfa_offset 8
	.cfi_offset 4, -8
	.cfi_offset 14, -4
	.loc 1 88 0
	mov	r4, r0
	.loc 1 89 0
	movs	r1, #112
	ldrb	r0, [r0]	@ zero_extendqisi2
.LVL9:
	bl	hal_pinmux_unregister
.LVL10:
	.loc 1 90 0
	ldr	r3, .L6
	mov	r0, r4
	.loc 1 91 0
	pop	{r4, lr}
	.cfi_restore 14
	.cfi_restore 4
	.cfi_def_cfa_offset 0
.LVL11:
	.loc 1 90 0
	ldr	r3, [r3, #36]
	bx	r3	@ indirect register sibling call
.LVL12:
.L7:
	.align	2
.L6:
	.word	hal_gpio_stubs
	.cfi_endproc
.LFE311:
	.size	hal_gpio_deinit, .-hal_gpio_deinit
	.section	.text.hal_gpio_irq_init,"ax",%progbits
	.align	1
	.global	hal_gpio_irq_init
	.syntax unified
	.thumb
	.thumb_func
	.fpu softvfp
	.type	hal_gpio_irq_init, %function
hal_gpio_irq_init:
.LFB312:
	.loc 1 112 0
	.cfi_startproc
	@ args = 0, pretend = 0, frame = 8
	@ frame_needed = 0, uses_anonymous_args = 0
.LVL13:
	push	{r0, r1, r2, r4, r5, r6, r7, lr}
	.cfi_def_cfa_offset 32
	.cfi_offset 4, -20
	.cfi_offset 5, -16
	.cfi_offset 6, -12
	.cfi_offset 7, -8
	.cfi_offset 14, -4
	.loc 1 112 0
	mov	r4, r1
	mov	r5, r0
	.loc 1 115 0
	movs	r1, #112
.LVL14:
	uxtb	r0, r4
.LVL15:
	.loc 1 112 0
	mov	r6, r2
	mov	r7, r3
	.loc 1 115 0
	bl	hal_pinmux_register
.LVL16:
	.loc 1 116 0
	cbnz	r0, .L8
	.loc 1 120 0
	mov	r1, r4
	ldr	r4, .L10
.LVL17:
	mov	r3, r7
	ldr	r4, [r4, #72]
	mov	r2, r6
	mov	r0, r5
.LVL18:
	mov	ip, r4
	str	r4, [sp, #4]
	.loc 1 121 0
	add	sp, sp, #12
	.cfi_remember_state
	.cfi_def_cfa_offset 20
	@ sp needed
	pop	{r4, r5, r6, r7, lr}
	.cfi_restore 14
	.cfi_restore 7
	.cfi_restore 6
	.cfi_restore 5
	.cfi_restore 4
	.cfi_def_cfa_offset 0
.LVL19:
	.loc 1 120 0
	bx	ip
.LVL20:
.L8:
	.cfi_restore_state
	.loc 1 121 0
	add	sp, sp, #12
	.cfi_def_cfa_offset 20
	@ sp needed
	pop	{r4, r5, r6, r7, pc}
.LVL21:
.L11:
	.align	2
.L10:
	.word	hal_gpio_stubs
	.cfi_endproc
.LFE312:
	.size	hal_gpio_irq_init, .-hal_gpio_irq_init
	.section	.text.hal_gpio_irq_deinit,"ax",%progbits
	.align	1
	.global	hal_gpio_irq_deinit
	.syntax unified
	.thumb
	.thumb_func
	.fpu softvfp
	.type	hal_gpio_irq_deinit, %function
hal_gpio_irq_deinit:
.LFB313:
	.loc 1 131 0
	.cfi_startproc
	@ args = 0, pretend = 0, frame = 0
	@ frame_needed = 0, uses_anonymous_args = 0
.LVL22:
	push	{r4, lr}
	.cfi_def_cfa_offset 8
	.cfi_offset 4, -8
	.cfi_offset 14, -4
	.loc 1 131 0
	mov	r4, r0
	.loc 1 132 0
	movs	r1, #112
	ldrb	r0, [r0]	@ zero_extendqisi2
.LVL23:
	bl	hal_pinmux_unregister
.LVL24:
	.loc 1 133 0
	ldr	r3, .L13
	mov	r0, r4
	.loc 1 134 0
	pop	{r4, lr}
	.cfi_restore 14
	.cfi_restore 4
	.cfi_def_cfa_offset 0
.LVL25:
	.loc 1 133 0
	ldr	r3, [r3, #76]
	bx	r3	@ indirect register sibling call
.LVL26:
.L14:
	.align	2
.L13:
	.word	hal_gpio_stubs
	.cfi_endproc
.LFE313:
	.size	hal_gpio_irq_deinit, .-hal_gpio_irq_deinit
	.section	.text.hal_gpio_port_init,"ax",%progbits
	.align	1
	.global	hal_gpio_port_init
	.syntax unified
	.thumb
	.thumb_func
	.fpu softvfp
	.type	hal_gpio_port_init, %function
hal_gpio_port_init:
.LFB314:
	.loc 1 155 0
	.cfi_startproc
	@ args = 0, pretend = 0, frame = 8
	@ frame_needed = 0, uses_anonymous_args = 0
.LVL27:
	push	{r0, r1, r4, r5, r6, r7, r8, r9, r10, lr}
	.cfi_def_cfa_offset 40
	.cfi_offset 4, -32
	.cfi_offset 5, -28
	.cfi_offset 6, -24
	.cfi_offset 7, -20
	.cfi_offset 8, -16
	.cfi_offset 9, -12
	.cfi_offset 10, -8
	.cfi_offset 14, -4
	.loc 1 160 0
	mov	r5, #0
.LVL28:
	.loc 1 155 0
	mov	r8, r0
	mov	r6, r1
	mov	r7, r2
	mov	r9, r3
	.loc 1 161 0
	movs	r4, #0
	.loc 1 162 0
	mov	r10, #1
	.loc 1 160 0
	bfi	r5, r1, #5, #3
.LVL29:
.L17:
	.loc 1 162 0
	lsl	r3, r10, r4
	tst	r3, r7
	bne	.L16
.LVL30:
.L19:
	.loc 1 161 0
	adds	r4, r4, #1
.LVL31:
	cmp	r4, #24
	bne	.L17
	.loc 1 175 0
	ldr	r4, .L26
.LVL32:
	mov	r3, r9
	ldr	r4, [r4, #108]
	mov	r2, r7
	mov	r1, r6
	mov	r0, r8
	mov	ip, r4
	str	r4, [sp, #4]
	.loc 1 176 0
	add	sp, sp, #8
	.cfi_remember_state
	.cfi_def_cfa_offset 32
	@ sp needed
	pop	{r4, r5, r6, r7, r8, r9, r10, lr}
	.cfi_restore 14
	.cfi_restore 10
	.cfi_restore 9
	.cfi_restore 8
	.cfi_restore 7
	.cfi_restore 6
	.cfi_restore 5
	.cfi_restore 4
	.cfi_def_cfa_offset 0
.LVL33:
	.loc 1 175 0
	bx	ip
.LVL34:
.L16:
	.cfi_restore_state
	.loc 1 163 0
	bfi	r5, r4, #0, #5
	.loc 1 164 0
	movs	r1, #112
	uxtb	r0, r5
	bl	hal_pinmux_register
.LVL35:
	.loc 1 165 0
	cmp	r0, #0
	beq	.L19
	.loc 1 176 0
	add	sp, sp, #8
	.cfi_def_cfa_offset 32
	@ sp needed
	pop	{r4, r5, r6, r7, r8, r9, r10, pc}
.LVL36:
.L27:
	.align	2
.L26:
	.word	hal_gpio_stubs
	.cfi_endproc
.LFE314:
	.size	hal_gpio_port_init, .-hal_gpio_port_init
	.section	.text.hal_gpio_port_deinit,"ax",%progbits
	.align	1
	.global	hal_gpio_port_deinit
	.syntax unified
	.thumb
	.thumb_func
	.fpu softvfp
	.type	hal_gpio_port_deinit, %function
hal_gpio_port_deinit:
.LFB315:
	.loc 1 187 0
	.cfi_startproc
	@ args = 0, pretend = 0, frame = 8
	@ frame_needed = 0, uses_anonymous_args = 0
.LVL37:
	push	{r0, r1, r4, r5, r6, r7, r8, lr}
	.cfi_def_cfa_offset 32
	.cfi_offset 4, -24
	.cfi_offset 5, -20
	.cfi_offset 6, -16
	.cfi_offset 7, -12
	.cfi_offset 8, -8
	.cfi_offset 14, -4
	.loc 1 192 0
	mov	r6, #0
.LVL38:
	.loc 1 187 0
	mov	r5, r0
	.loc 1 194 0
	movs	r4, #0
	.loc 1 195 0
	mov	r8, #1
	.loc 1 192 0
	ldrb	r3, [r0]	@ zero_extendqisi2
	.loc 1 193 0
	ldr	r7, [r0, #4]
.LVL39:
	.loc 1 192 0
	bfi	r6, r3, #5, #3
.LVL40:
.L30:
	.loc 1 195 0
	lsl	r3, r8, r4
	tst	r3, r7
	beq	.L29
	.loc 1 196 0
	bfi	r6, r4, #0, #5
	.loc 1 197 0
	movs	r1, #112
	uxtb	r0, r6
	bl	hal_pinmux_unregister
.LVL41:
.L29:
	.loc 1 194 0 discriminator 2
	adds	r4, r4, #1
.LVL42:
	cmp	r4, #24
	bne	.L30
	.loc 1 200 0
	mov	r0, r5
	ldr	r3, .L35
	ldr	r3, [r3, #112]
	str	r3, [sp, #4]
	.loc 1 201 0
	add	sp, sp, #8
	.cfi_def_cfa_offset 24
	@ sp needed
	pop	{r4, r5, r6, r7, r8, lr}
	.cfi_restore 14
	.cfi_restore 8
	.cfi_restore 7
	.cfi_restore 6
	.cfi_restore 5
	.cfi_restore 4
	.cfi_def_cfa_offset 0
.LVL43:
	.loc 1 200 0
	bx	r3	@ indirect register sibling call
.LVL44:
.L36:
	.align	2
.L35:
	.word	hal_gpio_stubs
	.cfi_endproc
.LFE315:
	.size	hal_gpio_port_deinit, .-hal_gpio_port_deinit
	.section	.text.hal_gpio_port_dir,"ax",%progbits
	.align	1
	.global	hal_gpio_port_dir
	.syntax unified
	.thumb
	.thumb_func
	.fpu softvfp
	.type	hal_gpio_port_dir, %function
hal_gpio_port_dir:
.LFB316:
	.loc 1 214 0
	.cfi_startproc
	@ args = 0, pretend = 0, frame = 0
	@ frame_needed = 0, uses_anonymous_args = 0
	@ link register save eliminated.
.LVL45:
	.loc 1 218 0
	ldrb	r3, [r0]	@ zero_extendqisi2
.LVL46:
	.loc 1 220 0
	cbnz	r1, .L38
	.loc 1 221 0
	ldr	r2, .L41
.L40:
	.loc 1 224 0
	ldr	r2, [r2, r3, lsl #2]
.LVL47:
	.loc 1 227 0
	ldrb	r1, [r0, #1]	@ zero_extendqisi2
.LVL48:
	ldr	r3, [r0, #4]
.LVL49:
	lsls	r3, r3, r1
	str	r3, [r2]
.LVL50:
	bx	lr
.LVL51:
.L38:
	.loc 1 224 0
	ldr	r2, .L41+4
	b	.L40
.L42:
	.align	2
.L41:
	.word	.LANCHOR0
	.word	.LANCHOR1
	.cfi_endproc
.LFE316:
	.size	hal_gpio_port_dir, .-hal_gpio_port_dir
	.section	.text.hal_gpio_h5l3,"ax",%progbits
	.align	1
	.global	hal_gpio_h5l3
	.syntax unified
	.thumb
	.thumb_func
	.fpu softvfp
	.type	hal_gpio_h5l3, %function
hal_gpio_h5l3:
.LFB317:
	.loc 1 240 0
	.cfi_startproc
	@ args = 0, pretend = 0, frame = 0
	@ frame_needed = 0, uses_anonymous_args = 0
	@ link register save eliminated.
.LVL52:
	.loc 1 242 0
	ldr	r2, .L46
	.loc 1 244 0
	cmp	r0, #1
	.loc 1 242 0
	ldr	r3, [r2]
.LVL53:
	.loc 1 245 0
	ite	eq
	orreq	r3, r3, #196608
.LVL54:
	.loc 1 247 0
	bicne	r3, r3, #196608
.LVL55:
	.loc 1 249 0
	str	r3, [r2]
	bx	lr
.L47:
	.align	2
.L46:
	.word	1073741996
	.cfi_endproc
.LFE317:
	.size	hal_gpio_h5l3, .-hal_gpio_h5l3
	.global	pport_out_en_reg
	.global	pport_in_en_reg
	.section	.data.pport_in_en_reg,"aw",%progbits
	.align	2
	.set	.LANCHOR0,. + 0
	.type	pport_in_en_reg, %object
	.size	pport_in_en_reg, 4
pport_in_en_reg:
	.word	1073746436
	.section	.data.pport_out_en_reg,"aw",%progbits
	.align	2
	.set	.LANCHOR1,. + 0
	.type	pport_out_en_reg, %object
	.size	pport_out_en_reg, 4
pport_out_en_reg:
	.word	1073746440
	.text
.Letext0:
	.file 2 "/home/ls/samba_share/sdk-ameba-v7.1d/tools/arm-none-eabi-gcc/asdk/linux/newlib/arm-none-eabi/include/machine/_default_types.h"
	.file 3 "/home/ls/samba_share/sdk-ameba-v7.1d/tools/arm-none-eabi-gcc/asdk/linux/newlib/lib/gcc/arm-none-eabi/6.5.0/include/stddef.h"
	.file 4 "/home/ls/samba_share/sdk-ameba-v7.1d/tools/arm-none-eabi-gcc/asdk/linux/newlib/arm-none-eabi/include/sys/lock.h"
	.file 5 "/home/ls/samba_share/sdk-ameba-v7.1d/tools/arm-none-eabi-gcc/asdk/linux/newlib/arm-none-eabi/include/sys/_types.h"
	.file 6 "/home/ls/samba_share/sdk-ameba-v7.1d/tools/arm-none-eabi-gcc/asdk/linux/newlib/arm-none-eabi/include/sys/reent.h"
	.file 7 "<built-in>"
	.file 8 "/home/ls/samba_share/sdk-ameba-v7.1d/tools/arm-none-eabi-gcc/asdk/linux/newlib/arm-none-eabi/include/sys/_stdint.h"
	.file 9 "/home/ls/samba_share/sdk-ameba-v7.1d/tools/arm-none-eabi-gcc/asdk/linux/newlib/arm-none-eabi/include/time.h"
	.file 10 "../../../component/soc/realtek/8710c/cmsis/rtl8710c/include/basic_types.h"
	.file 11 "../../../component/soc/realtek/8710c/cmsis/cmsis-core/include/core_armv8mml.h"
	.file 12 "../../../component/soc/realtek/8710c/cmsis/rtl8710c/include/system_rtl8710c.h"
	.file 13 "../../../component/soc/realtek/8710c/cmsis/rtl8710c/include/rtl8710c.h"
	.file 14 "../../../component/soc/realtek/8710c/fwlib/include/hal_api.h"
	.file 15 "/home/ls/samba_share/sdk-ameba-v7.1d/tools/arm-none-eabi-gcc/asdk/linux/newlib/lib/gcc/arm-none-eabi/6.5.0/include/stdarg.h"
	.file 16 "../../../component/soc/realtek/8710c/app/rtl_printf/include/log_buf.h"
	.file 17 "../../../component/soc/realtek/8710c/app/stdio_port/stdio_port.h"
	.file 18 "../../../component/soc/realtek/8710c/app/rtl_printf/include/printf_entry.h"
	.file 19 "../../../component/soc/realtek/8710c/app/rtl_printf/include/rt_printf.h"
	.file 20 "../../../component/soc/realtek/8710c/misc/utilities/include/utility.h"
	.file 21 "../../../component/soc/realtek/8710c/cmsis/rtl8710c/include/rtl8710c_irq.h"
	.file 22 "../../../component/soc/realtek/8710c/fwlib/include/rtl8710c_syson_ctrl.h"
	.file 23 "../../../component/soc/realtek/8710c/fwlib/include/rtl8710c_peri_id.h"
	.file 24 "../../../component/soc/realtek/8710c/fwlib/include/rtl8710c_pin_name.h"
	.file 25 "../../../component/soc/realtek/8710c/fwlib/include/rtl8710c_uart.h"
	.file 26 "../../../component/soc/realtek/8710c/fwlib/include/rtl8710c_timer.h"
	.file 27 "../../../component/soc/realtek/8710c/fwlib/include/rtl8710c_pwm.h"
	.file 28 "../../../component/soc/realtek/8710c/fwlib/include/rtl8710c_gpio.h"
	.file 29 "../../../component/soc/realtek/8710c/fwlib/include/hal_gpio.h"
	.file 30 "../../../component/soc/realtek/8710c/fwlib/include/hal_pinmux.h"