	.arch armv8-m.main
	.arch_extension dsp
	.eabi_attribute 20, 1
	.eabi_attribute 21, 1
	.eabi_attribute 23, 3
	.eabi_attribute 24, 1
	.eabi_attribute 25, 1
	.eabi_attribute 26, 1
	.eabi_attribute 30, 4
	.eabi_attribute 34, 1
	.eabi_attribute 18, 4
	.file	"hal_sdio_dev.c"
	.text
.Ltext0:
	.cfi_sections	.debug_frame
	.section	.text.hal_gpio_schmitt_ctrl,"ax",%progbits
	.align	1
	.syntax unified
	.thumb
	.thumb_func
	.fpu softvfp
	.type	hal_gpio_schmitt_ctrl, %function
hal_gpio_schmitt_ctrl:
.LFB318:
	.file 1 "../../../component/soc/realtek/8710c/fwlib/include/hal_gpio.h"
	.loc 1 446 0
	.cfi_startproc
	@ args = 0, pretend = 0, frame = 0
	@ frame_needed = 0, uses_anonymous_args = 0
	@ link register save eliminated.
.LVL0:
	.loc 1 447 0
	ldr	r3, .L2
	ldr	r3, [r3, #132]
	bx	r3
.LVL1:
.L3:
	.align	2
.L2:
	.word	hal_gpio_stubs
	.cfi_endproc
.LFE318:
	.size	hal_gpio_schmitt_ctrl, .-hal_gpio_schmitt_ctrl
	.section	.text.hal_sdio_dev_dcache_clean_by_addr,"ax",%progbits
	.align	1
	.global	hal_sdio_dev_dcache_clean_by_addr
	.syntax unified
	.thumb
	.thumb_func
	.fpu softvfp
	.type	hal_sdio_dev_dcache_clean_by_addr, %function
hal_sdio_dev_dcache_clean_by_addr:
.LFB375:
	.file 2 "../../../component/soc/realtek/8710c/fwlib/source/ram_ns/hal_sdio_dev.c"
	.loc 2 474 0
	.cfi_startproc
	@ args = 0, pretend = 0, frame = 0
	@ frame_needed = 0, uses_anonymous_args = 0
	@ link register save eliminated.
.LVL2:
.LBB28:
.LBB29:
	.file 3 "../../../component/soc/realtek/8710c/fwlib/include/hal_cache.h"
	.loc 3 145 0
	ldr	r3, .L5
.LBE29:
.LBE28:
	.loc 2 477 0
	and	r2, r0, #31
.LBB31:
.LBB30:
	.loc 3 145 0
	ldr	r3, [r3, #36]
	add	r1, r1, r2
.LVL3:
	bic	r0, r0, #31
.LVL4:
	bx	r3	@ indirect register sibling call
.LVL5:
.L6:
	.align	2
.L5:
	.word	hal_cache_stubs
.LBE30:
.LBE31:
	.cfi_endproc
.LFE375:
	.size	hal_sdio_dev_dcache_clean_by_addr, .-hal_sdio_dev_dcache_clean_by_addr
	.section	.text.hal_sdio_dev_dcache_invalidate_by_addr,"ax",%progbits
	.align	1
	.global	hal_sdio_dev_dcache_invalidate_by_addr
	.syntax unified
	.thumb
	.thumb_func
	.fpu softvfp
	.type	hal_sdio_dev_dcache_invalidate_by_addr, %function
hal_sdio_dev_dcache_invalidate_by_addr:
.LFB376:
	.loc 2 490 0
	.cfi_startproc
	@ args = 0, pretend = 0, frame = 0
	@ frame_needed = 0, uses_anonymous_args = 0
	@ link register save eliminated.
.LVL6:
.LBB34:
.LBB35:
	.loc 3 133 0
	ldr	r3, .L8
.LBE35:
.LBE34:
	.loc 2 493 0
	and	r2, r0, #31
.LBB37:
.LBB36:
	.loc 3 133 0
	ldr	r3, [r3, #32]
	add	r1, r1, r2
.LVL7:
	bic	r0, r0, #31
.LVL8:
	bx	r3	@ indirect register sibling call
.LVL9:
.L9:
	.align	2
.L8:
	.word	hal_cache_stubs
.LBE36:
.LBE37:
	.cfi_endproc
.LFE376:
	.size	hal_sdio_dev_dcache_invalidate_by_addr, .-hal_sdio_dev_dcache_invalidate_by_addr
	.section	.text.hal_sdio_dev_reset_cmd,"ax",%progbits
	.align	1
	.global	hal_sdio_dev_reset_cmd
	.syntax unified
	.thumb
	.thumb_func
	.fpu softvfp
	.type	hal_sdio_dev_reset_cmd, %function
hal_sdio_dev_reset_cmd:
.LFB378:
	.loc 2 528 0
	.cfi_startproc
	@ args = 0, pretend = 0, frame = 0
	@ frame_needed = 0, uses_anonymous_args = 0
	@ link register save eliminated.
.LVL10:
	bx	lr
	.cfi_endproc
.LFE378:
	.size	hal_sdio_dev_reset_cmd, .-hal_sdio_dev_reset_cmd
	.section	.text.hal_sdio_txbd_hdl_init,"ax",%progbits
	.align	1
	.global	hal_sdio_txbd_hdl_init
	.syntax unified
	.thumb
	.thumb_func
	.fpu softvfp
	.type	hal_sdio_txbd_hdl_init, %function
hal_sdio_txbd_hdl_init:
.LFB358:
	.loc 2 234 0
	.cfi_startproc
	@ args = 0, pretend = 0, frame = 0
	@ frame_needed = 0, uses_anonymous_args = 0
.LVL11:
	.loc 2 234 0
	push	{r3, r4, r5, lr}
	.cfi_def_cfa_offset 16
	.cfi_offset 3, -16
	.cfi_offset 4, -12
	.cfi_offset 5, -8
	.cfi_offset 14, -4
	.loc 2 238 0
	ldr	r3, .L14
	ldr	r5, [r0]
	ldr	r3, [r3]
	.loc 2 234 0
	mov	r4, r0
	.loc 2 238 0
	ldr	r0, [r3, #8]
.LVL12:
	bl	rtw_malloc
.LVL13:
	.loc 2 239 0
	ldr	r3, [r4]
	.loc 2 238 0
	str	r0, [r5]
	.loc 2 239 0
	ldr	r3, [r3]
	cmp	r3, #0
	.loc 2 244 0
	ite	eq
	moveq	r0, #4
	movne	r0, #0
	pop	{r3, r4, r5, pc}
.LVL14:
.L15:
	.align	2
.L14:
	.word	g_sdio_adp
	.cfi_endproc
.LFE358:
	.size	hal_sdio_txbd_hdl_init, .-hal_sdio_txbd_hdl_init
	.section	.text.hal_sdio_txbd_hdl_deinit,"ax",%progbits
	.align	1
	.global	hal_sdio_txbd_hdl_deinit
	.syntax unified
	.thumb
	.thumb_func
	.fpu softvfp
	.type	hal_sdio_txbd_hdl_deinit, %function
hal_sdio_txbd_hdl_deinit:
.LFB359:
	.loc 2 247 0
	.cfi_startproc
	@ args = 0, pretend = 0, frame = 0
	@ frame_needed = 0, uses_anonymous_args = 0
.LVL15:
	.loc 2 248 0
	ldr	r3, [r0]
	.loc 2 247 0
	push	{r4, lr}
	.cfi_def_cfa_offset 8
	.cfi_offset 4, -8
	.cfi_offset 14, -4
	.loc 2 247 0
	mov	r4, r0
	.loc 2 248 0
	ldr	r0, [r3]
.LVL16:
	cbz	r0, .L16
	.loc 2 249 0
	ldr	r3, .L21
	ldr	r3, [r3]
	ldr	r1, [r3, #8]
.LVL17:
	bl	rtw_mfree
.LVL18:
	.loc 2 250 0
	movs	r2, #0
	ldr	r3, [r4]
	str	r2, [r3]
.L16:
	pop	{r4, pc}
.LVL19:
.L22:
	.align	2
.L21:
	.word	g_sdio_adp
	.cfi_endproc
.LFE359:
	.size	hal_sdio_txbd_hdl_deinit, .-hal_sdio_txbd_hdl_deinit
	.section	.text.hal_sdio_rxbd_tr_done_callback,"ax",%progbits
	.align	1
	.global	hal_sdio_rxbd_tr_done_callback
	.syntax unified
	.thumb
	.thumb_func
	.fpu softvfp
	.type	hal_sdio_rxbd_tr_done_callback, %function
hal_sdio_rxbd_tr_done_callback:
.LFB362:
	.loc 2 278 0
	.cfi_startproc
	@ args = 0, pretend = 0, frame = 0
	@ frame_needed = 0, uses_anonymous_args = 0
.LVL20:
	push	{r0, r1, r4, r5, r6, lr}
	.cfi_def_cfa_offset 24
	.cfi_offset 4, -16
	.cfi_offset 5, -12
	.cfi_offset 6, -8
	.cfi_offset 14, -4
	.loc 2 283 0
	ldr	r4, [r1, #4]
.LVL21:
	.loc 2 287 0
	ldr	r6, [r0, #96]
	.loc 2 284 0
	ldr	r3, [r4]
.LVL22:
	.loc 2 285 0
	ldrh	r5, [r3]
.LVL23:
	.loc 2 287 0
	cbz	r6, .L24
	.loc 2 288 0
	ldrb	r3, [r3, #4]	@ zero_extendqisi2
.LVL24:
	ldrh	r2, [r4, #12]
	str	r3, [sp]
.LVL25:
	ldr	r1, [r4, #8]
.LVL26:
	mov	r3, r5
	ldr	r0, [r0, #100]
.LVL27:
	blx	r6
.LVL28:
.L24:
	.loc 2 292 0
	ldrh	r1, [r4, #12]
	ldr	r0, [r4, #8]
	add	r1, r1, r5
	.loc 2 293 0
	add	sp, sp, #8
	.cfi_def_cfa_offset 16
	@ sp needed
	pop	{r4, r5, r6, lr}
	.cfi_restore 14
	.cfi_restore 6
	.cfi_restore 5
	.cfi_restore 4
	.cfi_def_cfa_offset 0
.LVL29:
	.loc 2 292 0
	b	rtw_mfree
.LVL30:
	.cfi_endproc
.LFE362:
	.size	hal_sdio_rxbd_tr_done_callback, .-hal_sdio_rxbd_tr_done_callback
	.section	.text.hal_sdio_dev_process_rpwm,"ax",%progbits
	.align	1
	.global	hal_sdio_dev_process_rpwm
	.syntax unified
	.thumb
	.thumb_func
	.fpu softvfp
	.type	hal_sdio_dev_process_rpwm, %function
hal_sdio_dev_process_rpwm:
.LFB379:
	.loc 2 538 0
	.cfi_startproc
	@ args = 0, pretend = 0, frame = 0
	@ frame_needed = 0, uses_anonymous_args = 0
.LVL31:
	push	{r3, lr}
	.cfi_def_cfa_offset 8
	.cfi_offset 3, -8
	.cfi_offset 14, -4
	.loc 2 542 0
	ldr	r3, .L33
	ldrh	r1, [r3, #208]
	.loc 2 544 0
	ldr	r3, .L33+4
	.loc 2 542 0
	uxth	r1, r1
	.loc 2 544 0
	ldr	r3, [r3, #8]
	ldr	r3, [r3]
	lsls	r3, r3, #21
	bpl	.L29
	.loc 2 544 0 is_stmt 0 discriminator 1
	ldr	r3, .L33+8
	ldr	r0, .L33+12
.LVL32:
	ldr	r3, [r3, #28]
	blx	r3
.LVL33:
.L29:
	.loc 2 547 0 is_stmt 1
	movs	r0, #0
	pop	{r3, pc}
.L34:
	.align	2
.L33:
	.word	1074069504
	.word	utility_stubs
	.word	stdio_printf_stubs
	.word	.LC0
	.cfi_endproc
.LFE379:
	.size	hal_sdio_dev_process_rpwm, .-hal_sdio_dev_process_rpwm
	.section	.text.hal_sdio_dev_process_rpwm2,"ax",%progbits
	.align	1
	.global	hal_sdio_dev_process_rpwm2
	.syntax unified
	.thumb
	.thumb_func
	.fpu softvfp
	.type	hal_sdio_dev_process_rpwm2, %function
hal_sdio_dev_process_rpwm2:
.LFB380:
	.loc 2 558 0
	.cfi_startproc
	@ args = 0, pretend = 0, frame = 0
	@ frame_needed = 0, uses_anonymous_args = 0
.LVL34:
	push	{r3, lr}
	.cfi_def_cfa_offset 8
	.cfi_offset 3, -8
	.cfi_offset 14, -4
	.loc 2 565 0
	ldr	r3, .L40
	ldrh	r1, [r3, #210]
	.loc 2 567 0
	ldr	r3, .L40+4
	.loc 2 565 0
	uxth	r1, r1
	.loc 2 567 0
	ldr	r3, [r3, #8]
	ldr	r3, [r3]
	lsls	r3, r3, #21
	bpl	.L36
	.loc 2 567 0 is_stmt 0 discriminator 1
	ldr	r3, .L40+8
	ldr	r0, .L40+12
.LVL35:
	ldr	r3, [r3, #28]
	blx	r3
.LVL36:
.L36:
	.loc 2 698 0 is_stmt 1
	movs	r0, #0
	pop	{r3, pc}
.L41:
	.align	2
.L40:
	.word	1074069504
	.word	utility_stubs
	.word	stdio_printf_stubs
	.word	.LC1
	.cfi_endproc
.LFE380:
	.size	hal_sdio_dev_process_rpwm2, .-hal_sdio_dev_process_rpwm2
	.section	.text.hal_sdio_os_wait_tx_bd,"ax",%progbits
	.align	1
	.global	hal_sdio_os_wait_tx_bd
	.syntax unified
	.thumb
	.thumb_func
	.fpu softvfp
	.type	hal_sdio_os_wait_tx_bd, %function
hal_sdio_os_wait_tx_bd:
.LFB371:
	.loc 2 369 0
	.cfi_startproc
	@ args = 0, pretend = 0, frame = 0
	@ frame_needed = 0, uses_anonymous_args = 0
	@ link register save eliminated.
	.loc 2 371 0
	movs	r0, #20
	b	rtw_msleep_os
.LVL37:
	.cfi_endproc
.LFE371:
	.size	hal_sdio_os_wait_tx_bd, .-hal_sdio_os_wait_tx_bd
	.section	.text.hal_sdio_os_wait_rx_bd,"ax",%progbits
	.align	1
	.global	hal_sdio_os_wait_rx_bd
	.syntax unified
	.thumb
	.thumb_func
	.fpu softvfp
	.type	hal_sdio_os_wait_rx_bd, %function
hal_sdio_os_wait_rx_bd:
.LFB372:
	.loc 2 375 0
	.cfi_startproc
	@ args = 0, pretend = 0, frame = 0
	@ frame_needed = 0, uses_anonymous_args = 0
	@ link register save eliminated.
	.loc 2 377 0
	movs	r0, #1
	b	rtw_msleep_os
.LVL38:
	.cfi_endproc
.LFE372:
	.size	hal_sdio_os_wait_rx_bd, .-hal_sdio_os_wait_rx_bd
	.section	.text.hal_sdio_dev_tx_task_down,"ax",%progbits
	.align	1
	.global	hal_sdio_dev_tx_task_down
	.syntax unified
	.thumb
	.thumb_func
	.fpu softvfp
	.type	hal_sdio_dev_tx_task_down, %function
hal_sdio_dev_tx_task_down:
.LFB363:
	.loc 2 299 0
	.cfi_startproc
	@ args = 0, pretend = 0, frame = 0
	@ frame_needed = 0, uses_anonymous_args = 0
	@ link register save eliminated.
.LVL39:
	.loc 2 304 0
	ldr	r0, .L45
.LVL40:
	b	rtw_down_sema
.LVL41:
.L46:
	.align	2
.L45:
	.word	sdiod_tx_sema
	.cfi_endproc
.LFE363:
	.size	hal_sdio_dev_tx_task_down, .-hal_sdio_dev_tx_task_down
	.section	.text.hal_sdio_dev_rx_task_down,"ax",%progbits
	.align	1
	.global	hal_sdio_dev_rx_task_down
	.syntax unified
	.thumb
	.thumb_func
	.fpu softvfp
	.type	hal_sdio_dev_rx_task_down, %function
hal_sdio_dev_rx_task_down:
.LFB365:
	.loc 2 324 0
	.cfi_startproc
	@ args = 0, pretend = 0, frame = 0
	@ frame_needed = 0, uses_anonymous_args = 0
	@ link register save eliminated.
.LVL42:
	.loc 2 329 0
	ldr	r0, .L48
.LVL43:
	b	rtw_down_sema
.LVL44:
.L49:
	.align	2
.L48:
	.word	sdiod_rx_sema
	.cfi_endproc
.LFE365:
	.size	hal_sdio_dev_rx_task_down, .-hal_sdio_dev_rx_task_down
	.section	.text.hal_sdio_dev_tx_task_up,"ax",%progbits
	.align	1
	.global	hal_sdio_dev_tx_task_up
	.syntax unified
	.thumb
	.thumb_func
	.fpu softvfp
	.type	hal_sdio_dev_tx_task_up, %function
hal_sdio_dev_tx_task_up:
.LFB364:
	.loc 2 309 0
	.cfi_startproc
	@ args = 0, pretend = 0, frame = 0
	@ frame_needed = 0, uses_anonymous_args = 0
.LVL45:
	push	{r3, lr}
	.cfi_def_cfa_offset 8
	.cfi_offset 3, -8
	.cfi_offset 14, -4
.LBB38:
.LBB39:
	.file 4 "../../../component/soc/realtek/8710c/cmsis/cmsis-core/include/cmsis_gcc.h"
	.loc 4 209 0
	.syntax unified
@ 209 "../../../component/soc/realtek/8710c/cmsis/cmsis-core/include/cmsis_gcc.h" 1
	MRS r3, ipsr
@ 0 "" 2
	.thumb
	.syntax unified
.LBE39:
.LBE38:
	.loc 2 314 0
	ldr	r0, .L53
.LVL46:
	.loc 2 312 0
	cbnz	r3, .L51
	.loc 2 314 0
	bl	rtw_up_sema
.LVL47:
.L52:
	.loc 2 321 0
	movs	r0, #0
	pop	{r3, pc}
.L51:
	.loc 2 317 0
	bl	rtw_up_sema_from_isr
.LVL48:
	b	.L52
.L54:
	.align	2
.L53:
	.word	sdiod_tx_sema
	.cfi_endproc
.LFE364:
	.size	hal_sdio_dev_tx_task_up, .-hal_sdio_dev_tx_task_up
	.section	.text.hal_sdio_dev_rx_task_up,"ax",%progbits
	.align	1
	.global	hal_sdio_dev_rx_task_up
	.syntax unified
	.thumb
	.thumb_func
	.fpu softvfp
	.type	hal_sdio_dev_rx_task_up, %function
hal_sdio_dev_rx_task_up:
.LFB366:
	.loc 2 334 0
	.cfi_startproc
	@ args = 0, pretend = 0, frame = 0
	@ frame_needed = 0, uses_anonymous_args = 0
.LVL49:
	push	{r3, lr}
	.cfi_def_cfa_offset 8
	.cfi_offset 3, -8
	.cfi_offset 14, -4
.LBB40:
.LBB41:
	.loc 4 209 0
	.syntax unified
@ 209 "../../../component/soc/realtek/8710c/cmsis/cmsis-core/include/cmsis_gcc.h" 1
	MRS r3, ipsr
@ 0 "" 2
	.thumb
	.syntax unified
.LBE41:
.LBE40:
	.loc 2 339 0
	ldr	r0, .L58
.LVL50:
	.loc 2 337 0
	cbnz	r3, .L56
	.loc 2 339 0
	bl	rtw_up_sema
.LVL51:
.L57:
	.loc 2 346 0
	movs	r0, #0
	pop	{r3, pc}
.L56:
	.loc 2 342 0
	bl	rtw_up_sema_from_isr
.LVL52:
	b	.L57
.L59:
	.align	2
.L58:
	.word	sdiod_rx_sema
	.cfi_endproc
.LFE366:
	.size	hal_sdio_dev_rx_task_up, .-hal_sdio_dev_rx_task_up
	.section	.text.hal_sdio_dev_pop_msg_queue,"ax",%progbits
	.align	1
	.global	hal_sdio_dev_pop_msg_queue
	.syntax unified
	.thumb
	.thumb_func
	.fpu softvfp
	.type	hal_sdio_dev_pop_msg_queue, %function
hal_sdio_dev_pop_msg_queue:
.LFB368:
	.loc 2 354 0
	.cfi_startproc
	@ args = 0, pretend = 0, frame = 0
	@ frame_needed = 0, uses_anonymous_args = 0
	@ link register save eliminated.
.LVL53:
	.loc 2 355 0
	movs	r2, #0
	ldr	r0, .L61
.LVL54:
	b	rtw_pop_from_xqueue
.LVL55:
.L62:
	.align	2
.L61:
	.word	sdiod_msg_queue
	.cfi_endproc
.LFE368:
	.size	hal_sdio_dev_pop_msg_queue, .-hal_sdio_dev_pop_msg_queue
	.section	.text.hal_sdio_rx_lock,"ax",%progbits
	.align	1
	.global	hal_sdio_rx_lock
	.syntax unified
	.thumb
	.thumb_func
	.fpu softvfp
	.type	hal_sdio_rx_lock, %function
hal_sdio_rx_lock:
.LFB369:
	.loc 2 359 0
	.cfi_startproc
	@ args = 0, pretend = 0, frame = 0
	@ frame_needed = 0, uses_anonymous_args = 0
	@ link register save eliminated.
	.loc 2 360 0
	ldr	r0, .L64
	b	rtw_mutex_get
.LVL56:
.L65:
	.align	2
.L64:
	.word	sdiod_rx_mutex
	.cfi_endproc
.LFE369:
	.size	hal_sdio_rx_lock, .-hal_sdio_rx_lock
	.section	.text.hal_sdio_rx_unlock,"ax",%progbits
	.align	1
	.global	hal_sdio_rx_unlock
	.syntax unified
	.thumb
	.thumb_func
	.fpu softvfp
	.type	hal_sdio_rx_unlock, %function
hal_sdio_rx_unlock:
.LFB370:
	.loc 2 364 0
	.cfi_startproc
	@ args = 0, pretend = 0, frame = 0
	@ frame_needed = 0, uses_anonymous_args = 0
	@ link register save eliminated.
	.loc 2 365 0
	ldr	r0, .L67
	b	rtw_mutex_put
.LVL57:
.L68:
	.align	2
.L67:
	.word	sdiod_rx_mutex
	.cfi_endproc
.LFE370:
	.size	hal_sdio_rx_unlock, .-hal_sdio_rx_unlock
	.section	.text.hal_sdio_dev_os_deinit,"ax",%progbits
	.align	1
	.global	hal_sdio_dev_os_deinit
	.syntax unified
	.thumb
	.thumb_func
	.fpu softvfp
	.type	hal_sdio_dev_os_deinit, %function
hal_sdio_dev_os_deinit:
.LFB374:
	.loc 2 436 0
	.cfi_startproc
	@ args = 0, pretend = 0, frame = 0
	@ frame_needed = 0, uses_anonymous_args = 0
.LVL58:
	push	{r4, lr}
	.cfi_def_cfa_offset 8
	.cfi_offset 4, -8
	.cfi_offset 14, -4
	.loc 2 437 0
	ldr	r4, .L90
	ldr	r3, [r4]
	cbz	r3, .L70
	.loc 2 438 0
	mov	r0, r4
.LVL59:
	bl	rtw_free_sema
.LVL60:
	.loc 2 439 0
	movs	r3, #0
	str	r3, [r4]
.L70:
	.loc 2 442 0
	ldr	r4, .L90+4
	ldr	r3, [r4]
	cbz	r3, .L71
	.loc 2 443 0
	mov	r0, r4
	bl	rtw_free_sema
.LVL61:
	.loc 2 444 0
	movs	r3, #0
	str	r3, [r4]
.L71:
	.loc 2 447 0
	ldr	r4, .L90+8
	ldr	r3, [r4]
	cbz	r3, .L72
	.loc 2 448 0
	mov	r0, r4
	bl	rtw_mutex_free
.LVL62:
	.loc 2 449 0
	movs	r3, #0
	str	r3, [r4]
.L72:
	.loc 2 452 0
	ldr	r4, .L90+12
	ldr	r3, [r4]
	cbz	r3, .L73
	.loc 2 453 0
	mov	r0, r4
	bl	rtw_mutex_free
.LVL63:
	.loc 2 454 0
	movs	r3, #0
	str	r3, [r4]
.L73:
	.loc 2 457 0
	ldr	r4, .L90+16
	ldr	r3, [r4]
	cbz	r3, .L74
	.loc 2 458 0
	mov	r0, r4
	bl	rtw_deinit_xqueue
.LVL64:
	.loc 2 459 0
	movs	r3, #0
	str	r3, [r4]
.L74:
	.loc 2 463 0
	movs	r0, #0
	pop	{r4, pc}
.L91:
	.align	2
.L90:
	.word	sdiod_tx_sema
	.word	sdiod_rx_sema
	.word	sdiod_rx_mutex
	.word	sdiod_gmutex
	.word	sdiod_msg_queue
	.cfi_endproc
.LFE374:
	.size	hal_sdio_dev_os_deinit, .-hal_sdio_dev_os_deinit
	.section	.text.hal_sdio_txbd_rdy_callback,"ax",%progbits
	.align	1
	.global	hal_sdio_txbd_rdy_callback
	.syntax unified
	.thumb
	.thumb_func
	.fpu softvfp
	.type	hal_sdio_txbd_rdy_callback, %function
hal_sdio_txbd_rdy_callback:
.LFB361:
	.loc 2 266 0
	.cfi_startproc
	@ args = 0, pretend = 0, frame = 0
	@ frame_needed = 0, uses_anonymous_args = 0
.LVL65:
	push	{r0, r1, r2, r4, r5, lr}
	.cfi_def_cfa_offset 24
	.cfi_offset 4, -12
	.cfi_offset 5, -8
	.cfi_offset 14, -4
	.loc 2 268 0
	ldr	r4, [r0, #68]
	cbz	r4, .L93
	.loc 2 269 0
	ldrb	r5, [r2, #2]	@ zero_extendqisi2
	ldrh	r3, [r2]
	ldrb	r2, [r2, #4]	@ zero_extendqisi2
.LVL66:
	ldr	r1, [r1]
.LVL67:
	str	r2, [sp]
	ldr	r1, [r1]
	mov	r2, r5
	ldr	r0, [r0, #72]
.LVL68:
	blx	r4
.LVL69:
.L94:
	.loc 2 275 0
	add	sp, sp, #12
	.cfi_remember_state
	.cfi_def_cfa_offset 12
	@ sp needed
	pop	{r4, r5, pc}
.LVL70:
.L93:
	.cfi_restore_state
	.loc 2 272 0
	ldr	r3, .L96
	ldr	r3, [r3]
	ldr	r0, [r3]
.LVL71:
	ands	r0, r0, #1024
	beq	.L94
.LVL72:
.LBB44:
.LBB45:
	ldr	r3, .L96+4
	ldr	r0, .L96+8
	ldr	r3, [r3, #28]
	blx	r3
.LVL73:
	mov	r0, r4
	b	.L94
.L97:
	.align	2
.L96:
	.word	utility_stubs
	.word	stdio_printf_stubs
	.word	.LC2
.LBE45:
.LBE44:
	.cfi_endproc
.LFE361:
	.size	hal_sdio_txbd_rdy_callback, .-hal_sdio_txbd_rdy_callback
	.section	.text.hal_sdio_txbd_buf_do_refill,"ax",%progbits
	.align	1
	.global	hal_sdio_txbd_buf_do_refill
	.syntax unified
	.thumb
	.thumb_func
	.fpu softvfp
	.type	hal_sdio_txbd_buf_do_refill, %function
hal_sdio_txbd_buf_do_refill:
.LFB360:
	.loc 2 255 0
	.cfi_startproc
	@ args = 0, pretend = 0, frame = 0
	@ frame_needed = 0, uses_anonymous_args = 0
.LVL74:
	push	{r3, r4, r5, lr}
	.cfi_def_cfa_offset 16
	.cfi_offset 3, -16
	.cfi_offset 4, -12
	.cfi_offset 5, -8
	.cfi_offset 14, -4
	.loc 2 256 0
	ldr	r5, [r0]
	.loc 2 255 0
	mov	r4, r0
	.loc 2 256 0
	mov	r0, #2112
.LVL75:
	bl	rtw_malloc
.LVL76:
	.loc 2 257 0
	ldr	r3, [r4]
	.loc 2 256 0
	str	r0, [r5]
	.loc 2 257 0
	ldr	r3, [r3]
	cbnz	r3, .L98
.LVL77:
.LBB48:
.LBB49:
	.loc 2 258 0
	ldr	r3, .L104
	ldr	r3, [r3, #4]
	ldr	r3, [r3]
	lsls	r3, r3, #21
	bpl	.L100
	ldr	r3, .L104+4
	mov	r2, #2112
	ldr	r1, .L104+8
	ldr	r0, .L104+12
	ldr	r3, [r3, #28]
	blx	r3
.LVL78:
.L100:
.LBE49:
.LBE48:
	.loc 2 262 0
	pop	{r3, r4, r5, lr}
	.cfi_remember_state
	.cfi_restore 14
	.cfi_restore 5
	.cfi_restore 4
	.cfi_restore 3
	.cfi_def_cfa_offset 0
.LVL79:
.LBB51:
.LBB50:
	.loc 2 260 0
	movs	r0, #10
	b	rtw_msleep_os
.LVL80:
.L98:
	.cfi_restore_state
	pop	{r3, r4, r5, pc}
.LVL81:
.L105:
	.align	2
.L104:
	.word	utility_stubs
	.word	stdio_printf_stubs
	.word	.LANCHOR0
	.word	.LC3
.LBE50:
.LBE51:
	.cfi_endproc
.LFE360:
	.size	hal_sdio_txbd_buf_do_refill, .-hal_sdio_txbd_buf_do_refill
	.section	.text.hal_sdio_dev_free_rx_pkt,"ax",%progbits
	.align	1
	.global	hal_sdio_dev_free_rx_pkt
	.syntax unified
	.thumb
	.thumb_func
	.fpu softvfp
	.type	hal_sdio_dev_free_rx_pkt, %function
hal_sdio_dev_free_rx_pkt:
.LFB388:
	.loc 2 1228 0
	.cfi_startproc
	@ args = 0, pretend = 0, frame = 0
	@ frame_needed = 0, uses_anonymous_args = 0
.LVL82:
	push	{r3, r4, r5, lr}
	.cfi_def_cfa_offset 16
	.cfi_offset 3, -16
	.cfi_offset 4, -12
	.cfi_offset 5, -8
	.cfi_offset 14, -4
	.loc 2 1229 0
	ldrb	r3, [r1, #24]	@ zero_extendqisi2
	.loc 2 1228 0
	mov	r5, r0
	mov	r4, r1
	.loc 2 1229 0
	cbz	r3, .L107
	.loc 2 1230 0
	mov	r0, r4
.LVL83:
	.loc 2 1236 0
	pop	{r3, r4, r5, lr}
	.cfi_remember_state
	.cfi_restore 14
	.cfi_restore 5
	.cfi_restore 4
	.cfi_restore 3
	.cfi_def_cfa_offset 0
.LVL84:
	.loc 2 1230 0
	movs	r1, #28
.LVL85:
	b	rtw_mfree
.LVL86:
.L107:
	.cfi_restore_state
.LBB58:
.LBB59:
	.loc 2 1232 0
	bl	hal_sdio_rx_lock
.LVL87:
.LBB60:
.LBB61:
	.file 5 "../../../component/common/api/platform/dlist.h"
	.loc 5 95 0
	ldr	r3, [r5, #140]
.LBE61:
.LBE60:
	.loc 2 1233 0
	add	r2, r4, #16
.LVL88:
.LBB68:
.LBB66:
.LBB62:
.LBB63:
	.loc 5 66 0
	str	r2, [r5, #140]
.LBE63:
.LBE62:
.LBE66:
.LBE68:
	.loc 2 1233 0
	adds	r5, r5, #136
.LVL89:
.LBB69:
.LBB67:
.LBB65:
.LBB64:
	.loc 5 67 0
	str	r5, [r4, #16]
	.loc 5 68 0
	str	r3, [r4, #20]
	.loc 5 69 0
	str	r2, [r3]
.LVL90:
.LBE64:
.LBE65:
.LBE67:
.LBE69:
.LBE59:
.LBE58:
	.loc 2 1236 0
	pop	{r3, r4, r5, lr}
	.cfi_restore 14
	.cfi_restore 5
	.cfi_restore 4
	.cfi_restore 3
	.cfi_def_cfa_offset 0
.LVL91:
.LBB71:
.LBB70:
	.loc 2 1234 0
	b	hal_sdio_rx_unlock
.LVL92:
.LBE70:
.LBE71:
	.cfi_endproc
.LFE388:
	.size	hal_sdio_dev_free_rx_pkt, .-hal_sdio_dev_free_rx_pkt
	.section	.text.hal_sdio_dev_os_init,"ax",%progbits
	.align	1
	.global	hal_sdio_dev_os_init
	.syntax unified
	.thumb
	.thumb_func
	.fpu softvfp
	.type	hal_sdio_dev_os_init, %function
hal_sdio_dev_os_init:
.LFB373:
	.loc 2 381 0
	.cfi_startproc
	@ args = 0, pretend = 0, frame = 0
	@ frame_needed = 0, uses_anonymous_args = 0
.LVL93:
	push	{r0, r1, r2, r4, r5, r6, r7, lr}
	.cfi_def_cfa_offset 32
	.cfi_offset 4, -20
	.cfi_offset 5, -16
	.cfi_offset 6, -12
	.cfi_offset 7, -8
	.cfi_offset 14, -4
	.loc 2 384 0
	ldr	r5, .L132
	.loc 2 381 0
	mov	r4, r0
	mov	r7, r1
	.loc 2 384 0
	mov	r0, r5
.LVL94:
	movs	r1, #0
.LVL95:
	.loc 2 381 0
	mov	r6, r2
	.loc 2 384 0
	bl	rtw_init_sema
.LVL96:
	.loc 2 385 0
	ldr	r3, [r5]
	cbnz	r3, .L109
	.loc 2 386 0
	ldr	r3, .L132+4
	ldr	r3, [r3]
	ldr	r3, [r3]
	lsls	r4, r3, #21
.LVL97:
	bmi	.L110
.L130:
.LBB74:
.LBB75:
	.loc 2 413 0
	movs	r0, #10
.L108:
.LBE75:
.LBE74:
	.loc 2 433 0
	add	sp, sp, #12
	.cfi_remember_state
	.cfi_def_cfa_offset 20
	@ sp needed
	pop	{r4, r5, r6, r7, pc}
.LVL98:
.L110:
	.cfi_restore_state
	.loc 2 386 0 discriminator 1
	ldr	r0, .L132+8
.L131:
.LBB77:
.LBB76:
	.loc 2 397 0
	ldr	r3, .L132+12
	ldr	r3, [r3, #28]
	blx	r3
.LVL99:
	b	.L130
.LVL100:
.L109:
	.loc 2 390 0
	ldr	r5, .L132+16
	movs	r1, #0
	mov	r0, r5
	bl	rtw_init_sema
.LVL101:
	.loc 2 391 0
	ldr	r3, [r5]
	cbnz	r3, .L112
	.loc 2 392 0
	ldr	r3, .L132+4
	ldr	r3, [r3]
	ldr	r3, [r3]
	lsls	r0, r3, #21
	bpl	.L112
	ldr	r3, .L132+12
	ldr	r0, .L132+20
	ldr	r3, [r3, #28]
	blx	r3
.LVL102:
.L112:
	.loc 2 396 0
	movs	r3, #10
	movs	r2, #12
	ldr	r1, .L132+24
	ldr	r0, .L132+28
	bl	rtw_init_xqueue
.LVL103:
	mov	r5, r0
	cbz	r0, .L113
	.loc 2 397 0
	ldr	r3, .L132+4
	ldr	r3, [r3]
	ldr	r3, [r3]
	lsls	r1, r3, #21
	bpl	.L130
	ldr	r0, .L132+32
	b	.L131
.L113:
	.loc 2 402 0
	ldr	r1, .L132+36
	str	r4, [sp, #4]
	str	r7, [sp]
	movs	r3, #2
	mov	r2, #512
	ldr	r0, .L132+40
	bl	rtw_create_task
.LVL104:
	.loc 2 404 0
	mov	r1, r0
	cbnz	r0, .L115
	.loc 2 405 0
	ldr	r3, .L132+4
	ldr	r3, [r3]
	ldr	r3, [r3]
	lsls	r2, r3, #21
	bpl	.L130
	ldr	r0, .L132+44
.LVL105:
.L129:
	.loc 2 412 0
	ldr	r3, .L132+12
	ldr	r3, [r3, #28]
	blx	r3
.LVL106:
	b	.L130
.LVL107:
.L115:
	.loc 2 409 0
	ldr	r1, .L132+48
	str	r4, [sp, #4]
	str	r6, [sp]
	movs	r3, #1
	mov	r2, #256
	ldr	r0, .L132+52
.LVL108:
	bl	rtw_create_task
.LVL109:
	.loc 2 411 0
	mov	r1, r0
	cbnz	r0, .L116
	.loc 2 412 0
	ldr	r3, .L132+4
	ldr	r3, [r3]
	ldr	r3, [r3]
	lsls	r3, r3, #21
	bpl	.L130
	ldr	r0, .L132+56
.LVL110:
	b	.L129
.LVL111:
.L116:
	.loc 2 416 0
	ldr	r0, .L132+60
.LVL112:
	bl	rtw_mutex_init
.LVL113:
	.loc 2 418 0
	ldr	r0, .L132+64
	bl	rtw_mutex_init
.LVL114:
	.loc 2 421 0
	ldr	r3, .L132+68
	.loc 2 432 0
	mov	r0, r5
	.loc 2 421 0
	str	r3, [r4, #212]
	.loc 2 422 0
	ldr	r3, .L132+72
	str	r3, [r4, #216]
	.loc 2 423 0
	ldr	r3, .L132+76
	str	r3, [r4, #220]
	.loc 2 424 0
	ldr	r3, .L132+80
	str	r3, [r4, #224]
	.loc 2 425 0
	ldr	r3, .L132+84
	str	r3, [r4, #232]
	.loc 2 426 0
	ldr	r3, .L132+88
	str	r3, [r4, #192]
	.loc 2 427 0
	ldr	r3, .L132+92
	str	r3, [r4, #196]
	.loc 2 428 0
	ldr	r3, .L132+96
	str	r3, [r4, #200]
	.loc 2 429 0
	ldr	r3, .L132+100
	str	r3, [r4, #204]
	.loc 2 430 0
	ldr	r3, .L132+104
	str	r3, [r4, #208]
	b	.L108
.L133:
	.align	2
.L132:
	.word	sdiod_tx_sema
	.word	utility_stubs
	.word	.LC4
	.word	stdio_printf_stubs
	.word	sdiod_rx_sema
	.word	.LC5
	.word	.LC6
	.word	sdiod_msg_queue
	.word	.LC7
	.word	.LC8
	.word	sdiod_tx_task
	.word	.LC9
	.word	.LC10
	.word	sdiod_rx_task
	.word	.LC11
	.word	sdiod_rx_mutex
	.word	sdiod_gmutex
	.word	hal_sdio_dev_tx_task_down
	.word	hal_sdio_dev_tx_task_up
	.word	hal_sdio_dev_rx_task_down
	.word	hal_sdio_dev_rx_task_up
	.word	hal_sdio_dev_pop_msg_queue
	.word	hal_sdio_rx_lock
	.word	hal_sdio_rx_unlock
	.word	hal_sdio_os_wait_tx_bd
	.word	hal_sdio_os_wait_rx_bd
	.word	rtw_msleep_os
.LBE76:
.LBE77:
	.cfi_endproc
.LFE373:
	.size	hal_sdio_dev_os_init, .-hal_sdio_dev_os_init
	.section	.text.hal_sdio_dev_cmd11_handle,"ax",%progbits
	.align	1
	.global	hal_sdio_dev_cmd11_handle
	.syntax unified
	.thumb
	.thumb_func
	.fpu softvfp
	.type	hal_sdio_dev_cmd11_handle, %function
hal_sdio_dev_cmd11_handle:
.LFB377:
	.loc 2 507 0
	.cfi_startproc
	@ args = 0, pretend = 0, frame = 0
	@ frame_needed = 0, uses_anonymous_args = 0
.LVL115:
	push	{r3, r4, r5, r6, r7, lr}
	.cfi_def_cfa_offset 24
	.cfi_offset 3, -24
	.cfi_offset 4, -20
	.cfi_offset 5, -16
	.cfi_offset 6, -12
	.cfi_offset 7, -8
	.cfi_offset 14, -4
	.loc 2 510 0
	movs	r4, #0
	.loc 2 511 0
	ldr	r7, .L139
.LBB80:
.LBB81:
	.loc 1 465 0
	ldr	r6, .L139+4
.LVL116:
.L136:
.LBE81:
.LBE80:
	.loc 2 511 0
	ldrb	r5, [r4, r7]	@ zero_extendqisi2
	cmp	r5, #255
	bne	.L135
.L137:
	.loc 2 517 0
	movs	r2, #0
	.loc 2 518 0
	pop	{r3, r4, r5, r6, r7, lr}
	.cfi_remember_state
	.cfi_restore 14
	.cfi_restore 7
	.cfi_restore 6
	.cfi_restore 5
	.cfi_restore 4
	.cfi_restore 3
	.cfi_def_cfa_offset 0
.LVL117:
	.loc 2 517 0
	movs	r1, #1
	movs	r0, #18
	b	hal_gpio_schmitt_ctrl
.LVL118:
.L135:
	.cfi_restore_state
	.loc 2 514 0 discriminator 2
	movs	r2, #0
	mov	r0, r5
	mov	r1, r2
	bl	hal_gpio_schmitt_ctrl
.LVL119:
	.loc 2 510 0 discriminator 2
	adds	r4, r4, #1
.LVL120:
.LBB83:
.LBB82:
	.loc 1 465 0 discriminator 2
	movs	r1, #3
	mov	r0, r5
	ldr	r3, [r6, #136]
	blx	r3
.LVL121:
.LBE82:
.LBE83:
	.loc 2 510 0 discriminator 2
	cmp	r4, #8
	bne	.L136
	b	.L137
.L140:
	.align	2
.L139:
	.word	.LANCHOR1
	.word	hal_gpio_stubs
	.cfi_endproc
.LFE377:
	.size	hal_sdio_dev_cmd11_handle, .-hal_sdio_dev_cmd11_handle
	.section	.text.hal_sdio_task_exit,"ax",%progbits
	.align	1
	.global	hal_sdio_task_exit
	.syntax unified
	.thumb
	.thumb_func
	.fpu softvfp
	.type	hal_sdio_task_exit, %function
hal_sdio_task_exit:
.LFB367:
	.loc 2 349 0
	.cfi_startproc
	@ args = 0, pretend = 0, frame = 0
	@ frame_needed = 0, uses_anonymous_args = 0
	@ link register save eliminated.
	.loc 2 350 0
	b	rtw_thread_exit
.LVL122:
	.cfi_endproc
.LFE367:
	.size	hal_sdio_task_exit, .-hal_sdio_task_exit
	.section	.text.hal_sdio_dev_init,"ax",%progbits
	.align	1
	.global	hal_sdio_dev_init
	.syntax unified
	.thumb
	.thumb_func
	.fpu softvfp
	.type	hal_sdio_dev_init, %function
hal_sdio_dev_init:
.LFB381:
	.loc 2 716 0
	.cfi_startproc
	@ args = 0, pretend = 0, frame = 0
	@ frame_needed = 0, uses_anonymous_args = 0
.LVL123:
	push	{r4, r5, r6, r7, r8, lr}
	.cfi_def_cfa_offset 24
	.cfi_offset 4, -24
	.cfi_offset 5, -20
	.cfi_offset 6, -16
	.cfi_offset 7, -12
	.cfi_offset 8, -8
	.cfi_offset 14, -4
	.loc 2 723 0
	movs	r4, #0
	.loc 2 724 0
	ldr	r8, .L203+112
.LBB92:
.LBB93:
	.loc 1 465 0
	ldr	r7, .L203
.LVL124:
.L145:
.LBE93:
.LBE92:
	.loc 2 724 0
	ldrb	r6, [r4, r8]	@ zero_extendqisi2
	cmp	r6, #255
	beq	.L143
	.loc 2 727 0
	movs	r1, #4
	mov	r0, r6
	bl	hal_pinmux_register
.LVL125:
	.loc 2 728 0
	mov	r5, r0
	cmp	r0, #0
	bne	.L144
	.loc 2 731 0 discriminator 2
	mov	r1, r0
	movs	r2, #1
	mov	r0, r6
.LVL126:
	bl	hal_gpio_schmitt_ctrl
.LVL127:
	.loc 2 723 0 discriminator 2
	adds	r4, r4, #1
.LVL128:
.LBB95:
.LBB94:
	.loc 1 465 0 discriminator 2
	movs	r1, #3
	mov	r0, r6
	ldr	r3, [r7, #136]
	blx	r3
.LVL129:
.LBE94:
.LBE95:
	.loc 2 723 0 discriminator 2
	cmp	r4, #8
	bne	.L145
.L143:
	.loc 2 739 0
	movs	r2, #1
	movs	r0, #18
	mov	r1, r2
	bl	hal_gpio_schmitt_ctrl
.LVL130:
	.loc 2 741 0
	movs	r0, #244
	bl	rtw_malloc
.LVL131:
	ldr	r6, .L203+4
	ldr	r7, .L203+8
	str	r0, [r6]
	.loc 2 742 0
	cbnz	r0, .L200
	.loc 2 743 0
	ldr	r3, [r7]
	ldr	r3, [r3]
	lsls	r4, r3, #21
.LVL132:
	bpl	.L163
	.loc 2 743 0 is_stmt 0 discriminator 1
	ldr	r3, .L203+12
	ldr	r1, .L203+16
	ldr	r0, .L203+20
	ldr	r3, [r3, #28]
	blx	r3
.LVL133:
.L163:
	.loc 2 744 0 is_stmt 1
	movs	r5, #4
	b	.L142
.LVL134:
.L200:
	.loc 2 746 0
	movs	r2, #244
	movs	r1, #0
	bl	memset
.LVL135:
	.loc 2 748 0
	movs	r2, #0
	ldr	r3, [r6]
	strb	r2, [r3, #153]
	.loc 2 749 0
	ldr	r2, .L203+24
	str	r2, [r3, #112]
	.loc 2 750 0
	ldr	r2, .L203+28
	str	r2, [r3, #108]
.LVL136:
	.loc 2 766 0
	mov	r2, #2112
	str	r2, [r3, #8]
	.loc 2 771 0
	ldr	r3, [r7, #8]
	ldr	r3, [r3]
	lsls	r0, r3, #21
	bpl	.L147
	.loc 2 771 0 is_stmt 0 discriminator 1
	ldr	r3, .L203+12
	ldr	r0, .L203+32
	ldr	r3, [r3, #28]
	blx	r3
.LVL137:
.L147:
	.loc 2 791 0 is_stmt 1
	mov	r8, #24
	.loc 2 784 0
	ldr	r4, [r6]
.LVL138:
	ldr	r5, .L203+36
	.loc 2 791 0
	strh	r8, [r4, #4]	@ movhi
	.loc 2 784 0
	str	r5, [r4, #16]
	.loc 2 793 0
	mov	r0, #384
	bl	rtw_zmalloc
.LVL139:
	str	r0, [r4, #24]
	.loc 2 794 0
	ldr	r4, [r6]
	ldr	r3, [r4, #24]
	cmp	r3, #0
	bne	.L148
	.loc 2 795 0
	ldr	r3, [r7]
	ldr	r3, [r3]
	lsls	r1, r3, #21
	bmi	.L149
.L201:
	.loc 2 796 0 discriminator 1
	movs	r5, #4
.LVL140:
.L144:
	.loc 2 884 0
	ldr	r4, .L203+4
	.loc 2 882 0
	movs	r2, #1
	movs	r1, #0
	movs	r0, #18
	bl	hal_gpio_schmitt_ctrl
.LVL141:
	.loc 2 884 0
	ldr	r3, [r4]
	ldr	r3, [r3, #144]
	cbz	r3, .L154
	movs	r6, #0
	.loc 2 889 0
	mov	r8, r6
.L156:
	.loc 2 886 0
	ldr	r3, [r4]
	ldr	r7, [r3, #144]
.LVL142:
	.loc 2 887 0
	ldr	r0, [r7, r6]
	cbz	r0, .L155
	.loc 2 888 0
	movs	r1, #24
	bl	rtw_mfree
.LVL143:
	.loc 2 889 0
	str	r8, [r7, r6]
.L155:
	adds	r6, r6, #28
.LVL144:
	.loc 2 885 0 discriminator 2
	cmp	r6, #3584
	bne	.L156
	.loc 2 892 0
	ldr	r3, [r4]
	mov	r1, r6
	ldr	r0, [r3, #144]
	bl	rtw_mfree
.LVL145:
	.loc 2 893 0
	movs	r2, #0
	ldr	r3, [r4]
	str	r2, [r3, #144]
.LVL146:
.L154:
	.loc 2 896 0
	ldr	r3, [r4]
	ldr	r0, [r3, #44]
	cbz	r0, .L157
	.loc 2 897 0
	mov	r1, #288
	bl	rtw_mfree
.LVL147:
	.loc 2 898 0
	movs	r2, #0
	ldr	r3, [r4]
	str	r2, [r3, #44]
.L157:
	.loc 2 901 0
	ldr	r3, [r4]
	ldr	r0, [r3, #36]
	cbz	r0, .L158
	.loc 2 902 0
	movs	r1, #223
	bl	rtw_mfree
.LVL148:
	.loc 2 903 0
	movs	r2, #0
	ldr	r3, [r4]
	str	r2, [r3, #36]
.L158:
	.loc 2 906 0
	ldr	r3, [r4]
	ldr	r0, [r3, #24]
	cbz	r0, .L159
	.loc 2 907 0
	ldrh	r1, [r3, #4]
	lsls	r1, r1, #4
	bl	rtw_mfree
.LVL149:
	.loc 2 908 0
	movs	r2, #0
	ldr	r3, [r4]
	str	r2, [r3, #24]
.L159:
	.loc 2 911 0
	ldr	r3, [r4]
	ldr	r0, [r3, #16]
	cbz	r0, .L160
	.loc 2 912 0
	ldrh	r1, [r3, #4]
	lsls	r1, r1, #2
	adds	r1, r1, #31
	bl	rtw_mfree
.LVL150:
	.loc 2 913 0
	movs	r2, #0
	ldr	r3, [r4]
	str	r2, [r3, #16]
.L160:
	.loc 2 916 0
	ldr	r0, [r4]
	cmp	r0, #0
	beq	.L142
	.loc 2 917 0
	movs	r1, #244
	bl	rtw_mfree
.LVL151:
	.loc 2 918 0
	movs	r3, #0
	str	r3, [r4]
	b	.L142
.LVL152:
.L149:
	.loc 2 795 0 discriminator 1
	ldr	r3, .L203+12
	ldr	r0, .L203+40
	ldr	r3, [r3, #28]
	blx	r3
.LVL153:
	b	.L201
.L148:
	.loc 2 820 0
	adds	r5, r5, #96
	str	r5, [r4, #36]
	.loc 2 827 0
	movs	r5, #4
	.loc 2 799 0
	ldr	r3, .L203+44
	.loc 2 808 0
	strh	r8, [r4, #6]	@ movhi
	.loc 2 799 0
	str	r3, [r4, #180]
	.loc 2 800 0
	ldr	r3, .L203+48
	.loc 2 827 0
	strh	r5, [r4, #34]	@ movhi
	.loc 2 800 0
	str	r3, [r4, #156]
	.loc 2 801 0
	ldr	r3, .L203+52
	.loc 2 829 0
	mov	r0, #288
	.loc 2 801 0
	str	r3, [r4, #160]
	.loc 2 802 0
	ldr	r3, .L203+56
	str	r3, [r4, #164]
	.loc 2 803 0
	ldr	r3, .L203+60
	str	r3, [r4, #168]
	.loc 2 804 0
	ldr	r3, .L203+64
	str	r3, [r4, #172]
	.loc 2 805 0
	ldr	r3, .L203+68
	str	r3, [r4, #176]
	.loc 2 829 0
	bl	rtw_zmalloc
.LVL154:
	str	r0, [r4, #44]
	.loc 2 831 0
	ldr	r4, [r6]
	ldr	r3, [r4, #44]
	cbnz	r3, .L150
	.loc 2 832 0
	ldr	r3, [r7]
	ldr	r3, [r3]
	lsls	r2, r3, #21
	bpl	.L201
	.loc 2 832 0 is_stmt 0 discriminator 1
	ldr	r0, .L203+72
.L202:
	.loc 2 842 0 is_stmt 1 discriminator 1
	ldr	r3, .L203+12
	ldr	r3, [r3, #28]
	blx	r3
.LVL155:
	b	.L144
.L150:
	.loc 2 837 0
	add	r3, r4, #136
	str	r3, [r4, #136]
	str	r3, [r4, #140]
	.loc 2 840 0
	mov	r0, #3584
	bl	rtw_zmalloc
.LVL156:
	.loc 2 841 0
	ldr	r3, [r6]
	.loc 2 840 0
	str	r0, [r4, #144]
	.loc 2 841 0
	ldr	r3, [r3, #144]
	cbnz	r3, .L152
	.loc 2 842 0
	ldr	r3, [r7]
	ldr	r3, [r3]
	lsls	r3, r3, #21
	bpl	.L201
	.loc 2 842 0 is_stmt 0 discriminator 1
	ldr	r0, .L203+76
	b	.L202
.L152:
	movs	r4, #0
.L153:
	.loc 2 849 0 is_stmt 1 discriminator 3
	ldr	r3, [r6]
	.loc 2 851 0 discriminator 3
	movs	r0, #24
	.loc 2 849 0 discriminator 3
	ldr	r7, [r3, #144]
	.loc 2 851 0 discriminator 3
	bl	rtw_zmalloc
.LVL157:
	str	r0, [r7, r4]
	.loc 2 852 0 discriminator 3
	ldr	r0, [r6]
	.loc 2 849 0 discriminator 3
	adds	r5, r7, r4
.LVL158:
.LBB96:
.LBB97:
	.loc 5 95 0 discriminator 3
	ldr	r3, [r0, #140]
	adds	r4, r4, #28
.LBE97:
.LBE96:
	.loc 2 852 0 discriminator 3
	add	r2, r5, #16
.LVL159:
	add	r1, r0, #136
.LVL160:
	.loc 2 848 0 discriminator 3
	cmp	r4, #3584
.LBB101:
.LBB100:
.LBB98:
.LBB99:
	.loc 5 66 0 discriminator 3
	str	r2, [r0, #140]
	.loc 5 67 0 discriminator 3
	str	r1, [r5, #16]
	.loc 5 68 0 discriminator 3
	str	r3, [r5, #20]
	.loc 5 69 0 discriminator 3
	str	r2, [r3]
.LVL161:
.LBE99:
.LBE98:
.LBE100:
.LBE101:
	.loc 2 848 0 discriminator 3
	bne	.L153
	.loc 2 854 0
	add	r3, r0, #128
	str	r3, [r0, #128]
	str	r3, [r0, #132]
	.loc 2 857 0
	ldr	r3, .L203+80
	str	r3, [r0, #184]
	.loc 2 858 0
	ldr	r3, .L203+84
	str	r3, [r0, #188]
	.loc 2 863 0
	ldr	r3, .L203+88
	str	r3, [r0, #76]
	.loc 2 864 0
	ldr	r3, .L203+92
	str	r3, [r0, #80]
	.loc 2 865 0
	ldr	r3, .L203+96
	str	r3, [r0, #84]
	.loc 2 866 0
	ldr	r3, .L203+100
	str	r3, [r0, #104]
	.loc 2 868 0
	ldr	r3, .L203+104
	ldr	r3, [r3, #36]
	blx	r3
.LVL162:
	.loc 2 869 0
	mov	r5, r0
.LVL163:
	cmp	r0, #0
	bne	.L144
.LVL164:
.LBB102:
.LBB103:
	.file 6 "../../../component/soc/realtek/8710c/fwlib/include/hal_irq.h"
	.loc 6 134 0
	ldr	r3, .L203+108
	movs	r1, #5
	movs	r0, #11
.LVL165:
	ldr	r3, [r3, #40]
	blx	r3
.LVL166:
.L142:
.LBE103:
.LBE102:
	.loc 2 921 0
	mov	r0, r5
	pop	{r4, r5, r6, r7, r8, pc}
.L204:
	.align	2
.L203:
	.word	hal_gpio_stubs
	.word	g_sdio_adp
	.word	utility_stubs
	.word	stdio_printf_stubs
	.word	.LANCHOR2
	.word	.LC12
	.word	hal_sdio_dev_dcache_clean_by_addr
	.word	hal_sdio_dev_dcache_invalidate_by_addr
	.word	.LC13
	.word	.LANCHOR3
	.word	.LC14
	.word	hal_sdio_dev_cmd11_handle
	.word	hal_sdio_txbd_hdl_init
	.word	hal_sdio_txbd_hdl_deinit
	.word	hal_sdio_txbd_buf_do_refill
	.word	hal_sdio_rxbd_tr_done_callback
	.word	hal_sdio_txbd_rdy_callback
	.word	hal_sdio_dev_free_rx_pkt
	.word	.LC15
	.word	.LC16
	.word	hal_sdio_dev_os_init
	.word	hal_sdio_dev_os_deinit
	.word	hal_sdio_dev_reset_cmd
	.word	hal_sdio_dev_process_rpwm
	.word	hal_sdio_dev_process_rpwm2
	.word	hal_sdio_dev_msg_handler
	.word	hal_sdiod_stubs
	.word	hal_int_vector_stubs
	.word	.LANCHOR1
	.cfi_endproc
.LFE381:
	.size	hal_sdio_dev_init, .-hal_sdio_dev_init
	.section	.text.hal_sdio_dev_deinit,"ax",%progbits
	.align	1
	.global	hal_sdio_dev_deinit
	.syntax unified
	.thumb
	.thumb_func
	.fpu softvfp
	.type	hal_sdio_dev_deinit, %function
hal_sdio_dev_deinit:
.LFB382:
	.loc 2 931 0
	.cfi_startproc
	@ args = 0, pretend = 0, frame = 0
	@ frame_needed = 0, uses_anonymous_args = 0
	push	{r3, r4, r5, r6, r7, lr}
	.cfi_def_cfa_offset 24
	.cfi_offset 3, -24
	.cfi_offset 4, -20
	.cfi_offset 5, -16
	.cfi_offset 6, -12
	.cfi_offset 7, -8
	.cfi_offset 14, -4
	.loc 2 936 0
	ldr	r4, .L242
	ldr	r0, [r4]
	cmp	r0, #0
	beq	.L205
	.loc 2 941 0
	ldr	r3, .L242+4
	ldr	r3, [r3, #40]
	blx	r3
.LVL167:
	.loc 2 943 0
	ldr	r3, [r4]
	ldr	r3, [r3, #144]
	cbz	r3, .L207
	movs	r5, #0
	.loc 2 948 0
	mov	r7, r5
.L209:
	.loc 2 945 0
	ldr	r3, [r4]
	ldr	r6, [r3, #144]
.LVL168:
	.loc 2 946 0
	ldr	r0, [r6, r5]
	cbz	r0, .L208
	.loc 2 947 0
	movs	r1, #24
	bl	rtw_mfree
.LVL169:
	.loc 2 948 0
	str	r7, [r6, r5]
.L208:
.LVL170:
	adds	r5, r5, #28
.LVL171:
	.loc 2 944 0 discriminator 2
	cmp	r5, #3584
	bne	.L209
	.loc 2 951 0
	ldr	r3, [r4]
	mov	r1, r5
	ldr	r0, [r3, #144]
	bl	rtw_mfree
.LVL172:
	.loc 2 952 0
	movs	r2, #0
	ldr	r3, [r4]
	str	r2, [r3, #144]
.LVL173:
.L207:
	.loc 2 955 0
	ldr	r3, [r4]
	ldr	r0, [r3, #44]
	cbz	r0, .L210
	.loc 2 956 0
	movs	r1, #12
	ldrh	r3, [r3, #6]
	muls	r1, r3, r1
	bl	rtw_mfree
.LVL174:
	.loc 2 957 0
	movs	r2, #0
	ldr	r3, [r4]
	str	r2, [r3, #44]
.L210:
	.loc 2 960 0
	ldr	r3, [r4]
	ldr	r0, [r3, #36]
	cbz	r0, .L211
	.loc 2 961 0
	ldrh	r1, [r3, #6]
	lsls	r1, r1, #3
	adds	r1, r1, #31
	bl	rtw_mfree
.LVL175:
	.loc 2 962 0
	movs	r2, #0
	ldr	r3, [r4]
	str	r2, [r3, #36]
	.loc 2 963 0
	str	r2, [r3, #40]
.L211:
	.loc 2 966 0
	ldr	r3, [r4]
	ldr	r2, [r3, #24]
	cbnz	r2, .L212
.L215:
	.loc 2 973 0
	ldr	r3, [r4]
	ldr	r0, [r3, #24]
	cbnz	r0, .L213
.L214:
	.loc 2 978 0
	ldr	r3, [r4]
	ldr	r0, [r3, #16]
	cbz	r0, .L218
	.loc 2 979 0
	ldrh	r1, [r3, #4]
	lsls	r1, r1, #2
	adds	r1, r1, #31
	bl	rtw_mfree
.LVL176:
	.loc 2 980 0
	movs	r2, #0
	ldr	r3, [r4]
	str	r2, [r3, #16]
	.loc 2 981 0
	str	r2, [r3, #20]
.L218:
	movs	r4, #0
	.loc 2 985 0
	ldr	r5, .L242+8
.L220:
.LVL177:
	ldrb	r0, [r4, r5]	@ zero_extendqisi2
	cmp	r0, #255
	bne	.L219
.L221:
	.loc 2 990 0
	movs	r2, #1
	.loc 2 991 0
	pop	{r3, r4, r5, r6, r7, lr}
	.cfi_remember_state
	.cfi_restore 14
	.cfi_restore 7
	.cfi_restore 6
	.cfi_restore 5
	.cfi_restore 4
	.cfi_restore 3
	.cfi_def_cfa_offset 0
.LVL178:
	.loc 2 990 0
	movs	r1, #0
	movs	r0, #18
	b	hal_gpio_schmitt_ctrl
.LVL179:
.L212:
	.cfi_restore_state
	.loc 2 966 0 discriminator 1
	ldr	r3, [r3, #20]
	cmp	r3, #0
	beq	.L215
	movs	r5, #0
.L216:
.LVL180:
	.loc 2 967 0 discriminator 1
	ldr	r3, [r4]
	ldrh	r2, [r3, #4]
	cmp	r5, r2
	bcs	.L215
.LVL181:
	.loc 2 968 0 discriminator 3
	ldr	r0, [r3, #24]
	.loc 2 969 0 discriminator 3
	uxth	r1, r5
	add	r0, r0, r5, lsl #4
.LVL182:
	ldr	r3, [r3, #160]
	blx	r3
.LVL183:
	.loc 2 967 0 discriminator 3
	adds	r5, r5, #1
.LVL184:
	b	.L216
.LVL185:
.L213:
	.loc 2 974 0
	ldrh	r1, [r3, #4]
	lsls	r1, r1, #4
	bl	rtw_mfree
.LVL186:
	.loc 2 975 0
	movs	r2, #0
	ldr	r3, [r4]
	str	r2, [r3, #24]
	b	.L214
.LVL187:
.L219:
	.loc 2 988 0 discriminator 2
	movs	r1, #4
	.loc 2 984 0 discriminator 2
	adds	r4, r4, #1
.LVL188:
	.loc 2 988 0 discriminator 2
	bl	hal_pinmux_unregister
.LVL189:
	.loc 2 984 0 discriminator 2
	cmp	r4, #8
	bne	.L220
	b	.L221
.LVL190:
.L205:
	pop	{r3, r4, r5, r6, r7, pc}
.L243:
	.align	2
.L242:
	.word	g_sdio_adp
	.word	hal_sdiod_stubs
	.word	.LANCHOR1
	.cfi_endproc
.LFE382:
	.size	hal_sdio_dev_deinit, .-hal_sdio_dev_deinit
	.section	.text.hal_sdio_dev_send_c2h_iomsg,"ax",%progbits
	.align	1
	.global	hal_sdio_dev_send_c2h_iomsg
	.syntax unified
	.thumb
	.thumb_func
	.fpu softvfp
	.type	hal_sdio_dev_send_c2h_iomsg, %function
hal_sdio_dev_send_c2h_iomsg:
.LFB383:
	.loc 2 1001 0
	.cfi_startproc
	@ args = 0, pretend = 0, frame = 0
	@ frame_needed = 0, uses_anonymous_args = 0
	@ link register save eliminated.
.LVL191:
	.loc 2 1005 0
	ldr	r3, .L250
	ldr	r3, [r3]
	cbz	r3, .L244
	.loc 2 1014 0
	ldr	r1, .L250+4
	.loc 2 1013 0
	movs	r3, #0
.LVL192:
	.loc 2 1014 0
	ldr	r2, [r1, #204]
	.loc 2 1013 0
	bfi	r3, r0, #0, #31
.LVL193:
	.loc 2 1014 0
	mvns	r2, r2
	lsrs	r2, r2, #31
	bfi	r3, r2, #31, #1
	.loc 2 1015 0
	str	r3, [r1, #204]
.L244:
	bx	lr
.L251:
	.align	2
.L250:
	.word	g_sdio_adp
	.word	1074069504
	.cfi_endproc
.LFE383:
	.size	hal_sdio_dev_send_c2h_iomsg, .-hal_sdio_dev_send_c2h_iomsg
	.section	.text.hal_sdio_dev_register_rx_done_callback,"ax",%progbits
	.align	1
	.global	hal_sdio_dev_register_rx_done_callback
	.syntax unified
	.thumb
	.thumb_func
	.fpu softvfp
	.type	hal_sdio_dev_register_rx_done_callback, %function
hal_sdio_dev_register_rx_done_callback:
.LFB384:
	.loc 2 1121 0
	.cfi_startproc
	@ args = 0, pretend = 0, frame = 0
	@ frame_needed = 0, uses_anonymous_args = 0
	@ link register save eliminated.
.LVL194:
	.loc 2 1122 0
	ldr	r3, .L257
	ldr	r3, [r3]
	cbz	r3, .L252
	.loc 2 1127 0
	str	r0, [r3, #96]
	.loc 2 1128 0
	str	r1, [r3, #100]
.L252:
	bx	lr
.L258:
	.align	2
.L257:
	.word	g_sdio_adp
	.cfi_endproc
.LFE384:
	.size	hal_sdio_dev_register_rx_done_callback, .-hal_sdio_dev_register_rx_done_callback
	.section	.text.hal_sdio_dev_register_tx_callback,"ax",%progbits
	.align	1
	.global	hal_sdio_dev_register_tx_callback
	.syntax unified
	.thumb
	.thumb_func
	.fpu softvfp
	.type	hal_sdio_dev_register_tx_callback, %function
hal_sdio_dev_register_tx_callback:
.LFB385:
	.loc 2 1144 0
	.cfi_startproc
	@ args = 0, pretend = 0, frame = 0
	@ frame_needed = 0, uses_anonymous_args = 0
	@ link register save eliminated.
.LVL195:
	.loc 2 1145 0
	ldr	r3, .L264
	ldr	r3, [r3]
	cbz	r3, .L259
	.loc 2 1150 0
	str	r0, [r3, #68]
	.loc 2 1151 0
	str	r1, [r3, #72]
.L259:
	bx	lr
.L265:
	.align	2
.L264:
	.word	g_sdio_adp
	.cfi_endproc
.LFE385:
	.size	hal_sdio_dev_register_tx_callback, .-hal_sdio_dev_register_tx_callback
	.section	.text.hal_sdio_dev_register_h2c_msg_callback,"ax",%progbits
	.align	1
	.global	hal_sdio_dev_register_h2c_msg_callback
	.syntax unified
	.thumb
	.thumb_func
	.fpu softvfp
	.type	hal_sdio_dev_register_h2c_msg_callback, %function
hal_sdio_dev_register_h2c_msg_callback:
.LFB386:
	.loc 2 1164 0
	.cfi_startproc
	@ args = 0, pretend = 0, frame = 0
	@ frame_needed = 0, uses_anonymous_args = 0
	@ link register save eliminated.
.LVL196:
	.loc 2 1165 0
	ldr	r3, .L271
	ldr	r3, [r3]
	cbz	r3, .L266
	.loc 2 1170 0
	str	r0, [r3, #88]
	.loc 2 1171 0
	str	r1, [r3, #92]
.L266:
	bx	lr
.L272:
	.align	2
.L271:
	.word	g_sdio_adp
	.cfi_endproc
.LFE386:
	.size	hal_sdio_dev_register_h2c_msg_callback, .-hal_sdio_dev_register_h2c_msg_callback
	.section	.text.hal_sdio_dev_alloc_rx_pkt,"ax",%progbits
	.align	1
	.global	hal_sdio_dev_alloc_rx_pkt
	.syntax unified
	.thumb
	.thumb_func
	.fpu softvfp
	.type	hal_sdio_dev_alloc_rx_pkt, %function
hal_sdio_dev_alloc_rx_pkt:
.LFB387:
	.loc 2 1185 0
	.cfi_startproc
	@ args = 0, pretend = 0, frame = 0
	@ frame_needed = 0, uses_anonymous_args = 0
.LVL197:
	push	{r3, r4, r5, lr}
	.cfi_def_cfa_offset 16
	.cfi_offset 3, -16
	.cfi_offset 4, -12
	.cfi_offset 5, -8
	.cfi_offset 14, -4
	.loc 2 1185 0
	mov	r4, r0
	.loc 2 1190 0
	bl	hal_sdio_rx_lock
.LVL198:
.LBB114:
.LBB115:
	.loc 5 162 0
	mov	r0, r4
	ldr	r3, [r0, #136]!
.LVL199:
.LBE115:
.LBE114:
	.loc 2 1191 0
	cmp	r3, r0
	bne	.L274
.LVL200:
.LBB116:
.LBB117:
	.loc 2 1192 0
	bl	hal_sdio_rx_unlock
.LVL201:
	movs	r5, #101
.LVL202:
.L277:
	.loc 2 1195 0
	movs	r0, #28
	bl	rtw_zmalloc
.LVL203:
	.loc 2 1196 0
	mov	r4, r0
	cbz	r0, .L275
	.loc 2 1197 0
	movs	r3, #1
	strb	r3, [r0, #24]
	.loc 2 1198 0
	ldr	r3, .L285
	ldr	r3, [r3, #4]
	ldr	r3, [r3]
	lsls	r2, r3, #21
	bpl	.L273
	ldr	r3, .L285+4
	ldr	r0, .L285+8
.LVL204:
	ldr	r3, [r3, #28]
	blx	r3
.LVL205:
.L273:
.LBE117:
.LBE116:
	.loc 2 1218 0
	mov	r0, r4
	pop	{r3, r4, r5, pc}
.LVL206:
.L275:
.LBB119:
.LBB118:
	.loc 2 1200 0
	movs	r0, #10
.LVL207:
	bl	rtw_msleep_os
.LVL208:
	.loc 2 1202 0
	subs	r5, r5, #1
.LVL209:
	bne	.L277
	.loc 2 1203 0
	ldr	r3, .L285
	ldr	r3, [r3]
	ldr	r3, [r3]
	lsls	r3, r3, #21
	bpl	.L273
	ldr	r3, .L285+4
	ldr	r1, .L285+12
	ldr	r3, [r3, #28]
	ldr	r0, .L285+16
	blx	r3
.LVL210:
	b	.L273
.LVL211:
.L274:
.LBE118:
.LBE119:
.LBB120:
.LBB121:
	.loc 5 129 0
	ldm	r3, {r1, r2}
.LBB122:
.LBB123:
	.loc 5 107 0
	str	r2, [r1, #4]
	.loc 5 108 0
	str	r1, [r2]
.LBE123:
.LBE122:
	.loc 5 130 0
	str	r3, [r3]
	str	r3, [r3, #4]
.LBE121:
.LBE120:
	.loc 2 1212 0
	sub	r4, r3, #16
.LVL212:
	.loc 2 1215 0
	bl	hal_sdio_rx_unlock
.LVL213:
	.loc 2 1217 0
	b	.L273
.L286:
	.align	2
.L285:
	.word	utility_stubs
	.word	stdio_printf_stubs
	.word	.LC17
	.word	.LANCHOR4
	.word	.LC18
	.cfi_endproc
.LFE387:
	.size	hal_sdio_dev_alloc_rx_pkt, .-hal_sdio_dev_alloc_rx_pkt
	.section	.text.hal_sdio_dev_msg_handler,"ax",%progbits
	.align	1
	.global	hal_sdio_dev_msg_handler
	.syntax unified
	.thumb
	.thumb_func
	.fpu softvfp
	.type	hal_sdio_dev_msg_handler, %function
hal_sdio_dev_msg_handler:
.LFB390:
	.loc 2 1314 0
	.cfi_startproc
	@ args = 0, pretend = 0, frame = 0
	@ frame_needed = 0, uses_anonymous_args = 0
.LVL214:
	push	{r4, r5, r6, lr}
	.cfi_def_cfa_offset 16
	.cfi_offset 4, -16
	.cfi_offset 5, -12
	.cfi_offset 6, -8
	.cfi_offset 14, -4
	.loc 2 1319 0
	ldr	r4, .L304
	.loc 2 1314 0
	mov	r5, r1
	.loc 2 1319 0
	ldr	r3, [r4, #8]
	ldr	r3, [r3]
	lsls	r2, r3, #21
	bpl	.L288
	.loc 2 1319 0 is_stmt 0 discriminator 1
	ldr	r3, .L304+4
	ldrb	r1, [r1]	@ zero_extendqisi2
.LVL215:
	ldr	r0, .L304+8
.LVL216:
	ldr	r3, [r3, #28]
	blx	r3
.LVL217:
.L288:
	.loc 2 1321 0 is_stmt 1
	ldrb	r1, [r5]	@ zero_extendqisi2
	cmp	r1, #1
	beq	.L290
	bcc	.L289
	cmp	r1, #3
	bls	.L303
.L289:
	.loc 2 1350 0
	ldr	r3, [r4, #4]
	ldr	r4, [r3]
	ands	r4, r4, #1024
	beq	.L291
	.loc 2 1350 0 is_stmt 0 discriminator 1
	ldr	r3, .L304+4
	ldr	r0, .L304+12
	ldr	r3, [r3, #28]
	blx	r3
.LVL218:
.L303:
	.loc 2 1317 0 is_stmt 1
	movs	r4, #0
	b	.L291
.L290:
	.loc 2 1324 0
	ldr	r6, .L304+16
	ldr	r0, [r6]
	bl	hal_sdio_dev_alloc_rx_pkt
.LVL219:
	.loc 2 1325 0
	mov	r1, r0
	cbnz	r0, .L292
	.loc 2 1326 0
	ldr	r3, [r4]
	ldr	r3, [r3]
	lsls	r3, r3, #21
	bpl	.L295
	.loc 2 1326 0 is_stmt 0 discriminator 1
	ldr	r3, .L304+4
	ldr	r1, .L304+20
	ldr	r0, .L304+24
.LVL220:
	ldr	r3, [r3, #28]
	blx	r3
.LVL221:
.L295:
	.loc 2 1327 0 is_stmt 1
	mov	r0, #-1
	.loc 2 1355 0
	pop	{r4, r5, r6, pc}
.LVL222:
.L292:
	.loc 2 1331 0
	movs	r2, #130
	.loc 2 1330 0
	ldr	r3, [r0]
.LVL223:
	.loc 2 1331 0
	strb	r2, [r3, #4]
	.loc 2 1332 0
	ldrh	r2, [r5, #2]
	strh	r2, [r3]	@ movhi
	.loc 2 1333 0
	movs	r2, #24
	strb	r2, [r3, #2]
	.loc 2 1334 0
	ldr	r3, [r5, #8]
.LVL224:
	str	r3, [r0, #8]
	.loc 2 1335 0
	ldrb	r3, [r5, #1]	@ zero_extendqisi2
	strh	r3, [r0, #12]	@ movhi
.LVL225:
.LBB126:
.LBB127:
	.file 7 "../../../component/soc/realtek/8710c/fwlib/include/hal_sdio_dev.h"
	.loc 7 357 0
	ldr	r3, .L304+28
	ldr	r0, [r6]
.LVL226:
	ldr	r3, [r3, #80]
	blx	r3
.LVL227:
.LBE127:
.LBE126:
	.loc 2 1337 0
	mov	r4, r0
	cbz	r0, .L291
	.loc 2 1339 0
	ldrb	r1, [r5, #1]	@ zero_extendqisi2
	ldrh	r3, [r5, #2]
	ldr	r0, [r5, #8]
	add	r1, r1, r3
	bl	rtw_mfree
.LVL228:
.L291:
	.loc 2 1354 0
	sxtb	r0, r4
	pop	{r4, r5, r6, pc}
.LVL229:
.L305:
	.align	2
.L304:
	.word	utility_stubs
	.word	stdio_printf_stubs
	.word	.LC19
	.word	.LC21
	.word	g_sdio_adp
	.word	.LANCHOR5
	.word	.LC20
	.word	hal_sdiod_stubs
	.cfi_endproc
.LFE390:
	.size	hal_sdio_dev_msg_handler, .-hal_sdio_dev_msg_handler
	.section	.text.hal_sdio_dev_rx_pkt_queue_push,"ax",%progbits
	.align	1
	.global	hal_sdio_dev_rx_pkt_queue_push
	.syntax unified
	.thumb
	.thumb_func
	.fpu softvfp
	.type	hal_sdio_dev_rx_pkt_queue_push, %function
hal_sdio_dev_rx_pkt_queue_push:
.LFB389:
	.loc 2 1253 0
	.cfi_startproc
	@ args = 0, pretend = 0, frame = 0
	@ frame_needed = 0, uses_anonymous_args = 0
.LVL230:
	push	{r3, r4, r5, r6, r7, r8, r9, lr}
	.cfi_def_cfa_offset 32
	.cfi_offset 3, -32
	.cfi_offset 4, -28
	.cfi_offset 5, -24
	.cfi_offset 6, -20
	.cfi_offset 7, -16
	.cfi_offset 8, -12
	.cfi_offset 9, -8
	.cfi_offset 14, -4
	.loc 2 1265 0
	ldr	r5, .L317
	.loc 2 1253 0
	mov	r7, r0
	.loc 2 1265 0
	ldr	r0, [r5]
.LVL231:
	.loc 2 1253 0
	mov	r6, r1
	mov	r8, r2
	mov	r9, r3
	.loc 2 1265 0
	cbnz	r0, .L307
	.loc 2 1267 0
	ldr	r3, .L317+4
.LVL232:
	ldr	r3, [r3]
	ldr	r3, [r3]
	lsls	r2, r3, #21
.LVL233:
	bmi	.L308
.LVL234:
.L315:
	.loc 2 1268 0 discriminator 1
	mov	r0, #-1
	pop	{r3, r4, r5, r6, r7, r8, r9, pc}
.LVL235:
.L308:
	.loc 2 1267 0 discriminator 1
	ldr	r1, .L317+8
.LVL236:
	ldr	r0, .L317+12
.L316:
	ldr	r3, .L317+16
	ldr	r3, [r3, #28]
	blx	r3
.LVL237:
	b	.L315
.LVL238:
.L307:
	.loc 2 1271 0
	bl	hal_sdio_dev_alloc_rx_pkt
.LVL239:
	.loc 2 1272 0
	cbnz	r0, .L310
	.loc 2 1273 0
	ldr	r3, .L317+4
	ldr	r3, [r3]
	ldr	r3, [r3]
	lsls	r3, r3, #21
	bpl	.L315
	.loc 2 1273 0 is_stmt 0 discriminator 1
	ldr	r1, .L317+8
	ldr	r0, .L317+20
.LVL240:
	b	.L316
.LVL241:
.L310:
	.loc 2 1298 0 is_stmt 1
	movs	r3, #24
	.loc 2 1277 0
	ldr	r4, [r0]
.LVL242:
.LBB130:
.LBB131:
	.loc 7 357 0
	mov	r1, r0
.LBE131:
.LBE130:
	.loc 2 1298 0
	strb	r3, [r4, #2]
.LBB135:
.LBB132:
	.loc 7 357 0
	ldr	r3, .L317+24
.LBE132:
.LBE135:
	.loc 2 1278 0
	strb	r9, [r4, #4]
	.loc 2 1279 0
	strh	r8, [r4]	@ movhi
.LBB136:
.LBB133:
	.loc 7 357 0
	ldr	r3, [r3, #80]
.LBE133:
.LBE136:
	.loc 2 1299 0
	str	r7, [r0, #8]
	.loc 2 1300 0
	strh	r6, [r0, #12]	@ movhi
.LVL243:
.LBB137:
.LBB134:
	.loc 7 357 0
	ldr	r0, [r5]
.LVL244:
	blx	r3
.LVL245:
.LBE134:
.LBE137:
	.loc 2 1306 0
	adds	r0, r0, #0
	it	ne
	movne	r0, #1
	negs	r0, r0
	.loc 2 1311 0
	pop	{r3, r4, r5, r6, r7, r8, r9, pc}
.LVL246:
.L318:
	.align	2
.L317:
	.word	g_sdio_adp
	.word	utility_stubs
	.word	.LANCHOR6
	.word	.LC22
	.word	stdio_printf_stubs
	.word	.LC20
	.word	hal_sdiod_stubs
	.cfi_endproc
.LFE389:
	.size	hal_sdio_dev_rx_pkt_queue_push, .-hal_sdio_dev_rx_pkt_queue_push
	.section	.text.hal_sdio_dev_send_msg,"ax",%progbits
	.align	1
	.global	hal_sdio_dev_send_msg
	.syntax unified
	.thumb
	.thumb_func
	.fpu softvfp
	.type	hal_sdio_dev_send_msg, %function
hal_sdio_dev_send_msg:
.LFB391:
	.loc 2 1358 0
	.cfi_startproc
	@ args = 0, pretend = 0, frame = 0
	@ frame_needed = 0, uses_anonymous_args = 0
.LVL247:
	push	{r3, r4, r5, lr}
	.cfi_def_cfa_offset 16
	.cfi_offset 3, -16
	.cfi_offset 4, -12
	.cfi_offset 5, -8
	.cfi_offset 14, -4
	.loc 2 1358 0
	mov	r5, r0
	.loc 2 1362 0
	ldr	r0, .L321
.LVL248:
	bl	rtw_push_to_xqueue
.LVL249:
	.loc 2 1363 0
	mov	r4, r0
	cbnz	r0, .L320
	.loc 2 1365 0
	mov	r0, r5
.LVL250:
	bl	hal_sdio_dev_rx_task_up
.LVL251:
.L320:
	.loc 2 1373 0
	sxtb	r0, r4
	pop	{r3, r4, r5, pc}
.LVL252:
.L322:
	.align	2
.L321:
	.word	sdiod_msg_queue
	.cfi_endproc
.LFE391:
	.size	hal_sdio_dev_send_msg, .-hal_sdio_dev_send_msg
	.comm	g_sdio_adp,4,4
	.global	sdiod_rx_bd
	.global	sdiod_tx_bd
	.comm	sdiod_msg_queue,4,4
	.comm	sdiod_gmutex,4,4
	.comm	sdiod_rx_mutex,4,4
	.comm	sdiod_rx_task,24,4
	.comm	sdiod_tx_task,24,4
	.comm	sdiod_rx_sema,4,4
	.comm	sdiod_tx_sema,4,4
	.global	sdio_dev_pins
	.section	.non_cache.bss,"aw",%progbits
	.align	5
	.set	.LANCHOR3,. + 0
	.type	sdiod_tx_bd, %object
	.size	sdiod_tx_bd, 96
sdiod_tx_bd:
	.space	96
	.type	sdiod_rx_bd, %object
	.size	sdiod_rx_bd, 192
sdiod_rx_bd:
	.space	192
	.section	.rodata.__func__.19468,"a",%progbits
	.set	.LANCHOR0,. + 0
	.type	__func__.19468, %object
	.size	__func__.19468, 28
__func__.19468:
	.ascii	"hal_sdio_txbd_buf_do_refill\000"
	.section	.rodata.__func__.19563,"a",%progbits
	.set	.LANCHOR2,. + 0
	.type	__func__.19563, %object
	.size	__func__.19563, 18
__func__.19563:
	.ascii	"hal_sdio_dev_init\000"
	.section	.rodata.__func__.19608,"a",%progbits
	.set	.LANCHOR4,. + 0
	.type	__func__.19608, %object
	.size	__func__.19608, 26
__func__.19608:
	.ascii	"hal_sdio_dev_alloc_rx_pkt\000"
	.section	.rodata.__func__.19624,"a",%progbits
	.set	.LANCHOR6,. + 0
	.type	__func__.19624, %object
	.size	__func__.19624, 31
__func__.19624:
	.ascii	"hal_sdio_dev_rx_pkt_queue_push\000"
	.section	.rodata.__func__.19633,"a",%progbits
	.set	.LANCHOR5,. + 0
	.type	__func__.19633, %object
	.size	__func__.19633, 25
__func__.19633:
	.ascii	"hal_sdio_dev_msg_handler\000"
	.section	.rodata.hal_sdio_dev_alloc_rx_pkt.str1.1,"aMS",%progbits,1
.LC17:
	.ascii	"\015[SDIOD  Wrn]Warn! No Free RX PKT, Use Dyna Allo"
	.ascii	"c\012\000"
.LC18:
	.ascii	"\015[SDIOD  Err]%s: Err!! Allocate RX PKT Failed!!\012"
	.ascii	"\000"
	.section	.rodata.hal_sdio_dev_init.str1.1,"aMS",%progbits,1
.LC12:
	.ascii	"\015[SDIOD  Err]%s: malloc for SDIO device object f"
	.ascii	"ailed!\015\012\000"
.LC13:
	.ascii	"\015[SDIOD  Inf]Tx BD Init==>\012\000"
.LC14:
	.ascii	"\015[SDIOD  Err]Malloc for TX_BD Handle Err!!\012\000"
.LC15:
	.ascii	"\015[SDIOD  Err]SDIO_Device_Init: Malloc for RX_BD "
	.ascii	"Handle Err!!\012\000"
.LC16:
	.ascii	"\015[SDIOD  Err]SDIO_Device_Init: Malloc for RX PKT"
	.ascii	" Handler Err!!\012\000"
	.section	.rodata.hal_sdio_dev_msg_handler.str1.1,"aMS",%progbits,1
.LC19:
	.ascii	"\015[SDIOD  Inf]hal_sdio_dev_msg_handler==> msg_typ"
	.ascii	"e=0x%x\012\000"
.LC20:
	.ascii	"\015[SDIOD  Err]%s: Err!! No Free RX PKT!\012\000"
.LC21:
	.ascii	"\015[SDIOD  Wrn]hal_sdio_dev_msg_handler: UnKnown M"
	.ascii	"sgType %d\012\000"
	.section	.rodata.hal_sdio_dev_os_init.str1.1,"aMS",%progbits,1
.LC4:
	.ascii	"\015[SDIOD  Err]SDIO_Device_Init Create Semaphore E"
	.ascii	"rr!!\012\000"
.LC5:
	.ascii	"\015[SDIOD  Err]SDIO_Device_Init Create RX Semaphor"
	.ascii	"e Err!!\012\000"
.LC6:
	.ascii	"SDIOD_MsgQ\000"
.LC7:
	.ascii	"\015[SDIOD  Err]SDIO_Device_Init Create Msg Q Err!!"
	.ascii	"\012\000"
.LC8:
	.ascii	"SDIO_TX_TASK\000"
.LC9:
	.ascii	"\015[SDIOD  Err]SDIO_Device_Init: Create TX Task Er"
	.ascii	"r(%d)!!\012\000"
.LC10:
	.ascii	"SDIO_RX_TASK\000"
.LC11:
	.ascii	"\015[SDIOD  Err]SDIO_Device_Init: Create RX Task Er"
	.ascii	"r(%d)!!\012\000"
	.section	.rodata.hal_sdio_dev_process_rpwm.str1.1,"aMS",%progbits,1
.LC0:
	.ascii	"\015[SDIOD  Inf]RPWM1: 0x%x\012\000"
	.section	.rodata.hal_sdio_dev_process_rpwm2.str1.1,"aMS",%progbits,1
.LC1:
	.ascii	"\015[SDIOD  Inf]RPWM2: 0x%x\012\000"
	.section	.rodata.hal_sdio_dev_rx_pkt_queue_push.str1.1,"aMS",%progbits,1
.LC22:
	.ascii	"\015[SDIOD  Err]%s: SDIO device adapter didn't be i"
	.ascii	"nitialed\015\012\000"
	.section	.rodata.hal_sdio_txbd_buf_do_refill.str1.1,"aMS",%progbits,1
.LC3:
	.ascii	"\015[SDIOD  Wrn]%s Alloc Mem(size=%d) Failed\012\000"
	.section	.rodata.hal_sdio_txbd_rdy_callback.str1.1,"aMS",%progbits,1
.LC2:
	.ascii	"\015[SDIOD  Err]No callback for TX packet ready!!\015"
	.ascii	"\012\000"
	.section	.rodata.sdio_dev_pins,"a",%progbits
	.set	.LANCHOR1,. + 0
	.type	sdio_dev_pins, %object
	.size	sdio_dev_pins, 8
sdio_dev_pins:
	.byte	15
	.byte	16
	.byte	17
	.byte	18
	.byte	19
	.byte	20
	.byte	14
	.byte	-1
	.text
.Letext0:
	.file 8 "/home/ls/samba_share/sdk-ameba-v7.1d/tools/arm-none-eabi-gcc/asdk/linux/newlib/arm-none-eabi/include/machine/_default_types.h"
	.file 9 "/home/ls/samba_share/sdk-ameba-v7.1d/tools/arm-none-eabi-gcc/asdk/linux/newlib/lib/gcc/arm-none-eabi/6.5.0/include/stddef.h"
	.file 10 "/home/ls/samba_share/sdk-ameba-v7.1d/tools/arm-none-eabi-gcc/asdk/linux/newlib/arm-none-eabi/include/sys/lock.h"
	.file 11 "/home/ls/samba_share/sdk-ameba-v7.1d/tools/arm-none-eabi-gcc/asdk/linux/newlib/arm-none-eabi/include/sys/_types.h"
	.file 12 "/home/ls/samba_share/sdk-ameba-v7.1d/tools/arm-none-eabi-gcc/asdk/linux/newlib/arm-none-eabi/include/sys/reent.h"
	.file 13 "<built-in>"
	.file 14 "/home/ls/samba_share/sdk-ameba-v7.1d/tools/arm-none-eabi-gcc/asdk/linux/newlib/arm-none-eabi/include/sys/_stdint.h"
	.file 15 "/home/ls/samba_share/sdk-ameba-v7.1d/tools/arm-none-eabi-gcc/asdk/linux/newlib/arm-none-eabi/include/time.h"
	.file 16 "../../../component/soc/realtek/8710c/cmsis/rtl8710c/include/basic_types.h"
	.file 17 "../../../component/soc/realtek/8710c/cmsis/cmsis-core/include/core_armv8mml.h"
	.file 18 "../../../component/soc/realtek/8710c/cmsis/rtl8710c/include/system_rtl8710c.h"
	.file 19 "../../../component/soc/realtek/8710c/cmsis/rtl8710c/include/rtl8710c.h"
	.file 20 "../../../component/soc/realtek/8710c/fwlib/include/hal_api.h"
	.file 21 "/home/ls/samba_share/sdk-ameba-v7.1d/tools/arm-none-eabi-gcc/asdk/linux/newlib/lib/gcc/arm-none-eabi/6.5.0/include/stdarg.h"
	.file 22 "../../../component/soc/realtek/8710c/app/rtl_printf/include/log_buf.h"
	.file 23 "../../../component/soc/realtek/8710c/app/stdio_port/stdio_port.h"
	.file 24 "../../../component/soc/realtek/8710c/app/rtl_printf/include/printf_entry.h"
	.file 25 "../../../component/soc/realtek/8710c/app/rtl_printf/include/rt_printf.h"
	.file 26 "../../../component/soc/realtek/8710c/misc/utilities/include/utility.h"
	.file 27 "../../../component/soc/realtek/8710c/cmsis/rtl8710c/include/rtl8710c_irq.h"
	.file 28 "../../../component/soc/realtek/8710c/fwlib/include/rtl8710c_syson_ctrl.h"
	.file 29 "../../../component/soc/realtek/8710c/fwlib/include/rtl8710c_peri_id.h"
	.file 30 "../../../component/soc/realtek/8710c/fwlib/include/rtl8710c_pin_name.h"
	.file 31 "../../../component/soc/realtek/8710c/fwlib/include/rtl8710c_cache.h"
	.file 32 "../../../component/soc/realtek/8710c/fwlib/include/rtl8710c_uart.h"
	.file 33 "../../../component/soc/realtek/8710c/fwlib/include/rtl8710c_timer.h"
	.file 34 "../../../component/soc/realtek/8710c/fwlib/include/rtl8710c_pwm.h"
	.file 35 "../../../component/soc/realtek/8710c/fwlib/include/rtl8710c_gpio.h"
	.file 36 "../../../component/soc/realtek/8710c/fwlib/include/rtl8710c_sdio_dev_type.h"
	.file 37 "../../../component/soc/realtek/8710c/fwlib/include/rtl8710c_sdio_dev.h"
	.file 38 "/home/ls/samba_share/sdk-ameba-v7.1d/tools/arm-none-eabi-gcc/asdk/linux/newlib/arm-none-eabi/include/stdlib.h"
	.file 39 "../../../component/os/freertos/freertos_service.h"
	.file 40 "../../../component/os/os_dep/include/osdep_service.h"
	.file 41 "../../../component/soc/realtek/8710c/fwlib/include/hal_pinmux.h"