	.arch armv8-m.main
	.arch_extension dsp
	.eabi_attribute 20, 1
	.eabi_attribute 21, 1
	.eabi_attribute 23, 3
	.eabi_attribute 24, 1
	.eabi_attribute 25, 1
	.eabi_attribute 26, 1
	.eabi_attribute 30, 4
	.eabi_attribute 34, 1
	.eabi_attribute 18, 4
	.file	"hal_flash.c"
	.text
.Ltext0:
	.cfi_sections	.debug_frame
	.section	.text.hal_flash_read_unique_id,"ax",%progbits
	.align	1
	.global	hal_flash_read_unique_id
	.syntax unified
	.thumb
	.thumb_func
	.fpu softvfp
	.type	hal_flash_read_unique_id, %function
hal_flash_read_unique_id:
.LFB303:
	.file 1 "../../../component/soc/realtek/8710c/fwlib/source/ram_ns/hal_flash.c"
	.loc 1 108 0
	.cfi_startproc
	@ args = 0, pretend = 0, frame = 0
	@ frame_needed = 0, uses_anonymous_args = 0
	@ link register save eliminated.
.LVL0:
	.loc 1 109 0
	ldr	r3, .L2
	ldr	r3, [r3]
	bx	r3	@ indirect register sibling call
.LVL1:
.L3:
	.align	2
.L2:
	.word	hal_flash_stubs
	.cfi_endproc
.LFE303:
	.size	hal_flash_read_unique_id, .-hal_flash_read_unique_id
	.section	.text.hal_flash_read_id,"ax",%progbits
	.align	1
	.global	hal_flash_read_id
	.syntax unified
	.thumb
	.thumb_func
	.fpu softvfp
	.type	hal_flash_read_id, %function
hal_flash_read_id:
.LFB304:
	.loc 1 124 0
	.cfi_startproc
	@ args = 0, pretend = 0, frame = 0
	@ frame_needed = 0, uses_anonymous_args = 0
	@ link register save eliminated.
.LVL2:
	.loc 1 125 0
	ldr	r3, .L5
	ldr	r3, [r3, #4]
	bx	r3
.LVL3:
.L6:
	.align	2
.L5:
	.word	hal_flash_stubs
	.cfi_endproc
.LFE304:
	.size	hal_flash_read_id, .-hal_flash_read_id
	.section	.text.hal_flash_set_write_enable,"ax",%progbits
	.align	1
	.global	hal_flash_set_write_enable
	.syntax unified
	.thumb
	.thumb_func
	.fpu softvfp
	.type	hal_flash_set_write_enable, %function
hal_flash_set_write_enable:
.LFB305:
	.loc 1 138 0
	.cfi_startproc
	@ args = 0, pretend = 0, frame = 0
	@ frame_needed = 0, uses_anonymous_args = 0
	@ link register save eliminated.
.LVL4:
	.loc 1 139 0
	ldr	r3, .L8
	ldr	r3, [r3, #8]
	bx	r3	@ indirect register sibling call
.LVL5:
.L9:
	.align	2
.L8:
	.word	hal_flash_stubs
	.cfi_endproc
.LFE305:
	.size	hal_flash_set_write_enable, .-hal_flash_set_write_enable
	.section	.text.hal_flash_set_status,"ax",%progbits
	.align	1
	.global	hal_flash_set_status
	.syntax unified
	.thumb
	.thumb_func
	.fpu softvfp
	.type	hal_flash_set_status, %function
hal_flash_set_status:
.LFB306:
	.loc 1 156 0
	.cfi_startproc
	@ args = 0, pretend = 0, frame = 0
	@ frame_needed = 0, uses_anonymous_args = 0
	@ link register save eliminated.
.LVL6:
	.loc 1 157 0
	ldr	r3, .L11
	ldr	r3, [r3, #12]
	bx	r3	@ indirect register sibling call
.LVL7:
.L12:
	.align	2
.L11:
	.word	hal_flash_stubs
	.cfi_endproc
.LFE306:
	.size	hal_flash_set_status, .-hal_flash_set_status
	.section	.text.hal_flash_set_status_no_check,"ax",%progbits
	.align	1
	.global	hal_flash_set_status_no_check
	.syntax unified
	.thumb
	.thumb_func
	.fpu softvfp
	.type	hal_flash_set_status_no_check, %function
hal_flash_set_status_no_check:
.LFB307:
	.loc 1 174 0
	.cfi_startproc
	@ args = 0, pretend = 0, frame = 0
	@ frame_needed = 0, uses_anonymous_args = 0
	@ link register save eliminated.
.LVL8:
	.loc 1 175 0
	ldr	r3, .L14
	ldr	r3, [r3, #16]
	bx	r3	@ indirect register sibling call
.LVL9:
.L15:
	.align	2
.L14:
	.word	hal_flash_stubs
	.cfi_endproc
.LFE307:
	.size	hal_flash_set_status_no_check, .-hal_flash_set_status_no_check
	.section	.text.hal_flash_set_status_with_addr,"ax",%progbits
	.align	1
	.global	hal_flash_set_status_with_addr
	.syntax unified
	.thumb
	.thumb_func
	.fpu softvfp
	.type	hal_flash_set_status_with_addr, %function
hal_flash_set_status_with_addr:
.LFB308:
	.loc 1 194 0
	.cfi_startproc
	@ args = 0, pretend = 0, frame = 0
	@ frame_needed = 0, uses_anonymous_args = 0
	@ link register save eliminated.
.LVL10:
	push	{r4}
	.cfi_def_cfa_offset 4
	.cfi_offset 4, -4
	.loc 1 195 0
	ldr	r4, .L17
	ldr	r4, [r4, #20]
	mov	ip, r4
	.loc 1 196 0
	pop	{r4}
	.cfi_restore 4
	.cfi_def_cfa_offset 0
	.loc 1 195 0
	bx	ip	@ indirect register sibling call
.LVL11:
.L18:
	.align	2
.L17:
	.word	hal_flash_stubs
	.cfi_endproc
.LFE308:
	.size	hal_flash_set_status_with_addr, .-hal_flash_set_status_with_addr
	.section	.text.hal_flash_set_extended_addr,"ax",%progbits
	.align	1
	.global	hal_flash_set_extended_addr
	.syntax unified
	.thumb
	.thumb_func
	.fpu softvfp
	.type	hal_flash_set_extended_addr, %function
hal_flash_set_extended_addr:
.LFB309:
	.loc 1 212 0
	.cfi_startproc
	@ args = 0, pretend = 0, frame = 0
	@ frame_needed = 0, uses_anonymous_args = 0
	@ link register save eliminated.
.LVL12:
	.loc 1 213 0
	ldr	r3, .L20
	ldr	r3, [r3, #24]
	bx	r3	@ indirect register sibling call
.LVL13:
.L21:
	.align	2
.L20:
	.word	hal_flash_stubs
	.cfi_endproc
.LFE309:
	.size	hal_flash_set_extended_addr, .-hal_flash_set_extended_addr
	.section	.text.hal_flash_set_write_protect_mode,"ax",%progbits
	.align	1
	.global	hal_flash_set_write_protect_mode
	.syntax unified
	.thumb
	.thumb_func
	.fpu softvfp
	.type	hal_flash_set_write_protect_mode, %function
hal_flash_set_write_protect_mode:
.LFB310:
	.loc 1 230 0
	.cfi_startproc
	@ args = 0, pretend = 0, frame = 0
	@ frame_needed = 0, uses_anonymous_args = 0
	@ link register save eliminated.
.LVL14:
	.loc 1 231 0
	ldr	r3, .L23
	ldr	r3, [r3, #28]
	bx	r3	@ indirect register sibling call
.LVL15:
.L24:
	.align	2
.L23:
	.word	hal_flash_stubs
	.cfi_endproc
.LFE310:
	.size	hal_flash_set_write_protect_mode, .-hal_flash_set_write_protect_mode
	.section	.text.hal_flash_get_status,"ax",%progbits
	.align	1
	.global	hal_flash_get_status
	.syntax unified
	.thumb
	.thumb_func
	.fpu softvfp
	.type	hal_flash_get_status, %function
hal_flash_get_status:
.LFB311:
	.loc 1 246 0
	.cfi_startproc
	@ args = 0, pretend = 0, frame = 0
	@ frame_needed = 0, uses_anonymous_args = 0
	@ link register save eliminated.
.LVL16:
	.loc 1 247 0
	ldr	r3, .L26
	ldr	r3, [r3, #32]
	bx	r3
.LVL17:
.L27:
	.align	2
.L26:
	.word	hal_flash_stubs
	.cfi_endproc
.LFE311:
	.size	hal_flash_get_status, .-hal_flash_get_status
	.section	.text.hal_flash_get_status_with_addr,"ax",%progbits
	.align	1
	.global	hal_flash_get_status_with_addr
	.syntax unified
	.thumb
	.thumb_func
	.fpu softvfp
	.type	hal_flash_get_status_with_addr, %function
hal_flash_get_status_with_addr:
.LFB312:
	.loc 1 264 0
	.cfi_startproc
	@ args = 0, pretend = 0, frame = 0
	@ frame_needed = 0, uses_anonymous_args = 0
	@ link register save eliminated.
.LVL18:
	.loc 1 265 0
	ldr	r3, .L29
	ldr	r3, [r3, #36]
	bx	r3
.LVL19:
.L30:
	.align	2
.L29:
	.word	hal_flash_stubs
	.cfi_endproc
.LFE312:
	.size	hal_flash_get_status_with_addr, .-hal_flash_get_status_with_addr
	.section	.text.hal_flash_get_extended_addr,"ax",%progbits
	.align	1
	.global	hal_flash_get_extended_addr
	.syntax unified
	.thumb
	.thumb_func
	.fpu softvfp
	.type	hal_flash_get_extended_addr, %function
hal_flash_get_extended_addr:
.LFB313:
	.loc 1 279 0
	.cfi_startproc
	@ args = 0, pretend = 0, frame = 0
	@ frame_needed = 0, uses_anonymous_args = 0
	@ link register save eliminated.
.LVL20:
	.loc 1 280 0
	ldr	r3, .L32
	ldr	r3, [r3, #40]
	bx	r3
.LVL21:
.L33:
	.align	2
.L32:
	.word	hal_flash_stubs
	.cfi_endproc
.LFE313:
	.size	hal_flash_get_extended_addr, .-hal_flash_get_extended_addr
	.section	.text.hal_flash_wait_ready,"ax",%progbits
	.align	1
	.global	hal_flash_wait_ready
	.syntax unified
	.thumb
	.thumb_func
	.fpu softvfp
	.type	hal_flash_wait_ready, %function
hal_flash_wait_ready:
.LFB314:
	.loc 1 293 0
	.cfi_startproc
	@ args = 0, pretend = 0, frame = 0
	@ frame_needed = 0, uses_anonymous_args = 0
	@ link register save eliminated.
.LVL22:
	.loc 1 294 0
	ldr	r3, .L35
	ldr	r3, [r3, #44]
	bx	r3	@ indirect register sibling call
.LVL23:
.L36:
	.align	2
.L35:
	.word	hal_flash_stubs
	.cfi_endproc
.LFE314:
	.size	hal_flash_wait_ready, .-hal_flash_wait_ready
	.section	.text.hal_flash_chip_erase,"ax",%progbits
	.align	1
	.global	hal_flash_chip_erase
	.syntax unified
	.thumb
	.thumb_func
	.fpu softvfp
	.type	hal_flash_chip_erase, %function
hal_flash_chip_erase:
.LFB315:
	.loc 1 307 0
	.cfi_startproc
	@ args = 0, pretend = 0, frame = 0
	@ frame_needed = 0, uses_anonymous_args = 0
	@ link register save eliminated.
.LVL24:
	.loc 1 308 0
	ldr	r3, .L38
	ldr	r3, [r3, #48]
	bx	r3	@ indirect register sibling call
.LVL25:
.L39:
	.align	2
.L38:
	.word	hal_flash_stubs
	.cfi_endproc
.LFE315:
	.size	hal_flash_chip_erase, .-hal_flash_chip_erase
	.section	.text.hal_flash_64k_block_erase,"ax",%progbits
	.align	1
	.global	hal_flash_64k_block_erase
	.syntax unified
	.thumb
	.thumb_func
	.fpu softvfp
	.type	hal_flash_64k_block_erase, %function
hal_flash_64k_block_erase:
.LFB316:
	.loc 1 323 0
	.cfi_startproc
	@ args = 0, pretend = 0, frame = 0
	@ frame_needed = 0, uses_anonymous_args = 0
	@ link register save eliminated.
.LVL26:
	.loc 1 324 0
	ldr	r3, .L41
	ldr	r3, [r3, #52]
	bx	r3	@ indirect register sibling call
.LVL27:
.L42:
	.align	2
.L41:
	.word	hal_flash_stubs
	.cfi_endproc
.LFE316:
	.size	hal_flash_64k_block_erase, .-hal_flash_64k_block_erase
	.section	.text.hal_flash_32k_block_erase,"ax",%progbits
	.align	1
	.global	hal_flash_32k_block_erase
	.syntax unified
	.thumb
	.thumb_func
	.fpu softvfp
	.type	hal_flash_32k_block_erase, %function
hal_flash_32k_block_erase:
.LFB317:
	.loc 1 339 0
	.cfi_startproc
	@ args = 0, pretend = 0, frame = 0
	@ frame_needed = 0, uses_anonymous_args = 0
	@ link register save eliminated.
.LVL28:
	.loc 1 340 0
	ldr	r3, .L44
	ldr	r3, [r3, #56]
	bx	r3	@ indirect register sibling call
.LVL29:
.L45:
	.align	2
.L44:
	.word	hal_flash_stubs
	.cfi_endproc
.LFE317:
	.size	hal_flash_32k_block_erase, .-hal_flash_32k_block_erase
	.section	.text.hal_flash_sector_erase,"ax",%progbits
	.align	1
	.global	hal_flash_sector_erase
	.syntax unified
	.thumb
	.thumb_func
	.fpu softvfp
	.type	hal_flash_sector_erase, %function
hal_flash_sector_erase:
.LFB318:
	.loc 1 355 0
	.cfi_startproc
	@ args = 0, pretend = 0, frame = 0
	@ frame_needed = 0, uses_anonymous_args = 0
	@ link register save eliminated.
.LVL30:
	.loc 1 356 0
	ldr	r3, .L47
	ldr	r3, [r3, #60]
	bx	r3	@ indirect register sibling call
.LVL31:
.L48:
	.align	2
.L47:
	.word	hal_flash_stubs
	.cfi_endproc
.LFE318:
	.size	hal_flash_sector_erase, .-hal_flash_sector_erase
	.section	.text.hal_flash_query_sector_protect_state,"ax",%progbits
	.align	1
	.global	hal_flash_query_sector_protect_state
	.syntax unified
	.thumb
	.thumb_func
	.fpu softvfp
	.type	hal_flash_query_sector_protect_state, %function
hal_flash_query_sector_protect_state:
.LFB319:
	.loc 1 371 0
	.cfi_startproc
	@ args = 0, pretend = 0, frame = 0
	@ frame_needed = 0, uses_anonymous_args = 0
	@ link register save eliminated.
.LVL32:
	.loc 1 372 0
	ldr	r3, .L50
	ldr	r3, [r3, #64]
	bx	r3
.LVL33:
.L51:
	.align	2
.L50:
	.word	hal_flash_stubs
	.cfi_endproc
.LFE319:
	.size	hal_flash_query_sector_protect_state, .-hal_flash_query_sector_protect_state
	.section	.text.hal_flash_protect_sector,"ax",%progbits
	.align	1
	.global	hal_flash_protect_sector
	.syntax unified
	.thumb
	.thumb_func
	.fpu softvfp
	.type	hal_flash_protect_sector, %function
hal_flash_protect_sector:
.LFB320:
	.loc 1 388 0
	.cfi_startproc
	@ args = 0, pretend = 0, frame = 0
	@ frame_needed = 0, uses_anonymous_args = 0
	@ link register save eliminated.
.LVL34:
	.loc 1 389 0
	ldr	r3, .L53
	ldr	r3, [r3, #68]
	bx	r3	@ indirect register sibling call
.LVL35:
.L54:
	.align	2
.L53:
	.word	hal_flash_stubs
	.cfi_endproc
.LFE320:
	.size	hal_flash_protect_sector, .-hal_flash_protect_sector
	.section	.text.hal_flash_unprotect_sector,"ax",%progbits
	.align	1
	.global	hal_flash_unprotect_sector
	.syntax unified
	.thumb
	.thumb_func
	.fpu softvfp
	.type	hal_flash_unprotect_sector, %function
hal_flash_unprotect_sector:
.LFB321:
	.loc 1 405 0
	.cfi_startproc
	@ args = 0, pretend = 0, frame = 0
	@ frame_needed = 0, uses_anonymous_args = 0
	@ link register save eliminated.
.LVL36:
	.loc 1 406 0
	ldr	r3, .L56
	ldr	r3, [r3, #72]
	bx	r3	@ indirect register sibling call
.LVL37:
.L57:
	.align	2
.L56:
	.word	hal_flash_stubs
	.cfi_endproc
.LFE321:
	.size	hal_flash_unprotect_sector, .-hal_flash_unprotect_sector
	.section	.text.hal_flash_global_lock,"ax",%progbits
	.align	1
	.global	hal_flash_global_lock
	.syntax unified
	.thumb
	.thumb_func
	.fpu softvfp
	.type	hal_flash_global_lock, %function
hal_flash_global_lock:
.LFB322:
	.loc 1 420 0
	.cfi_startproc
	@ args = 0, pretend = 0, frame = 0
	@ frame_needed = 0, uses_anonymous_args = 0
	@ link register save eliminated.
.LVL38:
	.loc 1 421 0
	ldr	r3, .L59
	ldr	r3, [r3, #76]
	bx	r3	@ indirect register sibling call
.LVL39:
.L60:
	.align	2
.L59:
	.word	hal_flash_stubs
	.cfi_endproc
.LFE322:
	.size	hal_flash_global_lock, .-hal_flash_global_lock
	.section	.text.hal_flash_global_unlock,"ax",%progbits
	.align	1
	.global	hal_flash_global_unlock
	.syntax unified
	.thumb
	.thumb_func
	.fpu softvfp
	.type	hal_flash_global_unlock, %function
hal_flash_global_unlock:
.LFB323:
	.loc 1 435 0
	.cfi_startproc
	@ args = 0, pretend = 0, frame = 0
	@ frame_needed = 0, uses_anonymous_args = 0
	@ link register save eliminated.
.LVL40:
	.loc 1 436 0
	ldr	r3, .L62
	ldr	r3, [r3, #80]
	bx	r3	@ indirect register sibling call
.LVL41:
.L63:
	.align	2
.L62:
	.word	hal_flash_stubs
	.cfi_endproc
.LFE323:
	.size	hal_flash_global_unlock, .-hal_flash_global_unlock
	.section	.text.hal_flash_set_dummy_cycle,"ax",%progbits
	.align	1
	.global	hal_flash_set_dummy_cycle
	.syntax unified
	.thumb
	.thumb_func
	.fpu softvfp
	.type	hal_flash_set_dummy_cycle, %function
hal_flash_set_dummy_cycle:
.LFB324:
	.loc 1 451 0
	.cfi_startproc
	@ args = 0, pretend = 0, frame = 0
	@ frame_needed = 0, uses_anonymous_args = 0
	@ link register save eliminated.
.LVL42:
	.loc 1 452 0
	ldr	r3, .L65
	ldr	r3, [r3, #84]
	bx	r3	@ indirect register sibling call
.LVL43:
.L66:
	.align	2
.L65:
	.word	hal_flash_stubs
	.cfi_endproc
.LFE324:
	.size	hal_flash_set_dummy_cycle, .-hal_flash_set_dummy_cycle
	.section	.text.hal_flash_set_quad_enable,"ax",%progbits
	.align	1
	.global	hal_flash_set_quad_enable
	.syntax unified
	.thumb
	.thumb_func
	.fpu softvfp
	.type	hal_flash_set_quad_enable, %function
hal_flash_set_quad_enable:
.LFB325:
	.loc 1 466 0
	.cfi_startproc
	@ args = 0, pretend = 0, frame = 8
	@ frame_needed = 0, uses_anonymous_args = 0
.LVL44:
	push	{r0, r1, r2, r4, r5, lr}
	.cfi_def_cfa_offset 24
	.cfi_offset 4, -12
	.cfi_offset 5, -8
	.cfi_offset 14, -4
	.loc 1 472 0
	ldrb	r3, [r0, #152]	@ zero_extendqisi2
	.loc 1 466 0
	mov	r4, r0
	.loc 1 472 0
	subs	r3, r3, #1
	.loc 1 467 0
	ldr	r5, [r0, #88]
.LVL45:
	.loc 1 472 0
	cmp	r3, #8
	bhi	.L68
	tbb	[pc, r3]
.L70:
	.byte	(.L69-.L70)/2
	.byte	(.L71-.L70)/2
	.byte	(.L68-.L70)/2
	.byte	(.L72-.L70)/2
	.byte	(.L71-.L70)/2
	.byte	(.L72-.L70)/2
	.byte	(.L67-.L70)/2
	.byte	(.L71-.L70)/2
	.byte	(.L71-.L70)/2
	.p2align 1
.L71:
	.loc 1 477 0
	ldrb	r1, [r5, #4]	@ zero_extendqisi2
	bl	hal_flash_get_status
.LVL46:
	.loc 1 478 0
	ldrb	r1, [r5, #5]	@ zero_extendqisi2
	orr	r2, r0, #2
.L77:
	.loc 1 483 0
	uxtb	r2, r2
	mov	r0, r4
.LVL47:
	bl	hal_flash_set_status
.LVL48:
.L67:
	.loc 1 500 0
	add	sp, sp, #12
	.cfi_remember_state
	.cfi_def_cfa_offset 12
	@ sp needed
	pop	{r4, r5, pc}
.LVL49:
.L69:
	.cfi_restore_state
	.loc 1 482 0
	ldrb	r1, [r5, #2]	@ zero_extendqisi2
	bl	hal_flash_get_status
.LVL50:
	.loc 1 483 0
	ldrb	r1, [r5, #3]	@ zero_extendqisi2
	orr	r2, r0, #64
	b	.L77
.LVL51:
.L72:
	.loc 1 488 0
	ldrb	r1, [r5, #2]	@ zero_extendqisi2
	bl	hal_flash_get_status
.LVL52:
	.loc 1 489 0
	ldrb	r1, [r5, #4]	@ zero_extendqisi2
	.loc 1 488 0
	strb	r0, [sp, #4]
	.loc 1 489 0
	mov	r0, r4
	bl	hal_flash_get_status
.LVL53:
	orr	r0, r0, #2
	strb	r0, [sp, #5]
	.loc 1 490 0
	mov	r0, r4
	bl	hal_flash_set_write_enable
.LVL54:
	.loc 1 491 0
	ldrb	r1, [r5, #3]	@ zero_extendqisi2
	add	r3, sp, #4
	movs	r2, #2
	mov	r0, r4
	bl	spic_tx_cmd
.LVL55:
	.loc 1 492 0
	b	.L67
.LVL56:
.L68:
	.loc 1 498 0
	ldr	r3, .L78
	ldr	r3, [r3]
	ldr	r3, [r3]
	lsls	r3, r3, #23
	bpl	.L67
	.loc 1 498 0 is_stmt 0 discriminator 1
	ldr	r3, .L78+4
	ldr	r0, .L78+8
.LVL57:
	ldr	r3, [r3, #28]
	blx	r3
.LVL58:
	.loc 1 500 0 is_stmt 1 discriminator 1
	b	.L67
.L79:
	.align	2
.L78:
	.word	utility_stubs
	.word	stdio_printf_stubs
	.word	.LC0
	.cfi_endproc
.LFE325:
	.size	hal_flash_set_quad_enable, .-hal_flash_set_quad_enable
	.section	.text.hal_flash_unset_quad_enable,"ax",%progbits
	.align	1
	.global	hal_flash_unset_quad_enable
	.syntax unified
	.thumb
	.thumb_func
	.fpu softvfp
	.type	hal_flash_unset_quad_enable, %function
hal_flash_unset_quad_enable:
.LFB326:
	.loc 1 513 0
	.cfi_startproc
	@ args = 0, pretend = 0, frame = 8
	@ frame_needed = 0, uses_anonymous_args = 0
.LVL59:
	push	{r0, r1, r2, r4, r5, lr}
	.cfi_def_cfa_offset 24
	.cfi_offset 4, -12
	.cfi_offset 5, -8
	.cfi_offset 14, -4
	.loc 1 519 0
	ldrb	r3, [r0, #152]	@ zero_extendqisi2
	.loc 1 513 0
	mov	r4, r0
	.loc 1 519 0
	subs	r3, r3, #1
	.loc 1 514 0
	ldr	r5, [r0, #88]
.LVL60:
	.loc 1 519 0
	cmp	r3, #8
	bhi	.L81
	tbb	[pc, r3]
.L83:
	.byte	(.L82-.L83)/2
	.byte	(.L84-.L83)/2
	.byte	(.L80-.L83)/2
	.byte	(.L86-.L83)/2
	.byte	(.L84-.L83)/2
	.byte	(.L86-.L83)/2
	.byte	(.L80-.L83)/2
	.byte	(.L84-.L83)/2
	.byte	(.L84-.L83)/2
	.p2align 1
.L84:
	.loc 1 524 0
	ldrb	r1, [r5, #4]	@ zero_extendqisi2
	bl	hal_flash_get_status
.LVL61:
	.loc 1 525 0
	ldrb	r1, [r5, #5]	@ zero_extendqisi2
	and	r2, r0, #253
.L90:
	.loc 1 530 0
	mov	r0, r4
.LVL62:
	bl	hal_flash_set_status
.LVL63:
.L80:
	.loc 1 548 0
	add	sp, sp, #12
	.cfi_remember_state
	.cfi_def_cfa_offset 12
	@ sp needed
	pop	{r4, r5, pc}
.LVL64:
.L82:
	.cfi_restore_state
	.loc 1 529 0
	ldrb	r1, [r5, #2]	@ zero_extendqisi2
	bl	hal_flash_get_status
.LVL65:
	.loc 1 530 0
	ldrb	r1, [r5, #3]	@ zero_extendqisi2
	and	r2, r0, #191
	b	.L90
.LVL66:
.L86:
	.loc 1 535 0
	ldrb	r1, [r5, #2]	@ zero_extendqisi2
	bl	hal_flash_get_status
.LVL67:
	.loc 1 536 0
	ldrb	r1, [r5, #4]	@ zero_extendqisi2
	.loc 1 535 0
	strb	r0, [sp, #4]
	.loc 1 536 0
	mov	r0, r4
	bl	hal_flash_get_status
.LVL68:
	bic	r0, r0, #2
	strb	r0, [sp, #5]
	.loc 1 537 0
	mov	r0, r4
	bl	hal_flash_set_write_enable
.LVL69:
	.loc 1 538 0
	ldrb	r1, [r5, #3]	@ zero_extendqisi2
	add	r3, sp, #4
	movs	r2, #2
	mov	r0, r4
	bl	spic_tx_cmd
.LVL70:
	.loc 1 539 0
	b	.L80
.LVL71:
.L81:
	.loc 1 546 0
	ldr	r3, .L91
	ldr	r3, [r3]
	ldr	r3, [r3]
	lsls	r3, r3, #23
	bpl	.L80
	.loc 1 546 0 is_stmt 0 discriminator 1
	ldr	r3, .L91+4
	ldr	r0, .L91+8
.LVL72:
	ldr	r3, [r3, #28]
	blx	r3
.LVL73:
	.loc 1 548 0 is_stmt 1 discriminator 1
	b	.L80
.L92:
	.align	2
.L91:
	.word	utility_stubs
	.word	stdio_printf_stubs
	.word	.LC1
	.cfi_endproc
.LFE326:
	.size	hal_flash_unset_quad_enable, .-hal_flash_unset_quad_enable
	.section	.text.hal_flash_enable_qpi,"ax",%progbits
	.align	1
	.global	hal_flash_enable_qpi
	.syntax unified
	.thumb
	.thumb_func
	.fpu softvfp
	.type	hal_flash_enable_qpi, %function
hal_flash_enable_qpi:
.LFB327:
	.loc 1 562 0
	.cfi_startproc
	@ args = 0, pretend = 0, frame = 0
	@ frame_needed = 0, uses_anonymous_args = 0
	@ link register save eliminated.
.LVL74:
	.loc 1 563 0
	ldr	r3, .L94
	ldr	r3, [r3, #96]
	bx	r3	@ indirect register sibling call
.LVL75:
.L95:
	.align	2
.L94:
	.word	hal_flash_stubs
	.cfi_endproc
.LFE327:
	.size	hal_flash_enable_qpi, .-hal_flash_enable_qpi
	.section	.text.hal_flash_return_spi,"ax",%progbits
	.align	1
	.global	hal_flash_return_spi
	.syntax unified
	.thumb
	.thumb_func
	.fpu softvfp
	.type	hal_flash_return_spi, %function
hal_flash_return_spi:
.LFB328:
	.loc 1 579 0
	.cfi_startproc
	@ args = 0, pretend = 0, frame = 8
	@ frame_needed = 0, uses_anonymous_args = 0
.LVL76:
	push	{r0, r1, r2, r4, r5, r6, r7, r8, r9, lr}
	.cfi_def_cfa_offset 40
	.cfi_offset 4, -28
	.cfi_offset 5, -24
	.cfi_offset 6, -20
	.cfi_offset 7, -16
	.cfi_offset 8, -12
	.cfi_offset 9, -8
	.cfi_offset 14, -4
	.loc 1 579 0
	mov	r4, r0
	.loc 1 580 0
	ldr	r8, [r0, #88]
.LVL77:
	.loc 1 584 0
	ldr	r7, [r0, #12]
.LVL78:
	.loc 1 585 0
	ldrb	r6, [r0, #156]	@ zero_extendqisi2
.LVL79:
	.loc 1 586 0
	ldrb	r9, [r0, #155]	@ zero_extendqisi2
.LVL80:
	.loc 1 587 0
	bl	spic_query_system_clk
.LVL81:
	.loc 1 589 0
	adds	r5, r0, #4
	add	r5, r4, r5, lsl #2
	ldrb	r3, [r5, #3]	@ zero_extendqisi2
	cbnz	r3, .L98
	.loc 1 592 0
	add	r0, sp, #4
.LVL82:
	bl	spic_load_default_setting
.LVL83:
	.loc 1 583 0
	add	r5, sp, #4
.LVL84:
.L98:
.LBB14:
.LBB15:
	.file 2 "../../../component/soc/realtek/8710c/fwlib/include/rtl8710c_spic.h"
	.loc 2 232 0
	movs	r3, #0
.LBE15:
.LBE14:
	.loc 1 599 0
	cmp	r6, #2
.LBB17:
.LBB16:
	.loc 2 232 0
	str	r3, [r7, #8]
.LVL85:
.LBE16:
.LBE17:
	.loc 1 599 0
	bne	.L99
	.loc 1 600 0
	ldrb	r1, [r8, #27]	@ zero_extendqisi2
	mov	r2, r3
	mov	r0, r4
	bl	spic_tx_cmd_no_check
.LVL86:
.L99:
	.loc 1 603 0
	movs	r6, #0
.LVL87:
	.loc 1 607 0
	mov	r0, r4
	.loc 1 603 0
	strb	r6, [r4, #156]
	.loc 1 604 0
	strb	r6, [r4, #157]
	.loc 1 605 0
	strb	r6, [r4, #158]
	.loc 1 606 0
	strb	r6, [r4, #159]
	.loc 1 607 0
	bl	spic_set_chnl_num
.LVL88:
	.loc 1 610 0
	sub	r9, r9, #4
.LVL89:
	.loc 1 608 0
	mov	r0, r4
	bl	hal_flash_wait_ready
.LVL90:
	.loc 1 610 0
	cmp	r9, #1
	bhi	.L100
	.loc 1 611 0
	mov	r0, r4
	bl	hal_flash_unset_quad_enable
.LVL91:
.L100:
	.loc 1 616 0
	mov	r3, #512
.LVL92:
	.loc 1 622 0
	movs	r2, #3
.LVL93:
	.loc 1 617 0
	str	r3, [r7, #288]
	.loc 1 620 0
	strb	r6, [r4, #155]
	.loc 1 621 0
	ldrb	r3, [r8, #15]	@ zero_extendqisi2
.LVL94:
	.loc 1 622 0
	strb	r2, [r4, #154]
	.loc 1 621 0
	strb	r3, [r4, #146]
	.loc 1 623 0
	ldr	r3, [r7, #284]
	orr	r3, r3, #196608
	str	r3, [r7, #284]
	.loc 1 624 0
	ldrb	r3, [r7, #280]	@ zero_extendqisi2
	bfi	r3, r2, #0, #3
	strb	r3, [r7, #280]
.LVL95:
.LBB18:
.LBB19:
	.loc 2 296 0
	ldrb	r2, [r5, #1]	@ zero_extendqisi2
	ldr	r3, [r7, #284]
	bfi	r3, r2, #0, #12
	str	r3, [r7, #284]
.LVL96:
.LBE19:
.LBE18:
.LBB20:
.LBB21:
	.loc 2 264 0
	ldrb	r2, [r5]	@ zero_extendqisi2
	ldrh	r3, [r7, #20]
	bfi	r3, r2, #0, #12
	strh	r3, [r7, #20]	@ movhi
.LVL97:
.LBE21:
.LBE20:
	.loc 1 628 0
	add	sp, sp, #12
	.cfi_def_cfa_offset 28
	@ sp needed
	pop	{r4, r5, r6, r7, r8, r9, pc}
	.cfi_endproc
.LFE328:
	.size	hal_flash_return_spi, .-hal_flash_return_spi
	.section	.text.hal_flash_enter_power_down,"ax",%progbits
	.align	1
	.global	hal_flash_enter_power_down
	.syntax unified
	.thumb
	.thumb_func
	.fpu softvfp
	.type	hal_flash_enter_power_down, %function
hal_flash_enter_power_down:
.LFB329:
	.loc 1 641 0
	.cfi_startproc
	@ args = 0, pretend = 0, frame = 0
	@ frame_needed = 0, uses_anonymous_args = 0
	@ link register save eliminated.
.LVL98:
	.loc 1 642 0
	ldr	r3, .L102
	ldr	r3, [r3, #108]
	bx	r3
.LVL99:
.L103:
	.align	2
.L102:
	.word	hal_flash_stubs
	.cfi_endproc
.LFE329:
	.size	hal_flash_enter_power_down, .-hal_flash_enter_power_down
	.section	.text.hal_flash_release_from_power_down,"ax",%progbits
	.align	1
	.global	hal_flash_release_from_power_down
	.syntax unified
	.thumb
	.thumb_func
	.fpu softvfp
	.type	hal_flash_release_from_power_down, %function
hal_flash_release_from_power_down:
.LFB330:
	.loc 1 656 0
	.cfi_startproc
	@ args = 0, pretend = 0, frame = 0
	@ frame_needed = 0, uses_anonymous_args = 0
	@ link register save eliminated.
.LVL100:
	.loc 1 657 0
	ldr	r3, .L105
	ldr	r3, [r3, #112]
	bx	r3
.LVL101:
.L106:
	.align	2
.L105:
	.word	hal_flash_stubs
	.cfi_endproc
.LFE330:
	.size	hal_flash_release_from_power_down, .-hal_flash_release_from_power_down
	.section	.text.hal_flash_stream_read,"ax",%progbits
	.align	1
	.global	hal_flash_stream_read
	.syntax unified
	.thumb
	.thumb_func
	.fpu softvfp
	.type	hal_flash_stream_read, %function
hal_flash_stream_read:
.LFB331:
	.loc 1 672 0
	.cfi_startproc
	@ args = 0, pretend = 0, frame = 0
	@ frame_needed = 0, uses_anonymous_args = 0
	@ link register save eliminated.
.LVL102:
	push	{r4}
	.cfi_def_cfa_offset 4
	.cfi_offset 4, -4
	.loc 1 673 0
	ldr	r4, .L108
	ldr	r4, [r4, #116]
	mov	ip, r4
	.loc 1 674 0
	pop	{r4}
	.cfi_restore 4
	.cfi_def_cfa_offset 0
	.loc 1 673 0
	bx	ip	@ indirect register sibling call
.LVL103:
.L109:
	.align	2
.L108:
	.word	hal_flash_stubs
	.cfi_endproc
.LFE331:
	.size	hal_flash_stream_read, .-hal_flash_stream_read
	.section	.text.hal_flash_stream_write,"ax",%progbits
	.align	1
	.global	hal_flash_stream_write
	.syntax unified
	.thumb
	.thumb_func
	.fpu softvfp
	.type	hal_flash_stream_write, %function
hal_flash_stream_write:
.LFB332:
	.loc 1 688 0
	.cfi_startproc
	@ args = 0, pretend = 0, frame = 0
	@ frame_needed = 0, uses_anonymous_args = 0
	@ link register save eliminated.
.LVL104:
	push	{r4}
	.cfi_def_cfa_offset 4
	.cfi_offset 4, -4
	.loc 1 689 0
	ldr	r4, .L111
	ldr	r4, [r4, #120]
	mov	ip, r4
	.loc 1 690 0
	pop	{r4}
	.cfi_restore 4
	.cfi_def_cfa_offset 0
	.loc 1 689 0
	bx	ip	@ indirect register sibling call
.LVL105:
.L112:
	.align	2
.L111:
	.word	hal_flash_stubs
	.cfi_endproc
.LFE332:
	.size	hal_flash_stream_write, .-hal_flash_stream_write
	.section	.text.hal_flash_burst_read,"ax",%progbits
	.align	1
	.global	hal_flash_burst_read
	.syntax unified
	.thumb
	.thumb_func
	.fpu softvfp
	.type	hal_flash_burst_read, %function
hal_flash_burst_read:
.LFB333:
	.loc 1 704 0
	.cfi_startproc
	@ args = 0, pretend = 0, frame = 0
	@ frame_needed = 0, uses_anonymous_args = 0
	@ link register save eliminated.
.LVL106:
	push	{r4}
	.cfi_def_cfa_offset 4
	.cfi_offset 4, -4
	.loc 1 705 0
	ldr	r4, .L114
	ldr	r4, [r4, #124]
	mov	ip, r4
	.loc 1 706 0
	pop	{r4}
	.cfi_restore 4
	.cfi_def_cfa_offset 0
	.loc 1 705 0
	bx	ip	@ indirect register sibling call
.LVL107:
.L115:
	.align	2
.L114:
	.word	hal_flash_stubs
	.cfi_endproc
.LFE333:
	.size	hal_flash_burst_read, .-hal_flash_burst_read
	.section	.text.hal_flash_page_program,"ax",%progbits
	.align	1
	.global	hal_flash_page_program
	.syntax unified
	.thumb
	.thumb_func
	.fpu softvfp
	.type	hal_flash_page_program, %function
hal_flash_page_program:
.LFB335:
	.loc 1 791 0
	.cfi_startproc
	@ args = 0, pretend = 0, frame = 0
	@ frame_needed = 0, uses_anonymous_args = 0
	@ link register save eliminated.
.LVL108:
	push	{r4}
	.cfi_def_cfa_offset 4
	.cfi_offset 4, -4
	.loc 1 792 0
	ldr	r4, .L117
	ldr	r4, [r4, #132]
	mov	ip, r4
	.loc 1 793 0
	pop	{r4}
	.cfi_restore 4
	.cfi_def_cfa_offset 0
	.loc 1 792 0
	bx	ip	@ indirect register sibling call
.LVL109:
.L118:
	.align	2
.L117:
	.word	hal_flash_stubs
	.cfi_endproc
.LFE335:
	.size	hal_flash_page_program, .-hal_flash_page_program
	.section	.text.hal_flash_read_write_flash,"ax",%progbits
	.align	1
	.global	hal_flash_read_write_flash
	.syntax unified
	.thumb
	.thumb_func
	.fpu softvfp
	.type	hal_flash_read_write_flash, %function
hal_flash_read_write_flash:
.LFB336:
	.loc 1 808 0
	.cfi_startproc
	@ args = 0, pretend = 0, frame = 256
	@ frame_needed = 0, uses_anonymous_args = 0
.LVL110:
	push	{r4, r5, r6, r7, r8, r9, r10, fp, lr}
	.cfi_def_cfa_offset 36
	.cfi_offset 4, -36
	.cfi_offset 5, -32
	.cfi_offset 6, -28
	.cfi_offset 7, -24
	.cfi_offset 8, -20
	.cfi_offset 9, -16
	.cfi_offset 10, -12
	.cfi_offset 11, -8
	.cfi_offset 14, -4
	mov	r9, r2
	mov	r6, r0
	sub	sp, sp, #260
	.cfi_def_cfa_offset 296
	.loc 1 808 0
	mov	r2, r3
.LVL111:
	.loc 1 809 0
	ldr	r4, [r0, #12]
.LVL112:
	.loc 1 823 0
	mov	r3, sp
.LVL113:
	.loc 1 808 0
	mov	r5, r1
	.loc 1 810 0
	ldr	fp, [r0, #88]
.LVL114:
	.loc 1 823 0
	bl	hal_flash_stream_read
.LVL115:
	.loc 1 834 0
	ands	r3, r9, #255
	.loc 1 825 0
	ldrb	r10, [r6, #154]	@ zero_extendqisi2
.LVL116:
	.loc 1 826 0
	ldrb	r8, [r6, #156]	@ zero_extendqisi2
.LVL117:
	.loc 1 832 0
	ldr	r7, [r4]
.LVL118:
	.loc 1 834 0
	beq	.L120
	.loc 1 835 0
	cmp	r5, #255
	bhi	.L121
	.loc 1 836 0
	adds	r2, r5, r3
	cmp	r2, #255
	bls	.L122
.L121:
	.loc 1 837 0
	rsb	r5, r3, #256
.LVL119:
.L122:
	.loc 1 850 0
	mov	r0, r6
	bl	hal_flash_set_write_enable
.LVL120:
.LBB22:
.LBB23:
	.loc 2 232 0
	movs	r2, #0
	str	r2, [r4, #8]
.LVL121:
.LBE23:
.LBE22:
	.loc 1 855 0
	ldrh	r3, [r4, #288]
	.loc 1 862 0
	cmp	r10, #3
	.loc 1 855 0
	bfi	r3, r2, #11, #1
	strh	r3, [r4, #288]	@ movhi
.LVL122:
	.loc 1 858 0
	lsr	r2, r9, #16
.LVL123:
	.loc 1 859 0
	lsr	r3, r9, #8
.LVL124:
	.loc 1 862 0
	bne	.L123
	.loc 1 863 0
	lsls	r2, r2, #8
.LVL125:
	lsls	r3, r3, #16
.LVL126:
	uxth	r2, r2
	and	r3, r3, #16711680
	ldrb	r1, [fp, #23]	@ zero_extendqisi2
	orrs	r2, r2, r3
	orr	r2, r2, r9, lsl #24
	orrs	r2, r2, r1
.LVL127:
.L141:
	.loc 1 868 0
	str	r2, [r4, #96]
	.loc 1 875 0
	ldrb	r3, [r4, #280]	@ zero_extendqisi2
	.loc 1 872 0
	bfc	r7, #8, #2
	.loc 1 875 0
	bfi	r3, r10, #0, #3
	strb	r3, [r4, #280]
	.loc 1 878 0
	cmp	r8, #0
	beq	.L127
	cmp	r8, #2
	beq	.L127
	.loc 1 892 0
	ldr	r3, .L142
	ldr	r3, [r3]
	ldr	r3, [r3]
	lsls	r3, r3, #23
	bpl	.L128
	.loc 1 892 0 is_stmt 0 discriminator 1
	ldr	r3, .L142+4
	ldr	r0, .L142+8
	ldr	r3, [r3, #28]
	blx	r3
.LVL128:
	b	.L128
.LVL129:
.L120:
	cmp	r5, #256
	it	cs
	movcs	r5, #256
.LVL130:
	b	.L122
.LVL131:
.L123:
	.loc 1 866 0 is_stmt 1
	ldrb	r3, [fp, #23]	@ zero_extendqisi2
.LVL132:
	rev	r2, r9
.LVL133:
	uxtb	r3, r3
	strb	r3, [r4, #96]
	b	.L141
.LVL134:
.L127:
	.loc 1 886 0
	bfi	r7, r8, #20, #2
	.loc 1 887 0
	bfi	r7, r8, #16, #2
	.loc 1 888 0
	bfi	r7, r8, #18, #2
.LVL135:
.L128:
	.loc 1 895 0
	str	r7, [r4]
	.loc 1 898 0
	ldrh	r3, [r4, #272]
	sub	r2, r5, #56
	orr	r3, r3, #8
	strh	r3, [r4, #272]	@ movhi
.LVL136:
	mov	r3, sp
.LVL137:
.L129:
	.loc 1 903 0
	cmp	r5, #4
	bls	.L130
	.loc 1 904 0
	ldr	r1, [r3], #4
.LVL138:
	.loc 1 905 0
	subs	r5, r5, #4
.LVL139:
	.loc 1 909 0
	cmp	r2, r5
	.loc 1 904 0
	str	r1, [r4, #96]
	.loc 1 909 0
	bne	.L129
.LVL140:
.L130:
.LBB24:
.LBB25:
	.loc 2 218 0
	movs	r2, #1
	mov	r1, r3
	str	r2, [r4, #8]
.LVL141:
.L132:
	subs	r2, r5, r1
	add	r2, r2, r3
.LBE25:
.LBE24:
	.loc 1 917 0
	cmp	r2, #3
	bhi	.L133
	bic	r2, r5, #3
	add	r3, r3, r2
.LVL142:
	and	r5, r5, #3
	add	r5, r5, r3
.LVL143:
.L134:
	.loc 1 923 0
	cmp	r3, r5
	bne	.L135
	.loc 1 930 0
	mov	r0, r4
	bl	spic_wait_ready
.LVL144:
	.loc 1 933 0
	mov	r0, r6
	bl	hal_flash_wait_ready
.LVL145:
.LBB26:
.LBB27:
	.loc 2 232 0
	movs	r2, #0
	str	r2, [r4, #8]
.LVL146:
.LBE27:
.LBE26:
	.loc 1 938 0
	ldrh	r3, [r4, #272]
	bfi	r3, r2, #3, #1
	strh	r3, [r4, #272]	@ movhi
	.loc 1 940 0
	ldrh	r3, [r4, #288]
	orr	r3, r3, #2048
	strh	r3, [r4, #288]	@ movhi
	.loc 1 941 0
	add	sp, sp, #260
	.cfi_remember_state
	.cfi_def_cfa_offset 36
	@ sp needed
	pop	{r4, r5, r6, r7, r8, r9, r10, fp, pc}
.LVL147:
.L133:
	.cfi_restore_state
	.loc 1 918 0
	ldr	r2, [r1], #4
.LVL148:
	str	r2, [r4, #96]
.LVL149:
	b	.L132
.LVL150:
.L135:
	.loc 1 924 0
	ldrb	r2, [r3], #1	@ zero_extendqisi2
.LVL151:
	strb	r2, [r4, #96]
.LVL152:
	b	.L134
.L143:
	.align	2
.L142:
	.word	utility_stubs
	.word	stdio_printf_stubs
	.word	.LC2
	.cfi_endproc
.LFE336:
	.size	hal_flash_read_write_flash, .-hal_flash_read_write_flash
	.section	.text.hal_flash_burst_write,"ax",%progbits
	.align	1
	.global	hal_flash_burst_write
	.syntax unified
	.thumb
	.thumb_func
	.fpu softvfp
	.type	hal_flash_burst_write, %function
hal_flash_burst_write:
.LFB334:
	.loc 1 720 0
	.cfi_startproc
	@ args = 0, pretend = 0, frame = 8
	@ frame_needed = 0, uses_anonymous_args = 0
.LVL153:
	push	{r0, r1, r2, r4, r5, r6, r7, r8, r9, r10, fp, lr}
	.cfi_def_cfa_offset 48
	.cfi_offset 4, -36
	.cfi_offset 5, -32
	.cfi_offset 6, -28
	.cfi_offset 7, -24
	.cfi_offset 8, -20
	.cfi_offset 9, -16
	.cfi_offset 10, -12
	.cfi_offset 11, -8
	.cfi_offset 14, -4
	.loc 1 720 0
	mov	r6, r2
	.loc 1 727 0
	lsrs	r2, r3, #24
.LVL154:
	cmp	r2, #155
	.loc 1 720 0
	mov	r8, r0
	mov	r5, r1
	.loc 1 727 0
	bne	.L145
	.loc 1 728 0
	mov	r0, r3
.LVL155:
	mov	r2, sp
	add	r1, sp, #4
.LVL156:
	bl	hal_xip_get_phy_addr
.LVL157:
	.loc 1 730 0
	ldr	r3, [sp]
	cbz	r3, .L146
	.loc 1 731 0
	ldr	r3, .L165
	ldr	r3, [r3]
	ldr	r3, [r3]
	lsls	r3, r3, #23
	bpl	.L144
	.loc 1 731 0 is_stmt 0 discriminator 1
	ldr	r3, .L165+4
	ldr	r0, .L165+8
	ldr	r3, [r3, #28]
	blx	r3
.LVL158:
.L144:
	.loc 1 774 0 is_stmt 1
	add	sp, sp, #12
	.cfi_remember_state
	.cfi_def_cfa_offset 36
	@ sp needed
	pop	{r4, r5, r6, r7, r8, r9, r10, fp, pc}
.LVL159:
.L146:
	.cfi_restore_state
	.loc 1 734 0
	ldr	r3, [sp, #4]
.LVL160:
.L145:
	.loc 1 738 0
	lsrs	r2, r3, #24
	cmp	r2, #152
	bne	.L149
	.loc 1 743 0
	cmp	r5, #255
	.loc 1 739 0
	bic	r4, r3, #-16777216
.LVL161:
	.loc 1 741 0
	uxtb	r3, r6
.LVL162:
	.loc 1 743 0
	bhi	.L150
	.loc 1 744 0
	adds	r2, r3, r5
	cmp	r2, #255
	bls	.L158
.L150:
	.loc 1 745 0
	rsb	r7, r3, #256
.LVL163:
.L151:
	mvn	r9, #255
.LVL164:
.L152:
	.loc 1 750 0
	cmp	r5, #0
	beq	.L144
	.loc 1 751 0
	cbnz	r3, .L153
	mov	r10, r4
	sub	fp, r6, r4
.LVL165:
.L154:
	sub	r3, r5, r10
	add	r3, r3, r4
	.loc 1 758 0
	cmp	r3, #255
	add	r2, r10, fp
.LVL166:
	bhi	.L156
	lsrs	r1, r5, #8
	mla	r1, r9, r1, r5
	bic	r5, r5, #255
.LVL167:
	add	r6, r6, r5
	add	r4, r4, r5
	.loc 1 765 0
	cbz	r1, .L155
	.loc 1 766 0
	mov	r3, r4
	mov	r2, r6
.LVL168:
	mov	r0, r8
	bl	hal_flash_read_write_flash
.LVL169:
	.loc 1 767 0
	b	.L144
.LVL170:
.L158:
	mov	r7, r5
	b	.L151
.L153:
	.loc 1 752 0
	mov	r3, r4
.LVL171:
	mov	r2, r6
	mov	r1, r7
	mov	r0, r8
	bl	hal_flash_read_write_flash
.LVL172:
	.loc 1 753 0
	add	r6, r6, r7
.LVL173:
	.loc 1 754 0
	add	r4, r4, r7
.LVL174:
	.loc 1 755 0
	subs	r1, r5, r7
.LVL175:
.L155:
	movs	r3, #0
	mov	r5, r1
	b	.L152
.LVL176:
.L156:
	.loc 1 759 0
	mov	r3, r10
	mov	r1, #256
	mov	r0, r8
	bl	hal_flash_read_write_flash
.LVL177:
	.loc 1 761 0
	add	r10, r10, #256
.LVL178:
	b	.L154
.LVL179:
.L149:
	.loc 1 772 0
	ldr	r4, .L165+12
	mov	r2, r6
	mov	r1, r5
	mov	r0, r8
	ldr	r4, [r4, #128]
	blx	r4
.LVL180:
	b	.L144
.L166:
	.align	2
.L165:
	.word	utility_stubs
	.word	stdio_printf_stubs
	.word	.LC3
	.word	hal_flash_stubs
	.cfi_endproc
.LFE334:
	.size	hal_flash_burst_write, .-hal_flash_burst_write
	.section	.text.hal_flash_reset_to_spi,"ax",%progbits
	.align	1
	.global	hal_flash_reset_to_spi
	.syntax unified
	.thumb
	.thumb_func
	.fpu softvfp
	.type	hal_flash_reset_to_spi, %function
hal_flash_reset_to_spi:
.LFB337:
	.loc 1 958 0
	.cfi_startproc
	@ args = 0, pretend = 0, frame = 0
	@ frame_needed = 0, uses_anonymous_args = 0
	@ link register save eliminated.
.LVL181:
	.loc 1 959 0
	ldr	r3, .L168
	ldr	r3, [r3, #136]
	bx	r3	@ indirect register sibling call
.LVL182:
.L169:
	.align	2
.L168:
	.word	hal_flash_stubs
	.cfi_endproc
.LFE337:
	.size	hal_flash_reset_to_spi, .-hal_flash_reset_to_spi
	.section	.text.hal_flash_support_new_type,"ax",%progbits
	.align	1
	.global	hal_flash_support_new_type
	.syntax unified
	.thumb
	.thumb_func
	.fpu softvfp
	.type	hal_flash_support_new_type, %function
hal_flash_support_new_type:
.LFB338:
	.loc 1 971 0
	.cfi_startproc
	@ args = 0, pretend = 0, frame = 0
	@ frame_needed = 0, uses_anonymous_args = 0
	@ link register save eliminated.
.LVL183:
	.loc 1 974 0
	ldrb	r3, [r0, #149]	@ zero_extendqisi2
	cmp	r3, #70
	beq	.L172
	bhi	.L173
	cmp	r3, #11
	beq	.L174
	cmp	r3, #28
	beq	.L175
	bx	lr
.L173:
	cmp	r3, #104
	beq	.L176
	cmp	r3, #200
	bne	.L170
	.loc 1 976 0
	ldr	r3, .L180
	str	r3, [r0, #88]
	.loc 1 977 0
	ldrb	r3, [r0, #151]	@ zero_extendqisi2
	cmp	r3, #21
	.loc 1 978 0
	ite	hi
	movhi	r3, #5
	.loc 1 980 0
	movls	r3, #4
.L179:
	.loc 1 1000 0
	strb	r3, [r0, #152]
.L170:
	bx	lr
.L174:
	.loc 1 985 0
	ldr	r3, .L180
	str	r3, [r0, #88]
	.loc 1 986 0
	movs	r3, #6
	b	.L179
.L176:
	.loc 1 990 0
	ldr	r3, .L180
	str	r3, [r0, #88]
	.loc 1 991 0
	movs	r3, #8
	b	.L179
.L172:
	.loc 1 995 0
	ldr	r3, .L180
	str	r3, [r0, #88]
	.loc 1 996 0
	movs	r3, #9
	b	.L179
.L175:
	.loc 1 1000 0
	movs	r3, #7
	b	.L179
.L181:
	.align	2
.L180:
	.word	.LANCHOR0
	.cfi_endproc
.LFE338:
	.size	hal_flash_support_new_type, .-hal_flash_support_new_type
	.global	new_flash_cmd
	.section	.data.new_flash_cmd,"aw",%progbits
	.set	.LANCHOR0,. + 0
	.type	new_flash_cmd, %object
	.size	new_flash_cmd, 37
new_flash_cmd:
	.byte	6
	.byte	4
	.byte	5
	.byte	1
	.byte	53
	.byte	49
	.byte	21
	.byte	17
	.byte	-56
	.byte	-59
	.byte	32
	.byte	82
	.byte	-40
	.byte	-57
	.byte	-97
	.byte	3
	.byte	11
	.byte	59
	.byte	-69
	.byte	-67
	.byte	107
	.byte	-21
	.byte	-19
	.byte	2
	.byte	-71
	.byte	0
	.byte	-85
	.byte	-1
	.byte	56
	.byte	54
	.byte	57
	.byte	126
	.byte	-104
	.byte	61
	.byte	102
	.byte	-103
	.byte	0
	.section	.rodata.hal_flash_burst_write.str1.1,"aMS",%progbits,1
.LC3:
	.ascii	"\015[SPIF Err]Source address should not be on the e"
	.ascii	"ncryted remapping region!\015\012\000"
	.section	.rodata.hal_flash_read_write_flash.str1.1,"aMS",%progbits,1
.LC2:
	.ascii	"\015[SPIF Err]Wrong IO Mode to program!\012\000"
	.section	.rodata.hal_flash_set_quad_enable.str1.1,"aMS",%progbits,1
.LC0:
	.ascii	"\015[SPIF Err]Unknown flash type, cannot set QE bit"
	.ascii	"!\012\000"
	.section	.rodata.hal_flash_unset_quad_enable.str1.1,"aMS",%progbits,1
.LC1:
	.ascii	"\015[SPIF Err]Unknown flash type, cannot reset QE b"
	.ascii	"it!\012\000"
	.text
.Letext0:
	.file 3 "/home/ls/8720cf/sdk-ameba-v7.1d/tools/arm-none-eabi-gcc/asdk/linux/newlib/arm-none-eabi/include/machine/_default_types.h"
	.file 4 "/home/ls/8720cf/sdk-ameba-v7.1d/tools/arm-none-eabi-gcc/asdk/linux/newlib/lib/gcc/arm-none-eabi/6.5.0/include/stddef.h"
	.file 5 "/home/ls/8720cf/sdk-ameba-v7.1d/tools/arm-none-eabi-gcc/asdk/linux/newlib/arm-none-eabi/include/sys/lock.h"
	.file 6 "/home/ls/8720cf/sdk-ameba-v7.1d/tools/arm-none-eabi-gcc/asdk/linux/newlib/arm-none-eabi/include/sys/_types.h"
	.file 7 "/home/ls/8720cf/sdk-ameba-v7.1d/tools/arm-none-eabi-gcc/asdk/linux/newlib/arm-none-eabi/include/sys/reent.h"
	.file 8 "<built-in>"
	.file 9 "/home/ls/8720cf/sdk-ameba-v7.1d/tools/arm-none-eabi-gcc/asdk/linux/newlib/arm-none-eabi/include/sys/_stdint.h"
	.file 10 "/home/ls/8720cf/sdk-ameba-v7.1d/tools/arm-none-eabi-gcc/asdk/linux/newlib/arm-none-eabi/include/time.h"
	.file 11 "../../../component/soc/realtek/8710c/cmsis/rtl8710c/include/basic_types.h"
	.file 12 "../../../component/soc/realtek/8710c/cmsis/cmsis-core/include/core_armv8mml.h"
	.file 13 "../../../component/soc/realtek/8710c/cmsis/rtl8710c/include/system_rtl8710c.h"
	.file 14 "../../../component/soc/realtek/8710c/cmsis/rtl8710c/include/rtl8710c.h"
	.file 15 "../../../component/soc/realtek/8710c/fwlib/include/hal_api.h"
	.file 16 "/home/ls/8720cf/sdk-ameba-v7.1d/tools/arm-none-eabi-gcc/asdk/linux/newlib/lib/gcc/arm-none-eabi/6.5.0/include/stdarg.h"
	.file 17 "../../../component/soc/realtek/8710c/app/rtl_printf/include/log_buf.h"
	.file 18 "../../../component/soc/realtek/8710c/app/stdio_port/stdio_port.h"
	.file 19 "../../../component/soc/realtek/8710c/app/rtl_printf/include/printf_entry.h"
	.file 20 "../../../component/soc/realtek/8710c/app/rtl_printf/include/rt_printf.h"
	.file 21 "../../../component/soc/realtek/8710c/misc/utilities/include/utility.h"
	.file 22 "../../../component/soc/realtek/8710c/cmsis/rtl8710c/include/rtl8710c_irq.h"
	.file 23 "../../../component/soc/realtek/8710c/fwlib/include/rtl8710c_pin_name.h"
	.file 24 "../../../component/soc/realtek/8710c/fwlib/include/rtl8710c_peri_id.h"
	.file 25 "../../../component/soc/realtek/8710c/fwlib/include/rtl8710c_uart.h"
	.file 26 "../../../component/soc/realtek/8710c/fwlib/include/rtl8710c_timer.h"
	.file 27 "../../../component/soc/realtek/8710c/fwlib/include/rtl8710c_pwm.h"
	.file 28 "../../../component/soc/realtek/8710c/fwlib/include/rtl8710c_flash.h"
	.file 29 "../../../component/soc/realtek/8710c/fwlib/include/rtl8710c_sce.h"
	.file 30 "../../../component/soc/realtek/8710c/fwlib/include/rtl8710c_spic_type.h"
	.file 31 "../../../component/soc/realtek/8710c/fwlib/include/hal_sce.h"
	.file 32 "../../../component/soc/realtek/8710c/fwlib/include/hal_spic.h"