	.arch armv8-m.main
	.arch_extension dsp
	.eabi_attribute 20, 1
	.eabi_attribute 21, 1
	.eabi_attribute 23, 3
	.eabi_attribute 24, 1
	.eabi_attribute 25, 1
	.eabi_attribute 26, 1
	.eabi_attribute 30, 4
	.eabi_attribute 34, 1
	.eabi_attribute 18, 4
	.file	"hci_process.c"
	.text
.Ltext0:
	.cfi_sections	.debug_frame
	.section	.text.freq_cmp,"ax",%progbits
	.align	1
	.syntax unified
	.thumb
	.thumb_func
	.fpu softvfp
	.type	freq_cmp, %function
freq_cmp:
.LFB565:
	.file 1 "../../../component/common/bluetooth/realtek/sdk/board/common/src/hci_process.c"
	.loc 1 158 0
	.cfi_startproc
	@ args = 0, pretend = 0, frame = 0
	@ frame_needed = 0, uses_anonymous_args = 0
	@ link register save eliminated.
.LVL0:
	.loc 1 159 0
	ldr	r0, [r0]
.LVL1:
	.loc 1 160 0
	ldr	r3, [r1]
.LVL2:
	.loc 1 162 0
	cbz	r0, .L3
	.loc 1 164 0
	cbz	r3, .L4
	.loc 1 166 0
	subs	r0, r0, r3
.LVL3:
	bx	lr
.LVL4:
.L3:
	.loc 1 163 0
	movs	r0, #1
.LVL5:
	bx	lr
.LVL6:
.L4:
	.loc 1 165 0
	mov	r0, #-1
.LVL7:
	.loc 1 167 0
	bx	lr
	.cfi_endproc
.LFE565:
	.size	freq_cmp, .-freq_cmp
	.section	.text.hci_tp_read_local_ver,"ax",%progbits
	.align	1
	.global	hci_tp_read_local_ver
	.syntax unified
	.thumb
	.thumb_func
	.fpu softvfp
	.type	hci_tp_read_local_ver, %function
hci_tp_read_local_ver:
.LFB560:
	.loc 1 35 0
	.cfi_startproc
	@ args = 0, pretend = 0, frame = 0
	@ frame_needed = 0, uses_anonymous_args = 0
	push	{r4, lr}
	.cfi_def_cfa_offset 8
	.cfi_offset 4, -8
	.cfi_offset 14, -4
.LBB7:
	.loc 1 39 0
	movs	r2, #0
	ldr	r1, .L8
	ldr	r0, .L8+4
	bl	trace_log_buffer
.LVL8:
.LBE7:
	.loc 1 41 0
	bl	hci_normal_start
.LVL9:
	.loc 1 42 0
	movs	r3, #42
	ldr	r2, .L8+8
	movs	r1, #4
	movs	r0, #0
	bl	os_mem_zalloc_intern
.LVL10:
	.loc 1 43 0
	cbz	r0, .L7
.LVL11:
	.loc 1 46 0
	movs	r2, #1
	.loc 1 48 0
	movs	r4, #0
	.loc 1 46 0
	strb	r2, [r0]
.LVL12:
	.loc 1 47 0
	strb	r2, [r0, #1]
.LVL13:
	movs	r2, #16
	.loc 1 48 0
	strb	r4, [r0, #3]
	.loc 1 47 0
	strb	r2, [r0, #2]
.LVL14:
	.loc 1 50 0
	movs	r1, #4
	bl	hci_adapter_send
.LVL15:
	.loc 1 52 0
	mov	r0, r4
	pop	{r4, pc}
.LVL16:
.L7:
	.loc 1 56 0
	movs	r0, #2
.LVL17:
	.loc 1 58 0
	pop	{r4, pc}
.L9:
	.align	2
.L8:
	.word	.LANCHOR0
	.word	1058028547
	.word	.LANCHOR1
	.cfi_endproc
.LFE560:
	.size	hci_tp_read_local_ver, .-hci_tp_read_local_ver
	.section	.text.hci_tp_read_rom_ver,"ax",%progbits
	.align	1
	.global	hci_tp_read_rom_ver
	.syntax unified
	.thumb
	.thumb_func
	.fpu softvfp
	.type	hci_tp_read_rom_ver, %function
hci_tp_read_rom_ver:
.LFB562:
	.loc 1 81 0
	.cfi_startproc
	@ args = 0, pretend = 0, frame = 0
	@ frame_needed = 0, uses_anonymous_args = 0
	push	{r4, lr}
	.cfi_def_cfa_offset 8
	.cfi_offset 4, -8
	.cfi_offset 14, -4
.LBB8:
	.loc 1 85 0
	movs	r2, #0
	ldr	r1, .L13
	ldr	r0, .L13+4
	bl	trace_log_buffer
.LVL18:
.LBE8:
	.loc 1 87 0
	movs	r3, #87
	ldr	r2, .L13+8
	movs	r1, #4
	movs	r0, #0
	bl	os_mem_zalloc_intern
.LVL19:
	.loc 1 88 0
	cbz	r0, .L12
.LVL20:
	.loc 1 91 0
	movs	r2, #1
	strb	r2, [r0]
.LVL21:
	.loc 1 92 0
	movs	r2, #109
	.loc 1 93 0
	movs	r4, #0
	.loc 1 92 0
	strb	r2, [r0, #1]
.LVL22:
	movs	r2, #252
	.loc 1 93 0
	strb	r4, [r0, #3]
	.loc 1 92 0
	strb	r2, [r0, #2]
.LVL23:
	.loc 1 95 0
	movs	r1, #4
	bl	hci_adapter_send
.LVL24:
	.loc 1 101 0
	mov	r0, r4
	pop	{r4, pc}
.LVL25:
.L12:
	.loc 1 99 0
	movs	r0, #2
.LVL26:
	.loc 1 102 0
	pop	{r4, pc}
.L14:
	.align	2
.L13:
	.word	.LANCHOR0+24
	.word	1058028547
	.word	.LANCHOR2
	.cfi_endproc
.LFE562:
	.size	hci_tp_read_rom_ver, .-hci_tp_read_rom_ver
	.section	.text.hci_tp_hci_reset,"ax",%progbits
	.align	1
	.global	hci_tp_hci_reset
	.syntax unified
	.thumb
	.thumb_func
	.fpu softvfp
	.type	hci_tp_hci_reset, %function
hci_tp_hci_reset:
.LFB578:
	.loc 1 537 0
	.cfi_startproc
	@ args = 0, pretend = 0, frame = 0
	@ frame_needed = 0, uses_anonymous_args = 0
	push	{r4, lr}
	.cfi_def_cfa_offset 8
	.cfi_offset 4, -8
	.cfi_offset 14, -4
.LBB9:
	.loc 1 540 0
	movs	r2, #0
	ldr	r1, .L18
	ldr	r0, .L18+4
	bl	trace_log_buffer
.LVL27:
.LBE9:
	.loc 1 542 0
	movw	r3, #542
	ldr	r2, .L18+8
	movs	r1, #4
	movs	r0, #0
	bl	os_mem_zalloc_intern
.LVL28:
	.loc 1 543 0
	cbz	r0, .L17
.LVL29:
	.loc 1 546 0
	movs	r2, #1
	strb	r2, [r0]
.LVL30:
	.loc 1 547 0
	movs	r2, #3
	.loc 1 548 0
	movs	r4, #0
	.loc 1 547 0
	strb	r2, [r0, #1]
.LVL31:
	movs	r2, #12
	.loc 1 548 0
	strb	r4, [r0, #3]
	.loc 1 547 0
	strb	r2, [r0, #2]
.LVL32:
	.loc 1 549 0
	movs	r1, #4
	bl	hci_adapter_send
.LVL33:
	.loc 1 556 0
	mov	r0, r4
	pop	{r4, pc}
.LVL34:
.L17:
	.loc 1 554 0
	movs	r0, #2
.LVL35:
	.loc 1 557 0
	pop	{r4, pc}
.L19:
	.align	2
.L18:
	.word	.LANCHOR0+44
	.word	1058028547
	.word	.LANCHOR3
	.cfi_endproc
.LFE578:
	.size	hci_tp_hci_reset, .-hci_tp_hci_reset
	.section	.text.hci_tp_download_patch,"ax",%progbits
	.align	1
	.global	hci_tp_download_patch
	.syntax unified
	.thumb
	.thumb_func
	.fpu softvfp
	.type	hci_tp_download_patch, %function
hci_tp_download_patch:
.LFB568:
	.loc 1 264 0
	.cfi_startproc
	@ args = 0, pretend = 0, frame = 0
	@ frame_needed = 0, uses_anonymous_args = 0
.LVL36:
	push	{r0, r1, r2, r4, r5, r6, r7, lr}
	.cfi_def_cfa_offset 32
	.cfi_offset 4, -20
	.cfi_offset 5, -16
	.cfi_offset 6, -12
	.cfi_offset 7, -8
	.cfi_offset 14, -4
	.loc 1 271 0
	ldr	r4, .L31
	ldrb	r2, [r4, #9]	@ zero_extendqisi2
	ldrb	r3, [r4, #8]	@ zero_extendqisi2
	cmp	r2, r3
	bcs	.L21
	.loc 1 273 0
	subs	r3, r3, #1
	cmp	r2, r3
	bne	.L22
.LBB10:
	.loc 1 275 0
	movs	r2, #0
	ldr	r1, .L31+4
	ldr	r0, .L31+8
	bl	trace_log_buffer
.LVL37:
.LBE10:
	.loc 1 278 0
	ldrb	r3, [r4, #9]	@ zero_extendqisi2
	orn	r3, r3, #127
	strb	r3, [r4, #9]
	.loc 1 279 0
	ldrb	r3, [r4, #11]	@ zero_extendqisi2
.L28:
	.loc 1 283 0
	strb	r3, [r4, #10]
.L21:
.LBB11:
	.loc 1 289 0
	ldrb	r2, [r4, #10]	@ zero_extendqisi2
	ldrb	r3, [r4, #9]	@ zero_extendqisi2
	str	r2, [sp]
	ldr	r1, .L31+12
	movs	r2, #2
	ldr	r0, .L31+8
	bl	trace_log_buffer
.LVL38:
.LBE11:
	.loc 1 292 0
	ldrb	r1, [r4, #10]	@ zero_extendqisi2
	mov	r3, #292
	ldr	r2, .L31+16
	adds	r1, r1, #5
	movs	r0, #0
	bl	os_mem_zalloc_intern
.LVL39:
	.loc 1 293 0
	mov	r6, r0
	cmp	r0, #0
	beq	.L23
.LVL40:
	.loc 1 296 0
	movs	r3, #1
	strb	r3, [r0]
.LVL41:
	.loc 1 297 0
	movs	r3, #32
	strb	r3, [r0, #1]
.LVL42:
	movs	r3, #252
	strb	r3, [r0, #2]
.LVL43:
	.loc 1 298 0
	ldrb	r3, [r4, #10]	@ zero_extendqisi2
	.loc 1 299 0
	adds	r7, r0, #5
.LVL44:
	.loc 1 298 0
	adds	r3, r3, #1
	strb	r3, [r0, #3]
	.loc 1 299 0
	ldrb	r3, [r4, #9]	@ zero_extendqisi2
	strb	r3, [r0, #4]
	.loc 1 301 0
	ldrb	r5, [r4, #9]	@ zero_extendqisi2
	.loc 1 303 0
	ldrh	r3, [r4, #12]
	.loc 1 301 0
	and	r5, r5, #127
	rsb	r5, r5, r5, lsl #6
	lsls	r5, r5, #2
	uxth	r5, r5
.LVL45:
	.loc 1 303 0
	cmp	r5, r3
	ldrb	r2, [r4, #10]	@ zero_extendqisi2
	bcc	.L24
.LVL46:
	.loc 1 305 0
	ldr	r1, [r4, #4]
	subs	r5, r5, r3
.LVL47:
.L30:
	.loc 1 311 0
	mov	r0, r7
.LVL48:
	add	r1, r1, r5
.LVL49:
.L29:
	.loc 1 318 0
	bl	memcpy
.LVL50:
	.loc 1 321 0
	ldrb	r3, [r4, #9]	@ zero_extendqisi2
	.loc 1 322 0
	ldrb	r1, [r4, #10]	@ zero_extendqisi2
	.loc 1 321 0
	adds	r3, r3, #1
	.loc 1 322 0
	adds	r1, r1, #5
	mov	r0, r6
	.loc 1 321 0
	strb	r3, [r4, #9]
	.loc 1 322 0
	bl	hci_adapter_send
.LVL51:
	.loc 1 330 0
	movs	r0, #0
.L27:
	.loc 1 331 0
	add	sp, sp, #12
	.cfi_remember_state
	.cfi_def_cfa_offset 20
	@ sp needed
	pop	{r4, r5, r6, r7, pc}
.LVL52:
.L22:
	.cfi_restore_state
	.loc 1 283 0
	movs	r3, #252
	b	.L28
.LVL53:
.L24:
	.loc 1 308 0
	adds	r1, r2, r5
	cmp	r1, r3
	.loc 1 310 0
	ldr	r1, [r4]
	.loc 1 308 0
	ble	.L30
.LVL54:
	.loc 1 316 0
	subs	r2, r3, r5
	add	r1, r1, r5
.LVL55:
	mov	r0, r7
.LVL56:
	bl	memcpy
.LVL57:
	.loc 1 317 0
	ldrh	r2, [r4, #12]
.LVL58:
	.loc 1 318 0
	ldrb	r1, [r4, #10]	@ zero_extendqisi2
	.loc 1 317 0
	subs	r0, r2, r5
	.loc 1 318 0
	add	r5, r5, r1
.LVL59:
	subs	r2, r5, r2
	ldr	r1, [r4, #4]
	add	r0, r0, r7
	b	.L29
.LVL60:
.L23:
	.loc 1 327 0
	ldr	r1, .L31+20
	ldr	r0, .L31+24
.LVL61:
	bl	printf
.LVL62:
	.loc 1 328 0
	movs	r0, #2
	b	.L27
.L32:
	.align	2
.L31:
	.word	hci_patch_info
	.word	.LANCHOR0+56
	.word	1058028547
	.word	.LANCHOR0+96
	.word	.LANCHOR4
	.word	.LANCHOR5
	.word	.LC0
	.cfi_endproc
.LFE568:
	.size	hci_tp_download_patch, .-hci_tp_download_patch
	.section	.text.hci_tp_write_efuse_iqk,"ax",%progbits
	.align	1
	.global	hci_tp_write_efuse_iqk
	.syntax unified
	.thumb
	.thumb_func
	.fpu softvfp
	.type	hci_tp_write_efuse_iqk, %function
hci_tp_write_efuse_iqk:
.LFB577:
	.loc 1 510 0
	.cfi_startproc
	@ args = 0, pretend = 0, frame = 0
	@ frame_needed = 0, uses_anonymous_args = 0
	push	{r4, lr}
	.cfi_def_cfa_offset 8
	.cfi_offset 4, -8
	.cfi_offset 14, -4
.LBB12:
	.loc 1 514 0
	movs	r2, #0
	ldr	r1, .L36
	ldr	r0, .L36+4
	bl	trace_log_buffer
.LVL63:
.LBE12:
	.loc 1 516 0
	mov	r3, #516
	ldr	r2, .L36+8
	movs	r1, #15
	movs	r0, #0
	bl	os_mem_zalloc_intern
.LVL64:
	.loc 1 517 0
	cbz	r0, .L35
.LVL65:
	.loc 1 520 0
	movs	r2, #1
	strb	r2, [r0]
.LVL66:
	.loc 1 521 0
	movs	r2, #145
	strb	r2, [r0, #1]
.LVL67:
	movs	r2, #253
	strb	r2, [r0, #2]
.LVL68:
	.loc 1 522 0
	movs	r2, #12
	.loc 1 524 0
	ldr	r1, .L36+12
	.loc 1 522 0
	strb	r2, [r0, #3]
	.loc 1 524 0
	ldr	r2, [r1]	@ unaligned
	str	r2, [r0, #4]	@ unaligned
	ldr	r2, [r1, #4]	@ unaligned
	str	r2, [r0, #8]	@ unaligned
	ldr	r2, [r1, #8]	@ unaligned
	.loc 1 526 0
	movs	r1, #16
	.loc 1 524 0
	str	r2, [r0, #12]	@ unaligned
.LVL69:
	.loc 1 526 0
	bl	hci_adapter_send
.LVL70:
	.loc 1 528 0
	movs	r0, #0
	pop	{r4, pc}
.LVL71:
.L35:
	.loc 1 532 0
	movs	r0, #2
.LVL72:
	.loc 1 534 0
	pop	{r4, pc}
.L37:
	.align	2
.L36:
	.word	.LANCHOR0+144
	.word	1058028547
	.word	.LANCHOR6
	.word	hci_tp_phy_efuse
	.cfi_endproc
.LFE577:
	.size	hci_tp_write_efuse_iqk, .-hci_tp_write_efuse_iqk
	.section	.text.hci_set_baudrate_check,"ax",%progbits
	.align	1
	.global	hci_set_baudrate_check
	.syntax unified
	.thumb
	.thumb_func
	.fpu softvfp
	.type	hci_set_baudrate_check, %function
hci_set_baudrate_check:
.LFB572:
	.loc 1 403 0
	.cfi_startproc
	@ args = 0, pretend = 0, frame = 0
	@ frame_needed = 0, uses_anonymous_args = 0
.LVL73:
.LBB16:
.LBB17:
	.loc 1 389 0
	movs	r1, #0
.LVL74:
.LBE17:
.LBE16:
	.loc 1 403 0
	push	{r3, r4, r5, lr}
	.cfi_def_cfa_offset 16
	.cfi_offset 3, -16
	.cfi_offset 4, -12
	.cfi_offset 5, -8
	.cfi_offset 14, -4
	.loc 1 408 0
	ldr	r3, .L43
	ldr	r4, [r3, #16]
.LVL75:
.LBB20:
.LBB19:
	.loc 1 389 0
	ldr	r3, .L43+4
	ldr	r0, [r3]
.LVL76:
	.loc 1 391 0
	ldr	r3, .L43+8
.LVL77:
.L39:
	.loc 1 389 0
	uxtb	r2, r1
	cmp	r0, r2
	bhi	.L41
.LBB18:
	.loc 1 398 0
	ldr	r0, .L43+12
	movs	r2, #0
	ldr	r1, .L43+16
.LVL78:
	bl	trace_log_buffer
.LVL79:
.LBE18:
	.loc 1 385 0
	mov	r0, #115200
	b	.L40
.LVL80:
.L41:
	.loc 1 391 0
	ldr	r5, [r3, r2, lsl #3]
	adds	r1, r1, #1
.LVL81:
	cmp	r4, r5
	bne	.L39
	.loc 1 393 0
	add	r3, r3, r2, lsl #3
	ldr	r0, [r3, #4]
.LVL82:
.L40:
.LBE19:
.LBE20:
	.loc 1 410 0
	bl	hci_uart_set_baudrate
.LVL83:
	.loc 1 411 0
	movs	r0, #50
	bl	os_delay
.LVL84:
	.loc 1 413 0
	movs	r0, #0
	pop	{r3, r4, r5, pc}
.L44:
	.align	2
.L43:
	.word	hci_patch_info
	.word	baudrates_length
	.word	baudrates
	.word	1058028547
	.word	.LANCHOR0+168
	.cfi_endproc
.LFE572:
	.size	hci_set_baudrate_check, .-hci_set_baudrate_check
	.section	.text.hci_read_local_version_check,"ax",%progbits
	.align	1
	.global	hci_read_local_version_check
	.syntax unified
	.thumb
	.thumb_func
	.fpu softvfp
	.type	hci_read_local_version_check, %function
hci_read_local_version_check:
.LFB561:
	.loc 1 61 0
	.cfi_startproc
	@ args = 0, pretend = 0, frame = 0
	@ frame_needed = 0, uses_anonymous_args = 0
.LVL85:
	push	{r4, lr}
	.cfi_def_cfa_offset 8
	.cfi_offset 4, -8
	.cfi_offset 14, -4
	.loc 1 66 0
	ldrb	r3, [r1, #7]	@ zero_extendqisi2
	ldrb	r4, [r1, #6]	@ zero_extendqisi2
.LBB26:
	.loc 1 67 0
	movs	r2, #1
.LBE26:
	.loc 1 66 0
	add	r4, r4, r3, lsl #8
	uxth	r4, r4
.LVL86:
.LBB27:
	.loc 1 67 0
	mov	r3, r4
	ldr	r1, .L48
.LVL87:
	ldr	r0, .L48+4
.LVL88:
	bl	trace_log_buffer
.LVL89:
.LBE27:
	.loc 1 68 0
	movw	r3, #34576
	cmp	r4, r3
	beq	.L47
.LVL90:
.LBB28:
.LBB29:
.LBB30:
	.loc 1 70 0
	movs	r2, #0
	ldr	r1, .L48+8
	ldr	r0, .L48+12
	bl	trace_log_buffer
.LVL91:
.LBE30:
	.loc 1 71 0
	ldr	r1, .L48+16
	ldr	r0, .L48+20
	bl	printf
.LVL92:
	movs	r0, #1
	pop	{r4, pc}
.LVL93:
.L47:
.LBE29:
.LBE28:
	.loc 1 77 0
	movs	r0, #0
	.loc 1 79 0
	pop	{r4, pc}
.LVL94:
.L49:
	.align	2
.L48:
	.word	.LANCHOR0+224
	.word	1058028546
	.word	.LANCHOR0+260
	.word	1058028544
	.word	.LANCHOR7
	.word	.LC1
	.cfi_endproc
.LFE561:
	.size	hci_read_local_version_check, .-hci_read_local_version_check
	.section	.text.hci_tp_set_controller_baudrate,"ax",%progbits
	.align	1
	.global	hci_tp_set_controller_baudrate
	.syntax unified
	.thumb
	.thumb_func
	.fpu softvfp
	.type	hci_tp_set_controller_baudrate, %function
hci_tp_set_controller_baudrate:
.LFB570:
	.loc 1 354 0
	.cfi_startproc
	@ args = 0, pretend = 0, frame = 0
	@ frame_needed = 0, uses_anonymous_args = 0
.LVL95:
	push	{r4, lr}
	.cfi_def_cfa_offset 8
	.cfi_offset 4, -8
	.cfi_offset 14, -4
.LBB35:
	.loc 1 359 0
	ldr	r4, .L53
	movs	r2, #1
	ldr	r3, [r4, #16]
	ldr	r1, .L53+4
	ldr	r0, .L53+8
	bl	trace_log_buffer
.LVL96:
.LBE35:
	.loc 1 362 0
	mov	r3, #362
	ldr	r2, .L53+12
	movs	r1, #8
	movs	r0, #0
	bl	os_mem_zalloc_intern
.LVL97:
	.loc 1 363 0
	cbz	r0, .L51
.LVL98:
	.loc 1 366 0
	movs	r2, #1
	strb	r2, [r0]
.LVL99:
	.loc 1 367 0
	movs	r2, #23
	strb	r2, [r0, #1]
.LVL100:
	movs	r2, #252
	strb	r2, [r0, #2]
.LVL101:
	.loc 1 368 0
	movs	r2, #4
	strb	r2, [r0, #3]
.LVL102:
	.loc 1 369 0
	ldr	r2, [r4, #16]
	.loc 1 370 0
	movs	r1, #8
	.loc 1 369 0
	strb	r2, [r0, #4]
.LVL103:
	ldr	r2, [r4, #16]
	lsrs	r2, r2, #8
	strb	r2, [r0, #5]
.LVL104:
	ldrh	r2, [r4, #18]
	strb	r2, [r0, #6]
.LVL105:
	ldrb	r2, [r4, #19]	@ zero_extendqisi2
	strb	r2, [r0, #7]
	.loc 1 370 0
	bl	hci_adapter_send
.LVL106:
	.loc 1 378 0
	movs	r0, #0
	pop	{r4, pc}
.LVL107:
.L51:
.LBB36:
.LBB37:
	.loc 1 375 0
	ldr	r1, .L53+16
	ldr	r0, .L53+20
.LVL108:
	bl	printf
.LVL109:
	movs	r0, #2
.LBE37:
.LBE36:
	.loc 1 379 0
	pop	{r4, pc}
.L54:
	.align	2
.L53:
	.word	hci_patch_info
	.word	.LANCHOR0+300
	.word	1058028547
	.word	.LANCHOR8
	.word	.LANCHOR9
	.word	.LC0
	.cfi_endproc
.LFE570:
	.size	hci_tp_set_controller_baudrate, .-hci_tp_set_controller_baudrate
	.section	.text.hci_read_rom_check,"ax",%progbits
	.align	1
	.global	hci_read_rom_check
	.syntax unified
	.thumb
	.thumb_func
	.fpu softvfp
	.type	hci_read_rom_check, %function
hci_read_rom_check:
.LFB563:
	.loc 1 106 0
	.cfi_startproc
	@ args = 0, pretend = 0, frame = 0
	@ frame_needed = 0, uses_anonymous_args = 0
.LVL110:
	push	{r3, r4, r5, lr}
	.cfi_def_cfa_offset 16
	.cfi_offset 3, -16
	.cfi_offset 4, -12
	.cfi_offset 5, -8
	.cfi_offset 14, -4
	.loc 1 111 0
	ldrb	r5, [r1]	@ zero_extendqisi2
.LVL111:
.LBB42:
	.loc 1 112 0
	movs	r2, #1
.LBE42:
	.loc 1 113 0
	adds	r4, r5, #1
.LBB43:
	.loc 1 112 0
	mov	r3, r5
	ldr	r1, .L58
.LVL112:
	ldr	r0, .L58+4
.LVL113:
.LBE43:
	.loc 1 113 0
	uxtb	r4, r4
.LBB44:
	.loc 1 112 0
	bl	trace_log_buffer
.LVL114:
.LBE44:
	.loc 1 114 0
	mov	r3, r4
	mov	r2, r5
	ldr	r1, .L58+8
	ldr	r0, .L58+12
	bl	printf
.LVL115:
	.loc 1 116 0
	mov	r0, r4
	bl	hci_rtk_find_patch
.LVL116:
	.loc 1 117 0
	cbnz	r0, .L57
.LVL117:
.LBB45:
.LBB46:
	.loc 1 119 0
	ldr	r1, .L58+8
	ldr	r0, .L58+16
.LVL118:
	bl	printf
.LVL119:
	movs	r0, #255
	pop	{r3, r4, r5, pc}
.LVL120:
.L57:
.LBE46:
.LBE45:
	.loc 1 123 0
	movs	r0, #0
.LVL121:
	.loc 1 124 0
	pop	{r3, r4, r5, pc}
.LVL122:
.L59:
	.align	2
.L58:
	.word	.LANCHOR0+348
	.word	1058028546
	.word	.LANCHOR10
	.word	.LC2
	.word	.LC3
	.cfi_endproc
.LFE563:
	.size	hci_read_rom_check, .-hci_read_rom_check
	.section	.text.hci_download_patch_check,"ax",%progbits
	.align	1
	.global	hci_download_patch_check
	.syntax unified
	.thumb
	.thumb_func
	.fpu softvfp
	.type	hci_download_patch_check, %function
hci_download_patch_check:
.LFB569:
	.loc 1 334 0
	.cfi_startproc
	@ args = 0, pretend = 0, frame = 0
	@ frame_needed = 0, uses_anonymous_args = 0
.LVL123:
	push	{r4, lr}
	.cfi_def_cfa_offset 8
	.cfi_offset 4, -8
	.cfi_offset 14, -4
	.loc 1 339 0
	ldrsb	r3, [r1]
	cmp	r3, #0
	bge	.L62
.LVL124:
.LBB50:
.LBB51:
	.loc 1 343 0
	ldr	r4, .L63
.LBB52:
	.loc 1 341 0
	movs	r2, #0
	ldr	r1, .L63+4
.LVL125:
	ldr	r0, .L63+8
.LVL126:
	bl	trace_log_buffer
.LVL127:
.LBE52:
	.loc 1 343 0
	ldr	r0, [r4]
	bl	os_mem_free
.LVL128:
	.loc 1 344 0
	ldr	r0, [r4, #4]
	bl	os_mem_free
.LVL129:
	movs	r0, #0
	pop	{r4, pc}
.LVL130:
.L62:
.LBE51:
.LBE50:
	.loc 1 349 0
	movs	r0, #3
.LVL131:
	.loc 1 351 0
	pop	{r4, pc}
.L64:
	.align	2
.L63:
	.word	hci_patch_info
	.word	.LANCHOR0+388
	.word	1058028546
	.cfi_endproc
.LFE569:
	.size	hci_download_patch_check, .-hci_download_patch_check
	.section	.text.hci_write_rf_check,"ax",%progbits
	.align	1
	.global	hci_write_rf_check
	.syntax unified
	.thumb
	.thumb_func
	.fpu softvfp
	.type	hci_write_rf_check, %function
hci_write_rf_check:
.LFB576:
	.loc 1 487 0
	.cfi_startproc
	@ args = 0, pretend = 0, frame = 0
	@ frame_needed = 0, uses_anonymous_args = 0
.LVL132:
	push	{r4, lr}
	.cfi_def_cfa_offset 8
	.cfi_offset 4, -8
	.cfi_offset 14, -4
	.loc 1 490 0
	ldr	r4, .L69
	ldrb	r1, [r4]	@ zero_extendqisi2
.LVL133:
	cmp	r1, #2
	bls	.L66
	.loc 1 492 0
	bl	hci_start_iqk
.LVL134:
	cbnz	r0, .L67
	.loc 1 494 0
	strb	r0, [r4]
	.loc 1 495 0
	movs	r0, #2
	pop	{r4, pc}
.L67:
.LVL135:
.LBB55:
.LBB56:
	.loc 1 497 0
	ldr	r0, .L69+4
	bl	puts
.LVL136:
	.loc 1 498 0
	movs	r0, #0
	strb	r0, [r4]
.LVL137:
	pop	{r4, pc}
.LVL138:
.L66:
.LBE56:
.LBE55:
	.loc 1 503 0
	ldr	r0, .L69+8
.LVL139:
	bl	printf
.LVL140:
	.loc 1 504 0
	ldrb	r3, [r4]	@ zero_extendqisi2
	.loc 1 505 0
	movs	r0, #3
	.loc 1 504 0
	adds	r3, r3, #1
	strb	r3, [r4]
	.loc 1 507 0
	pop	{r4, pc}
.L70:
	.align	2
.L69:
	.word	.LANCHOR11
	.word	.LC4
	.word	.LC5
	.cfi_endproc
.LFE576:
	.size	hci_write_rf_check, .-hci_write_rf_check
	.section	.text.hci_tp_read_thermal,"ax",%progbits
	.align	1
	.global	hci_tp_read_thermal
	.syntax unified
	.thumb
	.thumb_func
	.fpu softvfp
	.type	hci_tp_read_thermal, %function
hci_tp_read_thermal:
.LFB564:
	.loc 1 127 0
	.cfi_startproc
	@ args = 0, pretend = 0, frame = 0
	@ frame_needed = 0, uses_anonymous_args = 0
	push	{r4, lr}
	.cfi_def_cfa_offset 8
	.cfi_offset 4, -8
	.cfi_offset 14, -4
.LBB57:
	.loc 1 131 0
	movs	r2, #0
	ldr	r1, .L75
	ldr	r0, .L75+4
	bl	trace_log_buffer
.LVL141:
.LBE57:
	.loc 1 133 0
	bl	rltk_wlan_is_mp
.LVL142:
	cbz	r0, .L73
	.loc 1 135 0
	movs	r3, #135
	ldr	r2, .L75+8
	movs	r1, #4
	movs	r0, #0
	bl	os_mem_zalloc_intern
.LVL143:
	.loc 1 136 0
	cbz	r0, .L74
.LVL144:
	.loc 1 139 0
	movs	r2, #1
	strb	r2, [r0]
.LVL145:
	.loc 1 140 0
	movs	r2, #64
	.loc 1 141 0
	movs	r4, #0
	.loc 1 140 0
	strb	r2, [r0, #1]
.LVL146:
	movs	r2, #252
	.loc 1 141 0
	strb	r4, [r0, #3]
	.loc 1 140 0
	strb	r2, [r0, #2]
.LVL147:
	.loc 1 143 0
	movs	r1, #4
	bl	hci_adapter_send
.LVL148:
	.loc 1 149 0
	mov	r0, r4
	pop	{r4, pc}
.L73:
	.loc 1 153 0
	movs	r0, #4
	pop	{r4, pc}
.LVL149:
.L74:
	.loc 1 147 0
	movs	r0, #2
.LVL150:
	.loc 1 155 0
	pop	{r4, pc}
.L76:
	.align	2
.L75:
	.word	.LANCHOR0+420
	.word	1058028547
	.word	.LANCHOR12
	.cfi_endproc
.LFE564:
	.size	hci_tp_read_thermal, .-hci_tp_read_thermal
	.section	.text.hci_thermal_check,"ax",%progbits
	.align	1
	.global	hci_thermal_check
	.syntax unified
	.thumb
	.thumb_func
	.fpu softvfp
	.type	hci_thermal_check, %function
hci_thermal_check:
.LFB566:
	.loc 1 170 0
	.cfi_startproc
	@ args = 0, pretend = 0, frame = 0
	@ frame_needed = 0, uses_anonymous_args = 0
.LVL151:
	push	{r4, r5, r6, lr}
	.cfi_def_cfa_offset 16
	.cfi_offset 4, -16
	.cfi_offset 5, -12
	.cfi_offset 6, -8
	.cfi_offset 14, -4
	.loc 1 177 0
	ldr	r4, .L82
	.loc 1 175 0
	ldrb	r6, [r1]	@ zero_extendqisi2
.LVL152:
	.loc 1 177 0
	ldrb	r3, [r4]	@ zero_extendqisi2
	ldr	r2, .L82+4
	cmp	r3, #2
	ldr	r5, .L82+8
	bls	.L78
	.loc 1 179 0
	ldr	r3, [r2]
	lsls	r1, r3, #25
.LVL153:
	bmi	.L79
	.loc 1 181 0
	mov	r2, r6
	ldr	r1, .L82+12
	ldr	r0, .L82+16
.LVL154:
	bl	printf
.LVL155:
.L79:
	.loc 1 183 0
	ldr	r3, .L82+20
	movs	r2, #1
	movs	r1, #3
	ldr	r0, .L82+8
	bl	qsort
.LVL156:
	.loc 1 184 0
	ldrb	r1, [r5, #1]	@ zero_extendqisi2
	ldr	r0, .L82+24
	bl	printf
.LVL157:
	.loc 1 186 0
	ldrb	r5, [r5, #1]	@ zero_extendqisi2
	.loc 1 187 0
	ldr	r0, .L82+28
	.loc 1 186 0
	and	r5, r5, #63
.LVL158:
	.loc 1 187 0
	mov	r1, r5
	bl	printf
.LVL159:
	.loc 1 189 0
	movs	r0, #0
	.loc 1 188 0
	ldr	r3, .L82+32
	.loc 1 189 0
	strb	r0, [r4]
	.loc 1 188 0
	strb	r5, [r3, #7]
	.loc 1 190 0
	pop	{r4, r5, r6, pc}
.LVL160:
.L78:
	.loc 1 194 0
	ldr	r2, [r2]
	lsls	r2, r2, #25
	bmi	.L81
	.loc 1 196 0
	mov	r2, r6
	ldr	r1, .L82+12
.LVL161:
	ldr	r0, .L82+36
.LVL162:
	bl	printf
.LVL163:
.L81:
	.loc 1 198 0
	ldrb	r3, [r4]	@ zero_extendqisi2
	.loc 1 200 0
	movs	r0, #3
	.loc 1 198 0
	strb	r6, [r5, r3]
	.loc 1 199 0
	adds	r3, r3, #1
	strb	r3, [r4]
	.loc 1 203 0
	pop	{r4, r5, r6, pc}
.LVL164:
.L83:
	.align	2
.L82:
	.word	.LANCHOR11
	.word	-1744822288
	.word	.LANCHOR14
	.word	.LANCHOR13
	.word	.LC6
	.word	freq_cmp
	.word	.LC7
	.word	.LC8
	.word	hci_tp_phy_efuse
	.word	.LC9
	.cfi_endproc
.LFE566:
	.size	hci_thermal_check, .-hci_thermal_check
	.section	.text.hci_set_patch,"ax",%progbits
	.align	1
	.global	hci_set_patch
	.syntax unified
	.thumb
	.thumb_func
	.fpu softvfp
	.type	hci_set_patch, %function
hci_set_patch:
.LFB567:
	.loc 1 224 0
	.cfi_startproc
	@ args = 4, pretend = 0, frame = 0
	@ frame_needed = 0, uses_anonymous_args = 0
.LVL165:
	push	{r0, r1, r2, r4, r5, r6, r7, lr}
	.cfi_def_cfa_offset 32
	.cfi_offset 4, -20
	.cfi_offset 5, -16
	.cfi_offset 6, -12
	.cfi_offset 7, -8
	.cfi_offset 14, -4
	.loc 1 228 0
	ldr	r4, .L91
	.loc 1 230 0
	stm	r4, {r0, r2}
	.loc 1 232 0
	movs	r2, #0
.LVL166:
	strb	r2, [r4, #9]
	.loc 1 233 0
	ldr	r2, [sp, #32]
	.loc 1 228 0
	strh	r1, [r4, #12]	@ movhi
	uxth	r1, r1
.LVL167:
	.loc 1 235 0
	add	r0, r0, r1
.LVL168:
	.loc 1 231 0
	strh	r3, [r4, #14]	@ movhi
	.loc 1 233 0
	str	r2, [r4, #16]
	.loc 1 235 0
	ldrb	r5, [r0, #-6]	@ zero_extendqisi2
	ldrb	r2, [r0, #-7]	@ zero_extendqisi2
	lsls	r5, r5, #16
	add	r5, r5, r2, lsl #8
	ldrb	r2, [r0, #-8]	@ zero_extendqisi2
	.loc 1 236 0
	ldrb	r6, [r0, #-10]	@ zero_extendqisi2
	.loc 1 235 0
	add	r5, r5, r2
	ldrb	r2, [r0, #-5]	@ zero_extendqisi2
	.loc 1 236 0
	lsls	r6, r6, #16
	.loc 1 235 0
	add	r5, r5, r2, lsl #24
.LVL169:
	.loc 1 236 0
	ldrb	r2, [r0, #-11]	@ zero_extendqisi2
	.loc 1 237 0
	ldrb	r7, [r0, #-2]	@ zero_extendqisi2
	.loc 1 236 0
	add	r6, r6, r2, lsl #8
	ldrb	r2, [r0, #-12]	@ zero_extendqisi2
	.loc 1 237 0
	lsls	r7, r7, #16
	.loc 1 236 0
	add	r6, r6, r2
	ldrb	r2, [r0, #-9]	@ zero_extendqisi2
	.loc 1 238 0
	uxtah	r3, r1, r3
.LVL170:
	.loc 1 236 0
	add	r6, r6, r2, lsl #24
.LVL171:
	.loc 1 237 0
	ldrb	r2, [r0, #-3]	@ zero_extendqisi2
	add	r7, r7, r2, lsl #8
	ldrb	r2, [r0, #-4]	@ zero_extendqisi2
	add	r7, r7, r2
	ldrb	r2, [r0, #-1]	@ zero_extendqisi2
	.loc 1 238 0
	movs	r0, #252
	.loc 1 237 0
	add	r7, r7, r2, lsl #24
.LVL172:
	.loc 1 238 0
	sdiv	r2, r3, r0
	.loc 1 239 0
	mls	r3, r0, r2, r3
	.loc 1 238 0
	uxtb	r1, r2
	strb	r1, [r4, #8]
	.loc 1 239 0
	strb	r3, [r4, #11]
	.loc 1 241 0
	cbz	r3, .L85
	.loc 1 243 0
	adds	r1, r1, #1
	strb	r1, [r4, #8]
.L86:
.LBB58:
	.loc 1 249 0
	ldrb	r3, [r4, #11]	@ zero_extendqisi2
	movs	r2, #3
	str	r3, [sp, #4]
	ldrb	r3, [r4, #8]	@ zero_extendqisi2
	ldr	r1, .L91+4
	str	r3, [sp]
	ldr	r0, .L91+8
	mov	r3, r5
	bl	trace_log_buffer
.LVL173:
.LBE58:
.LBB59:
	.loc 1 253 0
	mov	r3, r5
	movs	r2, #3
	ldr	r1, .L91+12
	ldr	r0, .L91+8
	stm	sp, {r6, r7}
	bl	trace_log_buffer
.LVL174:
.LBE59:
	.loc 1 254 0
	bl	rltk_wlan_is_mp
.LVL175:
	cbz	r0, .L87
	.loc 1 256 0
	mov	r3, r7
	mov	r2, r6
	mov	r1, r5
	ldr	r0, .L91+16
	bl	printf
.LVL176:
.L87:
	.loc 1 261 0
	movs	r0, #1
	add	sp, sp, #12
	.cfi_remember_state
	.cfi_def_cfa_offset 20
	@ sp needed
	pop	{r4, r5, r6, r7, pc}
.LVL177:
.L85:
	.cfi_restore_state
	.loc 1 247 0
	strb	r0, [r4, #11]
	b	.L86
.L92:
	.align	2
.L91:
	.word	hci_patch_info
	.word	.LANCHOR0+440
	.word	1058028546
	.word	.LANCHOR0+504
	.word	.LC10
	.cfi_endproc
.LFE567:
	.size	hci_set_patch, .-hci_set_patch
	.section	.text.hci_tp_rf_radio_ver,"ax",%progbits
	.align	1
	.global	hci_tp_rf_radio_ver
	.syntax unified
	.thumb
	.thumb_func
	.fpu softvfp
	.type	hci_tp_rf_radio_ver, %function
hci_tp_rf_radio_ver:
.LFB573:
	.loc 1 416 0
	.cfi_startproc
	@ args = 0, pretend = 0, frame = 0
	@ frame_needed = 0, uses_anonymous_args = 0
.LVL178:
	push	{r3, r4, r5, lr}
	.cfi_def_cfa_offset 16
	.cfi_offset 3, -16
	.cfi_offset 4, -12
	.cfi_offset 5, -8
	.cfi_offset 14, -4
.LBB60:
	.loc 1 420 0
	movs	r2, #0
.LBE60:
	.loc 1 416 0
	mov	r5, r0
	mov	r4, r1
.LBB61:
	.loc 1 420 0
	ldr	r0, .L96
.LVL179:
	ldr	r1, .L96+4
.LVL180:
	bl	trace_log_buffer
.LVL181:
.LBE61:
	.loc 1 421 0
	ldr	r0, .L96+8
	bl	puts
.LVL182:
	.loc 1 423 0
	movw	r3, #423
	ldr	r2, .L96+12
	movs	r1, #8
	movs	r0, #0
	bl	os_mem_zalloc_intern
.LVL183:
	.loc 1 424 0
	cbz	r0, .L95
.LVL184:
	.loc 1 427 0
	movs	r2, #1
	strb	r2, [r0]
.LVL185:
	.loc 1 428 0
	movs	r2, #74
	strb	r2, [r0, #1]
.LVL186:
	movs	r2, #253
	.loc 1 431 0
	strb	r4, [r0, #5]
	lsrs	r4, r4, #8
	.loc 1 428 0
	strb	r2, [r0, #2]
.LVL187:
	.loc 1 431 0
	strb	r4, [r0, #6]
	.loc 1 429 0
	movs	r2, #4
	.loc 1 432 0
	movs	r4, #0
	.loc 1 429 0
	strb	r2, [r0, #3]
.LVL188:
	.loc 1 430 0
	strb	r5, [r0, #4]
.LVL189:
	.loc 1 432 0
	strb	r4, [r0, #7]
	.loc 1 434 0
	movs	r1, #8
	bl	hci_adapter_send
.LVL190:
	.loc 1 441 0
	mov	r0, r4
	pop	{r3, r4, r5, pc}
.LVL191:
.L95:
	.loc 1 439 0
	movs	r0, #2
.LVL192:
	.loc 1 442 0
	pop	{r3, r4, r5, pc}
.L97:
	.align	2
.L96:
	.word	1058028547
	.word	.LANCHOR0+560
	.word	.LC11
	.word	.LANCHOR15
	.cfi_endproc
.LFE573:
	.size	hci_tp_rf_radio_ver, .-hci_tp_rf_radio_ver
	.section	.text.hci_tp_rf_radio_ver_flow,"ax",%progbits
	.align	1
	.global	hci_tp_rf_radio_ver_flow
	.syntax unified
	.thumb
	.thumb_func
	.fpu softvfp
	.type	hci_tp_rf_radio_ver_flow, %function
hci_tp_rf_radio_ver_flow:
.LFB575:
	.loc 1 451 0
	.cfi_startproc
	@ args = 0, pretend = 0, frame = 0
	@ frame_needed = 0, uses_anonymous_args = 0
	push	{r4, lr}
	.cfi_def_cfa_offset 8
	.cfi_offset 4, -8
	.cfi_offset 14, -4
	.loc 1 453 0
	ldr	r4, .L112
	ldrb	r3, [r4]	@ zero_extendqisi2
	cmp	r3, #2
	beq	.L99
	.loc 1 455 0
	bl	bt_check_iqk
.LVL193:
	cbnz	r0, .L105
	.loc 1 460 0
	ldr	r0, .L112+4
	bl	puts
.LVL194:
	.loc 1 461 0
	movs	r3, #2
	strb	r3, [r4]
.L99:
	.loc 1 464 0
	ldr	r3, .L112+8
	ldrb	r4, [r3]	@ zero_extendqisi2
	cbnz	r4, .L101
	.loc 1 466 0
	mov	r1, #16384
	mov	r0, r4
	bl	hci_tp_rf_radio_ver
.LVL195:
.L100:
	.loc 1 485 0
	mov	r0, r4
	pop	{r4, pc}
.L101:
	.loc 1 468 0
	cmp	r4, #1
	bne	.L102
	.loc 1 470 0
	movw	r1, #3976
.L111:
.LBB64:
.LBB65:
	.loc 1 474 0
	mov	r0, r4
.L110:
.LBE65:
.LBE64:
	.loc 1 478 0
	bl	hci_tp_rf_radio_ver
.LVL196:
.L109:
	.loc 1 484 0
	movs	r4, #0
	b	.L100
.L102:
	.loc 1 472 0
	cmp	r4, #2
	bne	.L103
.LBB67:
.LBB66:
	.loc 1 474 0
	mov	r1, #13312
	b	.L111
.L103:
.LBE66:
.LBE67:
	.loc 1 476 0
	cmp	r4, #3
	bne	.L104
	.loc 1 478 0
	movw	r1, #1793
	movs	r0, #63
	b	.L110
.L104:
	.loc 1 482 0
	ldr	r0, .L112+12
	bl	puts
.LVL197:
	b	.L109
.L105:
	.loc 1 458 0
	movs	r4, #4
	b	.L100
.L113:
	.align	2
.L112:
	.word	.LANCHOR16
	.word	.LC12
	.word	.LANCHOR11
	.word	.LC13
	.cfi_endproc
.LFE575:
	.size	hci_tp_rf_radio_ver_flow, .-hci_tp_rf_radio_ver_flow
	.section	.text.reset_iqk_type,"ax",%progbits
	.align	1
	.global	reset_iqk_type
	.syntax unified
	.thumb
	.thumb_func
	.fpu softvfp
	.type	reset_iqk_type, %function
reset_iqk_type:
.LFB574:
	.loc 1 446 0
	.cfi_startproc
	@ args = 0, pretend = 0, frame = 0
	@ frame_needed = 0, uses_anonymous_args = 0
	@ link register save eliminated.
	.loc 1 447 0
	movs	r2, #255
	ldr	r3, .L115
	strb	r2, [r3]
	bx	lr
.L116:
	.align	2
.L115:
	.word	.LANCHOR16
	.cfi_endproc
.LFE574:
	.size	reset_iqk_type, .-reset_iqk_type
	.section	.text.hci_tp_tx_test_cmd,"ax",%progbits
	.align	1
	.global	hci_tp_tx_test_cmd
	.syntax unified
	.thumb
	.thumb_func
	.fpu softvfp
	.type	hci_tp_tx_test_cmd, %function
hci_tp_tx_test_cmd:
.LFB579:
	.loc 1 582 0
	.cfi_startproc
	@ args = 0, pretend = 0, frame = 0
	@ frame_needed = 0, uses_anonymous_args = 0
	push	{r4, lr}
	.cfi_def_cfa_offset 8
	.cfi_offset 4, -8
	.cfi_offset 14, -4
	.loc 1 589 0
	ldr	r0, .L120
	bl	puts
.LVL198:
	.loc 1 591 0
	movw	r3, #591
	ldr	r2, .L120+4
	movs	r1, #7
	movs	r0, #0
	bl	os_mem_zalloc_intern
.LVL199:
	.loc 1 592 0
	cbz	r0, .L119
.LVL200:
	.loc 1 595 0
	movs	r2, #1
	strb	r2, [r0]
.LVL201:
	.loc 1 596 0
	movs	r2, #30
	strb	r2, [r0, #1]
.LVL202:
	movs	r2, #32
	strb	r2, [r0, #2]
.LVL203:
	.loc 1 597 0
	movs	r2, #3
	.loc 1 598 0
	movs	r4, #0
	.loc 1 597 0
	strb	r2, [r0, #3]
.LVL204:
	.loc 1 599 0
	movs	r2, #255
	.loc 1 598 0
	strb	r4, [r0, #4]
.LVL205:
	.loc 1 599 0
	strb	r2, [r0, #5]
.LVL206:
	.loc 1 600 0
	strb	r4, [r0, #6]
	.loc 1 601 0
	movs	r1, #7
	bl	hci_adapter_send
.LVL207:
	.loc 1 608 0
	mov	r0, r4
	pop	{r4, pc}
.LVL208:
.L119:
	.loc 1 606 0
	movs	r0, #2
.LVL209:
	.loc 1 609 0
	pop	{r4, pc}
.L121:
	.align	2
.L120:
	.word	.LC14
	.word	.LANCHOR17
	.cfi_endproc
.LFE579:
	.size	hci_tp_tx_test_cmd, .-hci_tp_tx_test_cmd
	.section	.text.hci_tp_rx_test_cmd,"ax",%progbits
	.align	1
	.global	hci_tp_rx_test_cmd
	.syntax unified
	.thumb
	.thumb_func
	.fpu softvfp
	.type	hci_tp_rx_test_cmd, %function
hci_tp_rx_test_cmd:
.LFB580:
	.loc 1 612 0
	.cfi_startproc
	@ args = 0, pretend = 0, frame = 0
	@ frame_needed = 0, uses_anonymous_args = 0
	push	{r4, lr}
	.cfi_def_cfa_offset 8
	.cfi_offset 4, -8
	.cfi_offset 14, -4
	.loc 1 619 0
	ldr	r0, .L125
	bl	puts
.LVL210:
	.loc 1 620 0
	mov	r3, #620
	ldr	r2, .L125+4
	movs	r1, #6
	movs	r0, #0
	bl	os_mem_zalloc_intern
.LVL211:
	.loc 1 621 0
	cbz	r0, .L124
.LVL212:
	.loc 1 625 0
	movs	r1, #29
	.loc 1 624 0
	movs	r2, #1
	.loc 1 627 0
	movs	r4, #0
	.loc 1 625 0
	strb	r1, [r0, #1]
	movs	r1, #32
	.loc 1 624 0
	strb	r2, [r0]
.LVL213:
	.loc 1 625 0
	strb	r1, [r0, #2]
.LVL214:
	.loc 1 626 0
	strb	r2, [r0, #3]
.LVL215:
	.loc 1 627 0
	strb	r4, [r0, #4]
	.loc 1 628 0
	movs	r1, #5
	bl	hci_adapter_send
.LVL216:
	.loc 1 636 0
	mov	r0, r4
	pop	{r4, pc}
.LVL217:
.L124:
	.loc 1 634 0
	movs	r0, #2
.LVL218:
	.loc 1 637 0
	pop	{r4, pc}
.L126:
	.align	2
.L125:
	.word	.LC15
	.word	.LANCHOR18
	.cfi_endproc
.LFE580:
	.size	hci_tp_rx_test_cmd, .-hci_tp_rx_test_cmd
	.section	.text.hci_tp_test_end_cmd,"ax",%progbits
	.align	1
	.global	hci_tp_test_end_cmd
	.syntax unified
	.thumb
	.thumb_func
	.fpu softvfp
	.type	hci_tp_test_end_cmd, %function
hci_tp_test_end_cmd:
.LFB581:
	.loc 1 640 0
	.cfi_startproc
	@ args = 0, pretend = 0, frame = 0
	@ frame_needed = 0, uses_anonymous_args = 0
	push	{r4, lr}
	.cfi_def_cfa_offset 8
	.cfi_offset 4, -8
	.cfi_offset 14, -4
	.loc 1 645 0
	ldr	r0, .L130
	bl	puts
.LVL219:
	.loc 1 646 0
	movw	r3, #646
	ldr	r2, .L130+4
	movs	r1, #6
	movs	r0, #0
	bl	os_mem_zalloc_intern
.LVL220:
	.loc 1 647 0
	cbz	r0, .L129
.LVL221:
	.loc 1 650 0
	movs	r2, #1
	strb	r2, [r0]
.LVL222:
	.loc 1 651 0
	movs	r2, #31
	.loc 1 652 0
	movs	r4, #0
	.loc 1 651 0
	strb	r2, [r0, #1]
.LVL223:
	movs	r2, #32
	.loc 1 652 0
	strb	r4, [r0, #3]
	.loc 1 651 0
	strb	r2, [r0, #2]
.LVL224:
	.loc 1 654 0
	movs	r1, #4
	bl	hci_adapter_send
.LVL225:
	.loc 1 661 0
	mov	r0, r4
	pop	{r4, pc}
.LVL226:
.L129:
	.loc 1 659 0
	movs	r0, #2
.LVL227:
	.loc 1 662 0
	pop	{r4, pc}
.L131:
	.align	2
.L130:
	.word	.LC15
	.word	.LANCHOR19
	.cfi_endproc
.LFE581:
	.size	hci_tp_test_end_cmd, .-hci_tp_test_end_cmd
	.global	hci_total_step
	.global	hci_process_table
	.comm	hci_patch_info,20,4
	.section	.BTTRACE,"a",%progbits
	.align	2
	.set	.LANCHOR0,. + 0
	.type	format.20847, %object
	.size	format.20847, 22
format.20847:
	.ascii	"hci_tp_read_local_ver\000"
	.space	2
	.type	format.20862, %object
	.size	format.20862, 20
format.20862:
	.ascii	"hci_tp_read_rom_ver\000"
	.type	format.20996, %object
	.size	format.20996, 10
format.20996:
	.ascii	"hci_reset\000"
	.space	2
	.type	format.20927, %object
	.size	format.20927, 38
format.20927:
	.ascii	"hci_tp_download_patch: send last frag\000"
	.space	2
	.type	format.20928, %object
	.size	format.20928, 45
format.20928:
	.ascii	"hci_tp_download_patch: frag index %d, len %d\000"
	.space	3
	.type	format.20989, %object
	.size	format.20989, 23
format.20989:
	.ascii	"hci_tp_write_efuse_iqk\000"
	.space	1
	.type	format.20957, %object
	.size	format.20957, 55
format.20957:
	.ascii	"hci_rtk_convert_buadrate: use default baudrate[1152"
	.ascii	"00]\000"
	.space	1
	.type	format.20854, %object
	.size	format.20854, 36
format.20854:
	.ascii	"!**hci_tp_config: lmp_subver 0x%04x\000"
	.type	format.20855, %object
	.size	format.20855, 39
format.20855:
	.ascii	"!!!hci_tp_config: Patch already exists\000"
	.space	1
	.type	format.20944, %object
	.size	format.20944, 48
format.20944:
	.ascii	"hci_tp_set_controller_baudrate: baudrate 0x%08x\000"
	.type	format.20873, %object
	.size	format.20873, 37
format.20873:
	.ascii	"!**hci_tp_config: rom_version 0x%02x\000"
	.space	3
	.type	format.20937, %object
	.size	format.20937, 30
format.20937:
	.ascii	"!**Download patch completely\012\000"
	.space	2
	.type	format.20880, %object
	.size	format.20880, 20
format.20880:
	.ascii	"hci_tp_read_thermal\000"
	.type	format.20917, %object
	.size	format.20917, 62
format.20917:
	.ascii	"!**hci_rtk_load_patch:svn %d patch frag count %u, t"
	.ascii	"ail len %u\000"
	.space	2
	.type	format.20918, %object
	.size	format.20918, 56
format.20918:
	.ascii	"!**BT patch:svn %d coex svn_version: %x LMP VERSION"
	.ascii	":%x\012\000"
	.type	format.20972, %object
	.size	format.20972, 20
format.20972:
	.ascii	"hci_tp_rf_radio_ver\000"
	.section	.bss.orignal_thermal,"aw",%nobits
	.set	.LANCHOR14,. + 0
	.type	orignal_thermal, %object
	.size	orignal_thermal, 3
orignal_thermal:
	.space	3
	.section	.bss.vendor_flow,"aw",%nobits
	.set	.LANCHOR11,. + 0
	.type	vendor_flow, %object
	.size	vendor_flow, 1
vendor_flow:
	.space	1
	.section	.data.hci_process_table,"aw",%progbits
	.align	2
	.type	hci_process_table, %object
	.size	hci_process_table, 84
hci_process_table:
	.short	-694
	.space	2
	.word	hci_tp_rf_radio_ver_flow
	.word	hci_write_rf_check
	.short	4097
	.space	2
	.word	hci_tp_read_local_ver
	.word	hci_read_local_version_check
	.short	-915
	.space	2
	.word	hci_tp_read_rom_ver
	.word	hci_read_rom_check
	.short	-1001
	.space	2
	.word	hci_tp_set_controller_baudrate
	.word	hci_set_baudrate_check
	.short	-992
	.space	2
	.word	hci_tp_download_patch
	.word	hci_download_patch_check
	.short	-623
	.space	2
	.word	hci_tp_write_efuse_iqk
	.word	0
	.short	3075
	.space	2
	.word	hci_tp_hci_reset
	.word	0
	.section	.data.hci_total_step,"aw",%progbits
	.type	hci_total_step, %object
	.size	hci_total_step, 1
hci_total_step:
	.byte	7
	.section	.data.iqk_type,"aw",%progbits
	.set	.LANCHOR16,. + 0
	.type	iqk_type, %object
	.size	iqk_type, 1
iqk_type:
	.byte	-1
	.section	.rodata.__FUNCTION__.20856,"a",%progbits
	.set	.LANCHOR7,. + 0
	.type	__FUNCTION__.20856, %object
	.size	__FUNCTION__.20856, 29
__FUNCTION__.20856:
	.ascii	"hci_read_local_version_check\000"
	.section	.rodata.__FUNCTION__.20874,"a",%progbits
	.set	.LANCHOR10,. + 0
	.type	__FUNCTION__.20874, %object
	.size	__FUNCTION__.20874, 19
__FUNCTION__.20874:
	.ascii	"hci_read_rom_check\000"
	.section	.rodata.__FUNCTION__.20893,"a",%progbits
	.set	.LANCHOR13,. + 0
	.type	__FUNCTION__.20893, %object
	.size	__FUNCTION__.20893, 18
__FUNCTION__.20893:
	.ascii	"hci_thermal_check\000"
	.section	.rodata.__FUNCTION__.20930,"a",%progbits
	.set	.LANCHOR5,. + 0
	.type	__FUNCTION__.20930, %object
	.size	__FUNCTION__.20930, 22
__FUNCTION__.20930:
	.ascii	"hci_tp_download_patch\000"
	.section	.rodata.__FUNCTION__.20946,"a",%progbits
	.set	.LANCHOR9,. + 0
	.type	__FUNCTION__.20946, %object
	.size	__FUNCTION__.20946, 31
__FUNCTION__.20946:
	.ascii	"hci_tp_set_controller_baudrate\000"
	.section	.rodata.__func__.20848,"a",%progbits
	.set	.LANCHOR1,. + 0
	.type	__func__.20848, %object
	.size	__func__.20848, 22
__func__.20848:
	.ascii	"hci_tp_read_local_ver\000"
	.section	.rodata.__func__.20863,"a",%progbits
	.set	.LANCHOR2,. + 0
	.type	__func__.20863, %object
	.size	__func__.20863, 20
__func__.20863:
	.ascii	"hci_tp_read_rom_ver\000"
	.section	.rodata.__func__.20881,"a",%progbits
	.set	.LANCHOR12,. + 0
	.type	__func__.20881, %object
	.size	__func__.20881, 20
__func__.20881:
	.ascii	"hci_tp_read_thermal\000"
	.section	.rodata.__func__.20929,"a",%progbits
	.set	.LANCHOR4,. + 0
	.type	__func__.20929, %object
	.size	__func__.20929, 22
__func__.20929:
	.ascii	"hci_tp_download_patch\000"
	.section	.rodata.__func__.20945,"a",%progbits
	.set	.LANCHOR8,. + 0
	.type	__func__.20945, %object
	.size	__func__.20945, 31
__func__.20945:
	.ascii	"hci_tp_set_controller_baudrate\000"
	.section	.rodata.__func__.20973,"a",%progbits
	.set	.LANCHOR15,. + 0
	.type	__func__.20973, %object
	.size	__func__.20973, 20
__func__.20973:
	.ascii	"hci_tp_rf_radio_ver\000"
	.section	.rodata.__func__.20990,"a",%progbits
	.set	.LANCHOR6,. + 0
	.type	__func__.20990, %object
	.size	__func__.20990, 23
__func__.20990:
	.ascii	"hci_tp_write_efuse_iqk\000"
	.section	.rodata.__func__.20997,"a",%progbits
	.set	.LANCHOR3,. + 0
	.type	__func__.20997, %object
	.size	__func__.20997, 17
__func__.20997:
	.ascii	"hci_tp_hci_reset\000"
	.section	.rodata.__func__.21005,"a",%progbits
	.set	.LANCHOR17,. + 0
	.type	__func__.21005, %object
	.size	__func__.21005, 19
__func__.21005:
	.ascii	"hci_tp_tx_test_cmd\000"
	.section	.rodata.__func__.21011,"a",%progbits
	.set	.LANCHOR18,. + 0
	.type	__func__.21011, %object
	.size	__func__.21011, 19
__func__.21011:
	.ascii	"hci_tp_rx_test_cmd\000"
	.section	.rodata.__func__.21017,"a",%progbits
	.set	.LANCHOR19,. + 0
	.type	__func__.21017, %object
	.size	__func__.21017, 20
__func__.21017:
	.ascii	"hci_tp_test_end_cmd\000"
	.section	.rodata.hci_read_local_version_check.str1.1,"aMS",%progbits,1
.LC1:
	.ascii	"%s: Patch already exists\012\000"
	.section	.rodata.hci_read_rom_check.str1.1,"aMS",%progbits,1
.LC2:
	.ascii	"%s: rom_version 0x%04x, bt_hci_chip_id 0x%04x\012\000"
.LC3:
	.ascii	"\015\012%s: error operate\015\012\000"
	.section	.rodata.hci_set_patch.str1.1,"aMS",%progbits,1
.LC10:
	.ascii	"BT patch:svn %d coex svn_version: %x LMP VERSION:%x"
	.ascii	"\012\000"
	.section	.rodata.hci_thermal_check.str1.1,"aMS",%progbits,1
.LC6:
	.ascii	"%s: thermal_check 0x%02x\012\000"
.LC7:
	.ascii	"\012\015thermal_check OK orignal_thermal[1] = %x\012"
	.ascii	"\000"
.LC8:
	.ascii	"\012\015thermal_check OK thermal = %x\012\000"
.LC9:
	.ascii	"%s: thermal_check 0x%02x, time %x\012\000"
	.section	.rodata.hci_tp_download_patch.str1.1,"aMS",%progbits,1
.LC0:
	.ascii	"%s:p_cmd is NULL \012\000"
	.section	.rodata.hci_tp_rf_radio_ver.str1.1,"aMS",%progbits,1
.LC11:
	.ascii	"hci_tp_rf_radio_ver\000"
	.section	.rodata.hci_tp_rf_radio_ver_flow.str1.1,"aMS",%progbits,1
.LC12:
	.ascii	"we need start iqk\015\000"
.LC13:
	.ascii	"IQK error\000"
	.section	.rodata.hci_tp_rx_test_cmd.str1.1,"aMS",%progbits,1
.LC15:
	.ascii	"hci_tp_rx_test_cmd 2402\000"
	.section	.rodata.hci_tp_tx_test_cmd.str1.1,"aMS",%progbits,1
.LC14:
	.ascii	"hci_tp_tx_test_cmd 2402, 0xFF, 0x00\000"
	.section	.rodata.hci_write_rf_check.str1.1,"aMS",%progbits,1
.LC4:
	.ascii	"\012\015IQK OK\000"
.LC5:
	.ascii	"continue add  %x\012\000"
	.text
.Letext0:
	.file 2 "/home/ls/8720cf/sdk-ameba-v7.1d/tools/arm-none-eabi-gcc/asdk/linux/newlib/arm-none-eabi/include/machine/_default_types.h"
	.file 3 "/home/ls/8720cf/sdk-ameba-v7.1d/tools/arm-none-eabi-gcc/asdk/linux/newlib/lib/gcc/arm-none-eabi/6.5.0/include/stddef.h"
	.file 4 "/home/ls/8720cf/sdk-ameba-v7.1d/tools/arm-none-eabi-gcc/asdk/linux/newlib/arm-none-eabi/include/sys/lock.h"
	.file 5 "/home/ls/8720cf/sdk-ameba-v7.1d/tools/arm-none-eabi-gcc/asdk/linux/newlib/arm-none-eabi/include/sys/_types.h"
	.file 6 "/home/ls/8720cf/sdk-ameba-v7.1d/tools/arm-none-eabi-gcc/asdk/linux/newlib/arm-none-eabi/include/sys/reent.h"
	.file 7 "<built-in>"
	.file 8 "/home/ls/8720cf/sdk-ameba-v7.1d/tools/arm-none-eabi-gcc/asdk/linux/newlib/arm-none-eabi/include/sys/_stdint.h"
	.file 9 "/home/ls/8720cf/sdk-ameba-v7.1d/tools/arm-none-eabi-gcc/asdk/linux/newlib/arm-none-eabi/include/time.h"
	.file 10 "/home/ls/8720cf/sdk-ameba-v7.1d/tools/arm-none-eabi-gcc/asdk/linux/newlib/lib/gcc/arm-none-eabi/6.5.0/include/stdarg.h"
	.file 11 "/home/ls/8720cf/sdk-ameba-v7.1d/tools/arm-none-eabi-gcc/asdk/linux/newlib/arm-none-eabi/include/stdio.h"
	.file 12 "/home/ls/8720cf/sdk-ameba-v7.1d/tools/arm-none-eabi-gcc/asdk/linux/newlib/arm-none-eabi/include/stdlib.h"
	.file 13 "../../../component/common/bluetooth/realtek/sdk/board/common/inc/hci_process.h"
	.file 14 "../../../component/soc/realtek/8710c/cmsis/rtl8710c/include/basic_types.h"
	.file 15 "../../../component/soc/realtek/8710c/fwlib/include/hal_api.h"
	.file 16 "../../../component/soc/realtek/8710c/cmsis/cmsis-core/include/core_armv8mml.h"
	.file 17 "../../../component/soc/realtek/8710c/cmsis/rtl8710c/include/system_rtl8710c.h"
	.file 18 "../../../component/soc/realtek/8710c/cmsis/rtl8710c/include/rtl8710c.h"
	.file 19 "../../../component/soc/realtek/8710c/app/rtl_printf/include/log_buf.h"
	.file 20 "../../../component/soc/realtek/8710c/app/stdio_port/stdio_port.h"
	.file 21 "../../../component/soc/realtek/8710c/app/rtl_printf/include/printf_entry.h"
	.file 22 "../../../component/soc/realtek/8710c/app/rtl_printf/include/rt_printf.h"
	.file 23 "../../../component/soc/realtek/8710c/misc/utilities/include/utility.h"
	.file 24 "../../../component/soc/realtek/8710c/cmsis/rtl8710c/include/rtl8710c_irq.h"
	.file 25 "../../../component/soc/realtek/8710c/fwlib/include/rtl8710c_syson_ctrl.h"
	.file 26 "../../../component/soc/realtek/8710c/fwlib/include/rtl8710c_pin_name.h"
	.file 27 "../../../component/soc/realtek/8710c/fwlib/include/rtl8710c_cache.h"
	.file 28 "../../../component/soc/realtek/8710c/fwlib/include/rtl8710c_gdma.h"
	.file 29 "../../../component/soc/realtek/8710c/fwlib/include/rtl8710c_uart.h"
	.file 30 "../../../component/soc/realtek/8710c/fwlib/include/rtl8710c_timer.h"
	.file 31 "../../../component/soc/realtek/8710c/fwlib/include/rtl8710c_pwm.h"
	.file 32 "../../../component/soc/realtek/8710c/fwlib/include/rtl8710c_ssi.h"
	.file 33 "../../../component/soc/realtek/8710c/fwlib/include/rtl8710c_gpio.h"
	.file 34 "../../../component/soc/realtek/8710c/fwlib/include/rtl8710c_lpi.h"
	.file 35 "../../../component/soc/realtek/8710c/fwlib/include/rtl8710c_sce.h"
	.file 36 "../../../component/soc/realtek/8710c/fwlib/include/rtl8710c_misc.h"
	.file 37 "../../../component/soc/realtek/8710c/fwlib/include/hal_cache.h"
	.file 38 "../../../component/soc/realtek/8710c/fwlib/include/hal_crypto.h"
	.file 39 "../../../component/soc/realtek/8710c/fwlib/include/hal_gdma.h"
	.file 40 "../../../component/soc/realtek/8710c/fwlib/include/hal_gpio.h"
	.file 41 "../../../component/soc/realtek/8710c/fwlib/include/hal_irq.h"
	.file 42 "../../../component/soc/realtek/8710c/fwlib/include/hal_misc.h"
	.file 43 "../../../component/soc/realtek/8710c/fwlib/include/hal_pwm.h"
	.file 44 "../../../component/soc/realtek/8710c/fwlib/include/hal_ssi.h"
	.file 45 "../../../component/soc/realtek/8710c/fwlib/include/hal_timer.h"
	.file 46 "../../../component/soc/realtek/8710c/fwlib/include/hal_uart.h"
	.file 47 "../../../component/soc/realtek/8710c/fwlib/include/hal_lpi.h"
	.file 48 "../../../component/soc/realtek/8710c/fwlib/include/hal_sce.h"
	.file 49 "../../../component/common/bluetooth/realtek/sdk/inc/platform/mem_types.h"
	.file 50 "../../../component/common/bluetooth/realtek/sdk/inc/platform/trace.h"
	.file 51 "../../../component/common/bluetooth/realtek/sdk/inc/os/os_mem.h"
	.file 52 "../../../component/common/bluetooth/realtek/sdk/board/common/inc/hci_uart.h"
	.file 53 "../../../component/common/bluetooth/realtek/sdk/inc/os/os_sched.h"
	.file 54 "../../../component/common/bluetooth/realtek/sdk/board/amebaz2/src/bt_board.h"