	.arch armv8-m.main
	.arch_extension dsp
	.eabi_attribute 20, 1
	.eabi_attribute 21, 1
	.eabi_attribute 23, 3
	.eabi_attribute 24, 1
	.eabi_attribute 25, 1
	.eabi_attribute 26, 1
	.eabi_attribute 30, 4
	.eabi_attribute 34, 1
	.eabi_attribute 18, 4
	.file	"heap_5.c"
	.text
.Ltext0:
	.cfi_sections	.debug_frame
	.section	.text.prvInsertBlockIntoFreeList,"ax",%progbits
	.align	1
	.syntax unified
	.thumb
	.thumb_func
	.fpu softvfp
	.type	prvInsertBlockIntoFreeList, %function
prvInsertBlockIntoFreeList:
.LFB296:
	.file 1 "../../../component/os/freertos/freertos_v10.0.1/Source/portable/MemMang/heap_5.c"
	.loc 1 489 0
	.cfi_startproc
	@ args = 0, pretend = 0, frame = 0
	@ frame_needed = 0, uses_anonymous_args = 0
.LVL0:
	push	{r4, lr}
	.cfi_def_cfa_offset 8
	.cfi_offset 4, -8
	.cfi_offset 14, -4
	.loc 1 495 0
	ldr	r3, .L9
.LVL1:
.L2:
	.loc 1 495 0 is_stmt 0 discriminator 1
	ldr	r2, [r3]
	cmp	r2, r0
	bcc	.L8
.LVL2:
	.loc 1 503 0 is_stmt 1
	ldr	r4, [r3, #4]
	adds	r1, r3, r4
	cmp	r0, r1
	.loc 1 505 0
	itttt	eq
	ldreq	r1, [r0, #4]
	moveq	r0, r3
.LVL3:
	addeq	r1, r1, r4
	streq	r1, [r3, #4]
.LVL4:
	.loc 1 516 0
	ldr	r4, [r0, #4]
	adds	r1, r0, r4
	cmp	r2, r1
	bne	.L4
	.loc 1 518 0
	ldr	r1, .L9+4
	ldr	r1, [r1]
	cmp	r2, r1
	.loc 1 521 0
	itttt	ne
	ldrne	r1, [r2, #4]
	.loc 1 522 0
	ldrne	r2, [r2]
	.loc 1 521 0
	addne	r1, r1, r4
	strne	r1, [r0, #4]
.L4:
	.loc 1 538 0
	cmp	r0, r3
	.loc 1 531 0
	str	r2, [r0]
	.loc 1 540 0
	it	ne
	strne	r0, [r3]
	pop	{r4, pc}
.LVL5:
.L8:
	mov	r3, r2
.LVL6:
	b	.L2
.L10:
	.align	2
.L9:
	.word	.LANCHOR0
	.word	.LANCHOR1
	.cfi_endproc
.LFE296:
	.size	prvInsertBlockIntoFreeList, .-prvInsertBlockIntoFreeList
	.section	.text.dump_mem_block_list,"ax",%progbits
	.align	1
	.global	dump_mem_block_list
	.syntax unified
	.thumb
	.thumb_func
	.fpu softvfp
	.type	dump_mem_block_list, %function
dump_mem_block_list:
.LFB289:
	.loc 1 220 0
	.cfi_startproc
	@ args = 0, pretend = 0, frame = 0
	@ frame_needed = 0, uses_anonymous_args = 0
.LVL7:
	push	{r4, r5, r6, lr}
	.cfi_def_cfa_offset 16
	.cfi_offset 4, -16
	.cfi_offset 5, -12
	.cfi_offset 6, -8
	.cfi_offset 14, -4
	.loc 1 224 0
	ldr	r0, .L14
	bl	puts
.LVL8:
	.loc 1 222 0
	movs	r1, #0
	.loc 1 221 0
	ldr	r4, .L14+4
	.loc 1 227 0
	ldr	r5, .L14+8
.LVL9:
.L12:
	.loc 1 225 0
	ldr	r3, [r4]
	cbnz	r3, .L13
	.loc 1 230 0
	pop	{r4, r5, r6, pc}
.LVL10:
.L13:
	.loc 1 227 0
	adds	r6, r1, #1
.LVL11:
	ldr	r3, [r4, #4]
	mov	r2, r4
	mov	r0, r5
	bl	printf
.LVL12:
	.loc 1 228 0
	ldr	r4, [r4]
.LVL13:
	.loc 1 227 0
	mov	r1, r6
	b	.L12
.L15:
	.align	2
.L14:
	.word	.LC0
	.word	.LANCHOR0
	.word	.LC1
	.cfi_endproc
.LFE289:
	.size	dump_mem_block_list, .-dump_mem_block_list
	.section	.text.__vPortFree,"ax",%progbits
	.align	1
	.global	__vPortFree
	.syntax unified
	.thumb
	.thumb_func
	.fpu softvfp
	.type	__vPortFree, %function
__vPortFree:
.LFB291:
	.loc 1 407 0
	.cfi_startproc
	@ args = 0, pretend = 0, frame = 0
	@ frame_needed = 0, uses_anonymous_args = 0
.LVL14:
	push	{r4, lr}
	.cfi_def_cfa_offset 8
	.cfi_offset 4, -8
	.cfi_offset 14, -4
	.loc 1 411 0
	mov	r4, r0
	cmp	r0, #0
	beq	.L16
.LVL15:
	.loc 1 421 0
	ldr	r2, .L34
	ldr	r3, [r0, #-4]
	ldr	r2, [r2]
	tst	r3, r2
	bne	.L18
.LVL16:
.LBB38:
.LBB39:
.LBB40:
	.file 2 "../../../component/soc/realtek/8710c/cmsis/cmsis-core/include/cmsis_gcc.h"
	.loc 2 209 0 discriminator 1
	.syntax unified
@ 209 "../../../component/soc/realtek/8710c/cmsis/cmsis-core/include/cmsis_gcc.h" 1
	MRS r4, ipsr
@ 0 "" 2
	.thumb
	.syntax unified
.LBE40:
.LBE39:
	.loc 1 421 0 discriminator 1
	cbz	r4, .L19
.LVL17:
.L21:
	.loc 1 421 0 is_stmt 0
	ldr	r1, .L34+4
.LVL18:
.L20:
	.loc 1 421 0 is_stmt 1 discriminator 6
	ldr	r4, .L34+8
	ldr	r3, .L34+12
	movw	r2, #421
	ldr	r4, [r4, #28]
	ldr	r0, .L34+16
	blx	r4
.LVL19:
.LBB41:
.LBB42:
	.file 3 "../../../component/os/freertos/freertos_v10.0.1/Source/portable/GCC/ARM_RTL8710C/portmacro.h"
	.loc 3 195 0 discriminator 6
	.syntax unified
@ 195 "../../../component/os/freertos/freertos_v10.0.1/Source/portable/GCC/ARM_RTL8710C/portmacro.h" 1
		mov r3, #64												
	cpsid i													
	msr basepri, r3											
	isb														
	dsb														
	cpsie i													

@ 0 "" 2
.LVL20:
	.thumb
	.syntax unified
.L22:
	b	.L22
.LVL21:
.L19:
.LBE42:
.LBE41:
	.loc 1 421 0 discriminator 2
	bl	xTaskGetSchedulerState
.LVL22:
	cmp	r0, #1
	beq	.L21
	.loc 1 421 0 is_stmt 0 discriminator 4
	mov	r0, r4
	bl	pcTaskGetName
.LVL23:
	mov	r1, r0
.LVL24:
	b	.L20
.LVL25:
.L18:
.LBE38:
	.loc 1 422 0 is_stmt 1
	ldr	r1, [r0, #-8]
	cbz	r1, .L23
.LVL26:
.LBB43:
.LBB44:
.LBB45:
	.loc 2 209 0 discriminator 1
	.syntax unified
@ 209 "../../../component/soc/realtek/8710c/cmsis/cmsis-core/include/cmsis_gcc.h" 1
	MRS r4, ipsr
@ 0 "" 2
	.thumb
	.syntax unified
.LBE45:
.LBE44:
	.loc 1 422 0 discriminator 1
	cbz	r4, .L24
.LVL27:
.L26:
	.loc 1 422 0 is_stmt 0
	ldr	r1, .L34+4
.LVL28:
.L25:
	.loc 1 422 0 is_stmt 1 discriminator 6
	ldr	r4, .L34+8
	ldr	r3, .L34+12
	mov	r2, #422
	ldr	r4, [r4, #28]
	ldr	r0, .L34+20
	blx	r4
.LVL29:
.LBB46:
.LBB47:
	.loc 3 195 0 discriminator 6
	.syntax unified
@ 195 "../../../component/os/freertos/freertos_v10.0.1/Source/portable/GCC/ARM_RTL8710C/portmacro.h" 1
		mov r3, #64												
	cpsid i													
	msr basepri, r3											
	isb														
	dsb														
	cpsie i													

@ 0 "" 2
.LVL30:
	.thumb
	.syntax unified
.L27:
	b	.L27
.LVL31:
.L24:
.LBE47:
.LBE46:
	.loc 1 422 0 discriminator 2
	bl	xTaskGetSchedulerState
.LVL32:
	cmp	r0, #1
	beq	.L26
	.loc 1 422 0 is_stmt 0 discriminator 4
	mov	r0, r4
	bl	pcTaskGetName
.LVL33:
	mov	r1, r0
.LVL34:
	b	.L25
.LVL35:
.L23:
.LBE43:
	.loc 1 430 0 is_stmt 1
	bic	r3, r3, r2
	str	r3, [r0, #-4]
	.loc 1 432 0
	bl	vTaskSuspendAll
.LVL36:
	.loc 1 435 0
	ldr	r2, .L34+24
	ldr	r3, [r4, #-4]
	ldr	r1, [r2]
	.loc 1 437 0
	sub	r0, r4, #8
	.loc 1 435 0
	add	r3, r3, r1
	str	r3, [r2]
	.loc 1 437 0
	bl	prvInsertBlockIntoFreeList
.LVL37:
	.loc 1 451 0
	pop	{r4, lr}
	.cfi_remember_state
	.cfi_restore 14
	.cfi_restore 4
	.cfi_def_cfa_offset 0
.LVL38:
	.loc 1 439 0
	b	xTaskResumeAll
.LVL39:
.L16:
	.cfi_restore_state
	pop	{r4, pc}
.L35:
	.align	2
.L34:
	.word	.LANCHOR2
	.word	.LC2
	.word	stdio_printf_stubs
	.word	.LC3
	.word	.LC4
	.word	.LC5
	.word	.LANCHOR3
	.cfi_endproc
.LFE291:
	.size	__vPortFree, .-__vPortFree
	.section	.text.vPortSetExtFree,"ax",%progbits
	.align	1
	.global	vPortSetExtFree
	.syntax unified
	.thumb
	.thumb_func
	.fpu softvfp
	.type	vPortSetExtFree, %function
vPortSetExtFree:
.LFB292:
	.loc 1 459 0
	.cfi_startproc
	@ args = 0, pretend = 0, frame = 0
	@ frame_needed = 0, uses_anonymous_args = 0
	@ link register save eliminated.
.LVL40:
	.loc 1 460 0
	ldr	r3, .L37
	str	r0, [r3]
	.loc 1 461 0
	ldr	r3, .L37+4
	str	r1, [r3]
	.loc 1 462 0
	ldr	r3, .L37+8
	str	r2, [r3]
	bx	lr
.L38:
	.align	2
.L37:
	.word	.LANCHOR4
	.word	.LANCHOR5
	.word	.LANCHOR6
	.cfi_endproc
.LFE292:
	.size	vPortSetExtFree, .-vPortSetExtFree
	.section	.text.vPortFree,"ax",%progbits
	.align	1
	.global	vPortFree
	.syntax unified
	.thumb
	.thumb_func
	.fpu softvfp
	.type	vPortFree, %function
vPortFree:
.LFB293:
	.loc 1 466 0
	.cfi_startproc
	@ args = 0, pretend = 0, frame = 0
	@ frame_needed = 0, uses_anonymous_args = 0
	@ link register save eliminated.
.LVL41:
	.loc 1 467 0
	ldr	r2, .L42
	.loc 1 466 0
	mov	r3, r0
	.loc 1 467 0
	ldr	r2, [r2]
	cmp	r0, r2
	bcc	.L40
	.loc 1 467 0 is_stmt 0 discriminator 1
	ldr	r2, .L42+4
	ldr	r2, [r2]
	cmp	r0, r2
	bcs	.L40
.LBB50:
.LBB51:
	.loc 1 469 0 is_stmt 1
	ldr	r3, .L42+8
	ldr	r3, [r3]
	cbz	r3, .L39
	bx	r3	@ indirect register sibling call
.LVL42:
.L40:
.LBE51:
.LBE50:
	.loc 1 471 0
	mov	r0, r3
.LVL43:
	b	__vPortFree
.LVL44:
.L39:
	bx	lr
.L43:
	.align	2
.L42:
	.word	.LANCHOR6
	.word	.LANCHOR5
	.word	.LANCHOR4
	.cfi_endproc
.LFE293:
	.size	vPortFree, .-vPortFree
	.section	.text.xPortGetFreeHeapSize,"ax",%progbits
	.align	1
	.global	xPortGetFreeHeapSize
	.syntax unified
	.thumb
	.thumb_func
	.fpu softvfp
	.type	xPortGetFreeHeapSize, %function
xPortGetFreeHeapSize:
.LFB294:
	.loc 1 477 0
	.cfi_startproc
	@ args = 0, pretend = 0, frame = 0
	@ frame_needed = 0, uses_anonymous_args = 0
	@ link register save eliminated.
	.loc 1 479 0
	ldr	r3, .L45
	ldr	r0, [r3]
	bx	lr
.L46:
	.align	2
.L45:
	.word	.LANCHOR3
	.cfi_endproc
.LFE294:
	.size	xPortGetFreeHeapSize, .-xPortGetFreeHeapSize
	.section	.text.xPortGetMinimumEverFreeHeapSize,"ax",%progbits
	.align	1
	.global	xPortGetMinimumEverFreeHeapSize
	.syntax unified
	.thumb
	.thumb_func
	.fpu softvfp
	.type	xPortGetMinimumEverFreeHeapSize, %function
xPortGetMinimumEverFreeHeapSize:
.LFB295:
	.loc 1 483 0
	.cfi_startproc
	@ args = 0, pretend = 0, frame = 0
	@ frame_needed = 0, uses_anonymous_args = 0
	@ link register save eliminated.
	.loc 1 485 0
	ldr	r3, .L48
	ldr	r0, [r3]
	bx	lr
.L49:
	.align	2
.L48:
	.word	.LANCHOR7
	.cfi_endproc
.LFE295:
	.size	xPortGetMinimumEverFreeHeapSize, .-xPortGetMinimumEverFreeHeapSize
	.section	.text.vPortDefineHeapRegions,"ax",%progbits
	.align	1
	.global	vPortDefineHeapRegions
	.syntax unified
	.thumb
	.thumb_func
	.fpu softvfp
	.type	vPortDefineHeapRegions, %function
vPortDefineHeapRegions:
.LFB297:
	.loc 1 550 0
	.cfi_startproc
	@ args = 0, pretend = 0, frame = 0
	@ frame_needed = 0, uses_anonymous_args = 0
.LVL45:
	push	{r4, r5, r6, r7, r8, lr}
	.cfi_def_cfa_offset 24
	.cfi_offset 4, -24
	.cfi_offset 5, -20
	.cfi_offset 6, -16
	.cfi_offset 7, -12
	.cfi_offset 8, -8
	.cfi_offset 14, -4
	.loc 1 559 0
	ldr	r5, .L106
	ldr	r2, [r5]
	.loc 1 559 0
	cbnz	r2, .L51
	mov	r6, r2
	mov	r7, r2
	mov	r4, r2
	.loc 1 608 0
	mov	lr, r2
	.loc 1 585 0
	ldr	ip, .L106+44
	adds	r0, r0, #8
.LVL46:
.L52:
	.loc 1 563 0
	ldr	r3, [r0, #-4]
	cmp	r3, #0
	bne	.L72
	cbz	r6, .L73
	str	r2, [r5]
.L73:
	.loc 1 632 0
	ldr	r3, .L106+4
	str	r4, [r3]
	.loc 1 633 0
	ldr	r3, .L106+8
	str	r4, [r3]
	.loc 1 636 0
	cmp	r4, #0
	bne	.L74
.LVL47:
.LBB52:
.LBB53:
.LBB54:
	.loc 2 209 0 discriminator 1
	.syntax unified
@ 209 "../../../component/soc/realtek/8710c/cmsis/cmsis-core/include/cmsis_gcc.h" 1
	MRS r3, ipsr
@ 0 "" 2
	.thumb
	.syntax unified
.LBE54:
.LBE53:
	.loc 1 636 0 discriminator 1
	cmp	r3, #0
	beq	.L75
.LVL48:
.L77:
	.loc 1 636 0 is_stmt 0
	ldr	r1, .L106+12
.LVL49:
.L76:
	.loc 1 636 0 is_stmt 1 discriminator 6
	ldr	r4, .L106+16
.LVL50:
	ldr	r3, .L106+20
	mov	r2, #636
	ldr	r4, [r4, #28]
	ldr	r0, .L106+24
	blx	r4
.LVL51:
.LBB55:
.LBB56:
	.loc 3 195 0 discriminator 6
	.syntax unified
@ 195 "../../../component/os/freertos/freertos_v10.0.1/Source/portable/GCC/ARM_RTL8710C/portmacro.h" 1
		mov r3, #64												
	cpsid i													
	msr basepri, r3											
	isb														
	dsb														
	cpsie i													

@ 0 "" 2
.LVL52:
	.thumb
	.syntax unified
.L78:
	b	.L78
.LVL53:
.L51:
.LBE56:
.LBE55:
.LBE52:
.LBB57:
.LBB58:
.LBB59:
	.loc 2 209 0 discriminator 1
	.syntax unified
@ 209 "../../../component/soc/realtek/8710c/cmsis/cmsis-core/include/cmsis_gcc.h" 1
	MRS r4, ipsr
@ 0 "" 2
	.thumb
	.syntax unified
.LBE59:
.LBE58:
	.loc 1 559 0 discriminator 1
	cbz	r4, .L53
.LVL54:
.L55:
	.loc 1 559 0 is_stmt 0
	ldr	r1, .L106+12
.LVL55:
.L54:
	.loc 1 559 0 is_stmt 1 discriminator 6
	ldr	r4, .L106+16
	ldr	r3, .L106+20
	movw	r2, #559
	ldr	r4, [r4, #28]
	ldr	r0, .L106+28
	blx	r4
.LVL56:
.LBB60:
.LBB61:
	.loc 3 195 0 discriminator 6
	.syntax unified
@ 195 "../../../component/os/freertos/freertos_v10.0.1/Source/portable/GCC/ARM_RTL8710C/portmacro.h" 1
		mov r3, #64												
	cpsid i													
	msr basepri, r3											
	isb														
	dsb														
	cpsie i													

@ 0 "" 2
.LVL57:
	.thumb
	.syntax unified
.L56:
	b	.L56
.LVL58:
.L53:
.LBE61:
.LBE60:
	.loc 1 559 0 discriminator 2
	bl	xTaskGetSchedulerState
.LVL59:
	cmp	r0, #1
	beq	.L55
	.loc 1 559 0 is_stmt 0 discriminator 4
	mov	r0, r4
	bl	pcTaskGetName
.LVL60:
	mov	r1, r0
.LVL61:
	b	.L54
.LVL62:
.L72:
.LBE57:
	.loc 1 568 0 is_stmt 1
	ldr	r1, [r0, #-8]
.LVL63:
	.loc 1 569 0
	tst	r1, #7
	beq	.L57
	.loc 1 571 0
	add	r8, r1, #7
.LVL64:
	.loc 1 572 0
	bic	r8, r8, #7
.LVL65:
	.loc 1 575 0
	add	r3, r3, r1
.LVL66:
	.loc 1 572 0
	mov	r1, r8
	.loc 1 575 0
	sub	r3, r3, r8
.LVL67:
.L57:
	.loc 1 581 0
	cbnz	r7, .L58
	.loc 1 586 0
	stm	ip, {r1, r7}
.L59:
.LVL68:
	.loc 1 604 0
	add	r3, r3, r1
.LVL69:
	.loc 1 605 0
	subs	r3, r3, #8
.LVL70:
	.loc 1 606 0
	bic	r3, r3, #7
.LVL71:
	.loc 1 615 0
	subs	r6, r3, r1
	.loc 1 608 0
	str	lr, [r3, #4]
	.loc 1 609 0
	str	lr, [r3]
.LVL72:
	.loc 1 616 0
	stm	r1, {r3, r6}
	.loc 1 620 0
	cbz	r2, .L71
	.loc 1 622 0
	str	r1, [r2]
.L71:
	.loc 1 625 0
	add	r4, r4, r6
.LVL73:
	.loc 1 628 0
	adds	r7, r7, #1
.LVL74:
	adds	r0, r0, #8
.LVL75:
	movs	r6, #1
	mov	r2, r3
.LVL76:
	b	.L52
.LVL77:
.L58:
	.loc 1 592 0
	cbnz	r2, .L60
	cbz	r6, .L61
	str	r2, [r5]
.L61:
.LVL78:
.LBB62:
.LBB63:
.LBB64:
	.loc 2 209 0 discriminator 1
	.syntax unified
@ 209 "../../../component/soc/realtek/8710c/cmsis/cmsis-core/include/cmsis_gcc.h" 1
	MRS r4, ipsr
@ 0 "" 2
.LVL79:
	.thumb
	.syntax unified
.LBE64:
.LBE63:
	.loc 1 592 0 discriminator 1
	cbz	r4, .L62
.LVL80:
.L64:
	.loc 1 592 0 is_stmt 0
	ldr	r1, .L106+12
.LVL81:
.L63:
	.loc 1 592 0 is_stmt 1 discriminator 6
	ldr	r4, .L106+16
	ldr	r3, .L106+20
	mov	r2, #592
	ldr	r4, [r4, #28]
	ldr	r0, .L106+32
	blx	r4
.LVL82:
.LBB65:
.LBB66:
	.loc 3 195 0 discriminator 6
	.syntax unified
@ 195 "../../../component/os/freertos/freertos_v10.0.1/Source/portable/GCC/ARM_RTL8710C/portmacro.h" 1
		mov r3, #64												
	cpsid i													
	msr basepri, r3											
	isb														
	dsb														
	cpsie i													

@ 0 "" 2
.LVL83:
	.thumb
	.syntax unified
.L65:
	b	.L65
.LVL84:
.L62:
.LBE66:
.LBE65:
	.loc 1 592 0 discriminator 2
	bl	xTaskGetSchedulerState
.LVL85:
	cmp	r0, #1
	beq	.L64
	.loc 1 592 0 is_stmt 0 discriminator 4
	mov	r0, r4
	bl	pcTaskGetName
.LVL86:
	mov	r1, r0
.LVL87:
	b	.L63
.LVL88:
.L60:
.LBE62:
	.loc 1 595 0 is_stmt 1
	cmp	r2, r1
	bcc	.L59
	cbz	r6, .L66
	str	r2, [r5]
.L66:
.LVL89:
.LBB67:
.LBB68:
.LBB69:
	.loc 2 209 0 discriminator 1
	.syntax unified
@ 209 "../../../component/soc/realtek/8710c/cmsis/cmsis-core/include/cmsis_gcc.h" 1
	MRS r4, ipsr
@ 0 "" 2
.LVL90:
	.thumb
	.syntax unified
.LBE69:
.LBE68:
	.loc 1 595 0 discriminator 1
	cbz	r4, .L67
.LVL91:
.L69:
	.loc 1 595 0 is_stmt 0
	ldr	r1, .L106+12
.LVL92:
.L68:
	.loc 1 595 0 is_stmt 1 discriminator 6
	ldr	r4, .L106+16
	ldr	r3, .L106+20
	movw	r2, #595
	ldr	r4, [r4, #28]
	ldr	r0, .L106+36
	blx	r4
.LVL93:
.LBB70:
.LBB71:
	.loc 3 195 0 discriminator 6
	.syntax unified
@ 195 "../../../component/os/freertos/freertos_v10.0.1/Source/portable/GCC/ARM_RTL8710C/portmacro.h" 1
		mov r3, #64												
	cpsid i													
	msr basepri, r3											
	isb														
	dsb														
	cpsie i													

@ 0 "" 2
.LVL94:
	.thumb
	.syntax unified
.L70:
	b	.L70
.LVL95:
.L67:
.LBE71:
.LBE70:
	.loc 1 595 0 discriminator 2
	bl	xTaskGetSchedulerState
.LVL96:
	cmp	r0, #1
	beq	.L69
	.loc 1 595 0 is_stmt 0 discriminator 4
	mov	r0, r4
	bl	pcTaskGetName
.LVL97:
	mov	r1, r0
.LVL98:
	b	.L68
.LVL99:
.L75:
.LBE67:
.LBB72:
	.loc 1 636 0 is_stmt 1 discriminator 2
	bl	xTaskGetSchedulerState
.LVL100:
	cmp	r0, #1
	beq	.L77
	.loc 1 636 0 is_stmt 0 discriminator 4
	mov	r0, r4
	bl	pcTaskGetName
.LVL101:
	mov	r1, r0
.LVL102:
	b	.L76
.LVL103:
.L74:
.LBE72:
	.loc 1 639 0 is_stmt 1
	mov	r2, #-2147483648
	ldr	r3, .L106+40
	str	r2, [r3]
	pop	{r4, r5, r6, r7, r8, pc}
.LVL104:
.L107:
	.align	2
.L106:
	.word	.LANCHOR1
	.word	.LANCHOR7
	.word	.LANCHOR3
	.word	.LC2
	.word	stdio_printf_stubs
	.word	.LC3
	.word	.LC9
	.word	.LC6
	.word	.LC7
	.word	.LC8
	.word	.LANCHOR2
	.word	.LANCHOR0
	.cfi_endproc
.LFE297:
	.size	vPortDefineHeapRegions, .-vPortDefineHeapRegions
	.section	.text.pvPortMalloc,"ax",%progbits
	.align	1
	.global	pvPortMalloc
	.syntax unified
	.thumb
	.thumb_func
	.fpu softvfp
	.type	pvPortMalloc, %function
pvPortMalloc:
.LFB290:
	.loc 1 247 0
	.cfi_startproc
	@ args = 0, pretend = 0, frame = 0
	@ frame_needed = 0, uses_anonymous_args = 0
.LVL105:
	push	{r3, r4, r5, r6, r7, r8, r9, lr}
	.cfi_def_cfa_offset 32
	.cfi_offset 3, -32
	.cfi_offset 4, -28
	.cfi_offset 5, -24
	.cfi_offset 6, -20
	.cfi_offset 7, -16
	.cfi_offset 8, -12
	.cfi_offset 9, -8
	.cfi_offset 14, -4
	.loc 1 252 0
	ldr	r7, .L138
	.loc 1 247 0
	mov	r4, r0
	.loc 1 252 0
	ldr	r3, [r7]
	cbnz	r3, .L109
	.loc 1 258 0
	ldr	r2, .L138+4
	ldr	r3, .L138+8
	ldr	r5, .L138+12
	subs	r3, r3, r2
	.loc 1 259 0
	stm	r5, {r2, r3}
	.loc 1 260 0
	bl	hal_get_flash_port_cfg
.LVL106:
	cmp	r0, #1
	beq	.L111
	.loc 1 261 0
	bl	hal_lpcram_is_valid
.LVL107:
	cbnz	r0, .L111
	.loc 1 262 0
	ldr	r2, .L138+16
	ldr	r3, .L138+20
	.loc 1 263 0
	str	r2, [r5, #8]
	.loc 1 262 0
	subs	r3, r3, r2
	str	r3, [r5, #12]
.L111:
	.loc 1 267 0
	ldr	r0, .L138+12
	bl	vPortDefineHeapRegions
.LVL108:
.L109:
	.loc 1 273 0
	ldr	r3, [r7]
	cbnz	r3, .L113
.LVL109:
.LBB73:
.LBB74:
.LBB75:
	.loc 2 209 0 discriminator 1
	.syntax unified
@ 209 "../../../component/soc/realtek/8710c/cmsis/cmsis-core/include/cmsis_gcc.h" 1
	MRS r4, ipsr
@ 0 "" 2
.LVL110:
	.thumb
	.syntax unified
.LBE75:
.LBE74:
	.loc 1 273 0 discriminator 1
	cbz	r4, .L114
.L116:
	.loc 1 273 0 is_stmt 0
	ldr	r1, .L138+24
.LVL111:
.L115:
	.loc 1 273 0 is_stmt 1 discriminator 6
	ldr	r4, .L138+28
	ldr	r3, .L138+32
	movw	r2, #273
	ldr	r4, [r4, #28]
	ldr	r0, .L138+36
	blx	r4
.LVL112:
.LBB76:
.LBB77:
	.loc 3 195 0 discriminator 6
	.syntax unified
@ 195 "../../../component/os/freertos/freertos_v10.0.1/Source/portable/GCC/ARM_RTL8710C/portmacro.h" 1
		mov r3, #64												
	cpsid i													
	msr basepri, r3											
	isb														
	dsb														
	cpsie i													

@ 0 "" 2
.LVL113:
	.thumb
	.syntax unified
.L117:
	b	.L117
.LVL114:
.L114:
.LBE77:
.LBE76:
	.loc 1 273 0 discriminator 2
	bl	xTaskGetSchedulerState
.LVL115:
	cmp	r0, #1
	beq	.L116
	.loc 1 273 0 is_stmt 0 discriminator 4
	mov	r0, r4
	bl	pcTaskGetName
.LVL116:
	mov	r1, r0
.LVL117:
	b	.L115
.LVL118:
.L113:
.LBE73:
	.loc 1 275 0 is_stmt 1
	bl	vTaskSuspendAll
.LVL119:
	.loc 1 281 0
	ldr	r3, .L138+40
	ldr	r8, [r3]
	tst	r8, r4
	bne	.L130
	.loc 1 285 0
	cbz	r4, .L130
	.loc 1 287 0
	add	r3, r4, #8
.LVL120:
	.loc 1 291 0
	lsls	r2, r3, #29
	.loc 1 294 0
	itt	ne
	bicne	r3, r3, #7
.LVL121:
	addne	r3, r3, #8
.LVL122:
	.loc 1 306 0
	cbz	r3, .L130
	.loc 1 306 0 is_stmt 0 discriminator 1
	ldr	r2, .L138+44
	ldr	r6, [r2]
	mov	r9, r2
	cmp	r3, r6
	bhi	.L130
.LVL123:
	.loc 1 311 0 is_stmt 1
	ldr	r1, .L138+48
	ldr	r5, [r1]
.LVL124:
.L122:
	.loc 1 312 0
	ldr	r4, [r5, #4]
	cmp	r3, r4
	bhi	.L120
.L123:
	.loc 1 320 0
	ldr	r2, [r7]
	cmp	r5, r2
	bne	.L121
.LVL125:
.L130:
	.loc 1 249 0
	movs	r7, #0
	b	.L118
.LVL126:
.L120:
	.loc 1 312 0 discriminator 1
	ldr	r2, [r5]
	cmp	r2, #0
	beq	.L123
	mov	r1, r5
	mov	r5, r2
.LVL127:
	b	.L122
.LVL128:
.L121:
	.loc 1 324 0
	ldr	r7, [r1]
	.loc 1 328 0
	ldr	r2, [r5]
	.loc 1 332 0
	subs	r4, r4, r3
	cmp	r4, #16
	.loc 1 324 0
	add	r7, r7, #8
.LVL129:
	.loc 1 328 0
	str	r2, [r1]
	.loc 1 332 0
	bls	.L124
	.loc 1 338 0
	adds	r0, r5, r3
.LVL130:
	.loc 1 342 0
	str	r4, [r0, #4]
	.loc 1 343 0
	str	r3, [r5, #4]
	.loc 1 346 0
	bl	prvInsertBlockIntoFreeList
.LVL131:
.L124:
	.loc 1 353 0
	ldr	r3, [r5, #4]
	.loc 1 355 0
	ldr	r1, .L138+52
	.loc 1 353 0
	subs	r6, r6, r3
	.loc 1 366 0
	orr	r3, r8, r3
	str	r3, [r5, #4]
	.loc 1 367 0
	movs	r3, #0
	.loc 1 355 0
	ldr	r0, [r1]
	.loc 1 353 0
	str	r6, [r9]
	.loc 1 355 0
	cmp	r6, r0
	.loc 1 357 0
	it	cc
	strcc	r6, [r1]
	.loc 1 367 0
	str	r3, [r5]
.LVL132:
.L118:
	.loc 1 386 0
	bl	xTaskResumeAll
.LVL133:
	.loc 1 390 0
	cbnz	r7, .L108
.LVL134:
.LBB78:
	.loc 1 393 0
	bl	vApplicationMallocFailedHook
.LVL135:
.L108:
.LBE78:
	.loc 1 403 0
	mov	r0, r7
	pop	{r3, r4, r5, r6, r7, r8, r9, pc}
.L139:
	.align	2
.L138:
	.word	.LANCHOR1
	.word	__bss_end__
	.word	__sram_end__
	.word	.LANCHOR8
	.word	__eram_bss_end__
	.word	__eram_end__
	.word	.LC2
	.word	stdio_printf_stubs
	.word	.LC3
	.word	.LC10
	.word	.LANCHOR2
	.word	.LANCHOR3
	.word	.LANCHOR0
	.word	.LANCHOR7
	.cfi_endproc
.LFE290:
	.size	pvPortMalloc, .-pvPortMalloc
	.section	.text.pvPortReAlloc,"ax",%progbits
	.align	1
	.global	pvPortReAlloc
	.syntax unified
	.thumb
	.thumb_func
	.fpu softvfp
	.type	pvPortReAlloc, %function
pvPortReAlloc:
.LFB298:
	.loc 1 643 0
	.cfi_startproc
	@ args = 0, pretend = 0, frame = 0
	@ frame_needed = 0, uses_anonymous_args = 0
.LVL136:
	push	{r3, r4, r5, r6, r7, lr}
	.cfi_def_cfa_offset 24
	.cfi_offset 3, -24
	.cfi_offset 4, -20
	.cfi_offset 5, -16
	.cfi_offset 6, -12
	.cfi_offset 7, -8
	.cfi_offset 14, -4
	.loc 1 646 0
	ldr	r3, .L155
	.loc 1 643 0
	mov	r4, r0
	.loc 1 646 0
	ldr	r3, [r3]
	.loc 1 643 0
	mov	r5, r1
	.loc 1 646 0
	cmp	r0, r3
	bcc	.L141
	.loc 1 646 0 is_stmt 0 discriminator 1
	ldr	r3, .L155+4
	ldr	r3, [r3]
	cmp	r0, r3
	bcs	.L141
	.loc 1 647 0 is_stmt 1
	ldr	r3, .L155+8
	ldr	r3, [r3]
	cbz	r3, .L142
	.loc 1 647 0 is_stmt 0 discriminator 1
	blx	r3
.LVL137:
.L142:
	.loc 1 686 0 is_stmt 1
	cbz	r5, .L145
	.loc 1 687 0
	mov	r0, r5
	.loc 1 692 0
	pop	{r3, r4, r5, r6, r7, lr}
	.cfi_remember_state
	.cfi_restore 14
	.cfi_restore 7
	.cfi_restore 6
	.cfi_restore 5
	.cfi_restore 4
	.cfi_restore 3
	.cfi_def_cfa_offset 0
.LVL138:
	.loc 1 687 0
	b	pvPortMalloc
.LVL139:
.L141:
	.cfi_restore_state
	.loc 1 653 0
	cmp	r4, #0
	beq	.L142
.LBB83:
	.loc 1 655 0
	cbnz	r5, .L143
	.loc 1 657 0
	mov	r0, r4
	bl	vPortFree
.LVL140:
.L145:
.LBE83:
	.loc 1 689 0
	mov	r6, r5
	b	.L140
.LVL141:
.L143:
.LBB89:
	.loc 1 661 0
	mov	r0, r5
.LVL142:
	bl	pvPortMalloc
.LVL143:
	.loc 1 662 0
	mov	r6, r0
	cbz	r0, .L140
.LVL144:
.LBB84:
	.loc 1 671 0
	ldr	r7, .L155+12
	ldr	r2, [r4, #-4]
	ldr	r3, [r7]
.LBB85:
.LBB86:
	.file 4 "../../../component/soc/realtek/8710c/misc/utilities/include/memory.h"
	.loc 4 81 0
	mov	r1, r4
.LBE86:
.LBE85:
	.loc 1 671 0
	bic	r2, r2, r3
	subs	r2, r2, #8
.LVL145:
.LBB88:
.LBB87:
	.loc 4 81 0
	ldr	r3, .L155+16
	cmp	r2, r5
	it	cs
	movcs	r2, r5
.LVL146:
	ldr	r3, [r3, #16]
	blx	r3
.LVL147:
.LBE87:
.LBE88:
	.loc 1 675 0
	bl	vTaskSuspendAll
.LVL148:
	.loc 1 679 0
	ldr	r1, .L155+20
	.loc 1 678 0
	ldr	r2, [r7]
	ldr	r3, [r4, #-4]
	.loc 1 680 0
	sub	r0, r4, #8
.LVL149:
	.loc 1 678 0
	bic	r3, r3, r2
	.loc 1 679 0
	ldr	r2, [r1]
	.loc 1 678 0
	str	r3, [r4, #-4]
	.loc 1 679 0
	add	r3, r3, r2
	str	r3, [r1]
	.loc 1 680 0
	bl	prvInsertBlockIntoFreeList
.LVL150:
	.loc 1 682 0
	bl	xTaskResumeAll
.LVL151:
.L140:
.LBE84:
.LBE89:
	.loc 1 692 0
	mov	r0, r6
	pop	{r3, r4, r5, r6, r7, pc}
.LVL152:
.L156:
	.align	2
.L155:
	.word	.LANCHOR6
	.word	.LANCHOR5
	.word	.LANCHOR4
	.word	.LANCHOR2
	.word	utility_stubs
	.word	.LANCHOR3
	.cfi_endproc
.LFE298:
	.size	pvPortReAlloc, .-pvPortReAlloc
	.section	.text.pvPortCalloc,"ax",%progbits
	.align	1
	.global	pvPortCalloc
	.syntax unified
	.thumb
	.thumb_func
	.fpu softvfp
	.type	pvPortCalloc, %function
pvPortCalloc:
.LFB299:
	.loc 1 695 0
	.cfi_startproc
	@ args = 0, pretend = 0, frame = 0
	@ frame_needed = 0, uses_anonymous_args = 0
.LVL153:
	push	{r3, r4, r5, lr}
	.cfi_def_cfa_offset 16
	.cfi_offset 3, -16
	.cfi_offset 4, -12
	.cfi_offset 5, -8
	.cfi_offset 14, -4
	.loc 1 699 0
	mul	r4, r1, r0
	mov	r0, r4
.LVL154:
	bl	pvPortMalloc
.LVL155:
	.loc 1 700 0
	mov	r5, r0
	cbz	r0, .L157
.LVL156:
.LBB92:
.LBB93:
	.loc 4 114 0
	ldr	r3, .L162
	mov	r2, r4
	ldr	r3, [r3, #24]
	movs	r1, #0
	blx	r3
.LVL157:
.L157:
.LBE93:
.LBE92:
	.loc 1 705 0
	mov	r0, r5
	pop	{r3, r4, r5, pc}
.LVL158:
.L163:
	.align	2
.L162:
	.word	utility_stubs
	.cfi_endproc
.LFE299:
	.size	pvPortCalloc, .-pvPortCalloc
	.global	xHeapRegions
	.section	.bss.ext_free,"aw",%nobits
	.align	2
	.set	.LANCHOR4,. + 0
	.type	ext_free, %object
	.size	ext_free, 4
ext_free:
	.space	4
	.section	.bss.ext_lower,"aw",%nobits
	.align	2
	.set	.LANCHOR6,. + 0
	.type	ext_lower, %object
	.size	ext_lower, 4
ext_lower:
	.space	4
	.section	.bss.ext_upper,"aw",%nobits
	.align	2
	.set	.LANCHOR5,. + 0
	.type	ext_upper, %object
	.size	ext_upper, 4
ext_upper:
	.space	4
	.section	.bss.pxEnd,"aw",%nobits
	.align	2
	.set	.LANCHOR1,. + 0
	.type	pxEnd, %object
	.size	pxEnd, 4
pxEnd:
	.space	4
	.section	.bss.xBlockAllocatedBit,"aw",%nobits
	.align	2
	.set	.LANCHOR2,. + 0
	.type	xBlockAllocatedBit, %object
	.size	xBlockAllocatedBit, 4
xBlockAllocatedBit:
	.space	4
	.section	.bss.xFreeBytesRemaining,"aw",%nobits
	.align	2
	.set	.LANCHOR3,. + 0
	.type	xFreeBytesRemaining, %object
	.size	xFreeBytesRemaining, 4
xFreeBytesRemaining:
	.space	4
	.section	.bss.xHeapRegions,"aw",%nobits
	.align	2
	.set	.LANCHOR8,. + 0
	.type	xHeapRegions, %object
	.size	xHeapRegions, 24
xHeapRegions:
	.space	24
	.section	.bss.xMinimumEverFreeBytesRemaining,"aw",%nobits
	.align	2
	.set	.LANCHOR7,. + 0
	.type	xMinimumEverFreeBytesRemaining, %object
	.size	xMinimumEverFreeBytesRemaining, 4
xMinimumEverFreeBytesRemaining:
	.space	4
	.section	.bss.xStart,"aw",%nobits
	.align	2
	.set	.LANCHOR0,. + 0
	.type	xStart, %object
	.size	xStart, 8
xStart:
	.space	8
	.section	.rodata.__vPortFree.str1.1,"aMS",%progbits,1
.LC2:
	.ascii	"ISR\000"
.LC3:
	.ascii	"../../../component/os/freertos/freertos_v10.0.1/Sou"
	.ascii	"rce/portable/MemMang/heap_5.c\000"
.LC4:
	.ascii	"\012\015[%s]Assert(( pxLink->xBlockSize & xBlockAll"
	.ascii	"ocatedBit ) != 0) failed on line %d in file %s\015\012"
	.ascii	"\000"
.LC5:
	.ascii	"\012\015[%s]Assert(pxLink->pxNextFreeBlock == NULL)"
	.ascii	" failed on line %d in file %s\015\012\000"
	.section	.rodata.dump_mem_block_list.str1.1,"aMS",%progbits,1
.LC0:
	.ascii	"\012===============================>Memory List:\000"
.LC1:
	.ascii	"[%d]=0x%p, %d\012\000"
	.section	.rodata.pvPortMalloc.str1.1,"aMS",%progbits,1
.LC10:
	.ascii	"\012\015[%s]Assert(pxEnd) failed on line %d in file"
	.ascii	" %s\015\012\000"
	.section	.rodata.vPortDefineHeapRegions.str1.1,"aMS",%progbits,1
.LC6:
	.ascii	"\012\015[%s]Assert(pxEnd == NULL) failed on line %d"
	.ascii	" in file %s\015\012\000"
.LC7:
	.ascii	"\012\015[%s]Assert(pxEnd != NULL) failed on line %d"
	.ascii	" in file %s\015\012\000"
.LC8:
	.ascii	"\012\015[%s]Assert(xAddress > ( size_t ) pxEnd) fai"
	.ascii	"led on line %d in file %s\015\012\000"
.LC9:
	.ascii	"\012\015[%s]Assert(xTotalHeapSize) failed on line %"
	.ascii	"d in file %s\015\012\000"
	.text
.Letext0:
	.file 5 "/home/ls/samba_share/sdk-ameba-v7.1d/tools/arm-none-eabi-gcc/asdk/linux/newlib/arm-none-eabi/include/machine/_default_types.h"
	.file 6 "/home/ls/samba_share/sdk-ameba-v7.1d/tools/arm-none-eabi-gcc/asdk/linux/newlib/lib/gcc/arm-none-eabi/6.5.0/include/stddef.h"
	.file 7 "/home/ls/samba_share/sdk-ameba-v7.1d/tools/arm-none-eabi-gcc/asdk/linux/newlib/arm-none-eabi/include/sys/lock.h"
	.file 8 "/home/ls/samba_share/sdk-ameba-v7.1d/tools/arm-none-eabi-gcc/asdk/linux/newlib/arm-none-eabi/include/sys/_types.h"
	.file 9 "/home/ls/samba_share/sdk-ameba-v7.1d/tools/arm-none-eabi-gcc/asdk/linux/newlib/arm-none-eabi/include/sys/reent.h"
	.file 10 "<built-in>"
	.file 11 "/home/ls/samba_share/sdk-ameba-v7.1d/tools/arm-none-eabi-gcc/asdk/linux/newlib/arm-none-eabi/include/sys/_stdint.h"
	.file 12 "/home/ls/samba_share/sdk-ameba-v7.1d/tools/arm-none-eabi-gcc/asdk/linux/newlib/arm-none-eabi/include/time.h"
	.file 13 "/home/ls/samba_share/sdk-ameba-v7.1d/tools/arm-none-eabi-gcc/asdk/linux/newlib/arm-none-eabi/include/stdlib.h"
	.file 14 "../inc/FreeRTOSConfig.h"
	.file 15 "../../../component/soc/realtek/8710c/cmsis/rtl8710c/include/basic_types.h"
	.file 16 "/home/ls/samba_share/sdk-ameba-v7.1d/tools/arm-none-eabi-gcc/asdk/linux/newlib/lib/gcc/arm-none-eabi/6.5.0/include/stdarg.h"
	.file 17 "../../../component/soc/realtek/8710c/app/rtl_printf/include/log_buf.h"
	.file 18 "../../../component/soc/realtek/8710c/app/stdio_port/stdio_port.h"
	.file 19 "../../../component/soc/realtek/8710c/app/rtl_printf/include/printf_entry.h"
	.file 20 "../../../component/soc/realtek/8710c/app/rtl_printf/include/rt_printf.h"
	.file 21 "../../../component/soc/realtek/8710c/misc/utilities/include/utility.h"
	.file 22 "../../../component/os/freertos/freertos_v10.0.1/Source/include/portable.h"
	.file 23 "../../../component/soc/realtek/8710c/cmsis/cmsis-core/include/core_armv8mml.h"
	.file 24 "../../../component/soc/realtek/8710c/fwlib/include/rtl8710c_pin_name.h"
	.file 25 "../../../component/soc/realtek/8710c/fwlib/include/rtl8710c_peri_id.h"
	.file 26 "../../../component/soc/realtek/8710c/fwlib/include/rtl8710c_uart.h"
	.file 27 "../../../component/soc/realtek/8710c/fwlib/include/rtl8710c_timer.h"
	.file 28 "../../../component/soc/realtek/8710c/fwlib/include/rtl8710c_pwm.h"
	.file 29 "../../../component/soc/realtek/8710c/fwlib/include/hal_sys_ctrl.h"
	.file 30 "../../../component/os/freertos/freertos_v10.0.1/Source/include/task.h"
	.file 31 "../../../component/soc/realtek/8710c/fwlib/include/hal_lpcram.h"
	.file 32 "/home/ls/samba_share/sdk-ameba-v7.1d/tools/arm-none-eabi-gcc/asdk/linux/newlib/arm-none-eabi/include/stdio.h"