	.arch armv8-m.main
	.arch_extension dsp
	.eabi_attribute 20, 1
	.eabi_attribute 21, 1
	.eabi_attribute 23, 3
	.eabi_attribute 24, 1
	.eabi_attribute 25, 1
	.eabi_attribute 26, 1
	.eabi_attribute 30, 4
	.eabi_attribute 34, 1
	.eabi_attribute 18, 4
	.file	"libc_wrap.c"
	.text
.Ltext0:
	.cfi_sections	.debug_frame
	.section	.text.__wrap_malloc,"ax",%progbits
	.align	1
	.global	__wrap_malloc
	.syntax unified
	.thumb
	.thumb_func
	.fpu softvfp
	.type	__wrap_malloc, %function
__wrap_malloc:
.LFB0:
	.file 1 "../../../component/soc/realtek/8710c/misc/utilities/source/ram/libc_wrap.c"
	.loc 1 53 0
	.cfi_startproc
	@ args = 0, pretend = 0, frame = 0
	@ frame_needed = 0, uses_anonymous_args = 0
	@ link register save eliminated.
.LVL0:
	.loc 1 54 0
	b	pvPortMalloc
.LVL1:
	.cfi_endproc
.LFE0:
	.size	__wrap_malloc, .-__wrap_malloc
	.section	.text.__wrap__malloc_r,"ax",%progbits
	.align	1
	.global	__wrap__malloc_r
	.syntax unified
	.thumb
	.thumb_func
	.fpu softvfp
	.type	__wrap__malloc_r, %function
__wrap__malloc_r:
.LFB1:
	.loc 1 58 0
	.cfi_startproc
	@ args = 0, pretend = 0, frame = 0
	@ frame_needed = 0, uses_anonymous_args = 0
	@ link register save eliminated.
.LVL2:
	.loc 1 59 0
	mov	r0, r1
.LVL3:
	b	pvPortMalloc
.LVL4:
	.cfi_endproc
.LFE1:
	.size	__wrap__malloc_r, .-__wrap__malloc_r
	.section	.text.__wrap_realloc,"ax",%progbits
	.align	1
	.global	__wrap_realloc
	.syntax unified
	.thumb
	.thumb_func
	.fpu softvfp
	.type	__wrap_realloc, %function
__wrap_realloc:
.LFB2:
	.loc 1 63 0
	.cfi_startproc
	@ args = 0, pretend = 0, frame = 0
	@ frame_needed = 0, uses_anonymous_args = 0
	@ link register save eliminated.
.LVL5:
	.loc 1 64 0
	b	pvPortReAlloc
.LVL6:
	.cfi_endproc
.LFE2:
	.size	__wrap_realloc, .-__wrap_realloc
	.section	.text.__wrap_calloc,"ax",%progbits
	.align	1
	.global	__wrap_calloc
	.syntax unified
	.thumb
	.thumb_func
	.fpu softvfp
	.type	__wrap_calloc, %function
__wrap_calloc:
.LFB3:
	.loc 1 68 0
	.cfi_startproc
	@ args = 0, pretend = 0, frame = 0
	@ frame_needed = 0, uses_anonymous_args = 0
	@ link register save eliminated.
.LVL7:
	.loc 1 69 0
	b	pvPortCalloc
.LVL8:
	.cfi_endproc
.LFE3:
	.size	__wrap_calloc, .-__wrap_calloc
	.section	.text.__wrap__calloc_r,"ax",%progbits
	.align	1
	.global	__wrap__calloc_r
	.syntax unified
	.thumb
	.thumb_func
	.fpu softvfp
	.type	__wrap__calloc_r, %function
__wrap__calloc_r:
.LFB4:
	.loc 1 73 0
	.cfi_startproc
	@ args = 0, pretend = 0, frame = 0
	@ frame_needed = 0, uses_anonymous_args = 0
	@ link register save eliminated.
.LVL9:
	.loc 1 73 0
	mov	r0, r1
.LVL10:
	.loc 1 74 0
	mov	r1, r2
.LVL11:
	b	pvPortCalloc
.LVL12:
	.cfi_endproc
.LFE4:
	.size	__wrap__calloc_r, .-__wrap__calloc_r
	.section	.text.__wrap_free,"ax",%progbits
	.align	1
	.global	__wrap_free
	.syntax unified
	.thumb
	.thumb_func
	.fpu softvfp
	.type	__wrap_free, %function
__wrap_free:
.LFB5:
	.loc 1 78 0
	.cfi_startproc
	@ args = 0, pretend = 0, frame = 0
	@ frame_needed = 0, uses_anonymous_args = 0
	@ link register save eliminated.
.LVL13:
	.loc 1 79 0
	b	vPortFree
.LVL14:
	.cfi_endproc
.LFE5:
	.size	__wrap_free, .-__wrap_free
	.section	.text.__wrap_printf,"ax",%progbits
	.align	1
	.global	__wrap_printf
	.syntax unified
	.thumb
	.thumb_func
	.fpu softvfp
	.type	__wrap_printf, %function
__wrap_printf:
.LFB145:
	.loc 1 93 0
	.cfi_startproc
	@ args = 4, pretend = 16, frame = 8
	@ frame_needed = 0, uses_anonymous_args = 1
.LVL15:
	push	{r0, r1, r2, r3}
	.cfi_def_cfa_offset 16
	.cfi_offset 0, -16
	.cfi_offset 1, -12
	.cfi_offset 2, -8
	.cfi_offset 3, -4
	push	{r0, r1, r4, lr}
	.cfi_def_cfa_offset 32
	.cfi_offset 4, -24
	.cfi_offset 14, -20
	.loc 1 100 0
	ldr	r0, .L8
	.loc 1 93 0
	add	r3, sp, #16
	ldr	r2, [r3], #4
	.loc 1 100 0
	ldr	r4, [r0, #40]
	movs	r1, #0
	ldr	r0, [r0, #12]
	.loc 1 96 0
	str	r3, [sp, #4]
	.loc 1 100 0
	blx	r4
.LVL16:
	.loc 1 104 0
	add	sp, sp, #8
	.cfi_def_cfa_offset 24
	@ sp needed
	pop	{r4, lr}
	.cfi_restore 14
	.cfi_restore 4
	.cfi_def_cfa_offset 16
	add	sp, sp, #16
	.cfi_restore 3
	.cfi_restore 2
	.cfi_restore 1
	.cfi_restore 0
	.cfi_def_cfa_offset 0
	bx	lr
.L9:
	.align	2
.L8:
	.word	stdio_printf_stubs
	.cfi_endproc
.LFE145:
	.size	__wrap_printf, .-__wrap_printf
	.section	.text.__wrap_puts,"ax",%progbits
	.align	1
	.global	__wrap_puts
	.syntax unified
	.thumb
	.thumb_func
	.fpu softvfp
	.type	__wrap_puts, %function
__wrap_puts:
.LFB146:
	.loc 1 107 0
	.cfi_startproc
	@ args = 0, pretend = 0, frame = 0
	@ frame_needed = 0, uses_anonymous_args = 0
	@ link register save eliminated.
.LVL17:
	.loc 1 108 0
	mov	r1, r0
	ldr	r0, .L11
.LVL18:
	b	__wrap_printf
.LVL19:
.L12:
	.align	2
.L11:
	.word	.LC0
	.cfi_endproc
.LFE146:
	.size	__wrap_puts, .-__wrap_puts
	.section	.text.__wrap_vprintf,"ax",%progbits
	.align	1
	.global	__wrap_vprintf
	.syntax unified
	.thumb
	.thumb_func
	.fpu softvfp
	.type	__wrap_vprintf, %function
__wrap_vprintf:
.LFB147:
	.loc 1 112 0
	.cfi_startproc
	@ args = 0, pretend = 0, frame = 0
	@ frame_needed = 0, uses_anonymous_args = 0
	@ link register save eliminated.
.LVL20:
	push	{r4, r5}
	.cfi_def_cfa_offset 8
	.cfi_offset 4, -8
	.cfi_offset 5, -4
	.loc 1 117 0
	ldr	r4, .L14
	mov	r3, r1
	ldr	r5, [r4, #40]
	mov	r2, r0
	mov	ip, r5
	ldr	r0, [r4, #12]
.LVL21:
	movs	r1, #0
.LVL22:
	.loc 1 120 0
	pop	{r4, r5}
	.cfi_restore 5
	.cfi_restore 4
	.cfi_def_cfa_offset 0
	.loc 1 117 0
	bx	ip
.LVL23:
.L15:
	.align	2
.L14:
	.word	stdio_printf_stubs
	.cfi_endproc
.LFE147:
	.size	__wrap_vprintf, .-__wrap_vprintf
	.section	.text.__wrap_sprintf,"ax",%progbits
	.align	1
	.global	__wrap_sprintf
	.syntax unified
	.thumb
	.thumb_func
	.fpu softvfp
	.type	__wrap_sprintf, %function
__wrap_sprintf:
.LFB148:
	.loc 1 123 0
	.cfi_startproc
	@ args = 4, pretend = 12, frame = 16
	@ frame_needed = 0, uses_anonymous_args = 1
.LVL24:
	push	{r1, r2, r3}
	.cfi_def_cfa_offset 12
	.cfi_offset 1, -12
	.cfi_offset 2, -8
	.cfi_offset 3, -4
	push	{r0, r1, r2, r3, r4, r5, lr}
	.cfi_def_cfa_offset 40
	.cfi_offset 4, -24
	.cfi_offset 5, -20
	.cfi_offset 14, -16
	.loc 1 129 0
	movs	r4, #0
	.loc 1 123 0
	add	r3, sp, #28
	.loc 1 128 0
	str	r0, [sp, #8]
	.loc 1 135 0
	ldr	r0, .L17
.LVL25:
	.loc 1 123 0
	ldr	r2, [r3], #4
	.loc 1 135 0
	ldr	r5, [r0, #40]
	.loc 1 129 0
	str	r4, [sp, #12]
	.loc 1 135 0
	add	r1, sp, #8
.LVL26:
	ldr	r0, [r0, #16]
	.loc 1 131 0
	str	r3, [sp, #4]
	.loc 1 135 0
	blx	r5
.LVL27:
	.loc 1 137 0
	ldr	r3, [sp, #8]
	strb	r4, [r3]
	.loc 1 142 0
	add	sp, sp, #16
	.cfi_def_cfa_offset 24
	@ sp needed
	pop	{r4, r5, lr}
	.cfi_restore 14
	.cfi_restore 5
	.cfi_restore 4
	.cfi_def_cfa_offset 12
	add	sp, sp, #12
	.cfi_restore 3
	.cfi_restore 2
	.cfi_restore 1
	.cfi_def_cfa_offset 0
	bx	lr
.L18:
	.align	2
.L17:
	.word	stdio_printf_stubs
	.cfi_endproc
.LFE148:
	.size	__wrap_sprintf, .-__wrap_sprintf
	.section	.text.__wrap_snprintf,"ax",%progbits
	.align	1
	.global	__wrap_snprintf
	.syntax unified
	.thumb
	.thumb_func
	.fpu softvfp
	.type	__wrap_snprintf, %function
__wrap_snprintf:
.LFB149:
	.loc 1 145 0
	.cfi_startproc
	@ args = 4, pretend = 8, frame = 16
	@ frame_needed = 0, uses_anonymous_args = 1
.LVL28:
	push	{r2, r3}
	.cfi_def_cfa_offset 8
	.cfi_offset 2, -8
	.cfi_offset 3, -4
	push	{r0, r1, r2, r3, r4, lr}
	.cfi_def_cfa_offset 32
	.cfi_offset 4, -16
	.cfi_offset 14, -12
	.loc 1 151 0
	subs	r1, r1, #1
.LVL29:
	.loc 1 150 0
	str	r0, [sp, #8]
	.loc 1 151 0
	add	r0, r0, r1
.LVL30:
	.loc 1 145 0
	add	r3, sp, #24
	.loc 1 151 0
	str	r0, [sp, #12]
	.loc 1 157 0
	ldr	r0, .L20
	.loc 1 145 0
	ldr	r2, [r3], #4
	.loc 1 157 0
	ldr	r4, [r0, #40]
	add	r1, sp, #8
.LVL31:
	ldr	r0, [r0, #16]
	.loc 1 153 0
	str	r3, [sp, #4]
	.loc 1 157 0
	blx	r4
.LVL32:
	.loc 1 159 0
	movs	r2, #0
	ldr	r3, [sp, #8]
	strb	r2, [r3]
	.loc 1 164 0
	add	sp, sp, #16
	.cfi_def_cfa_offset 16
	@ sp needed
	pop	{r4, lr}
	.cfi_restore 14
	.cfi_restore 4
	.cfi_def_cfa_offset 8
	add	sp, sp, #8
	.cfi_restore 3
	.cfi_restore 2
	.cfi_def_cfa_offset 0
	bx	lr
.L21:
	.align	2
.L20:
	.word	stdio_printf_stubs
	.cfi_endproc
.LFE149:
	.size	__wrap_snprintf, .-__wrap_snprintf
	.section	.text.__wrap_vsnprintf,"ax",%progbits
	.align	1
	.global	__wrap_vsnprintf
	.syntax unified
	.thumb
	.thumb_func
	.fpu softvfp
	.type	__wrap_vsnprintf, %function
__wrap_vsnprintf:
.LFB150:
	.loc 1 167 0
	.cfi_startproc
	@ args = 0, pretend = 0, frame = 8
	@ frame_needed = 0, uses_anonymous_args = 0
.LVL33:
	push	{r0, r1, r4, lr}
	.cfi_def_cfa_offset 16
	.cfi_offset 4, -8
	.cfi_offset 14, -4
	.loc 1 172 0
	subs	r1, r1, #1
.LVL34:
	.loc 1 171 0
	str	r0, [sp]
	.loc 1 172 0
	add	r0, r0, r1
.LVL35:
	str	r0, [sp, #4]
	.loc 1 176 0
	ldr	r0, .L23
	mov	r1, sp
.LVL36:
	ldr	r4, [r0, #40]
	ldr	r0, [r0, #16]
	blx	r4
.LVL37:
	.loc 1 178 0
	movs	r2, #0
	ldr	r3, [sp]
	strb	r2, [r3]
	.loc 1 181 0
	add	sp, sp, #8
	.cfi_def_cfa_offset 8
	@ sp needed
	pop	{r4, pc}
.L24:
	.align	2
.L23:
	.word	stdio_printf_stubs
	.cfi_endproc
.LFE150:
	.size	__wrap_vsnprintf, .-__wrap_vsnprintf
	.section	.text.__wrap_memcmp,"ax",%progbits
	.align	1
	.global	__wrap_memcmp
	.syntax unified
	.thumb
	.thumb_func
	.fpu softvfp
	.type	__wrap_memcmp, %function
__wrap_memcmp:
.LFB158:
	.loc 1 187 0
	.cfi_startproc
	@ args = 0, pretend = 0, frame = 0
	@ frame_needed = 0, uses_anonymous_args = 0
	@ link register save eliminated.
.LVL38:
.LBB4:
.LBB5:
	.file 2 "../../../component/soc/realtek/8710c/misc/utilities/include/memory.h"
	.loc 2 67 0
	ldr	r3, .L26
	ldr	r3, [r3, #12]
	bx	r3
.LVL39:
.L27:
	.align	2
.L26:
	.word	utility_stubs
.LBE5:
.LBE4:
	.cfi_endproc
.LFE158:
	.size	__wrap_memcmp, .-__wrap_memcmp
	.section	.text.__wrap_memcpy,"ax",%progbits
	.align	1
	.global	__wrap_memcpy
	.syntax unified
	.thumb
	.thumb_func
	.fpu softvfp
	.type	__wrap_memcpy, %function
__wrap_memcpy:
.LFB159:
	.loc 1 192 0
	.cfi_startproc
	@ args = 0, pretend = 0, frame = 0
	@ frame_needed = 0, uses_anonymous_args = 0
	@ link register save eliminated.
.LVL40:
.LBB8:
.LBB9:
	.loc 2 81 0
	ldr	r3, .L29
	ldr	r3, [r3, #16]
	bx	r3
.LVL41:
.L30:
	.align	2
.L29:
	.word	utility_stubs
.LBE9:
.LBE8:
	.cfi_endproc
.LFE159:
	.size	__wrap_memcpy, .-__wrap_memcpy
	.section	.text.__wrap_memmove,"ax",%progbits
	.align	1
	.global	__wrap_memmove
	.syntax unified
	.thumb
	.thumb_func
	.fpu softvfp
	.type	__wrap_memmove, %function
__wrap_memmove:
.LFB160:
	.loc 1 197 0
	.cfi_startproc
	@ args = 0, pretend = 0, frame = 0
	@ frame_needed = 0, uses_anonymous_args = 0
	@ link register save eliminated.
.LVL42:
.LBB12:
.LBB13:
	.loc 2 100 0
	ldr	r3, .L32
	ldr	r3, [r3, #20]
	bx	r3
.LVL43:
.L33:
	.align	2
.L32:
	.word	utility_stubs
.LBE13:
.LBE12:
	.cfi_endproc
.LFE160:
	.size	__wrap_memmove, .-__wrap_memmove
	.section	.text.__wrap_memset,"ax",%progbits
	.align	1
	.global	__wrap_memset
	.syntax unified
	.thumb
	.thumb_func
	.fpu softvfp
	.type	__wrap_memset, %function
__wrap_memset:
.LFB161:
	.loc 1 202 0
	.cfi_startproc
	@ args = 0, pretend = 0, frame = 0
	@ frame_needed = 0, uses_anonymous_args = 0
	@ link register save eliminated.
.LVL44:
.LBB16:
.LBB17:
	.loc 2 114 0
	ldr	r3, .L35
	ldr	r3, [r3, #24]
	bx	r3
.LVL45:
.L36:
	.align	2
.L35:
	.word	utility_stubs
.LBE17:
.LBE16:
	.cfi_endproc
.LFE161:
	.size	__wrap_memset, .-__wrap_memset
	.section	.text.__wrap_strcat,"ax",%progbits
	.align	1
	.global	__wrap_strcat
	.syntax unified
	.thumb
	.thumb_func
	.fpu softvfp
	.type	__wrap_strcat, %function
__wrap_strcat:
.LFB192:
	.loc 1 209 0
	.cfi_startproc
	@ args = 0, pretend = 0, frame = 0
	@ frame_needed = 0, uses_anonymous_args = 0
	@ link register save eliminated.
.LVL46:
.LBB20:
.LBB21:
	.file 3 "../../../component/soc/realtek/8710c/misc/utilities/include/strproc.h"
	.loc 3 132 0
	ldr	r3, .L38
	ldr	r3, [r3]
	bx	r3
.LVL47:
.L39:
	.align	2
.L38:
	.word	strproc_stubs
.LBE21:
.LBE20:
	.cfi_endproc
.LFE192:
	.size	__wrap_strcat, .-__wrap_strcat
	.section	.text.__wrap_strchr,"ax",%progbits
	.align	1
	.global	__wrap_strchr
	.syntax unified
	.thumb
	.thumb_func
	.fpu softvfp
	.type	__wrap_strchr, %function
__wrap_strchr:
.LFB193:
	.loc 1 214 0
	.cfi_startproc
	@ args = 0, pretend = 0, frame = 0
	@ frame_needed = 0, uses_anonymous_args = 0
	@ link register save eliminated.
.LVL48:
.LBB24:
.LBB25:
	.loc 3 145 0
	ldr	r3, .L41
	ldr	r3, [r3, #4]
	bx	r3
.LVL49:
.L42:
	.align	2
.L41:
	.word	strproc_stubs
.LBE25:
.LBE24:
	.cfi_endproc
.LFE193:
	.size	__wrap_strchr, .-__wrap_strchr
	.section	.text.__wrap_strcmp,"ax",%progbits
	.align	1
	.global	__wrap_strcmp
	.syntax unified
	.thumb
	.thumb_func
	.fpu softvfp
	.type	__wrap_strcmp, %function
__wrap_strcmp:
.LFB194:
	.loc 1 219 0
	.cfi_startproc
	@ args = 0, pretend = 0, frame = 0
	@ frame_needed = 0, uses_anonymous_args = 0
	@ link register save eliminated.
.LVL50:
.LBB28:
.LBB29:
	.loc 3 161 0
	ldr	r3, .L44
	ldr	r3, [r3, #8]
	bx	r3
.LVL51:
.L45:
	.align	2
.L44:
	.word	strproc_stubs
.LBE29:
.LBE28:
	.cfi_endproc
.LFE194:
	.size	__wrap_strcmp, .-__wrap_strcmp
	.section	.text.__wrap_strncmp,"ax",%progbits
	.align	1
	.global	__wrap_strncmp
	.syntax unified
	.thumb
	.thumb_func
	.fpu softvfp
	.type	__wrap_strncmp, %function
__wrap_strncmp:
.LFB195:
	.loc 1 224 0
	.cfi_startproc
	@ args = 0, pretend = 0, frame = 0
	@ frame_needed = 0, uses_anonymous_args = 0
	@ link register save eliminated.
.LVL52:
.LBB32:
.LBB33:
	.loc 3 177 0
	ldr	r3, .L47
	ldr	r3, [r3, #12]
	bx	r3
.LVL53:
.L48:
	.align	2
.L47:
	.word	strproc_stubs
.LBE33:
.LBE32:
	.cfi_endproc
.LFE195:
	.size	__wrap_strncmp, .-__wrap_strncmp
	.section	.text.__wrap_strnicmp,"ax",%progbits
	.align	1
	.global	__wrap_strnicmp
	.syntax unified
	.thumb
	.thumb_func
	.fpu softvfp
	.type	__wrap_strnicmp, %function
__wrap_strnicmp:
.LFB196:
	.loc 1 229 0
	.cfi_startproc
	@ args = 0, pretend = 0, frame = 0
	@ frame_needed = 0, uses_anonymous_args = 0
	@ link register save eliminated.
.LVL54:
.LBB36:
.LBB37:
	.loc 3 198 0
	ldr	r3, .L50
	ldr	r3, [r3, #16]
	bx	r3
.LVL55:
.L51:
	.align	2
.L50:
	.word	strproc_stubs
.LBE37:
.LBE36:
	.cfi_endproc
.LFE196:
	.size	__wrap_strnicmp, .-__wrap_strnicmp
	.section	.text.__wrap_strcpy,"ax",%progbits
	.align	1
	.global	__wrap_strcpy
	.syntax unified
	.thumb
	.thumb_func
	.fpu softvfp
	.type	__wrap_strcpy, %function
__wrap_strcpy:
.LFB197:
	.loc 1 235 0
	.cfi_startproc
	@ args = 0, pretend = 0, frame = 0
	@ frame_needed = 0, uses_anonymous_args = 0
	@ link register save eliminated.
.LVL56:
.LBB40:
.LBB41:
	.loc 3 212 0
	ldr	r3, .L53
	ldr	r3, [r3, #20]
	bx	r3
.LVL57:
.L54:
	.align	2
.L53:
	.word	strproc_stubs
.LBE41:
.LBE40:
	.cfi_endproc
.LFE197:
	.size	__wrap_strcpy, .-__wrap_strcpy
	.section	.text.__wrap_strncpy,"ax",%progbits
	.align	1
	.global	__wrap_strncpy
	.syntax unified
	.thumb
	.thumb_func
	.fpu softvfp
	.type	__wrap_strncpy, %function
__wrap_strncpy:
.LFB198:
	.loc 1 241 0
	.cfi_startproc
	@ args = 0, pretend = 0, frame = 0
	@ frame_needed = 0, uses_anonymous_args = 0
	@ link register save eliminated.
.LVL58:
.LBB44:
.LBB45:
	.loc 3 228 0
	ldr	r3, .L56
	ldr	r3, [r3, #24]
	bx	r3
.LVL59:
.L57:
	.align	2
.L56:
	.word	strproc_stubs
.LBE45:
.LBE44:
	.cfi_endproc
.LFE198:
	.size	__wrap_strncpy, .-__wrap_strncpy
	.section	.text.__wrap_strlcpy,"ax",%progbits
	.align	1
	.global	__wrap_strlcpy
	.syntax unified
	.thumb
	.thumb_func
	.fpu softvfp
	.type	__wrap_strlcpy, %function
__wrap_strlcpy:
.LFB199:
	.loc 1 247 0
	.cfi_startproc
	@ args = 0, pretend = 0, frame = 0
	@ frame_needed = 0, uses_anonymous_args = 0
	@ link register save eliminated.
.LVL60:
.LBB48:
.LBB49:
	.loc 3 240 0
	ldr	r3, .L59
	ldr	r3, [r3, #28]
	bx	r3
.LVL61:
.L60:
	.align	2
.L59:
	.word	strproc_stubs
.LBE49:
.LBE48:
	.cfi_endproc
.LFE199:
	.size	__wrap_strlcpy, .-__wrap_strlcpy
	.section	.text.__wrap_strlen,"ax",%progbits
	.align	1
	.global	__wrap_strlen
	.syntax unified
	.thumb
	.thumb_func
	.fpu softvfp
	.type	__wrap_strlen, %function
__wrap_strlen:
.LFB200:
	.loc 1 253 0
	.cfi_startproc
	@ args = 0, pretend = 0, frame = 0
	@ frame_needed = 0, uses_anonymous_args = 0
	@ link register save eliminated.
.LVL62:
.LBB52:
.LBB53:
	.loc 3 250 0
	ldr	r3, .L62
	ldr	r3, [r3, #32]
	bx	r3
.LVL63:
.L63:
	.align	2
.L62:
	.word	strproc_stubs
.LBE53:
.LBE52:
	.cfi_endproc
.LFE200:
	.size	__wrap_strlen, .-__wrap_strlen
	.section	.text.__wrap_strnlen,"ax",%progbits
	.align	1
	.global	__wrap_strnlen
	.syntax unified
	.thumb
	.thumb_func
	.fpu softvfp
	.type	__wrap_strnlen, %function
__wrap_strnlen:
.LFB201:
	.loc 1 259 0
	.cfi_startproc
	@ args = 0, pretend = 0, frame = 0
	@ frame_needed = 0, uses_anonymous_args = 0
	@ link register save eliminated.
.LVL64:
.LBB56:
.LBB57:
	.loc 3 266 0
	ldr	r3, .L65
	ldr	r3, [r3, #36]
	bx	r3
.LVL65:
.L66:
	.align	2
.L65:
	.word	strproc_stubs
.LBE57:
.LBE56:
	.cfi_endproc
.LFE201:
	.size	__wrap_strnlen, .-__wrap_strnlen
	.section	.text.__wrap_strncat,"ax",%progbits
	.align	1
	.global	__wrap_strncat
	.syntax unified
	.thumb
	.thumb_func
	.fpu softvfp
	.type	__wrap_strncat, %function
__wrap_strncat:
.LFB202:
	.loc 1 265 0
	.cfi_startproc
	@ args = 0, pretend = 0, frame = 0
	@ frame_needed = 0, uses_anonymous_args = 0
	@ link register save eliminated.
.LVL66:
.LBB60:
.LBB61:
	.loc 3 283 0
	ldr	r3, .L68
	ldr	r3, [r3, #40]
	bx	r3
.LVL67:
.L69:
	.align	2
.L68:
	.word	strproc_stubs
.LBE61:
.LBE60:
	.cfi_endproc
.LFE202:
	.size	__wrap_strncat, .-__wrap_strncat
	.section	.text.__wrap_strpbrk,"ax",%progbits
	.align	1
	.global	__wrap_strpbrk
	.syntax unified
	.thumb
	.thumb_func
	.fpu softvfp
	.type	__wrap_strpbrk, %function
__wrap_strpbrk:
.LFB203:
	.loc 1 270 0
	.cfi_startproc
	@ args = 0, pretend = 0, frame = 0
	@ frame_needed = 0, uses_anonymous_args = 0
	@ link register save eliminated.
.LVL68:
.LBB64:
.LBB65:
	.loc 3 297 0
	ldr	r3, .L71
	ldr	r3, [r3, #44]
	bx	r3
.LVL69:
.L72:
	.align	2
.L71:
	.word	strproc_stubs
.LBE65:
.LBE64:
	.cfi_endproc
.LFE203:
	.size	__wrap_strpbrk, .-__wrap_strpbrk
	.section	.text.__wrap_strspn,"ax",%progbits
	.align	1
	.global	__wrap_strspn
	.syntax unified
	.thumb
	.thumb_func
	.fpu softvfp
	.type	__wrap_strspn, %function
__wrap_strspn:
.LFB204:
	.loc 1 276 0
	.cfi_startproc
	@ args = 0, pretend = 0, frame = 0
	@ frame_needed = 0, uses_anonymous_args = 0
	@ link register save eliminated.
.LVL70:
.LBB68:
.LBB69:
	.loc 3 310 0
	ldr	r3, .L74
	ldr	r3, [r3, #48]
	bx	r3
.LVL71:
.L75:
	.align	2
.L74:
	.word	strproc_stubs
.LBE69:
.LBE68:
	.cfi_endproc
.LFE204:
	.size	__wrap_strspn, .-__wrap_strspn
	.section	.text.__wrap_strstr,"ax",%progbits
	.align	1
	.global	__wrap_strstr
	.syntax unified
	.thumb
	.thumb_func
	.fpu softvfp
	.type	__wrap_strstr, %function
__wrap_strstr:
.LFB205:
	.loc 1 282 0
	.cfi_startproc
	@ args = 0, pretend = 0, frame = 0
	@ frame_needed = 0, uses_anonymous_args = 0
	@ link register save eliminated.
.LVL72:
.LBB72:
.LBB73:
	.loc 3 323 0
	ldr	r3, .L77
	ldr	r3, [r3, #52]
	bx	r3
.LVL73:
.L78:
	.align	2
.L77:
	.word	strproc_stubs
.LBE73:
.LBE72:
	.cfi_endproc
.LFE205:
	.size	__wrap_strstr, .-__wrap_strstr
	.section	.text.__wrap_strtok,"ax",%progbits
	.align	1
	.global	__wrap_strtok
	.syntax unified
	.thumb
	.thumb_func
	.fpu softvfp
	.type	__wrap_strtok, %function
__wrap_strtok:
.LFB206:
	.loc 1 288 0
	.cfi_startproc
	@ args = 0, pretend = 0, frame = 0
	@ frame_needed = 0, uses_anonymous_args = 0
	@ link register save eliminated.
.LVL74:
.LBB76:
.LBB77:
	.loc 3 340 0
	ldr	r3, .L80
	ldr	r3, [r3, #56]
	bx	r3
.LVL75:
.L81:
	.align	2
.L80:
	.word	strproc_stubs
.LBE77:
.LBE76:
	.cfi_endproc
.LFE206:
	.size	__wrap_strtok, .-__wrap_strtok
	.section	.text.__wrap_strxfrm,"ax",%progbits
	.align	1
	.global	__wrap_strxfrm
	.syntax unified
	.thumb
	.thumb_func
	.fpu softvfp
	.type	__wrap_strxfrm, %function
__wrap_strxfrm:
.LFB207:
	.loc 1 294 0
	.cfi_startproc
	@ args = 0, pretend = 0, frame = 0
	@ frame_needed = 0, uses_anonymous_args = 0
	@ link register save eliminated.
.LVL76:
.LBB80:
.LBB81:
	.loc 3 357 0
	ldr	r3, .L83
	ldr	r3, [r3, #60]
	bx	r3
.LVL77:
.L84:
	.align	2
.L83:
	.word	strproc_stubs
.LBE81:
.LBE80:
	.cfi_endproc
.LFE207:
	.size	__wrap_strxfrm, .-__wrap_strxfrm
	.section	.text.__wrap_strsep,"ax",%progbits
	.align	1
	.global	__wrap_strsep
	.syntax unified
	.thumb
	.thumb_func
	.fpu softvfp
	.type	__wrap_strsep, %function
__wrap_strsep:
.LFB208:
	.loc 1 299 0
	.cfi_startproc
	@ args = 0, pretend = 0, frame = 0
	@ frame_needed = 0, uses_anonymous_args = 0
	@ link register save eliminated.
.LVL78:
.LBB84:
.LBB85:
	.loc 3 375 0
	ldr	r3, .L86
	ldr	r3, [r3, #64]
	bx	r3
.LVL79:
.L87:
	.align	2
.L86:
	.word	strproc_stubs
.LBE85:
.LBE84:
	.cfi_endproc
.LFE208:
	.size	__wrap_strsep, .-__wrap_strsep
	.section	.text.__wrap_strtod,"ax",%progbits
	.align	1
	.global	__wrap_strtod
	.syntax unified
	.thumb
	.thumb_func
	.fpu softvfp
	.type	__wrap_strtod, %function
__wrap_strtod:
.LFB209:
	.loc 1 304 0
	.cfi_startproc
	@ args = 0, pretend = 0, frame = 0
	@ frame_needed = 0, uses_anonymous_args = 0
	@ link register save eliminated.
.LVL80:
.LBB88:
.LBB89:
	.loc 3 390 0
	ldr	r3, .L89
	ldr	r3, [r3, #68]
	bx	r3
.LVL81:
.L90:
	.align	2
.L89:
	.word	strproc_stubs
.LBE89:
.LBE88:
	.cfi_endproc
.LFE209:
	.size	__wrap_strtod, .-__wrap_strtod
	.section	.text.__wrap_strtof,"ax",%progbits
	.align	1
	.global	__wrap_strtof
	.syntax unified
	.thumb
	.thumb_func
	.fpu softvfp
	.type	__wrap_strtof, %function
__wrap_strtof:
.LFB210:
	.loc 1 309 0
	.cfi_startproc
	@ args = 0, pretend = 0, frame = 0
	@ frame_needed = 0, uses_anonymous_args = 0
	@ link register save eliminated.
.LVL82:
.LBB92:
.LBB93:
	.loc 3 405 0
	ldr	r3, .L92
	ldr	r3, [r3, #72]
	bx	r3
.LVL83:
.L93:
	.align	2
.L92:
	.word	strproc_stubs
.LBE93:
.LBE92:
	.cfi_endproc
.LFE210:
	.size	__wrap_strtof, .-__wrap_strtof
	.section	.text.__wrap_strtold,"ax",%progbits
	.align	1
	.global	__wrap_strtold
	.syntax unified
	.thumb
	.thumb_func
	.fpu softvfp
	.type	__wrap_strtold, %function
__wrap_strtold:
.LFB211:
	.loc 1 315 0
	.cfi_startproc
	@ args = 0, pretend = 0, frame = 0
	@ frame_needed = 0, uses_anonymous_args = 0
	@ link register save eliminated.
.LVL84:
.LBB96:
.LBB97:
	.loc 3 420 0
	ldr	r3, .L95
	ldr	r3, [r3, #76]
	bx	r3
.LVL85:
.L96:
	.align	2
.L95:
	.word	strproc_stubs
.LBE97:
.LBE96:
	.cfi_endproc
.LFE211:
	.size	__wrap_strtold, .-__wrap_strtold
	.section	.text.__wrap_strtol,"ax",%progbits
	.align	1
	.global	__wrap_strtol
	.syntax unified
	.thumb
	.thumb_func
	.fpu softvfp
	.type	__wrap_strtol, %function
__wrap_strtol:
.LFB212:
	.loc 1 320 0
	.cfi_startproc
	@ args = 0, pretend = 0, frame = 0
	@ frame_needed = 0, uses_anonymous_args = 0
	@ link register save eliminated.
.LVL86:
.LBB100:
.LBB101:
	.loc 3 446 0
	ldr	r3, .L98
	ldr	r3, [r3, #80]
	bx	r3
.LVL87:
.L99:
	.align	2
.L98:
	.word	strproc_stubs
.LBE101:
.LBE100:
	.cfi_endproc
.LFE212:
	.size	__wrap_strtol, .-__wrap_strtol
	.section	.text.__wrap_strtoll,"ax",%progbits
	.align	1
	.global	__wrap_strtoll
	.syntax unified
	.thumb
	.thumb_func
	.fpu softvfp
	.type	__wrap_strtoll, %function
__wrap_strtoll:
.LFB213:
	.loc 1 326 0
	.cfi_startproc
	@ args = 0, pretend = 0, frame = 0
	@ frame_needed = 0, uses_anonymous_args = 0
	@ link register save eliminated.
.LVL88:
.LBB104:
.LBB105:
	.loc 3 461 0
	ldr	r3, .L101
	ldr	r3, [r3, #84]
	bx	r3
.LVL89:
.L102:
	.align	2
.L101:
	.word	strproc_stubs
.LBE105:
.LBE104:
	.cfi_endproc
.LFE213:
	.size	__wrap_strtoll, .-__wrap_strtoll
	.section	.text.__wrap_strtoul,"ax",%progbits
	.align	1
	.global	__wrap_strtoul
	.syntax unified
	.thumb
	.thumb_func
	.fpu softvfp
	.type	__wrap_strtoul, %function
__wrap_strtoul:
.LFB214:
	.loc 1 332 0
	.cfi_startproc
	@ args = 0, pretend = 0, frame = 0
	@ frame_needed = 0, uses_anonymous_args = 0
	@ link register save eliminated.
.LVL90:
.LBB108:
.LBB109:
	.loc 3 476 0
	ldr	r3, .L104
	ldr	r3, [r3, #88]
	bx	r3
.LVL91:
.L105:
	.align	2
.L104:
	.word	strproc_stubs
.LBE109:
.LBE108:
	.cfi_endproc
.LFE214:
	.size	__wrap_strtoul, .-__wrap_strtoul
	.section	.text.__wrap_strtoull,"ax",%progbits
	.align	1
	.global	__wrap_strtoull
	.syntax unified
	.thumb
	.thumb_func
	.fpu softvfp
	.type	__wrap_strtoull, %function
__wrap_strtoull:
.LFB215:
	.loc 1 338 0
	.cfi_startproc
	@ args = 0, pretend = 0, frame = 0
	@ frame_needed = 0, uses_anonymous_args = 0
	@ link register save eliminated.
.LVL92:
.LBB112:
.LBB113:
	.loc 3 491 0
	ldr	r3, .L107
	ldr	r3, [r3, #92]
	bx	r3
.LVL93:
.L108:
	.align	2
.L107:
	.word	strproc_stubs
.LBE113:
.LBE112:
	.cfi_endproc
.LFE215:
	.size	__wrap_strtoull, .-__wrap_strtoull
	.section	.text.__wrap_atoi,"ax",%progbits
	.align	1
	.global	__wrap_atoi
	.syntax unified
	.thumb
	.thumb_func
	.fpu softvfp
	.type	__wrap_atoi, %function
__wrap_atoi:
.LFB216:
	.loc 1 343 0
	.cfi_startproc
	@ args = 0, pretend = 0, frame = 0
	@ frame_needed = 0, uses_anonymous_args = 0
.LVL94:
	push	{r4, lr}
	.cfi_def_cfa_offset 8
	.cfi_offset 4, -8
	.cfi_offset 14, -4
.LVL95:
.L110:
	mov	r2, r0
.LVL96:
	.loc 1 353 0
	ldrb	r3, [r0], #1	@ zero_extendqisi2
.LVL97:
	cmp	r3, #32
	beq	.L110
	.loc 1 353 0 is_stmt 0 discriminator 1
	sub	r1, r3, #9
	cmp	r1, #4
	bls	.L110
.LVL98:
	.loc 1 358 0 is_stmt 1
	cmp	r3, #45
	beq	.L112
	.loc 1 358 0 is_stmt 0 discriminator 1
	cmp	r3, #43
	beq	.L112
	.loc 1 356 0 is_stmt 1
	mov	r1, r0
	mov	r2, r3
.LVL99:
.L113:
	movs	r0, #0
	.loc 1 363 0
	movs	r4, #10
.LVL100:
.L114:
	.loc 1 362 0
	subs	r2, r2, #48
.LVL101:
	cmp	r2, #9
	bls	.L115
	.loc 1 367 0
	cmp	r3, #45
	.loc 1 368 0
	it	eq
	rsbeq	r0, r0, #0
.LVL102:
	.loc 1 372 0
	pop	{r4, pc}
.LVL103:
.L112:
	.loc 1 359 0
	adds	r1, r2, #2
.LVL104:
	ldrb	r2, [r2, #1]	@ zero_extendqisi2
.LVL105:
	b	.L113
.LVL106:
.L115:
	.loc 1 363 0
	mla	r0, r4, r0, r2
.LVL107:
	.loc 1 364 0
	ldrb	r2, [r1], #1	@ zero_extendqisi2
.LVL108:
	b	.L114
	.cfi_endproc
.LFE216:
	.size	__wrap_atoi, .-__wrap_atoi
	.section	.text.__wrap_atoui,"ax",%progbits
	.align	1
	.global	__wrap_atoui
	.syntax unified
	.thumb
	.thumb_func
	.fpu softvfp
	.type	__wrap_atoui, %function
__wrap_atoui:
.LFB217:
	.loc 1 375 0
	.cfi_startproc
	@ args = 0, pretend = 0, frame = 0
	@ frame_needed = 0, uses_anonymous_args = 0
	@ link register save eliminated.
.LVL109:
.LBB116:
.LBB117:
	.loc 3 513 0
	ldr	r3, .L128
	ldr	r3, [r3, #100]
	bx	r3
.LVL110:
.L129:
	.align	2
.L128:
	.word	strproc_stubs
.LBE117:
.LBE116:
	.cfi_endproc
.LFE217:
	.size	__wrap_atoui, .-__wrap_atoui
	.section	.text.__wrap_atol,"ax",%progbits
	.align	1
	.global	__wrap_atol
	.syntax unified
	.thumb
	.thumb_func
	.fpu softvfp
	.type	__wrap_atol, %function
__wrap_atol:
.LFB218:
	.loc 1 380 0
	.cfi_startproc
	@ args = 0, pretend = 0, frame = 0
	@ frame_needed = 0, uses_anonymous_args = 0
	@ link register save eliminated.
.LVL111:
.LBB120:
.LBB121:
	.loc 3 524 0
	ldr	r3, .L131
	ldr	r3, [r3, #104]
	bx	r3
.LVL112:
.L132:
	.align	2
.L131:
	.word	strproc_stubs
.LBE121:
.LBE120:
	.cfi_endproc
.LFE218:
	.size	__wrap_atol, .-__wrap_atol
	.section	.text.__wrap_atoul,"ax",%progbits
	.align	1
	.global	__wrap_atoul
	.syntax unified
	.thumb
	.thumb_func
	.fpu softvfp
	.type	__wrap_atoul, %function
__wrap_atoul:
.LFB219:
	.loc 1 385 0
	.cfi_startproc
	@ args = 0, pretend = 0, frame = 0
	@ frame_needed = 0, uses_anonymous_args = 0
	@ link register save eliminated.
.LVL113:
.LBB124:
.LBB125:
	.loc 3 535 0
	ldr	r3, .L134
	ldr	r3, [r3, #108]
	bx	r3
.LVL114:
.L135:
	.align	2
.L134:
	.word	strproc_stubs
.LBE125:
.LBE124:
	.cfi_endproc
.LFE219:
	.size	__wrap_atoul, .-__wrap_atoul
	.section	.text.__wrap_atoull,"ax",%progbits
	.align	1
	.global	__wrap_atoull
	.syntax unified
	.thumb
	.thumb_func
	.fpu softvfp
	.type	__wrap_atoull, %function
__wrap_atoull:
.LFB220:
	.loc 1 391 0
	.cfi_startproc
	@ args = 0, pretend = 0, frame = 0
	@ frame_needed = 0, uses_anonymous_args = 0
	@ link register save eliminated.
.LVL115:
.LBB128:
.LBB129:
	.loc 3 546 0
	ldr	r3, .L137
	ldr	r3, [r3, #112]
	bx	r3
.LVL116:
.L138:
	.align	2
.L137:
	.word	strproc_stubs
.LBE129:
.LBE128:
	.cfi_endproc
.LFE220:
	.size	__wrap_atoull, .-__wrap_atoull
	.section	.text.__wrap_atof,"ax",%progbits
	.align	1
	.global	__wrap_atof
	.syntax unified
	.thumb
	.thumb_func
	.fpu softvfp
	.type	__wrap_atof, %function
__wrap_atof:
.LFB221:
	.loc 1 397 0
	.cfi_startproc
	@ args = 0, pretend = 0, frame = 0
	@ frame_needed = 0, uses_anonymous_args = 0
	@ link register save eliminated.
.LVL117:
.LBB132:
.LBB133:
	.loc 3 431 0
	ldr	r3, .L140
	ldr	r3, [r3, #116]
	bx	r3
.LVL118:
.L141:
	.align	2
.L140:
	.word	strproc_stubs
.LBE133:
.LBE132:
	.cfi_endproc
.LFE221:
	.size	__wrap_atof, .-__wrap_atof
	.section	.text.__wrap_abort,"ax",%progbits
	.align	1
	.global	__wrap_abort
	.syntax unified
	.thumb
	.thumb_func
	.fpu softvfp
	.type	__wrap_abort, %function
__wrap_abort:
.LFB222:
	.loc 1 402 0
	.cfi_startproc
	@ Volatile: function does not return.
	@ args = 0, pretend = 0, frame = 0
	@ frame_needed = 0, uses_anonymous_args = 0
	push	{r3, lr}
	.cfi_def_cfa_offset 8
	.cfi_offset 3, -8
	.cfi_offset 14, -4
	.loc 1 403 0
	ldr	r0, .L144
	bl	__wrap_printf
.LVL119:
.L143:
	b	.L143
.L145:
	.align	2
.L144:
	.word	.LC1
	.cfi_endproc
.LFE222:
	.size	__wrap_abort, .-__wrap_abort
	.section	.text.__aeabi_errno_addr,"ax",%progbits
	.align	1
	.global	__aeabi_errno_addr
	.syntax unified
	.thumb
	.thumb_func
	.fpu softvfp
	.type	__aeabi_errno_addr, %function
__aeabi_errno_addr:
.LFB224:
	.loc 1 412 0
	.cfi_startproc
	@ args = 0, pretend = 0, frame = 0
	@ frame_needed = 0, uses_anonymous_args = 0
	@ link register save eliminated.
	.loc 1 414 0
	ldr	r0, .L147
	bx	lr
.L148:
	.align	2
.L147:
	.word	.LANCHOR0
	.cfi_endproc
.LFE224:
	.size	__aeabi_errno_addr, .-__aeabi_errno_addr
	.global	__aeabi_ldivmod
	.section	.text.gmtime_r,"ax",%progbits
	.align	1
	.global	gmtime_r
	.syntax unified
	.thumb
	.thumb_func
	.fpu softvfp
	.type	gmtime_r, %function
gmtime_r:
.LFB225:
	.loc 1 523 0
	.cfi_startproc
	@ args = 0, pretend = 0, frame = 0
	@ frame_needed = 0, uses_anonymous_args = 0
.LVL120:
	push	{r3, r4, r5, r6, r7, r8, r9, lr}
	.cfi_def_cfa_offset 32
	.cfi_offset 3, -32
	.cfi_offset 4, -28
	.cfi_offset 5, -24
	.cfi_offset 6, -20
	.cfi_offset 7, -16
	.cfi_offset 8, -12
	.cfi_offset 9, -8
	.cfi_offset 14, -4
	.loc 1 525 0
	ldrd	r8, [r0]
.LVL121:
	.loc 1 523 0
	mov	r4, r1
	.loc 1 530 0
	ldr	r2, .L161
	movs	r3, #0
	mov	r0, r8
.LVL122:
	mov	r1, r9
.LVL123:
	bl	__aeabi_ldivmod
.LVL124:
	.loc 1 531 0
	ldr	r2, .L161
	.loc 1 530 0
	add	r6, r0, #716800
	.loc 1 531 0
	movs	r3, #0
	mov	r0, r8
	mov	r1, r9
	bl	__aeabi_ldivmod
.LVL125:
	.loc 1 539 0
	mov	r1, #3600
	.loc 1 532 0
	cmp	r2, #0
	.loc 1 534 0
	itt	lt
	addlt	r2, r2, #86016
	addlt	r2, r2, #384
	.loc 1 539 0
	sdiv	r3, r2, r1
	.loc 1 540 0
	mls	r2, r1, r3, r2
	.loc 1 541 0
	mov	r1, #60
	.loc 1 539 0
	str	r3, [r4, #8]
	.loc 1 541 0
	sdiv	r3, r2, r1
	.loc 1 542 0
	mls	r2, r1, r3, r2
	str	r2, [r4]
	.loc 1 545 0
	mov	r2, #7
	.loc 1 530 0
	addw	r5, r6, #2668
.LVL126:
	.loc 1 535 0
	it	lt
	addwlt	r5, r6, #2667
.LVL127:
	.loc 1 541 0
	str	r3, [r4, #4]
	.loc 1 545 0
	adds	r3, r5, #3
	sdiv	r2, r3, r2
	rsb	r2, r2, r2, lsl #3
.LVL128:
	subs	r3, r3, r2
.LVL129:
	.loc 1 546 0
	it	mi
	addmi	r3, r3, #7
.LVL130:
	.loc 1 552 0
	cmp	r5, #0
	ldr	r0, .L161+4
	.loc 1 547 0
	str	r3, [r4, #24]
	.loc 1 552 0
	ittte	lt
	sublt	r3, r5, #145408
.LVL131:
	sublt	r3, r3, #688
	sdivlt	r0, r3, r0
	sdivge	r0, r5, r0
.LVL132:
	.loc 1 554 0
	movw	r1, #36524
	movw	r7, #1460
	.loc 1 553 0
	ldr	r3, .L161+8
	.loc 1 554 0
	movw	r6, #365
	.loc 1 553 0
	mla	r3, r3, r0, r5
.LVL133:
	.loc 1 554 0
	udiv	r1, r3, r1
	udiv	r2, r3, r7
	add	r1, r1, r3
	subs	r1, r1, r2
	.loc 1 555 0
	ldr	r2, .L161+12
	udiv	r2, r3, r2
	.loc 1 554 0
	subs	r2, r1, r2
	.loc 1 556 0
	movw	r1, #36500
	udiv	r1, r2, r1
	.loc 1 554 0
	udiv	r5, r2, r6
.LVL134:
	.loc 1 556 0
	udiv	r2, r2, r7
	add	r3, r3, r1
.LVL135:
	.loc 1 557 0
	movs	r1, #153
	.loc 1 556 0
	subs	r2, r3, r2
	mls	r3, r6, r5, r2
.LVL136:
	.loc 1 557 0
	add	r2, r3, r3, lsl #2
	adds	r2, r2, #2
	udiv	r2, r2, r1
.LVL137:
	.loc 1 558 0
	movs	r7, #5
	muls	r1, r2, r1
	adds	r1, r1, #2
	udiv	r1, r1, r7
	.loc 1 559 0
	cmp	r2, #10
	.loc 1 558 0
	add	r6, r3, #1
	sub	r1, r6, r1
.LVL138:
	.loc 1 559 0
	ite	cc
	movcc	r6, #2
	mvncs	r6, #9
	add	r6, r6, r2
.LVL139:
	.loc 1 560 0
	mov	r2, #400
	mla	r0, r2, r0, r5
.LVL140:
	cmp	r6, #1
	it	ls
	addls	r0, r0, #1
.LVL141:
	.loc 1 563 0
	cmp	r3, #306
	bcc	.L155
	.loc 1 563 0 is_stmt 0 discriminator 1
	sub	r3, r3, #306
.LVL142:
.L156:
	.loc 1 562 0 is_stmt 1
	str	r3, [r4, #28]
	.loc 1 569 0
	movs	r3, #0
	.loc 1 565 0
	subw	r0, r0, #1900
.LVL143:
	str	r0, [r4, #20]
	.loc 1 566 0
	str	r6, [r4, #16]
	.loc 1 567 0
	str	r1, [r4, #12]
	.loc 1 569 0
	str	r3, [r4, #32]
	.loc 1 572 0
	mov	r0, r4
.LVL144:
	pop	{r3, r4, r5, r6, r7, r8, r9, pc}
.LVL145:
.L155:
	.loc 1 564 0
	lsls	r2, r5, #30
	bne	.L157
	.loc 1 564 0 is_stmt 0 discriminator 1
	movs	r7, #100
	udiv	r2, r5, r7
	mls	r2, r7, r2, r5
	cbnz	r2, .L160
.L157:
	.loc 1 564 0 discriminator 4
	mov	r7, #400
	udiv	r2, r5, r7
	mls	r2, r7, r2, r5
	clz	r2, r2
	lsrs	r2, r2, #5
.L158:
	.loc 1 564 0 discriminator 8
	adds	r3, r3, #59
.LVL146:
	add	r3, r3, r2
.LVL147:
	b	.L156
.LVL148:
.L160:
	.loc 1 564 0
	movs	r2, #1
	b	.L158
.L162:
	.align	2
.L161:
	.word	86400
	.word	146097
	.word	-146097
	.word	146096
	.cfi_endproc
.LFE225:
	.size	gmtime_r, .-gmtime_r
	.section	.text.__wrap_localtime,"ax",%progbits
	.align	1
	.global	__wrap_localtime
	.syntax unified
	.thumb
	.thumb_func
	.fpu softvfp
	.type	__wrap_localtime, %function
__wrap_localtime:
.LFB226:
	.loc 1 575 0 is_stmt 1
	.cfi_startproc
	@ args = 0, pretend = 0, frame = 0
	@ frame_needed = 0, uses_anonymous_args = 0
	@ link register save eliminated.
.LVL149:
	.loc 1 577 0
	ldr	r3, .L164
.LVL150:
	.loc 1 580 0
	ldr	r1, [r3]
	.loc 1 580 0
	adds	r1, r1, #124
	b	gmtime_r
.LVL151:
.L165:
	.align	2
.L164:
	.word	_impure_ptr
	.cfi_endproc
.LFE226:
	.size	__wrap_localtime, .-__wrap_localtime
	.section	.text.__wrap_mktime,"ax",%progbits
	.align	1
	.global	__wrap_mktime
	.syntax unified
	.thumb
	.thumb_func
	.fpu softvfp
	.type	__wrap_mktime, %function
__wrap_mktime:
.LFB228:
	.loc 1 676 0
	.cfi_startproc
	@ args = 0, pretend = 0, frame = 8
	@ frame_needed = 0, uses_anonymous_args = 0
.LVL152:
	push	{r0, r1, r4, r5, r6, r7, r8, lr}
	.cfi_def_cfa_offset 32
	.cfi_offset 4, -24
	.cfi_offset 5, -20
	.cfi_offset 6, -16
	.cfi_offset 7, -12
	.cfi_offset 8, -8
	.cfi_offset 14, -4
	.loc 1 676 0
	mov	r4, r0
	.loc 1 680 0
	bl	__gettzinfo
.LVL153:
.LBB136:
.LBB137:
	.loc 1 596 0
	ldr	r1, [r4]
.LBE137:
.LBE136:
	.loc 1 680 0
	mov	r5, r0
.LVL154:
.LBB141:
.LBB138:
	.loc 1 596 0
	cmp	r1, #59
	bls	.L168
	.loc 1 598 0
	movs	r2, #60
	mov	r0, sp
.LVL155:
	bl	div
.LVL156:
	ldr	r2, [sp, #4]
.LVL157:
	.loc 1 599 0
	ldr	r3, [r4, #4]
	ldr	r1, [sp]
	.loc 1 600 0
	cmp	r2, #0
	.loc 1 599 0
	add	r3, r3, r1
	str	r3, [r4, #4]
	.loc 1 602 0
	ittet	lt
	addlt	r2, r2, #60
.LVL158:
	.loc 1 603 0
	addlt	r3, r3, #-1
	.loc 1 600 0
	strge	r2, [r4]
	.loc 1 602 0
	strlt	r2, [r4]
	.loc 1 603 0
	it	lt
	strlt	r3, [r4, #4]
.LVL159:
.L168:
	.loc 1 607 0
	ldr	r1, [r4, #4]
	cmp	r1, #59
	bls	.L172
	.loc 1 609 0
	movs	r2, #60
	mov	r0, sp
	bl	div
.LVL160:
	ldr	r2, [sp, #4]
.LVL161:
	.loc 1 610 0
	ldr	r3, [r4, #8]
	ldr	r1, [sp]
	.loc 1 611 0
	cmp	r2, #0
	.loc 1 610 0
	add	r3, r3, r1
	str	r3, [r4, #8]
	.loc 1 613 0
	ittet	lt
	addlt	r2, r2, #60
.LVL162:
	.loc 1 614 0
	addlt	r3, r3, #-1
	.loc 1 611 0
	strge	r2, [r4, #4]
	.loc 1 613 0
	strlt	r2, [r4, #4]
	.loc 1 614 0
	it	lt
	strlt	r3, [r4, #8]
.LVL163:
.L172:
	.loc 1 618 0
	ldr	r1, [r4, #8]
	cmp	r1, #23
	bls	.L176
	.loc 1 620 0
	movs	r2, #24
	mov	r0, sp
	bl	div
.LVL164:
	ldr	r2, [sp, #4]
.LVL165:
	.loc 1 621 0
	ldr	r1, [r4, #12]
	ldr	r3, [sp]
	.loc 1 622 0
	cmp	r2, #0
	.loc 1 621 0
	add	r3, r3, r1
	str	r3, [r4, #12]
	.loc 1 624 0
	ittet	lt
	addlt	r2, r2, #24
.LVL166:
	.loc 1 625 0
	addlt	r3, r3, #-1
	.loc 1 622 0
	strge	r2, [r4, #8]
	.loc 1 624 0
	strlt	r2, [r4, #8]
	.loc 1 625 0
	it	lt
	strlt	r3, [r4, #12]
.LVL167:
.L176:
	.loc 1 629 0
	ldr	r1, [r4, #16]
	cmp	r1, #11
	bls	.L180
	.loc 1 631 0
	movs	r2, #12
	mov	r0, sp
	bl	div
.LVL168:
	ldr	r2, [sp, #4]
.LVL169:
	.loc 1 632 0
	ldr	r3, [r4, #20]
	ldr	r1, [sp]
	.loc 1 633 0
	cmp	r2, #0
	.loc 1 632 0
	add	r3, r3, r1
	str	r3, [r4, #20]
	.loc 1 635 0
	ittet	lt
	addlt	r2, r2, #12
.LVL170:
	.loc 1 636 0
	addlt	r3, r3, #-1
	.loc 1 633 0
	strge	r2, [r4, #16]
	.loc 1 635 0
	strlt	r2, [r4, #16]
	.loc 1 636 0
	it	lt
	strlt	r3, [r4, #20]
.LVL171:
.L180:
	.loc 1 640 0
	ldr	r3, [r4, #20]
	lsls	r1, r3, #30
	bne	.L210
	movs	r1, #100
	sdiv	r2, r3, r1
	mls	r2, r1, r2, r3
	cmp	r2, #0
	bne	.L211
	mov	r1, #400
	addw	r3, r3, #1900
	sdiv	r2, r3, r1
	mls	r3, r1, r2, r3
	.loc 1 641 0
	cmp	r3, #0
	ite	ne
	movne	r3, #28
	moveq	r3, #29
.L183:
.LVL172:
	.loc 1 643 0
	ldr	r2, [r4, #12]
	cmp	r2, #0
	ble	.L184
	.loc 1 663 0
	movs	r7, #2
	.loc 1 666 0
	mov	lr, #0
	.loc 1 668 0
	movs	r0, #100
	mov	r6, #400
	.loc 1 660 0
	ldr	ip, .L232+8
.LVL173:
.L194:
	ldr	r1, [r4, #16]
	ldr	r2, [r4, #12]
	cmp	r1, #1
	beq	.L195
	ldr	r8, [ip, r1, lsl #2]
	cmp	r2, r8
	ble	.L197
	.loc 1 663 0
	adds	r1, r1, #1
	.loc 1 662 0
	sub	r2, r2, r8
	.loc 1 663 0
	cmp	r1, #12
	.loc 1 662 0
	str	r2, [r4, #12]
	.loc 1 663 0
	str	r1, [r4, #16]
	bne	.L194
	.loc 1 665 0
	ldr	r3, [r4, #20]
	.loc 1 666 0
	str	lr, [r4, #16]
	.loc 1 665 0
	adds	r2, r3, #1
	.loc 1 669 0
	lsls	r1, r2, #30
	.loc 1 665 0
	str	r2, [r4, #20]
	.loc 1 669 0
	bne	.L217
	.loc 1 668 0
	sdiv	r1, r2, r0
	mls	r2, r0, r1, r2
	cmp	r2, #0
	bne	.L218
	addw	r3, r3, #1901
	sdiv	r2, r3, r6
	mls	r3, r6, r2, r3
	.loc 1 669 0
	cmp	r3, #0
	ite	ne
	movne	r3, #28
	moveq	r3, #29
	b	.L194
.LVL174:
.L210:
	.loc 1 593 0
	movs	r3, #28
	b	.L183
.L211:
	.loc 1 641 0
	movs	r3, #29
	b	.L183
.LVL175:
.L184:
	.loc 1 650 0
	movs	r7, #11
	.loc 1 652 0
	movs	r0, #100
	mov	r6, #400
	.loc 1 655 0
	ldr	ip, .L232+8
.L186:
	.loc 1 645 0
	ldr	lr, [r4, #12]
	cmp	lr, #0
	ble	.L189
.LVL176:
.L197:
.LBE138:
.LBE141:
	.loc 1 686 0
	movs	r2, #60
	ldr	r3, [r4]
	ldr	r0, [r4, #4]
	.loc 1 691 0
	ldr	r1, .L232
	.loc 1 686 0
	mla	r0, r2, r0, r3
	mov	r2, #3600
	.loc 1 687 0
	ldr	r3, [r4, #8]
	.loc 1 686 0
	mla	r0, r2, r3, r0
.LVL177:
	.loc 1 691 0
	ldr	r2, [r4, #16]
	.loc 1 690 0
	ldr	r3, [r4, #12]
	.loc 1 691 0
	ldr	r1, [r1, r2, lsl #2]
	.loc 1 690 0
	subs	r3, r3, #1
.LVL178:
	.loc 1 692 0
	cmp	r2, #1
	.loc 1 691 0
	add	r3, r3, r1
.LVL179:
	ldr	r2, [r4, #20]
	.loc 1 692 0
	bgt	.L190
.L191:
	.loc 1 698 0
	movw	r6, #20000
	add	r1, r2, #9984
	adds	r1, r1, #16
	cmp	r1, r6
	.loc 1 696 0
	str	r3, [r4, #28]
	.loc 1 698 0
	bhi	.L220
.LVL180:
	.loc 1 702 0
	cmp	r2, #70
	ble	.L200
	movs	r1, #70
	.loc 1 705 0
	movw	lr, #365
	movs	r7, #100
	mov	ip, #400
.LVL181:
.L202:
	lsls	r6, r1, #30
	bne	.L221
	.loc 1 705 0 is_stmt 0 discriminator 1
	sdiv	r6, r1, r7
	mls	r6, r7, r6, r1
	cmp	r6, #0
	bne	.L222
	.loc 1 705 0 discriminator 4
	addw	r8, r1, #1900
	sdiv	r6, r8, ip
	mls	r6, ip, r6, r8
	cmp	r6, #0
	ite	ne
	movne	r6, lr
	moveq	r6, #366
.L201:
	.loc 1 704 0 is_stmt 1 discriminator 8
	adds	r1, r1, #1
.LVL182:
	cmp	r2, r1
	.loc 1 705 0 discriminator 8
	add	r3, r3, r6
.LVL183:
	.loc 1 704 0 discriminator 8
	bne	.L202
.LVL184:
.L203:
	.loc 1 715 0
	ldr	r2, .L232+4
	asrs	r1, r0, #31
	smlal	r0, r1, r2, r3
.LVL185:
	.loc 1 721 0
	ldr	r2, [r5, #40]
	.loc 1 727 0
	adds	r3, r3, #4
.LVL186:
	.loc 1 721 0
	adds	r0, r0, r2
.LVL187:
	adc	r1, r1, r2, asr #31
.LVL188:
	.loc 1 724 0
	movs	r2, #0
	str	r2, [r4, #32]
	.loc 1 727 0
	movs	r2, #7
	sdiv	r2, r3, r2
	rsb	r2, r2, r2, lsl #3
	subs	r3, r3, r2
.LVL189:
	.loc 1 728 0
	it	mi
	addmi	r3, r3, #7
	str	r3, [r4, #24]
.LVL190:
.L166:
	.loc 1 731 0
	add	sp, sp, #8
	.cfi_remember_state
	.cfi_def_cfa_offset 24
	@ sp needed
	pop	{r4, r5, r6, r7, r8, pc}
.LVL191:
.L189:
	.cfi_restore_state
.LBB142:
.LBB139:
	.loc 1 647 0
	ldr	r1, [r4, #16]
	subs	r1, r1, #1
	str	r1, [r4, #16]
	adds	r1, r1, #1
	bne	.L187
	.loc 1 649 0
	ldr	r3, [r4, #20]
.LVL192:
	.loc 1 650 0
	str	r7, [r4, #16]
	.loc 1 649 0
	subs	r1, r3, #1
	.loc 1 653 0
	lsls	r2, r1, #30
	.loc 1 649 0
	str	r1, [r4, #20]
	.loc 1 653 0
	bne	.L213
	.loc 1 652 0
	sdiv	r2, r1, r0
	mls	r1, r0, r2, r1
	cbnz	r1, .L214
	addw	r3, r3, #1899
	sdiv	r2, r3, r6
	mls	r3, r6, r2, r3
	.loc 1 653 0
	cmp	r3, #0
	ite	ne
	movne	r3, #28
	moveq	r3, #29
.L187:
.LVL193:
	.loc 1 655 0
	ldr	r2, [r4, #16]
	cmp	r2, #1
	ite	eq
	moveq	r2, r3
	ldrne	r2, [ip, r2, lsl #2]
	add	r2, r2, lr
	str	r2, [r4, #12]
	b	.L186
.LVL194:
.L213:
	.loc 1 653 0
	movs	r3, #28
	b	.L187
.L214:
	movs	r3, #29
	b	.L187
.L217:
	.loc 1 669 0
	movs	r3, #28
	b	.L194
.L218:
	movs	r3, #29
	b	.L194
.LVL195:
.L190:
.LBE139:
.LBE142:
	.loc 1 692 0 discriminator 1
	lsls	r7, r2, #30
	bne	.L191
	.loc 1 692 0 is_stmt 0 discriminator 2
	movs	r6, #100
	sdiv	r1, r2, r6
	mls	r1, r6, r1, r2
	cbnz	r1, .L198
	.loc 1 692 0 discriminator 3
	mov	r6, #400
	addw	r7, r2, #1900
	sdiv	r1, r7, r6
	mls	r1, r6, r1, r7
	cmp	r1, #0
	bne	.L191
.L198:
	.loc 1 693 0 is_stmt 1
	adds	r3, r3, #1
.LVL196:
	b	.L191
.LVL197:
.L221:
	.loc 1 705 0
	movw	r6, #365
	b	.L201
.L222:
	mov	r6, #366
	b	.L201
.LVL198:
.L200:
	.loc 1 707 0
	beq	.L203
	movs	r1, #69
	.loc 1 710 0 discriminator 2
	movw	lr, #365
	movs	r7, #100
	mov	ip, #400
.LVL199:
.L204:
	.loc 1 709 0 discriminator 2
	cmp	r1, r2
	bgt	.L206
	.loc 1 711 0
	lsls	r1, r2, #30
.LVL200:
	bne	.L227
	.loc 1 711 0 is_stmt 0 discriminator 1
	movs	r6, #100
	sdiv	r1, r2, r6
	mls	r1, r6, r1, r2
	cbnz	r1, .L228
	.loc 1 711 0 discriminator 4
	mov	r6, #400
	addw	r2, r2, #1900
	sdiv	r1, r2, r6
	mls	r2, r6, r1, r2
	cmp	r2, #0
	movw	r2, #365
	it	eq
	moveq	r2, #366
.L207:
	.loc 1 711 0 discriminator 8
	subs	r3, r3, r2
.LVL201:
	b	.L203
.LVL202:
.L206:
	.loc 1 710 0 is_stmt 1
	lsls	r6, r1, #30
	bne	.L224
	.loc 1 710 0 is_stmt 0 discriminator 1
	sdiv	r6, r1, r7
	mls	r6, r7, r6, r1
	cbnz	r6, .L225
	.loc 1 710 0 discriminator 4
	addw	r8, r1, #1900
	sdiv	r6, r8, ip
	mls	r6, ip, r6, r8
	cmp	r6, #0
	ite	ne
	movne	r6, lr
	moveq	r6, #366
.L205:
	.loc 1 710 0 discriminator 8
	subs	r3, r3, r6
.LVL203:
	.loc 1 709 0 is_stmt 1 discriminator 8
	subs	r1, r1, #1
.LVL204:
	b	.L204
.L224:
	.loc 1 710 0
	movw	r6, #365
	b	.L205
.L225:
	mov	r6, #366
	b	.L205
.LVL205:
.L227:
	.loc 1 711 0
	movw	r2, #365
	b	.L207
.L228:
	mov	r2, #366
	b	.L207
.L220:
	.loc 1 699 0
	mov	r0, #-1
.LVL206:
	mov	r1, #-1
	b	.L166
.LVL207:
.L195:
.LBB143:
.LBB140:
	.loc 1 660 0
	cmp	r2, r3
	ble	.L197
	.loc 1 662 0
	subs	r2, r2, r3
	str	r2, [r4, #12]
	.loc 1 663 0
	str	r7, [r4, #16]
	b	.L194
.L233:
	.align	2
.L232:
	.word	.LANCHOR2
	.word	86400
	.word	.LANCHOR1
.LBE140:
.LBE143:
	.cfi_endproc
.LFE228:
	.size	__wrap_mktime, .-__wrap_mktime
	.global	__dso_handle
	.section	.bss.__dso_handle,"aw",%nobits
	.align	2
	.type	__dso_handle, %object
	.size	__dso_handle, 4
__dso_handle:
	.space	4
	.section	.bss.gnu_errno,"aw",%nobits
	.align	2
	.set	.LANCHOR0,. + 0
	.type	gnu_errno, %object
	.size	gnu_errno, 4
gnu_errno:
	.space	4
	.section	.rodata.DAYS_IN_MONTH,"a",%progbits
	.align	2
	.set	.LANCHOR1,. + 0
	.type	DAYS_IN_MONTH, %object
	.size	DAYS_IN_MONTH, 48
DAYS_IN_MONTH:
	.word	31
	.word	28
	.word	31
	.word	30
	.word	31
	.word	30
	.word	31
	.word	31
	.word	30
	.word	31
	.word	30
	.word	31
	.section	.rodata._DAYS_BEFORE_MONTH,"a",%progbits
	.align	2
	.set	.LANCHOR2,. + 0
	.type	_DAYS_BEFORE_MONTH, %object
	.size	_DAYS_BEFORE_MONTH, 48
_DAYS_BEFORE_MONTH:
	.word	0
	.word	31
	.word	59
	.word	90
	.word	120
	.word	151
	.word	181
	.word	212
	.word	243
	.word	273
	.word	304
	.word	334
	.section	.rodata.__wrap_abort.str1.1,"aMS",%progbits,1
.LC1:
	.ascii	"\012\015abort execution\012\015\000"
	.section	.rodata.__wrap_puts.str1.1,"aMS",%progbits,1
.LC0:
	.ascii	"%s\012\000"
	.text
.Letext0:
	.file 4 "/home/ls/samba_share/sdk-ameba-v7.1d/tools/arm-none-eabi-gcc/asdk/linux/newlib/arm-none-eabi/include/machine/_default_types.h"
	.file 5 "/home/ls/samba_share/sdk-ameba-v7.1d/tools/arm-none-eabi-gcc/asdk/linux/newlib/lib/gcc/arm-none-eabi/6.5.0/include/stddef.h"
	.file 6 "/home/ls/samba_share/sdk-ameba-v7.1d/tools/arm-none-eabi-gcc/asdk/linux/newlib/arm-none-eabi/include/sys/lock.h"
	.file 7 "/home/ls/samba_share/sdk-ameba-v7.1d/tools/arm-none-eabi-gcc/asdk/linux/newlib/arm-none-eabi/include/sys/_types.h"
	.file 8 "/home/ls/samba_share/sdk-ameba-v7.1d/tools/arm-none-eabi-gcc/asdk/linux/newlib/arm-none-eabi/include/sys/reent.h"
	.file 9 "<built-in>"
	.file 10 "/home/ls/samba_share/sdk-ameba-v7.1d/tools/arm-none-eabi-gcc/asdk/linux/newlib/arm-none-eabi/include/sys/_stdint.h"
	.file 11 "/home/ls/samba_share/sdk-ameba-v7.1d/tools/arm-none-eabi-gcc/asdk/linux/newlib/arm-none-eabi/include/time.h"
	.file 12 "../../../component/soc/realtek/8710c/cmsis/rtl8710c/include/basic_types.h"
	.file 13 "../../../component/soc/realtek/8710c/app/stdio_port/stdio_port.h"
	.file 14 "/home/ls/samba_share/sdk-ameba-v7.1d/tools/arm-none-eabi-gcc/asdk/linux/newlib/lib/gcc/arm-none-eabi/6.5.0/include/stdarg.h"
	.file 15 "../../../component/soc/realtek/8710c/app/rtl_printf/include/log_buf.h"
	.file 16 "../../../component/soc/realtek/8710c/app/rtl_printf/include/printf_entry.h"
	.file 17 "../../../component/soc/realtek/8710c/app/rtl_printf/include/rt_printf.h"
	.file 18 "../../../component/soc/realtek/8710c/misc/utilities/include/utility.h"
	.file 19 "/home/ls/samba_share/sdk-ameba-v7.1d/tools/arm-none-eabi-gcc/asdk/linux/newlib/arm-none-eabi/include/stdlib.h"
	.file 20 "../../../component/common/network/lwip/lwip_v2.0.2/src/include/lwip/errno.h"
	.file 21 "/home/ls/samba_share/sdk-ameba-v7.1d/tools/arm-none-eabi-gcc/asdk/linux/newlib/arm-none-eabi/include/string.h"