	.arch armv8-m.main
	.arch_extension dsp
	.eabi_attribute 20, 1
	.eabi_attribute 21, 1
	.eabi_attribute 23, 3
	.eabi_attribute 24, 1
	.eabi_attribute 25, 1
	.eabi_attribute 26, 1
	.eabi_attribute 30, 4
	.eabi_attribute 34, 1
	.eabi_attribute 18, 4
	.file	"mDNSPlatform.c"
	.text
.Ltext0:
	.cfi_sections	.debug_frame
	.section	.text.mDNSPlatformCustomInit,"ax",%progbits
	.align	1
	.global	mDNSPlatformCustomInit
	.syntax unified
	.thumb
	.thumb_func
	.fpu softvfp
	.type	mDNSPlatformCustomInit, %function
mDNSPlatformCustomInit:
.LFB1:
	.file 1 "../../../component/common/network/mDNS/mDNSPlatform.c"
	.loc 1 12 0
	.cfi_startproc
	@ args = 0, pretend = 0, frame = 0
	@ frame_needed = 0, uses_anonymous_args = 0
	@ link register save eliminated.
	.loc 1 13 0
	ldr	r2, .L2
	ldrb	r3, [r2, #55]	@ zero_extendqisi2
	orr	r3, r3, #32
	strb	r3, [r2, #55]
	bx	lr
.L3:
	.align	2
.L2:
	.word	xnetif
	.cfi_endproc
.LFE1:
	.size	mDNSPlatformCustomInit, .-mDNSPlatformCustomInit
	.section	.text.mDNSPlatformHtons,"ax",%progbits
	.align	1
	.global	mDNSPlatformHtons
	.syntax unified
	.thumb
	.thumb_func
	.fpu softvfp
	.type	mDNSPlatformHtons, %function
mDNSPlatformHtons:
.LFB2:
	.loc 1 17 0
	.cfi_startproc
	@ args = 0, pretend = 0, frame = 0
	@ frame_needed = 0, uses_anonymous_args = 0
	@ link register save eliminated.
.LVL0:
	.loc 1 18 0
	b	lwip_htons
.LVL1:
	.cfi_endproc
.LFE2:
	.size	mDNSPlatformHtons, .-mDNSPlatformHtons
	.section	.text.mDNSPlatformInetAddr,"ax",%progbits
	.align	1
	.global	mDNSPlatformInetAddr
	.syntax unified
	.thumb
	.thumb_func
	.fpu softvfp
	.type	mDNSPlatformInetAddr, %function
mDNSPlatformInetAddr:
.LFB3:
	.loc 1 22 0
	.cfi_startproc
	@ args = 0, pretend = 0, frame = 0
	@ frame_needed = 0, uses_anonymous_args = 0
	@ link register save eliminated.
.LVL2:
	.loc 1 23 0
	b	ipaddr_addr
.LVL3:
	.cfi_endproc
.LFE3:
	.size	mDNSPlatformInetAddr, .-mDNSPlatformInetAddr
	.section	.text.mDNSPlatformHostname,"ax",%progbits
	.align	1
	.global	mDNSPlatformHostname
	.syntax unified
	.thumb
	.thumb_func
	.fpu softvfp
	.type	mDNSPlatformHostname, %function
mDNSPlatformHostname:
.LFB4:
	.loc 1 29 0
	.cfi_startproc
	@ args = 0, pretend = 0, frame = 0
	@ frame_needed = 0, uses_anonymous_args = 0
	@ link register save eliminated.
	.loc 1 35 0
	ldr	r0, .L7
	bx	lr
.L8:
	.align	2
.L7:
	.word	.LC0
	.cfi_endproc
.LFE4:
	.size	mDNSPlatformHostname, .-mDNSPlatformHostname
	.section	.rodata.mDNSPlatformHostname.str1.1,"aMS",%progbits,1
.LC0:
	.ascii	"ameba\000"
	.text
.Letext0:
	.file 2 "/home/ls/samba_share/sdk-ameba-v7.1d/tools/arm-none-eabi-gcc/asdk/linux/newlib/arm-none-eabi/include/machine/_default_types.h"
	.file 3 "/home/ls/samba_share/sdk-ameba-v7.1d/tools/arm-none-eabi-gcc/asdk/linux/newlib/arm-none-eabi/include/sys/lock.h"
	.file 4 "/home/ls/samba_share/sdk-ameba-v7.1d/tools/arm-none-eabi-gcc/asdk/linux/newlib/arm-none-eabi/include/sys/_types.h"
	.file 5 "/home/ls/samba_share/sdk-ameba-v7.1d/tools/arm-none-eabi-gcc/asdk/linux/newlib/lib/gcc/arm-none-eabi/6.5.0/include/stddef.h"
	.file 6 "/home/ls/samba_share/sdk-ameba-v7.1d/tools/arm-none-eabi-gcc/asdk/linux/newlib/arm-none-eabi/include/sys/reent.h"
	.file 7 "/home/ls/samba_share/sdk-ameba-v7.1d/tools/arm-none-eabi-gcc/asdk/linux/newlib/arm-none-eabi/include/sys/_stdint.h"
	.file 8 "/home/ls/samba_share/sdk-ameba-v7.1d/tools/arm-none-eabi-gcc/asdk/linux/newlib/arm-none-eabi/include/time.h"
	.file 9 "/home/ls/samba_share/sdk-ameba-v7.1d/tools/arm-none-eabi-gcc/asdk/linux/newlib/arm-none-eabi/include/stdlib.h"
	.file 10 "../../../component/common/network/lwip/lwip_v2.0.2/port/realtek/arch/cc.h"
	.file 11 "../../../component/common/network/lwip/lwip_v2.0.2/src/include/lwip/ip4_addr.h"
	.file 12 "../../../component/common/network/lwip/lwip_v2.0.2/src/include/lwip/ip_addr.h"
	.file 13 "../../../component/common/network/lwip/lwip_v2.0.2/src/include/lwip/err.h"
	.file 14 "../../../component/common/network/lwip/lwip_v2.0.2/src/include/lwip/inet.h"
	.file 15 "../../../component/common/network/lwip/lwip_v2.0.2/src/include/lwip/errno.h"
	.file 16 "../../../component/common/network/lwip/lwip_v2.0.2/src/include/lwip/pbuf.h"
	.file 17 "../../../component/common/network/lwip/lwip_v2.0.2/src/include/lwip/priv/memp_priv.h"
	.file 18 "../../../component/common/network/lwip/lwip_v2.0.2/src/include/lwip/memp.h"
	.file 19 "../../../component/common/network/lwip/lwip_v2.0.2/src/include/lwip/netif.h"
	.file 20 "../../../component/common/network/lwip/lwip_v2.0.2/src/include/lwip/def.h"