	.arch armv8-m.main
	.arch_extension dsp
	.eabi_attribute 20, 1
	.eabi_attribute 21, 1
	.eabi_attribute 23, 3
	.eabi_attribute 24, 1
	.eabi_attribute 25, 1
	.eabi_attribute 26, 1
	.eabi_attribute 30, 4
	.eabi_attribute 34, 1
	.eabi_attribute 18, 4
	.file	"netif.c"
	.text
.Ltext0:
	.cfi_sections	.debug_frame
	.section	.text.netif_issue_reports.part.0,"ax",%progbits
	.align	1
	.syntax unified
	.thumb
	.thumb_func
	.fpu softvfp
	.type	netif_issue_reports.part.0, %function
netif_issue_reports.part.0:
.LFB161:
	.file 1 "../../../component/common/network/lwip/lwip_v2.0.2/src/core/netif.c"
	.loc 1 642 0
	.cfi_startproc
	@ args = 0, pretend = 0, frame = 0
	@ frame_needed = 0, uses_anonymous_args = 0
.LVL0:
	push	{r4, lr}
	.cfi_def_cfa_offset 8
	.cfi_offset 4, -8
	.cfi_offset 14, -4
	.loc 1 649 0
	ldrb	r3, [r0, #55]	@ zero_extendqisi2
	.loc 1 642 0
	mov	r4, r0
	.loc 1 649 0
	lsls	r2, r3, #28
	bpl	.L2
	.loc 1 650 0
	adds	r1, r0, #4
	bl	etharp_request
.LVL1:
.L2:
	.loc 1 656 0
	ldrb	r3, [r4, #55]	@ zero_extendqisi2
	lsls	r3, r3, #26
	bpl	.L1
	.loc 1 657 0
	mov	r0, r4
	.loc 1 675 0
	pop	{r4, lr}
	.cfi_remember_state
	.cfi_restore 14
	.cfi_restore 4
	.cfi_def_cfa_offset 0
.LVL2:
	.loc 1 657 0
	b	igmp_report_groups
.LVL3:
.L1:
	.cfi_restore_state
	pop	{r4, pc}
	.cfi_endproc
.LFE161:
	.size	netif_issue_reports.part.0, .-netif_issue_reports.part.0
	.section	.text.netif_init,"ax",%progbits
	.align	1
	.global	netif_init
	.syntax unified
	.thumb
	.thumb_func
	.fpu softvfp
	.type	netif_init, %function
netif_init:
.LFB146:
	.loc 1 164 0
	.cfi_startproc
	@ args = 0, pretend = 0, frame = 0
	@ frame_needed = 0, uses_anonymous_args = 0
	@ link register save eliminated.
	bx	lr
	.cfi_endproc
.LFE146:
	.size	netif_init, .-netif_init
	.section	.text.netif_input,"ax",%progbits
	.align	1
	.global	netif_input
	.syntax unified
	.thumb
	.thumb_func
	.fpu softvfp
	.type	netif_input, %function
netif_input:
.LFB147:
	.loc 1 204 0
	.cfi_startproc
	@ args = 0, pretend = 0, frame = 0
	@ frame_needed = 0, uses_anonymous_args = 0
	@ link register save eliminated.
.LVL4:
	.loc 1 206 0
	ldrb	r3, [r1, #55]	@ zero_extendqisi2
	tst	r3, #24
	beq	.L9
	.loc 1 207 0
	b	ethernet_input
.LVL5:
.L9:
	.loc 1 210 0
	b	ip4_input
.LVL6:
	.cfi_endproc
.LFE147:
	.size	netif_input, .-netif_input
	.section	.text.netif_find,"ax",%progbits
	.align	1
	.global	netif_find
	.syntax unified
	.thumb
	.thumb_func
	.fpu softvfp
	.type	netif_find, %function
netif_find:
.LFB151:
	.loc 1 473 0
	.cfi_startproc
	@ args = 0, pretend = 0, frame = 0
	@ frame_needed = 0, uses_anonymous_args = 0
.LVL7:
	push	{r4, lr}
	.cfi_def_cfa_offset 8
	.cfi_offset 4, -8
	.cfi_offset 14, -4
	.loc 1 477 0
	cbz	r0, .L15
	.loc 1 481 0
	ldrb	r2, [r0, #2]	@ zero_extendqisi2
	.loc 1 483 0
	ldr	r3, .L16
	.loc 1 481 0
	subs	r2, r2, #48
	uxtb	r2, r2
.LVL8:
.L13:
	.loc 1 483 0 discriminator 2
	ldr	r3, [r3]
.LVL9:
	.loc 1 483 0 discriminator 2
	cbz	r3, .L10
	.loc 1 484 0
	ldrb	r1, [r3, #58]	@ zero_extendqisi2
	cmp	r1, r2
	bne	.L13
	.loc 1 484 0 is_stmt 0 discriminator 1
	ldrb	r4, [r0]	@ zero_extendqisi2
	ldrb	r1, [r3, #56]	@ zero_extendqisi2
	cmp	r4, r1
	bne	.L13
	.loc 1 485 0 is_stmt 1
	ldrb	r4, [r0, #1]	@ zero_extendqisi2
	ldrb	r1, [r3, #57]	@ zero_extendqisi2
	cmp	r4, r1
	bne	.L13
.LVL10:
.L10:
	.loc 1 493 0
	mov	r0, r3
.LVL11:
	pop	{r4, pc}
.LVL12:
.L15:
	.loc 1 478 0
	mov	r3, r0
	b	.L10
.L17:
	.align	2
.L16:
	.word	netif_list
	.cfi_endproc
.LFE151:
	.size	netif_find, .-netif_find
	.section	.text.netif_set_ipaddr,"ax",%progbits
	.align	1
	.global	netif_set_ipaddr
	.syntax unified
	.thumb
	.thumb_func
	.fpu softvfp
	.type	netif_set_ipaddr, %function
netif_set_ipaddr:
.LFB152:
	.loc 1 508 0
	.cfi_startproc
	@ args = 0, pretend = 0, frame = 8
	@ frame_needed = 0, uses_anonymous_args = 0
.LVL13:
	push	{r0, r1, r4, r5, r6, lr}
	.cfi_def_cfa_offset 24
	.cfi_offset 4, -16
	.cfi_offset 5, -12
	.cfi_offset 6, -8
	.cfi_offset 14, -4
	.loc 1 508 0
	mov	r6, r0
	.loc 1 510 0
	mov	r4, r1
	cbz	r1, .L19
	.loc 1 510 0 is_stmt 0 discriminator 1
	ldr	r3, [r1]
.L29:
	.loc 1 510 0 discriminator 2
	str	r3, [sp, #4]
	.loc 1 514 0 is_stmt 1 discriminator 2
	ldr	r2, [sp, #4]
	ldr	r3, [r6, #4]
	cmp	r2, r3
	beq	.L18
	.loc 1 517 0
	adds	r5, r6, #4
	add	r1, sp, #4
.LVL14:
	mov	r0, r5
.LVL15:
	bl	tcp_netif_ip_addr_changed
.LVL16:
	.loc 1 520 0
	add	r1, sp, #4
	mov	r0, r5
	bl	udp_netif_ip_addr_changed
.LVL17:
	.loc 1 523 0
	add	r1, sp, #4
	mov	r0, r5
	bl	raw_netif_ip_addr_changed
.LVL18:
	.loc 1 529 0
	cbz	r4, .L23
	.loc 1 529 0 is_stmt 0 discriminator 1
	ldr	r4, [r4]
.LVL19:
.L23:
	.loc 1 529 0 is_stmt 1 discriminator 4
	str	r4, [r6, #4]
.LVL20:
.LBB23:
.LBB24:
	.loc 1 645 0 discriminator 4
	cbz	r4, .L18
	mov	r0, r6
	bl	netif_issue_reports.part.0
.LVL21:
.L18:
.LBE24:
.LBE23:
	.loc 1 545 0
	add	sp, sp, #8
	.cfi_remember_state
	.cfi_def_cfa_offset 16
	@ sp needed
	pop	{r4, r5, r6, pc}
.LVL22:
.L19:
	.cfi_restore_state
	.loc 1 510 0 discriminator 2
	ldr	r3, .L30
	ldr	r3, [r3]
	b	.L29
.L31:
	.align	2
.L30:
	.word	ip_addr_any
	.cfi_endproc
.LFE152:
	.size	netif_set_ipaddr, .-netif_set_ipaddr
	.section	.text.netif_set_addr,"ax",%progbits
	.align	1
	.global	netif_set_addr
	.syntax unified
	.thumb
	.thumb_func
	.fpu softvfp
	.type	netif_set_addr, %function
netif_set_addr:
.LFB149:
	.loc 1 354 0
	.cfi_startproc
	@ args = 0, pretend = 0, frame = 0
	@ frame_needed = 0, uses_anonymous_args = 0
.LVL23:
	push	{r4, r5, r6, lr}
	.cfi_def_cfa_offset 16
	.cfi_offset 4, -16
	.cfi_offset 5, -12
	.cfi_offset 6, -8
	.cfi_offset 14, -4
	.loc 1 354 0
	mov	r6, r0
	mov	r5, r2
	mov	r4, r3
	.loc 1 355 0
	cbz	r1, .L33
	.loc 1 355 0 discriminator 1
	ldr	r3, [r1]
.LVL24:
	cbnz	r3, .L34
.L33:
	.loc 1 358 0
	mov	r0, r6
.LVL25:
	bl	netif_set_ipaddr
.LVL26:
.LBB39:
.LBB40:
	.loc 1 584 0
	cbz	r5, .L35
	ldr	r5, [r5]
.LVL27:
.L35:
	.loc 1 584 0
	str	r5, [r6, #8]
.LVL28:
.LBE40:
.LBE39:
.LBB41:
.LBB42:
	.loc 1 559 0
	cbz	r4, .L36
	ldr	r4, [r4]
.LVL29:
.L36:
	.loc 1 559 0
	str	r4, [r6, #12]
	pop	{r4, r5, r6, pc}
.LVL30:
.L34:
.LBE42:
.LBE41:
.LBB43:
.LBB44:
.LBB45:
.LBB46:
	.loc 1 584 0
	cbz	r2, .L38
	ldr	r5, [r2]
.L38:
	.loc 1 584 0
	str	r5, [r6, #8]
.LVL31:
.LBE46:
.LBE45:
.LBB47:
.LBB48:
	.loc 1 559 0
	cbz	r4, .L39
	ldr	r4, [r4]
.LVL32:
.L39:
	.loc 1 559 0
	str	r4, [r6, #12]
.LVL33:
.LBE48:
.LBE47:
	.loc 1 365 0
	mov	r0, r6
.LVL34:
.LBE44:
.LBE43:
	.loc 1 367 0
	pop	{r4, r5, r6, lr}
	.cfi_restore 14
	.cfi_restore 6
	.cfi_restore 5
	.cfi_restore 4
	.cfi_def_cfa_offset 0
.LVL35:
.LBB50:
.LBB49:
	.loc 1 365 0
	b	netif_set_ipaddr
.LVL36:
.LBE49:
.LBE50:
	.cfi_endproc
.LFE149:
	.size	netif_set_addr, .-netif_set_addr
	.section	.text.netif_add,"ax",%progbits
	.align	1
	.global	netif_add
	.syntax unified
	.thumb
	.thumb_func
	.fpu softvfp
	.type	netif_add, %function
netif_add:
.LFB148:
	.loc 1 246 0
	.cfi_startproc
	@ args = 12, pretend = 0, frame = 0
	@ frame_needed = 0, uses_anonymous_args = 0
.LVL37:
	push	{r3, r4, r5, r6, r7, lr}
	.cfi_def_cfa_offset 24
	.cfi_offset 3, -24
	.cfi_offset 4, -20
	.cfi_offset 5, -16
	.cfi_offset 6, -12
	.cfi_offset 7, -8
	.cfi_offset 14, -4
	.loc 1 276 0
	movs	r6, #3
	.loc 1 255 0
	movs	r5, #0
	.loc 1 246 0
	mov	r4, r0
	.loc 1 276 0
	strb	r6, [r0, #44]
	.loc 1 297 0
	ldr	r7, .L54
	.loc 1 296 0
	ldr	r6, [sp, #24]
	.loc 1 255 0
	str	r5, [r0, #4]
	.loc 1 296 0
	str	r6, [r0, #28]
	.loc 1 297 0
	ldrb	r6, [r7]	@ zero_extendqisi2
	.loc 1 256 0
	str	r5, [r0, #8]
	.loc 1 297 0
	add	ip, r6, #1
	strb	r6, [r0, #58]
	.loc 1 298 0
	ldr	r6, [sp, #32]
	.loc 1 257 0
	str	r5, [r0, #12]
	.loc 1 267 0
	strb	r5, [r0, #55]
	.loc 1 269 0
	str	r5, [r0, #32]	@ unaligned
	str	r5, [r0, #36]	@ unaligned
	str	r5, [r0, #40]	@ unaligned
	.loc 1 285 0
	str	r5, [r0, #60]
	.loc 1 298 0
	str	r6, [r0, #16]
	.loc 1 297 0
	strb	ip, [r7]
	.loc 1 306 0
	bl	netif_set_addr
.LVL38:
	.loc 1 310 0
	mov	r0, r4
	ldr	r3, [sp, #28]
	blx	r3
.LVL39:
	cbnz	r0, .L50
	.loc 1 315 0
	ldr	r3, .L54+4
	ldr	r2, [r3]
	str	r2, [r4]
	.loc 1 316 0
	str	r4, [r3]
	.loc 1 321 0
	ldrb	r3, [r4, #55]	@ zero_extendqisi2
	lsls	r3, r3, #26
	bpl	.L49
	.loc 1 322 0
	mov	r0, r4
	bl	igmp_start
.LVL40:
.L49:
	.loc 1 338 0
	mov	r0, r4
	pop	{r3, r4, r5, r6, r7, pc}
.LVL41:
.L50:
	.loc 1 311 0
	mov	r4, r5
.LVL42:
	b	.L49
.L55:
	.align	2
.L54:
	.word	.LANCHOR0
	.word	netif_list
	.cfi_endproc
.LFE148:
	.size	netif_add, .-netif_add
	.section	.text.netif_set_gw,"ax",%progbits
	.align	1
	.global	netif_set_gw
	.syntax unified
	.thumb
	.thumb_func
	.fpu softvfp
	.type	netif_set_gw, %function
netif_set_gw:
.LFB153:
	.loc 1 558 0
	.cfi_startproc
	@ args = 0, pretend = 0, frame = 0
	@ frame_needed = 0, uses_anonymous_args = 0
	@ link register save eliminated.
.LVL43:
	.loc 1 559 0
	cbz	r1, .L57
	.loc 1 559 0 is_stmt 0 discriminator 1
	ldr	r1, [r1]
.LVL44:
.L57:
	.loc 1 559 0 is_stmt 1 discriminator 4
	str	r1, [r0, #12]
	bx	lr
	.cfi_endproc
.LFE153:
	.size	netif_set_gw, .-netif_set_gw
	.section	.text.netif_set_netmask,"ax",%progbits
	.align	1
	.global	netif_set_netmask
	.syntax unified
	.thumb
	.thumb_func
	.fpu softvfp
	.type	netif_set_netmask, %function
netif_set_netmask:
.LFB154:
	.loc 1 581 0
	.cfi_startproc
	@ args = 0, pretend = 0, frame = 0
	@ frame_needed = 0, uses_anonymous_args = 0
	@ link register save eliminated.
.LVL45:
	.loc 1 584 0
	cbz	r1, .L60
	.loc 1 584 0 is_stmt 0 discriminator 1
	ldr	r1, [r1]
.LVL46:
.L60:
	.loc 1 584 0 is_stmt 1 discriminator 4
	str	r1, [r0, #8]
	bx	lr
	.cfi_endproc
.LFE154:
	.size	netif_set_netmask, .-netif_set_netmask
	.section	.text.netif_set_default,"ax",%progbits
	.align	1
	.global	netif_set_default
	.syntax unified
	.thumb
	.thumb_func
	.fpu softvfp
	.type	netif_set_default, %function
netif_set_default:
.LFB155:
	.loc 1 605 0
	.cfi_startproc
	@ args = 0, pretend = 0, frame = 0
	@ frame_needed = 0, uses_anonymous_args = 0
	@ link register save eliminated.
.LVL47:
	.loc 1 613 0
	ldr	r3, .L63
	str	r0, [r3]
	bx	lr
.L64:
	.align	2
.L63:
	.word	netif_default
	.cfi_endproc
.LFE155:
	.size	netif_set_default, .-netif_set_default
	.section	.text.netif_set_up,"ax",%progbits
	.align	1
	.global	netif_set_up
	.syntax unified
	.thumb
	.thumb_func
	.fpu softvfp
	.type	netif_set_up, %function
netif_set_up:
.LFB156:
	.loc 1 625 0
	.cfi_startproc
	@ args = 0, pretend = 0, frame = 0
	@ frame_needed = 0, uses_anonymous_args = 0
	@ link register save eliminated.
.LVL48:
	.loc 1 626 0
	ldrb	r2, [r0, #55]	@ zero_extendqisi2
	lsls	r1, r2, #31
	bmi	.L65
	.loc 1 627 0
	orr	r1, r2, #1
	.loc 1 633 0
	lsls	r2, r2, #29
	.loc 1 627 0
	strb	r1, [r0, #55]
	.loc 1 633 0
	bpl	.L65
.LVL49:
.LBB53:
.LBB54:
	.loc 1 645 0
	ldr	r3, [r0, #4]
	cbz	r3, .L65
	b	netif_issue_reports.part.0
.LVL50:
.L65:
	bx	lr
.LBE54:
.LBE53:
	.cfi_endproc
.LFE156:
	.size	netif_set_up, .-netif_set_up
	.section	.text.netif_set_down,"ax",%progbits
	.align	1
	.global	netif_set_down
	.syntax unified
	.thumb
	.thumb_func
	.fpu softvfp
	.type	netif_set_down, %function
netif_set_down:
.LFB158:
	.loc 1 683 0
	.cfi_startproc
	@ args = 0, pretend = 0, frame = 0
	@ frame_needed = 0, uses_anonymous_args = 0
	@ link register save eliminated.
.LVL51:
	.loc 1 684 0
	ldrb	r3, [r0, #55]	@ zero_extendqisi2
	lsls	r1, r3, #31
	bpl	.L75
	.loc 1 685 0
	bic	r1, r3, #1
	.loc 1 689 0
	lsls	r3, r3, #28
	.loc 1 685 0
	strb	r1, [r0, #55]
	.loc 1 689 0
	bpl	.L75
	.loc 1 690 0
	b	etharp_cleanup_netif
.LVL52:
.L75:
	bx	lr
	.cfi_endproc
.LFE158:
	.size	netif_set_down, .-netif_set_down
	.section	.text.netif_remove,"ax",%progbits
	.align	1
	.global	netif_remove
	.syntax unified
	.thumb
	.thumb_func
	.fpu softvfp
	.type	netif_remove, %function
netif_remove:
.LFB150:
	.loc 1 378 0
	.cfi_startproc
	@ args = 0, pretend = 0, frame = 0
	@ frame_needed = 0, uses_anonymous_args = 0
.LVL53:
	push	{r3, r4, r5, lr}
	.cfi_def_cfa_offset 16
	.cfi_offset 3, -16
	.cfi_offset 4, -12
	.cfi_offset 5, -8
	.cfi_offset 14, -4
	.loc 1 383 0
	mov	r4, r0
	cmp	r0, #0
	beq	.L82
	.loc 1 388 0
	ldr	r3, [r0, #4]
	cbz	r3, .L85
	.loc 1 390 0
	adds	r5, r0, #4
	movs	r1, #0
	mov	r0, r5
.LVL54:
	bl	tcp_netif_ip_addr_changed
.LVL55:
	.loc 1 393 0
	movs	r1, #0
	mov	r0, r5
	bl	udp_netif_ip_addr_changed
.LVL56:
	.loc 1 396 0
	movs	r1, #0
	mov	r0, r5
	bl	raw_netif_ip_addr_changed
.LVL57:
.L85:
	.loc 1 402 0
	ldrb	r3, [r4, #55]	@ zero_extendqisi2
	lsls	r2, r3, #26
	bpl	.L86
	.loc 1 403 0
	mov	r0, r4
	bl	igmp_stop
.LVL58:
.L86:
	.loc 1 427 0
	ldrb	r3, [r4, #55]	@ zero_extendqisi2
	lsls	r3, r3, #31
	bpl	.L87
	.loc 1 429 0
	mov	r0, r4
	bl	netif_set_down
.LVL59:
.L87:
	.loc 1 435 0
	ldr	r3, .L103
	ldr	r2, [r3]
	cmp	r4, r2
.LVL60:
.LBB55:
.LBB56:
	.loc 1 613 0
	itt	eq
	moveq	r2, #0
	streq	r2, [r3]
.LBE56:
.LBE55:
	.loc 1 440 0
	ldr	r2, .L103+4
	ldr	r3, [r2]
	cmp	r4, r3
	bne	.L90
	.loc 1 441 0
	ldr	r3, [r4]
	str	r3, [r2]
	pop	{r3, r4, r5, pc}
.LVL61:
.L91:
.LBB57:
	.loc 1 446 0
	ldr	r2, [r3]
	cmp	r4, r2
	bne	.L93
	.loc 1 447 0
	ldr	r2, [r4]
	str	r2, [r3]
	.loc 1 448 0
	pop	{r3, r4, r5, pc}
.LVL62:
.L93:
	mov	r3, r2
.LVL63:
.L90:
	.loc 1 445 0 discriminator 1
	cmp	r3, #0
	bne	.L91
.LVL64:
.L82:
	pop	{r3, r4, r5, pc}
.LVL65:
.L104:
	.align	2
.L103:
	.word	netif_default
	.word	netif_list
.LBE57:
	.cfi_endproc
.LFE150:
	.size	netif_remove, .-netif_remove
	.section	.text.netif_set_link_up,"ax",%progbits
	.align	1
	.global	netif_set_link_up
	.syntax unified
	.thumb
	.thumb_func
	.fpu softvfp
	.type	netif_set_link_up, %function
netif_set_link_up:
.LFB159:
	.loc 1 736 0
	.cfi_startproc
	@ args = 0, pretend = 0, frame = 0
	@ frame_needed = 0, uses_anonymous_args = 0
.LVL66:
	push	{r4, lr}
	.cfi_def_cfa_offset 8
	.cfi_offset 4, -8
	.cfi_offset 14, -4
	.loc 1 737 0
	ldrb	r3, [r0, #55]	@ zero_extendqisi2
	.loc 1 736 0
	mov	r4, r0
	.loc 1 737 0
	lsls	r2, r3, #29
	bmi	.L105
	.loc 1 738 0
	orr	r3, r3, #4
	strb	r3, [r0, #55]
	.loc 1 741 0
	bl	dhcp_network_changed
.LVL67:
	.loc 1 745 0
	mov	r0, r4
	bl	autoip_network_changed
.LVL68:
	.loc 1 748 0
	ldrb	r3, [r4, #55]	@ zero_extendqisi2
	lsls	r3, r3, #31
	bpl	.L105
.LVL69:
.LBB60:
.LBB61:
	.loc 1 645 0
	ldr	r3, [r4, #4]
	cbz	r3, .L105
	mov	r0, r4
.LBE61:
.LBE60:
	.loc 1 753 0
	pop	{r4, lr}
	.cfi_remember_state
	.cfi_restore 14
	.cfi_restore 4
	.cfi_def_cfa_offset 0
.LVL70:
.LBB63:
.LBB62:
	b	netif_issue_reports.part.0
.LVL71:
.L105:
	.cfi_restore_state
	pop	{r4, pc}
.LBE62:
.LBE63:
	.cfi_endproc
.LFE159:
	.size	netif_set_link_up, .-netif_set_link_up
	.section	.text.netif_set_link_down,"ax",%progbits
	.align	1
	.global	netif_set_link_down
	.syntax unified
	.thumb
	.thumb_func
	.fpu softvfp
	.type	netif_set_link_down, %function
netif_set_link_down:
.LFB160:
	.loc 1 761 0
	.cfi_startproc
	@ args = 0, pretend = 0, frame = 0
	@ frame_needed = 0, uses_anonymous_args = 0
	@ link register save eliminated.
.LVL72:
	.loc 1 762 0
	ldrb	r3, [r0, #55]	@ zero_extendqisi2
	lsls	r2, r3, #29
	.loc 1 763 0
	itt	mi
	bicmi	r3, r3, #4
	strbmi	r3, [r0, #55]
	bx	lr
	.cfi_endproc
.LFE160:
	.size	netif_set_link_down, .-netif_set_link_down
	.comm	netif_default,4,4
	.comm	netif_list,4,4
	.section	.bss.netif_num,"aw",%nobits
	.set	.LANCHOR0,. + 0
	.type	netif_num, %object
	.size	netif_num, 1
netif_num:
	.space	1
	.text
.Letext0:
	.file 2 "/home/ls/samba_share/sdk-ameba-v7.1d/tools/arm-none-eabi-gcc/asdk/linux/newlib/arm-none-eabi/include/machine/_default_types.h"
	.file 3 "/home/ls/samba_share/sdk-ameba-v7.1d/tools/arm-none-eabi-gcc/asdk/linux/newlib/lib/gcc/arm-none-eabi/6.5.0/include/stddef.h"
	.file 4 "/home/ls/samba_share/sdk-ameba-v7.1d/tools/arm-none-eabi-gcc/asdk/linux/newlib/arm-none-eabi/include/sys/lock.h"
	.file 5 "/home/ls/samba_share/sdk-ameba-v7.1d/tools/arm-none-eabi-gcc/asdk/linux/newlib/arm-none-eabi/include/sys/_types.h"
	.file 6 "/home/ls/samba_share/sdk-ameba-v7.1d/tools/arm-none-eabi-gcc/asdk/linux/newlib/arm-none-eabi/include/sys/reent.h"
	.file 7 "<built-in>"
	.file 8 "/home/ls/samba_share/sdk-ameba-v7.1d/tools/arm-none-eabi-gcc/asdk/linux/newlib/arm-none-eabi/include/sys/_stdint.h"
	.file 9 "/home/ls/samba_share/sdk-ameba-v7.1d/tools/arm-none-eabi-gcc/asdk/linux/newlib/arm-none-eabi/include/time.h"
	.file 10 "/home/ls/samba_share/sdk-ameba-v7.1d/tools/arm-none-eabi-gcc/asdk/linux/newlib/lib/gcc/arm-none-eabi/6.5.0/include/stdarg.h"
	.file 11 "/home/ls/samba_share/sdk-ameba-v7.1d/tools/arm-none-eabi-gcc/asdk/linux/newlib/arm-none-eabi/include/stdio.h"
	.file 12 "/home/ls/samba_share/sdk-ameba-v7.1d/tools/arm-none-eabi-gcc/asdk/linux/newlib/arm-none-eabi/include/stdlib.h"
	.file 13 "../../../component/soc/realtek/8710c/cmsis/rtl8710c/include/basic_types.h"
	.file 14 "../../../component/common/network/lwip/lwip_v2.0.2/port/realtek/arch/cc.h"
	.file 15 "../../../component/common/network/lwip/lwip_v2.0.2/src/include/lwip/ip4_addr.h"
	.file 16 "../../../component/common/network/lwip/lwip_v2.0.2/src/include/lwip/ip_addr.h"
	.file 17 "../../../component/common/network/lwip/lwip_v2.0.2/src/include/lwip/err.h"
	.file 18 "../../../component/common/network/lwip/lwip_v2.0.2/src/include/lwip/pbuf.h"
	.file 19 "../../../component/common/network/lwip/lwip_v2.0.2/src/include/lwip/memp.h"
	.file 20 "../../../component/common/network/lwip/lwip_v2.0.2/src/include/lwip/priv/memp_priv.h"
	.file 21 "../../../component/common/network/lwip/lwip_v2.0.2/src/include/lwip/netif.h"
	.file 22 "../../../component/common/network/lwip/lwip_v2.0.2/src/include/lwip/prot/ip4.h"
	.file 23 "../../../component/common/network/lwip/lwip_v2.0.2/src/include/lwip/ip.h"
	.file 24 "../../../component/common/network/lwip/lwip_v2.0.2/src/include/lwip/tcp.h"
	.file 25 "../../../component/common/network/lwip/lwip_v2.0.2/src/include/lwip/priv/tcp_priv.h"
	.file 26 "../../../component/common/network/lwip/lwip_v2.0.2/src/include/lwip/prot/tcp.h"
	.file 27 "../../../component/common/network/lwip/lwip_v2.0.2/src/include/lwip/udp.h"
	.file 28 "../../../component/common/network/lwip/lwip_v2.0.2/src/include/lwip/prot/ethernet.h"
	.file 29 "../inc/FreeRTOSConfig.h"
	.file 30 "../../../component/soc/realtek/8710c/app/rtl_printf/include/log_buf.h"
	.file 31 "../../../component/soc/realtek/8710c/app/stdio_port/stdio_port.h"
	.file 32 "../../../component/soc/realtek/8710c/app/rtl_printf/include/printf_entry.h"
	.file 33 "../../../component/soc/realtek/8710c/app/rtl_printf/include/rt_printf.h"
	.file 34 "../../../component/soc/realtek/8710c/misc/utilities/include/utility.h"
	.file 35 "../../../component/common/network/lwip/lwip_v2.0.2/src/include/netif/ethernet.h"
	.file 36 "../../../component/common/network/lwip/lwip_v2.0.2/src/include/lwip/dhcp.h"
	.file 37 "../../../component/common/network/lwip/lwip_v2.0.2/src/include/lwip/autoip.h"
	.file 38 "../../../component/common/network/lwip/lwip_v2.0.2/src/include/lwip/etharp.h"
	.file 39 "../../../component/common/network/lwip/lwip_v2.0.2/src/include/lwip/raw.h"
	.file 40 "../../../component/common/network/lwip/lwip_v2.0.2/src/include/lwip/igmp.h"
	.file 41 "../../../component/common/network/lwip/lwip_v2.0.2/src/include/lwip/ip4.h"