	.arch armv8-m.main
	.arch_extension dsp
	.eabi_attribute 20, 1
	.eabi_attribute 21, 1
	.eabi_attribute 23, 3
	.eabi_attribute 24, 1
	.eabi_attribute 25, 1
	.eabi_attribute 26, 1
	.eabi_attribute 30, 4
	.eabi_attribute 34, 1
	.eabi_attribute 18, 4
	.file	"pkparse.c"
	.text
.Ltext0:
	.cfi_sections	.debug_frame
	.section	.text.pk_parse_key_pkcs1_der,"ax",%progbits
	.align	1
	.syntax unified
	.thumb
	.thumb_func
	.fpu softvfp
	.type	pk_parse_key_pkcs1_der, %function
pk_parse_key_pkcs1_der:
.LFB13:
	.file 1 "../../../component/common/network/ssl/mbedtls-2.4.0/library/pkparse.c"
	.loc 1 658 0
	.cfi_startproc
	@ args = 0, pretend = 0, frame = 8
	@ frame_needed = 0, uses_anonymous_args = 0
.LVL0:
	push	{r0, r1, r2, r4, r5, r6, r7, lr}
	.cfi_def_cfa_offset 32
	.cfi_offset 4, -20
	.cfi_offset 5, -16
	.cfi_offset 6, -12
	.cfi_offset 7, -8
	.cfi_offset 14, -4
	.loc 1 682 0
	movs	r3, #48
	.loc 1 658 0
	mov	r5, r0
	.loc 1 663 0
	str	r1, [sp, #4]
.LVL1:
	.loc 1 682 0
	add	r0, sp, #4
.LVL2:
	.loc 1 664 0
	add	r1, r1, r2
.LVL3:
	.loc 1 682 0
	mov	r2, sp
.LVL4:
	bl	mbedtls_asn1_get_tag
.LVL5:
	cbz	r0, .L2
.LVL6:
.L12:
	.loc 1 692 0
	sub	r4, r0, #15616
.LVL7:
.L1:
	.loc 1 729 0
	mov	r0, r4
	add	sp, sp, #12
	.cfi_remember_state
	.cfi_def_cfa_offset 20
	@ sp needed
	pop	{r4, r5, r6, r7, pc}
.LVL8:
.L2:
	.cfi_restore_state
	.loc 1 688 0
	ldm	sp, {r3, r6}
	add	r6, r6, r3
.LVL9:
	.loc 1 690 0
	mov	r2, r5
	mov	r1, r6
	add	r0, sp, #4
.LVL10:
	bl	mbedtls_asn1_get_int
.LVL11:
	cmp	r0, #0
	bne	.L12
	.loc 1 695 0
	ldr	r3, [r5]
	cmp	r3, #0
	bne	.L8
	.loc 1 700 0
	add	r7, r5, #8
	mov	r2, r7
	mov	r1, r6
	add	r0, sp, #4
.LVL12:
	bl	mbedtls_asn1_get_mpi
.LVL13:
	mov	r4, r0
	cbnz	r0, .L5
	.loc 1 700 0 is_stmt 0 discriminator 1
	add	r2, r5, #20
	mov	r1, r6
	add	r0, sp, #4
.LVL14:
	bl	mbedtls_asn1_get_mpi
.LVL15:
	mov	r4, r0
	cbnz	r0, .L5
	.loc 1 701 0 is_stmt 1
	add	r2, r5, #32
	mov	r1, r6
	add	r0, sp, #4
.LVL16:
	bl	mbedtls_asn1_get_mpi
.LVL17:
	mov	r4, r0
	cbnz	r0, .L5
	.loc 1 702 0
	add	r2, r5, #44
	mov	r1, r6
	add	r0, sp, #4
.LVL18:
	bl	mbedtls_asn1_get_mpi
.LVL19:
	mov	r4, r0
	cbnz	r0, .L5
	.loc 1 703 0
	add	r2, r5, #56
	mov	r1, r6
	add	r0, sp, #4
.LVL20:
	bl	mbedtls_asn1_get_mpi
.LVL21:
	mov	r4, r0
	cbnz	r0, .L5
	.loc 1 704 0
	add	r2, r5, #68
	mov	r1, r6
	add	r0, sp, #4
.LVL22:
	bl	mbedtls_asn1_get_mpi
.LVL23:
	mov	r4, r0
	cbnz	r0, .L5
	.loc 1 705 0
	add	r2, r5, #80
	mov	r1, r6
	add	r0, sp, #4
.LVL24:
	bl	mbedtls_asn1_get_mpi
.LVL25:
	mov	r4, r0
	cbnz	r0, .L5
	.loc 1 706 0
	add	r2, r5, #92
	mov	r1, r6
	add	r0, sp, #4
.LVL26:
	bl	mbedtls_asn1_get_mpi
.LVL27:
	mov	r4, r0
	cbz	r0, .L6
.L5:
	.loc 1 709 0
	mov	r0, r5
.LVL28:
	bl	mbedtls_rsa_free
.LVL29:
	.loc 1 710 0
	sub	r4, r4, #15616
.LVL30:
	b	.L1
.LVL31:
.L6:
	.loc 1 713 0
	mov	r0, r7
.LVL32:
	bl	mbedtls_mpi_size
.LVL33:
	.loc 1 715 0
	ldr	r3, [sp, #4]
	.loc 1 713 0
	str	r0, [r5, #4]
	.loc 1 715 0
	cmp	r6, r3
	.loc 1 717 0
	mov	r0, r5
	.loc 1 715 0
	beq	.L7
.LVL34:
	.loc 1 717 0
	bl	mbedtls_rsa_free
.LVL35:
	.loc 1 718 0
	ldr	r4, .L13
.LVL36:
	b	.L1
.LVL37:
.L7:
	.loc 1 722 0
	bl	mbedtls_rsa_check_privkey
.LVL38:
	mov	r4, r0
	cmp	r0, #0
	beq	.L1
	.loc 1 724 0
	mov	r0, r5
.LVL39:
	bl	mbedtls_rsa_free
.LVL40:
	.loc 1 725 0
	b	.L1
.LVL41:
.L8:
	.loc 1 697 0
	ldr	r4, .L13+4
	b	.L1
.L14:
	.align	2
.L13:
	.word	-15718
	.word	-15744
	.cfi_endproc
.LFE13:
	.size	pk_parse_key_pkcs1_der, .-pk_parse_key_pkcs1_der
	.section	.text.pk_get_pk_alg,"ax",%progbits
	.align	1
	.syntax unified
	.thumb
	.thumb_func
	.fpu softvfp
	.type	pk_get_pk_alg, %function
pk_get_pk_alg:
.LFB11:
	.loc 1 562 0
	.cfi_startproc
	@ args = 0, pretend = 0, frame = 16
	@ frame_needed = 0, uses_anonymous_args = 0
.LVL42:
	push	{r4, r5, lr}
	.cfi_def_cfa_offset 12
	.cfi_offset 4, -12
	.cfi_offset 5, -8
	.cfi_offset 14, -4
	mov	r5, r2
	.loc 1 566 0
	movs	r2, #0
.LVL43:
	.loc 1 562 0
	sub	sp, sp, #20
	.cfi_def_cfa_offset 32
	.loc 1 566 0
	str	r2, [r3]
	str	r2, [r3, #4]
	str	r2, [r3, #8]
	.loc 1 568 0
	add	r2, sp, #4
	.loc 1 562 0
	mov	r4, r3
	.loc 1 568 0
	bl	mbedtls_asn1_get_alg
.LVL44:
	cbz	r0, .L16
	.loc 1 569 0
	sub	r0, r0, #14976
.LVL45:
.L15:
	.loc 1 585 0
	add	sp, sp, #20
	.cfi_remember_state
	.cfi_def_cfa_offset 12
	@ sp needed
	pop	{r4, r5, pc}
.LVL46:
.L16:
	.cfi_restore_state
	.loc 1 571 0
	mov	r1, r5
	add	r0, sp, #4
.LVL47:
	bl	mbedtls_oid_get_pk_alg
.LVL48:
	cbnz	r0, .L19
.LVL49:
.LBB12:
.LBB13:
	.loc 1 577 0
	ldrb	r3, [r5]	@ zero_extendqisi2
	cmp	r3, #1
	bne	.L15
	.loc 1 578 0
	ldr	r3, [r4]
	.loc 1 577 0
	cmp	r3, #5
	beq	.L18
	.loc 1 578 0
	cbnz	r3, .L20
.L18:
	ldr	r2, [r4, #4]
	.loc 1 581 0
	ldr	r3, .L26
	cmp	r2, #0
	it	ne
	movne	r0, r3
	b	.L15
.LVL50:
.L19:
.LBE13:
.LBE12:
	.loc 1 572 0
	ldr	r0, .L26+4
	b	.L15
.LVL51:
.L20:
.LBB15:
.LBB14:
	.loc 1 581 0
	ldr	r0, .L26
	b	.L15
.L27:
	.align	2
.L26:
	.word	-14976
	.word	-15488
.LBE14:
.LBE15:
	.cfi_endproc
.LFE11:
	.size	pk_get_pk_alg, .-pk_get_pk_alg
	.section	.text.pk_parse_key_pkcs8_unencrypted_der,"ax",%progbits
	.align	1
	.syntax unified
	.thumb
	.thumb_func
	.fpu softvfp
	.type	pk_parse_key_pkcs8_unencrypted_der, %function
pk_parse_key_pkcs8_unencrypted_der:
.LFB14:
	.loc 1 865 0
	.cfi_startproc
	@ args = 0, pretend = 0, frame = 32
	@ frame_needed = 0, uses_anonymous_args = 0
.LVL52:
	.loc 1 871 0
	movs	r3, #0
	.loc 1 865 0
	push	{r4, r5, lr}
	.cfi_def_cfa_offset 12
	.cfi_offset 4, -12
	.cfi_offset 5, -8
	.cfi_offset 14, -4
	sub	sp, sp, #36
	.cfi_def_cfa_offset 48
	.loc 1 865 0
	mov	r5, r0
	.loc 1 869 0
	str	r1, [sp, #16]
.LVL53:
	.loc 1 871 0
	strb	r3, [sp, #7]
	.loc 1 870 0
	add	r1, r1, r2
.LVL54:
	.loc 1 890 0
	movs	r3, #48
	add	r2, sp, #12
.LVL55:
	add	r0, sp, #16
.LVL56:
	bl	mbedtls_asn1_get_tag
.LVL57:
	cbz	r0, .L29
.LVL58:
.L43:
	.loc 1 908 0
	sub	r4, r0, #15616
.LVL59:
.L28:
	.loc 1 944 0
	mov	r0, r4
	add	sp, sp, #36
	.cfi_remember_state
	.cfi_def_cfa_offset 12
	@ sp needed
	pop	{r4, r5, pc}
.LVL60:
.L29:
	.cfi_restore_state
	.loc 1 896 0
	ldr	r3, [sp, #12]
	ldr	r4, [sp, #16]
	.loc 1 898 0
	add	r2, sp, #8
	.loc 1 896 0
	add	r4, r4, r3
.LVL61:
	.loc 1 898 0
	mov	r1, r4
	add	r0, sp, #16
.LVL62:
	bl	mbedtls_asn1_get_int
.LVL63:
	cmp	r0, #0
	bne	.L43
	.loc 1 901 0
	ldr	r3, [sp, #8]
	cmp	r3, #0
	bne	.L36
	.loc 1 904 0
	add	r3, sp, #20
	add	r2, sp, #7
	mov	r1, r4
	add	r0, sp, #16
.LVL64:
	bl	pk_get_pk_alg
.LVL65:
	cmp	r0, #0
	bne	.L43
	.loc 1 907 0
	movs	r3, #4
	add	r2, sp, #12
	mov	r1, r4
	add	r0, sp, #16
.LVL66:
	bl	mbedtls_asn1_get_tag
.LVL67:
	cmp	r0, #0
	bne	.L43
	.loc 1 910 0
	ldr	r3, [sp, #12]
	cbz	r3, .L37
	.loc 1 914 0
	ldrb	r0, [sp, #7]	@ zero_extendqisi2
.LVL68:
	bl	mbedtls_pk_info_from_type
.LVL69:
	mov	r1, r0
	cbnz	r0, .L34
.LVL70:
.L35:
	.loc 1 915 0
	ldr	r4, .L44
	b	.L28
.LVL71:
.L34:
	.loc 1 917 0
	mov	r0, r5
.LVL72:
	bl	mbedtls_pk_setup
.LVL73:
	mov	r4, r0
.LVL74:
	cmp	r0, #0
	bne	.L28
	.loc 1 921 0
	ldrb	r3, [sp, #7]	@ zero_extendqisi2
	cmp	r3, #1
	bne	.L35
	.loc 1 923 0
	ldr	r2, [sp, #12]
	ldr	r1, [sp, #16]
	ldr	r0, [r5, #4]
.LVL75:
	bl	pk_parse_key_pkcs1_der
.LVL76:
	mov	r4, r0
	cmp	r0, #0
	beq	.L28
	.loc 1 925 0
	mov	r0, r5
.LVL77:
	bl	mbedtls_pk_free
.LVL78:
	.loc 1 926 0
	b	.L28
.LVL79:
.L36:
	.loc 1 902 0
	ldr	r4, .L44+4
.LVL80:
	b	.L28
.LVL81:
.L37:
	.loc 1 911 0
	ldr	r4, .L44+8
.LVL82:
	b	.L28
.L45:
	.align	2
.L44:
	.word	-15488
	.word	-15744
	.word	-15712
	.cfi_endproc
.LFE14:
	.size	pk_parse_key_pkcs8_unencrypted_der, .-pk_parse_key_pkcs8_unencrypted_der
	.section	.text.mbedtls_pk_parse_subpubkey,"ax",%progbits
	.align	1
	.global	mbedtls_pk_parse_subpubkey
	.syntax unified
	.thumb
	.thumb_func
	.fpu softvfp
	.type	mbedtls_pk_parse_subpubkey, %function
mbedtls_pk_parse_subpubkey:
.LFB12:
	.loc 1 594 0
	.cfi_startproc
	@ args = 0, pretend = 0, frame = 24
	@ frame_needed = 0, uses_anonymous_args = 0
.LVL83:
	.loc 1 598 0
	movs	r3, #0
	.loc 1 594 0
	push	{r4, r5, r6, r7, r8, r9, lr}
	.cfi_def_cfa_offset 28
	.cfi_offset 4, -28
	.cfi_offset 5, -24
	.cfi_offset 6, -20
	.cfi_offset 7, -16
	.cfi_offset 8, -12
	.cfi_offset 9, -8
	.cfi_offset 14, -4
	sub	sp, sp, #28
	.cfi_def_cfa_offset 56
	.loc 1 594 0
	mov	r8, r2
	.loc 1 598 0
	strb	r3, [sp, #3]
	.loc 1 601 0
	add	r2, sp, #4
.LVL84:
	movs	r3, #48
	.loc 1 594 0
	mov	r6, r0
	.loc 1 601 0
	bl	mbedtls_asn1_get_tag
.LVL85:
	cbz	r0, .L47
	.loc 1 604 0
	sub	r4, r0, #15616
.LVL86:
.L46:
	.loc 1 649 0
	mov	r0, r4
	add	sp, sp, #28
	.cfi_remember_state
	.cfi_def_cfa_offset 28
	@ sp needed
	pop	{r4, r5, r6, r7, r8, r9, pc}
.LVL87:
.L47:
	.cfi_restore_state
	.loc 1 607 0
	ldr	r3, [sp, #4]
	ldr	r5, [r6]
	.loc 1 609 0
	add	r2, sp, #3
	.loc 1 607 0
	add	r5, r5, r3
.LVL88:
	.loc 1 609 0
	mov	r1, r5
	add	r3, sp, #12
	mov	r0, r6
.LVL89:
	bl	pk_get_pk_alg
.LVL90:
	mov	r4, r0
	cmp	r0, #0
	bne	.L46
	.loc 1 612 0
	add	r2, sp, #4
	mov	r1, r5
	mov	r0, r6
.LVL91:
	bl	mbedtls_asn1_get_bitstring_null
.LVL92:
	cbz	r0, .L49
	.loc 1 613 0
	sub	r4, r0, #15104
	b	.L46
.L49:
	.loc 1 615 0
	ldr	r3, [r6]
	ldr	r2, [sp, #4]
	add	r3, r3, r2
	cmp	r5, r3
	bne	.L59
	.loc 1 619 0
	ldrb	r0, [sp, #3]	@ zero_extendqisi2
.LVL93:
	bl	mbedtls_pk_info_from_type
.LVL94:
	mov	r1, r0
	cmp	r0, #0
	beq	.L60
	.loc 1 622 0
	mov	r0, r8
.LVL95:
	bl	mbedtls_pk_setup
.LVL96:
	mov	r4, r0
	cmp	r0, #0
	bne	.L46
	.loc 1 626 0
	ldrb	r3, [sp, #3]	@ zero_extendqisi2
	cmp	r3, #1
	bne	.L61
.LBB18:
.LBB19:
	.loc 1 528 0
	movs	r3, #48
	add	r2, sp, #8
	mov	r1, r5
	mov	r0, r6
.LVL97:
	ldr	r7, [r8, #4]
.LVL98:
	bl	mbedtls_asn1_get_tag
.LVL99:
	cbz	r0, .L51
.L54:
	.loc 1 538 0
	sub	r0, r0, #15104
.LVL100:
.LBE19:
.LBE18:
	.loc 1 641 0
	cbnz	r0, .L50
.LVL101:
.L57:
	.loc 1 641 0 is_stmt 0 discriminator 1
	ldr	r3, [r6]
	cmp	r5, r3
	beq	.L46
.LVL102:
.L63:
	.loc 1 642 0 is_stmt 1
	ldr	r4, .L64
.L58:
.LVL103:
	.loc 1 646 0
	mov	r0, r8
	bl	mbedtls_pk_free
.LVL104:
	b	.L46
.LVL105:
.L51:
.LBB22:
.LBB20:
	.loc 1 532 0
	ldr	r3, [r6]
	ldr	r2, [sp, #8]
	add	r3, r3, r2
	cmp	r5, r3
	bne	.L63
	.loc 1 536 0
	add	r9, r7, #8
	mov	r2, r9
	mov	r1, r5
	mov	r0, r6
.LVL106:
	bl	mbedtls_asn1_get_mpi
.LVL107:
	cmp	r0, #0
	bne	.L54
	add	r2, r7, #20
	mov	r1, r5
	mov	r0, r6
.LVL108:
	bl	mbedtls_asn1_get_mpi
.LVL109:
	cmp	r0, #0
	bne	.L54
	.loc 1 540 0
	ldr	r3, [r6]
	cmp	r5, r3
	bne	.L63
	.loc 1 544 0
	mov	r0, r7
.LVL110:
	bl	mbedtls_rsa_check_pubkey
.LVL111:
	cbnz	r0, .L62
	.loc 1 547 0
	mov	r0, r9
.LVL112:
	bl	mbedtls_mpi_size
.LVL113:
	str	r0, [r7, #4]
.LVL114:
	b	.L57
.LVL115:
.L59:
.LBE20:
.LBE22:
	.loc 1 616 0
	ldr	r4, .L64
	b	.L46
.LVL116:
.L60:
	.loc 1 620 0
	ldr	r4, .L64+4
	b	.L46
.LVL117:
.L62:
.LBB23:
.LBB21:
	.loc 1 545 0
	ldr	r4, .L64+8
.LVL118:
	b	.L58
.LVL119:
.L61:
.LBE21:
.LBE23:
	.loc 1 639 0
	ldr	r0, .L64+4
.LVL120:
.L50:
	.loc 1 642 0
	mov	r4, r0
	b	.L58
.L65:
	.align	2
.L64:
	.word	-15206
	.word	-15488
	.word	-15104
	.cfi_endproc
.LFE12:
	.size	mbedtls_pk_parse_subpubkey, .-mbedtls_pk_parse_subpubkey
	.section	.text.mbedtls_pk_parse_key,"ax",%progbits
	.align	1
	.global	mbedtls_pk_parse_key
	.syntax unified
	.thumb
	.thumb_func
	.fpu softvfp
	.type	mbedtls_pk_parse_key, %function
mbedtls_pk_parse_key:
.LFB15:
	.loc 1 1075 0
	.cfi_startproc
	@ args = 4, pretend = 0, frame = 24
	@ frame_needed = 0, uses_anonymous_args = 0
.LVL121:
	push	{r4, r5, r6, r7, r8, r9, lr}
	.cfi_def_cfa_offset 28
	.cfi_offset 4, -28
	.cfi_offset 5, -24
	.cfi_offset 6, -20
	.cfi_offset 7, -16
	.cfi_offset 8, -12
	.cfi_offset 9, -8
	.cfi_offset 14, -4
	mov	r7, r2
	sub	sp, sp, #44
	.cfi_def_cfa_offset 72
	.loc 1 1075 0
	mov	r5, r0
	.loc 1 1083 0
	add	r0, sp, #28
.LVL122:
	.loc 1 1075 0
	mov	r6, r1
	mov	r4, r3
	ldr	r9, [sp, #72]
	.loc 1 1083 0
	bl	mbedtls_pem_init
.LVL123:
	.loc 1 1087 0
	cmp	r7, #0
	beq	.L67
	.loc 1 1087 0 is_stmt 0 discriminator 1
	add	r8, r7, #-1
	ldrb	r3, [r6, r8]	@ zero_extendqisi2
	cbz	r3, .L68
.LVL124:
.L77:
	.loc 1 1180 0 is_stmt 1
	ldrb	r4, [r6, r8]	@ zero_extendqisi2
	cmp	r4, #0
	bne	.L67
	.loc 1 1185 0
	ldr	r3, .L110
	add	r2, sp, #24
	ldr	r3, [r3, #60]
	cmp	r3, #0
	beq	.L78
	.loc 1 1187 0
	movs	r0, #2
	str	r2, [sp, #20]
	bl	device_mutex_lock
.LVL125:
	.loc 1 1188 0
	ldr	r2, [sp, #20]
	str	r4, [sp, #4]
	str	r2, [sp, #8]
	str	r4, [sp]
	mov	r3, r6
	ldr	r2, .L110+4
	ldr	r1, .L110+8
	add	r0, sp, #28
	bl	mbedtls_pem_read_buffer
.LVL126:
	mov	r4, r0
.LVL127:
	.loc 1 1192 0
	movs	r0, #2
.LVL128:
	bl	device_mutex_unlock
.LVL129:
.L79:
	.loc 1 1202 0
	cmp	r4, #0
	bne	.L80
	.loc 1 1204 0
	ldr	r2, [sp, #32]
	ldr	r1, [sp, #28]
	mov	r0, r5
	bl	pk_parse_key_pkcs8_unencrypted_der
.LVL130:
	b	.L109
.LVL131:
.L68:
	.loc 1 1092 0
	ldr	r3, .L110
	ldr	r2, [r3, #60]
	add	r3, sp, #24
	cbz	r2, .L70
	.loc 1 1094 0
	movs	r0, #2
	str	r3, [sp, #20]
	bl	device_mutex_lock
.LVL132:
	.loc 1 1095 0
	ldr	r3, [sp, #20]
	stm	sp, {r4, r9}
	str	r3, [sp, #8]
	ldr	r2, .L110+12
	mov	r3, r6
	ldr	r1, .L110+16
	add	r0, sp, #28
	bl	mbedtls_pem_read_buffer
.LVL133:
	mov	r4, r0
.LVL134:
	.loc 1 1099 0
	movs	r0, #2
.LVL135:
	bl	device_mutex_unlock
.LVL136:
.L71:
	.loc 1 1109 0
	cbnz	r4, .L72
	.loc 1 1111 0
	movs	r0, #1
	bl	mbedtls_pk_info_from_type
.LVL137:
	mov	r1, r0
	cbnz	r0, .L73
.LVL138:
.L82:
	.loc 1 1112 0
	ldr	r4, .L110+20
.LVL139:
.L66:
	.loc 1 1315 0
	mov	r0, r4
	add	sp, sp, #44
	.cfi_remember_state
	.cfi_def_cfa_offset 28
	@ sp needed
	pop	{r4, r5, r6, r7, r8, r9, pc}
.LVL140:
.L70:
	.cfi_restore_state
	.loc 1 1103 0
	str	r3, [sp, #8]
	stm	sp, {r4, r9}
	mov	r3, r6
	ldr	r2, .L110+12
	ldr	r1, .L110+16
	add	r0, sp, #28
	bl	mbedtls_pem_read_buffer
.LVL141:
	mov	r4, r0
.LVL142:
	b	.L71
.LVL143:
.L73:
	.loc 1 1114 0
	mov	r0, r5
.LVL144:
	bl	mbedtls_pk_setup
.LVL145:
	mov	r4, r0
	cbnz	r0, .L107
	.loc 1 1114 0 is_stmt 0 discriminator 1
	ldr	r2, [sp, #32]
	ldr	r1, [sp, #28]
	ldr	r0, [r5, #4]
.LVL146:
	bl	pk_parse_key_pkcs1_der
.LVL147:
.L109:
	.loc 1 1204 0 is_stmt 1
	mov	r4, r0
	cbz	r0, .L81
.L107:
	.loc 1 1207 0
	mov	r0, r5
.LVL148:
	bl	mbedtls_pk_free
.LVL149:
.L81:
	.loc 1 1210 0
	add	r0, sp, #28
	bl	mbedtls_pem_free
.LVL150:
	.loc 1 1211 0
	b	.L66
.L72:
	.loc 1 1124 0
	cmn	r4, #4992
	beq	.L85
	.loc 1 1126 0
	cmn	r4, #4864
	beq	.L86
	.loc 1 1128 0
	cmn	r4, #4224
	bne	.L66
	b	.L77
.LVL151:
.L78:
	.loc 1 1196 0
	str	r2, [sp, #8]
	str	r3, [sp, #4]
	str	r3, [sp]
	ldr	r2, .L110+4
	mov	r3, r6
	ldr	r1, .L110+8
	add	r0, sp, #28
	bl	mbedtls_pem_read_buffer
.LVL152:
	mov	r4, r0
.LVL153:
	b	.L79
.LVL154:
.L80:
	.loc 1 1213 0
	cmn	r4, #4224
	bne	.L66
.LVL155:
.L67:
	.loc 1 1283 0
	mov	r2, r7
	mov	r1, r6
	mov	r0, r5
	bl	pk_parse_key_pkcs8_unencrypted_der
.LVL156:
	cbz	r0, .L83
	.loc 1 1286 0
	mov	r0, r5
.LVL157:
	bl	mbedtls_pk_free
.LVL158:
	.loc 1 1289 0
	movs	r0, #1
	bl	mbedtls_pk_info_from_type
.LVL159:
	mov	r1, r0
	cmp	r0, #0
	beq	.L82
	.loc 1 1292 0
	mov	r0, r5
.LVL160:
	bl	mbedtls_pk_setup
.LVL161:
	cbnz	r0, .L83
	.loc 1 1292 0 is_stmt 0 discriminator 1
	mov	r2, r7
	mov	r1, r6
	ldr	r0, [r5, #4]
.LVL162:
	bl	pk_parse_key_pkcs1_der
.LVL163:
	cbz	r0, .L83
	.loc 1 1298 0 is_stmt 1
	mov	r0, r5
.LVL164:
	bl	mbedtls_pk_free
.LVL165:
	.loc 1 1314 0
	ldr	r4, .L110+24
	b	.L66
.LVL166:
.L83:
	.loc 1 1284 0
	movs	r4, #0
	b	.L66
.LVL167:
.L85:
	.loc 1 1125 0
	ldr	r4, .L110+28
.LVL168:
	b	.L66
.LVL169:
.L86:
	.loc 1 1127 0
	ldr	r4, .L110+32
.LVL170:
	b	.L66
.L111:
	.align	2
.L110:
	.word	rom_ssl_ram_map
	.word	.LC2
	.word	.LC3
	.word	.LC0
	.word	.LC1
	.word	-15488
	.word	-15616
	.word	-15232
	.word	-15360
	.cfi_endproc
.LFE15:
	.size	mbedtls_pk_parse_key, .-mbedtls_pk_parse_key
	.section	.text.mbedtls_pk_parse_public_key,"ax",%progbits
	.align	1
	.global	mbedtls_pk_parse_public_key
	.syntax unified
	.thumb
	.thumb_func
	.fpu softvfp
	.type	mbedtls_pk_parse_public_key, %function
mbedtls_pk_parse_public_key:
.LFB16:
	.loc 1 1322 0
	.cfi_startproc
	@ args = 0, pretend = 0, frame = 24
	@ frame_needed = 0, uses_anonymous_args = 0
.LVL171:
	push	{r4, r5, r6, r7, r8, lr}
	.cfi_def_cfa_offset 24
	.cfi_offset 4, -24
	.cfi_offset 5, -20
	.cfi_offset 6, -16
	.cfi_offset 7, -12
	.cfi_offset 8, -8
	.cfi_offset 14, -4
	mov	r6, r2
	sub	sp, sp, #40
	.cfi_def_cfa_offset 64
	.loc 1 1322 0
	mov	r8, r0
	.loc 1 1329 0
	add	r0, sp, #28
.LVL172:
	.loc 1 1322 0
	mov	r4, r1
	.loc 1 1329 0
	bl	mbedtls_pem_init
.LVL173:
	.loc 1 1332 0
	cbz	r6, .L117
	.loc 1 1332 0 is_stmt 0 discriminator 1
	adds	r3, r4, r6
	ldrb	r5, [r3, #-1]	@ zero_extendqisi2
	cbnz	r5, .L117
	.loc 1 1337 0 is_stmt 1
	ldr	r3, .L126
	add	r7, sp, #24
	ldr	r3, [r3, #60]
	cbz	r3, .L114
	.loc 1 1339 0
	movs	r0, #2
	bl	device_mutex_lock
.LVL174:
	.loc 1 1340 0
	str	r5, [sp, #4]
	str	r5, [sp]
	str	r7, [sp, #8]
	mov	r3, r4
	ldr	r2, .L126+4
	ldr	r1, .L126+8
	add	r0, sp, #28
	bl	mbedtls_pem_read_buffer
.LVL175:
	mov	r5, r0
.LVL176:
	.loc 1 1344 0
	movs	r0, #2
.LVL177:
	bl	device_mutex_unlock
.LVL178:
.L115:
	.loc 1 1354 0
	cbnz	r5, .L116
	.loc 1 1359 0
	ldr	r4, [sp, #28]
.LVL179:
	.loc 1 1360 0
	ldr	r6, [sp, #32]
.LVL180:
.L117:
	.loc 1 1368 0
	add	r0, sp, #40
	str	r4, [r0, #-20]!
	.loc 1 1370 0
	mov	r2, r8
	adds	r1, r4, r6
	bl	mbedtls_pk_parse_subpubkey
.LVL181:
	mov	r5, r0
	b	.L125
.L114:
	.loc 1 1348 0
	str	r3, [sp, #4]
	str	r3, [sp]
	str	r7, [sp, #8]
	mov	r3, r4
	ldr	r2, .L126+4
	ldr	r1, .L126+8
	add	r0, sp, #28
	bl	mbedtls_pem_read_buffer
.LVL182:
	mov	r5, r0
.LVL183:
	b	.L115
.LVL184:
.L116:
	.loc 1 1362 0
	cmn	r5, #4224
	beq	.L117
.LVL185:
.L125:
	.loc 1 1373 0
	add	r0, sp, #28
	bl	mbedtls_pem_free
.LVL186:
	.loc 1 1377 0
	mov	r0, r5
	add	sp, sp, #40
	.cfi_def_cfa_offset 24
	@ sp needed
	pop	{r4, r5, r6, r7, r8, pc}
.LVL187:
.L127:
	.align	2
.L126:
	.word	rom_ssl_ram_map
	.word	.LC4
	.word	.LC5
	.cfi_endproc
.LFE16:
	.size	mbedtls_pk_parse_public_key, .-mbedtls_pk_parse_public_key
	.section	.rodata.mbedtls_pk_parse_key.str1.1,"aMS",%progbits,1
.LC0:
	.ascii	"-----END RSA PRIVATE KEY-----\000"
.LC1:
	.ascii	"-----BEGIN RSA PRIVATE KEY-----\000"
.LC2:
	.ascii	"-----END PRIVATE KEY-----\000"
.LC3:
	.ascii	"-----BEGIN PRIVATE KEY-----\000"
	.section	.rodata.mbedtls_pk_parse_public_key.str1.1,"aMS",%progbits,1
.LC4:
	.ascii	"-----END PUBLIC KEY-----\000"
.LC5:
	.ascii	"-----BEGIN PUBLIC KEY-----\000"
	.text
.Letext0:
	.file 2 "/home/ls/8720cf/sdk-ameba-v7.1d/tools/arm-none-eabi-gcc/asdk/linux/newlib/arm-none-eabi/include/machine/_default_types.h"
	.file 3 "/home/ls/8720cf/sdk-ameba-v7.1d/tools/arm-none-eabi-gcc/asdk/linux/newlib/lib/gcc/arm-none-eabi/6.5.0/include/stddef.h"
	.file 4 "/home/ls/8720cf/sdk-ameba-v7.1d/tools/arm-none-eabi-gcc/asdk/linux/newlib/arm-none-eabi/include/sys/lock.h"
	.file 5 "/home/ls/8720cf/sdk-ameba-v7.1d/tools/arm-none-eabi-gcc/asdk/linux/newlib/arm-none-eabi/include/sys/_types.h"
	.file 6 "/home/ls/8720cf/sdk-ameba-v7.1d/tools/arm-none-eabi-gcc/asdk/linux/newlib/arm-none-eabi/include/sys/reent.h"
	.file 7 "/home/ls/8720cf/sdk-ameba-v7.1d/tools/arm-none-eabi-gcc/asdk/linux/newlib/arm-none-eabi/include/sys/_stdint.h"
	.file 8 "/home/ls/8720cf/sdk-ameba-v7.1d/tools/arm-none-eabi-gcc/asdk/linux/newlib/arm-none-eabi/include/time.h"
	.file 9 "../../../component/common/network/ssl/ssl_ram_map/rom/rom_ssl_ram_map.h"
	.file 10 "/home/ls/8720cf/sdk-ameba-v7.1d/tools/arm-none-eabi-gcc/asdk/linux/newlib/arm-none-eabi/include/stdlib.h"
	.file 11 "../../../component/common/network/ssl/mbedtls-2.4.0/include/mbedtls/bignum.h"
	.file 12 "../../../component/common/network/ssl/mbedtls-2.4.0/include/mbedtls/rsa.h"
	.file 13 "../../../component/common/network/ssl/mbedtls-2.4.0/include/mbedtls/pk.h"
	.file 14 "../../../component/common/network/ssl/mbedtls-2.4.0/include/mbedtls/asn1.h"
	.file 15 "../../../component/common/network/ssl/mbedtls-2.4.0/include/mbedtls/pem.h"
	.file 16 "../../../component/common/network/ssl/mbedtls-2.4.0/include/mbedtls/platform.h"
	.file 17 "../../../component/os/os_dep/include/device_lock.h"
	.file 18 "../../../component/common/network/ssl/mbedtls-2.4.0/include/mbedtls/oid.h"