	.arch armv8-m.main
	.arch_extension dsp
	.eabi_attribute 20, 1
	.eabi_attribute 21, 1
	.eabi_attribute 23, 3
	.eabi_attribute 24, 1
	.eabi_attribute 25, 1
	.eabi_attribute 26, 1
	.eabi_attribute 30, 4
	.eabi_attribute 34, 1
	.eabi_attribute 18, 4
	.file	"platform.c"
	.text
.Ltext0:
	.cfi_sections	.debug_frame
	.section	.text.platform_calloc_uninit,"ax",%progbits
	.align	1
	.syntax unified
	.thumb
	.thumb_func
	.fpu softvfp
	.type	platform_calloc_uninit, %function
platform_calloc_uninit:
.LFB1:
	.file 1 "../../../component/common/network/ssl/mbedtls-2.4.0/library/platform.c"
	.loc 1 35 0
	.cfi_startproc
	@ args = 0, pretend = 0, frame = 0
	@ frame_needed = 0, uses_anonymous_args = 0
	@ link register save eliminated.
.LVL0:
	.loc 1 39 0
	movs	r0, #0
.LVL1:
	bx	lr
	.cfi_endproc
.LFE1:
	.size	platform_calloc_uninit, .-platform_calloc_uninit
	.section	.text.platform_free_uninit,"ax",%progbits
	.align	1
	.syntax unified
	.thumb
	.thumb_func
	.fpu softvfp
	.type	platform_free_uninit, %function
platform_free_uninit:
.LFB2:
	.loc 1 46 0
	.cfi_startproc
	@ args = 0, pretend = 0, frame = 0
	@ frame_needed = 0, uses_anonymous_args = 0
	@ link register save eliminated.
.LVL2:
	bx	lr
	.cfi_endproc
.LFE2:
	.size	platform_free_uninit, .-platform_free_uninit
	.section	.text.mbedtls_platform_set_calloc_free,"ax",%progbits
	.align	1
	.global	mbedtls_platform_set_calloc_free
	.syntax unified
	.thumb
	.thumb_func
	.fpu softvfp
	.type	mbedtls_platform_set_calloc_free, %function
mbedtls_platform_set_calloc_free:
.LFB3:
	.loc 1 59 0
	.cfi_startproc
	@ args = 0, pretend = 0, frame = 0
	@ frame_needed = 0, uses_anonymous_args = 0
.LVL3:
	.loc 1 59 0
	push	{r3, lr}
	.cfi_def_cfa_offset 8
	.cfi_offset 3, -8
	.cfi_offset 14, -4
	.loc 1 60 0
	ldr	r3, .L4
	str	r0, [r3]
	.loc 1 61 0
	ldr	r3, .L4+4
	str	r1, [r3]
	.loc 1 67 0
	bl	platform_set_malloc_free
.LVL4:
	.loc 1 77 0
	movs	r0, #0
	pop	{r3, pc}
.L5:
	.align	2
.L4:
	.word	.LANCHOR0
	.word	.LANCHOR1
	.cfi_endproc
.LFE3:
	.size	mbedtls_platform_set_calloc_free, .-mbedtls_platform_set_calloc_free
	.global	mbedtls_free
	.global	mbedtls_calloc
	.section	.data.mbedtls_calloc,"aw",%progbits
	.align	2
	.set	.LANCHOR0,. + 0
	.type	mbedtls_calloc, %object
	.size	mbedtls_calloc, 4
mbedtls_calloc:
	.word	platform_calloc_uninit
	.section	.data.mbedtls_free,"aw",%progbits
	.align	2
	.set	.LANCHOR1,. + 0
	.type	mbedtls_free, %object
	.size	mbedtls_free, 4
mbedtls_free:
	.word	platform_free_uninit
	.text
.Letext0:
	.file 2 "/home/ls/samba_share/sdk-ameba-v7.1d/tools/arm-none-eabi-gcc/asdk/linux/newlib/arm-none-eabi/include/machine/_default_types.h"
	.file 3 "/home/ls/samba_share/sdk-ameba-v7.1d/tools/arm-none-eabi-gcc/asdk/linux/newlib/lib/gcc/arm-none-eabi/6.5.0/include/stddef.h"
	.file 4 "/home/ls/samba_share/sdk-ameba-v7.1d/tools/arm-none-eabi-gcc/asdk/linux/newlib/arm-none-eabi/include/sys/lock.h"
	.file 5 "/home/ls/samba_share/sdk-ameba-v7.1d/tools/arm-none-eabi-gcc/asdk/linux/newlib/arm-none-eabi/include/sys/_types.h"
	.file 6 "/home/ls/samba_share/sdk-ameba-v7.1d/tools/arm-none-eabi-gcc/asdk/linux/newlib/arm-none-eabi/include/sys/reent.h"
	.file 7 "/home/ls/samba_share/sdk-ameba-v7.1d/tools/arm-none-eabi-gcc/asdk/linux/newlib/arm-none-eabi/include/sys/_stdint.h"
	.file 8 "/home/ls/samba_share/sdk-ameba-v7.1d/tools/arm-none-eabi-gcc/asdk/linux/newlib/arm-none-eabi/include/time.h"
	.file 9 "../../../component/common/network/ssl/ssl_ram_map/rom/rom_ssl_ram_map.h"
	.file 10 "/home/ls/samba_share/sdk-ameba-v7.1d/tools/arm-none-eabi-gcc/asdk/linux/newlib/arm-none-eabi/include/stdlib.h"
	.file 11 "../../../component/common/network/ssl/mbedtls-2.4.0/include/mbedtls/platform.h"