	.arch armv8-m.main
	.arch_extension dsp
	.eabi_attribute 20, 1
	.eabi_attribute 21, 1
	.eabi_attribute 23, 3
	.eabi_attribute 24, 1
	.eabi_attribute 25, 1
	.eabi_attribute 26, 1
	.eabi_attribute 30, 4
	.eabi_attribute 34, 1
	.eabi_attribute 18, 4
	.file	"sn_coap_builder.c"
	.text
.Ltext0:
	.cfi_sections	.debug_frame
	.section	.text.sn_coap_builder_options_get_option_part_count,"ax",%progbits
	.align	1
	.syntax unified
	.thumb
	.thumb_func
	.fpu softvfp
	.type	sn_coap_builder_options_get_option_part_count, %function
sn_coap_builder_options_get_option_part_count:
.LFB191:
	.file 1 "../../../component/common/network/coap/sn_coap_builder.c"
	.loc 1 902 0
	.cfi_startproc
	@ args = 0, pretend = 0, frame = 0
	@ frame_needed = 0, uses_anonymous_args = 0
.LVL0:
	.loc 1 907 0
	cmp	r2, #11
	.loc 1 902 0
	push	{r4, r5, lr}
	.cfi_def_cfa_offset 12
	.cfi_offset 4, -12
	.cfi_offset 5, -8
	.cfi_offset 14, -4
	.loc 1 907 0
	beq	.L6
	.loc 1 905 0 discriminator 1
	cmp	r2, #8
	ite	eq
	moveq	r4, #47
	movne	r4, #38
.L2:
.LVL1:
	.loc 1 912 0
	movs	r2, #1
.LVL2:
	.loc 1 903 0
	movs	r3, #0
	.loc 1 912 0
	subs	r0, r0, #1
.LVL3:
.L3:
	.loc 1 912 0 is_stmt 0 discriminator 1
	cmp	r2, r0
	blt	.L5
.LVL4:
	.loc 1 919 0 is_stmt 1
	adds	r0, r3, #1
	.loc 1 922 0
	uxtb	r0, r0
	pop	{r4, r5, pc}
.LVL5:
.L6:
	.loc 1 908 0
	movs	r4, #47
	b	.L2
.LVL6:
.L5:
	.loc 1 914 0
	ldrb	r5, [r1, r2]	@ zero_extendqisi2
	.loc 1 912 0
	adds	r2, r2, #1
.LVL7:
	.loc 1 914 0
	cmp	r5, r4
	.loc 1 915 0
	itt	eq
	addeq	r3, r3, #1
.LVL8:
	uxtbeq	r3, r3
.LVL9:
	.loc 1 912 0
	uxth	r2, r2
.LVL10:
	b	.L3
	.cfi_endproc
.LFE191:
	.size	sn_coap_builder_options_get_option_part_count, .-sn_coap_builder_options_get_option_part_count
	.section	.text.sn_coap_builder_options_get_option_part_length_from_whole_option_string,"ax",%progbits
	.align	1
	.syntax unified
	.thumb
	.thumb_func
	.fpu softvfp
	.type	sn_coap_builder_options_get_option_part_length_from_whole_option_string, %function
sn_coap_builder_options_get_option_part_length_from_whole_option_string:
.LFB192:
	.loc 1 943 0
	.cfi_startproc
	@ args = 0, pretend = 0, frame = 0
	@ frame_needed = 0, uses_anonymous_args = 0
.LVL11:
	.loc 1 949 0
	cmp	r3, #11
	.loc 1 943 0
	push	{r4, r5, r6, r7, lr}
	.cfi_def_cfa_offset 20
	.cfi_offset 4, -20
	.cfi_offset 5, -16
	.cfi_offset 6, -12
	.cfi_offset 7, -8
	.cfi_offset 14, -4
	.loc 1 949 0
	beq	.L16
	.loc 1 947 0 discriminator 1
	cmp	r3, #8
	ite	eq
	moveq	r7, #47
	movne	r7, #38
.L9:
.LVL12:
	.loc 1 954 0
	mov	r6, r1
	.loc 1 945 0
	movs	r4, #0
.LVL13:
.L22:
.LBB3:
	.loc 1 966 0
	movs	r3, #0
.LVL14:
.L10:
.LBE3:
	.loc 1 954 0 discriminator 1
	subs	r5, r6, r1
	uxth	r5, r5
	cmp	r0, r5
	bhi	.L14
.LVL15:
.L21:
	.loc 1 981 0
	mov	r0, r3
.LVL16:
	pop	{r4, r5, r6, r7, pc}
.LVL17:
.L16:
	.loc 1 950 0
	movs	r7, #47
	b	.L9
.LVL18:
.L14:
.LBB4:
	.loc 1 956 0
	ldrb	r5, [r6], #1	@ zero_extendqisi2
.LVL19:
	.loc 1 959 0
	cmp	r7, r5
	bne	.L11
	.loc 1 959 0 is_stmt 0 discriminator 1
	cmp	r3, #0
	beq	.L10
	.loc 1 961 0 is_stmt 1
	cmp	r4, r2
	beq	.L21
.LVL20:
	.loc 1 970 0
	adds	r4, r4, #1
.LVL21:
	uxtb	r4, r4
	b	.L22
.LVL22:
.L11:
	.loc 1 973 0
	adds	r3, r3, #1
.LVL23:
	uxth	r3, r3
.LVL24:
	b	.L10
.LBE4:
	.cfi_endproc
.LFE192:
	.size	sn_coap_builder_options_get_option_part_length_from_whole_option_string, .-sn_coap_builder_options_get_option_part_length_from_whole_option_string
	.section	.text.sn_coap_builder_options_calc_option_size,"ax",%progbits
	.align	1
	.syntax unified
	.thumb
	.thumb_func
	.fpu softvfp
	.type	sn_coap_builder_options_calc_option_size, %function
sn_coap_builder_options_calc_option_size:
.LFB190:
	.loc 1 821 0
	.cfi_startproc
	@ args = 0, pretend = 0, frame = 0
	@ frame_needed = 0, uses_anonymous_args = 0
.LVL25:
	push	{r3, r4, r5, r6, r7, r8, r9, lr}
	.cfi_def_cfa_offset 32
	.cfi_offset 3, -32
	.cfi_offset 4, -28
	.cfi_offset 5, -24
	.cfi_offset 6, -20
	.cfi_offset 7, -16
	.cfi_offset 8, -12
	.cfi_offset 9, -8
	.cfi_offset 14, -4
	.loc 1 821 0
	mov	r8, r0
	mov	r9, r1
	mov	r5, r2
	.loc 1 829 0
	movs	r6, #0
	.loc 1 822 0
	bl	sn_coap_builder_options_get_option_part_count
.LVL26:
	.loc 1 824 0
	mov	r4, r6
	.loc 1 822 0
	mov	r7, r0
.LVL27:
.L24:
	uxtb	r2, r6
.LVL28:
	.loc 1 829 0 discriminator 1
	cmp	r2, r7
	bcc	.L35
.LVL29:
.L30:
	.loc 1 886 0
	mov	r0, r4
	pop	{r3, r4, r5, r6, r7, r8, r9, pc}
.LVL30:
.L35:
.LBB5:
	.loc 1 833 0
	mov	r3, r5
	mov	r1, r9
.LVL31:
	mov	r0, r8
	bl	sn_coap_builder_options_get_option_part_length_from_whole_option_string
.LVL32:
	.loc 1 836 0
	cmp	r5, #11
	beq	.L26
.LVL33:
	bhi	.L27
	cmp	r5, #4
	beq	.L28
	cmp	r5, #8
.L49:
	bne	.L25
.L26:
	.loc 1 845 0
	cmp	r0, #255
.L52:
	.loc 1 850 0
	bhi	.L38
.L25:
	.loc 1 864 0
	cmp	r0, #12
	bhi	.L32
.L31:
	.loc 1 866 0
	adds	r4, r4, #1
.LVL34:
.L50:
	.loc 1 874 0
	uxth	r4, r4
.LVL35:
.L33:
	.loc 1 881 0 discriminator 2
	add	r4, r4, r0
.LVL36:
	uxth	r4, r4
.LVL37:
	adds	r6, r6, #1
.LVL38:
	b	.L24
.LVL39:
.L27:
	.loc 1 836 0
	cmp	r5, #15
	beq	.L29
	cmp	r5, #20
	b	.L49
.L28:
	.loc 1 838 0
	subs	r3, r0, #1
	uxth	r3, r3
	cmp	r3, #7
	bls	.L31
.L38:
	.loc 1 839 0
	movs	r4, #0
.LVL40:
	b	.L30
.LVL41:
.L29:
	.loc 1 850 0
	subs	r3, r0, #1
	uxth	r3, r3
	cmp	r3, #254
	b	.L52
.L32:
	.loc 1 867 0
	sub	r3, r0, #13
	uxth	r3, r3
	cmp	r3, #255
	bhi	.L34
	.loc 1 869 0
	adds	r4, r4, #2
.LVL42:
	b	.L50
.LVL43:
.L34:
	.loc 1 872 0
	sub	r3, r0, #270
	uxth	r3, r3
	cmp	r3, #764
	bcs	.L33
	.loc 1 874 0
	adds	r4, r4, #3
.LVL44:
	b	.L50
.LBE5:
	.cfi_endproc
.LFE190:
	.size	sn_coap_builder_options_calc_option_size, .-sn_coap_builder_options_calc_option_size
	.section	.text.sn_coap_builder_options_build_add_one_option,"ax",%progbits
	.align	1
	.syntax unified
	.thumb
	.thumb_func
	.fpu softvfp
	.type	sn_coap_builder_options_build_add_one_option, %function
sn_coap_builder_options_build_add_one_option:
.LFB187:
	.loc 1 655 0
	.cfi_startproc
	@ args = 4, pretend = 0, frame = 0
	@ frame_needed = 0, uses_anonymous_args = 0
.LVL45:
	push	{r3, r4, r5, r6, r7, lr}
	.cfi_def_cfa_offset 24
	.cfi_offset 3, -24
	.cfi_offset 4, -20
	.cfi_offset 5, -16
	.cfi_offset 6, -12
	.cfi_offset 7, -8
	.cfi_offset 14, -4
	.loc 1 655 0
	ldr	ip, [sp, #24]
	mov	r5, r1
	mov	r4, r0
	.loc 1 657 0
	mov	r1, r2
.LVL46:
	cmp	r2, #0
	beq	.L63
.LBB6:
	.loc 1 660 0
	ldrh	r2, [ip]
.LVL47:
	uxth	r3, r3
.LVL48:
	subs	r2, r3, r2
	.loc 1 665 0
	cmp	r5, #12
	.loc 1 660 0
	uxth	r2, r2
.LVL49:
	ldr	r0, [r0]
.LVL50:
	sub	r6, r5, #13
	.loc 1 665 0
	bhi	.L55
	.loc 1 666 0
	strb	r5, [r0]
.LVL51:
.L56:
	.loc 1 678 0
	cmp	r2, #12
	ldr	r0, [r4]
	bhi	.L58
	.loc 1 679 0
	ldrb	r7, [r0]	@ zero_extendqisi2
	add	r2, r7, r2, lsl #4
.LVL52:
	strb	r2, [r0]
	.loc 1 680 0
	ldr	r2, [r4]
	adds	r2, r2, #1
.L65:
	.loc 1 697 0
	str	r2, [r4]
	.loc 1 701 0
	uxth	r2, r6
	cmp	r2, #255
	ldr	r2, [r4]
	bhi	.L61
	.loc 1 702 0
	strb	r6, [r2]
	.loc 1 703 0
	ldr	r2, [r4]
	adds	r2, r2, #1
.L66:
	.loc 1 709 0
	str	r2, [r4]
.L62:
	.loc 1 712 0
	strh	r3, [ip]	@ movhi
	.loc 1 715 0
	mov	r2, r5
	ldr	r0, [r4]
	bl	memcpy
.LVL53:
	.loc 1 718 0
	ldr	r3, [r4]
	.loc 1 720 0
	movs	r0, #1
	.loc 1 718 0
	add	r5, r5, r3
	str	r5, [r4]
	.loc 1 720 0
	pop	{r3, r4, r5, r6, r7, pc}
.LVL54:
.L55:
	.loc 1 669 0
	uxth	r7, r6
	cmp	r7, #255
	.loc 1 670 0
	ite	ls
	movls	r7, #13
	.loc 1 674 0
	movhi	r7, #14
	strb	r7, [r0]
.LVL55:
	b	.L56
.L58:
	.loc 1 683 0
	sub	r7, r2, #13
	uxth	r7, r7
	cmp	r7, #255
	bhi	.L60
	.loc 1 684 0
	ldrb	r2, [r0]	@ zero_extendqisi2
.LVL56:
	subs	r2, r2, #48
	strb	r2, [r0]
.LVL57:
	.loc 1 687 0
	ldr	r2, [r4]
	strb	r7, [r2, #1]
	.loc 1 688 0
	ldr	r2, [r4]
	adds	r2, r2, #2
	b	.L65
.LVL58:
.L60:
	.loc 1 692 0
	ldrb	r7, [r0]	@ zero_extendqisi2
	subs	r7, r7, #32
	strb	r7, [r0]
	.loc 1 693 0
	mvn	r0, #268
	add	r2, r2, r0
.LVL59:
	.loc 1 695 0
	ldr	r0, [r4]
	.loc 1 693 0
	uxth	r2, r2
.LVL60:
	.loc 1 695 0
	strb	r2, [r0, #2]
	.loc 1 696 0
	ldr	r0, [r4]
	lsrs	r2, r2, #8
.LVL61:
	strb	r2, [r0, #1]
	.loc 1 697 0
	ldr	r2, [r4]
	adds	r2, r2, #3
	b	.L65
.L61:
	.loc 1 706 0
	cmp	r5, #268
	bls	.L62
	.loc 1 707 0
	strb	r6, [r2, #1]
	.loc 1 708 0
	mvn	r2, #268
	ldr	r0, [r4]
	adds	r2, r5, r2
	asrs	r2, r2, #8
	strb	r2, [r0]
	.loc 1 709 0
	ldr	r2, [r4]
	adds	r2, r2, #2
	b	.L66
.LVL62:
.L63:
.LBE6:
	.loc 1 724 0
	mov	r0, r2
.LVL63:
	.loc 1 725 0
	pop	{r3, r4, r5, r6, r7, pc}
	.cfi_endproc
.LFE187:
	.size	sn_coap_builder_options_build_add_one_option, .-sn_coap_builder_options_build_add_one_option
	.section	.text.sn_coap_builder_options_build_add_multiple_option,"ax",%progbits
	.align	1
	.syntax unified
	.thumb
	.thumb_func
	.fpu softvfp
	.type	sn_coap_builder_options_build_add_multiple_option, %function
sn_coap_builder_options_build_add_multiple_option:
.LFB189:
	.loc 1 780 0
	.cfi_startproc
	@ args = 4, pretend = 0, frame = 0
	@ frame_needed = 0, uses_anonymous_args = 0
.LVL64:
	push	{r0, r1, r2, r4, r5, r6, r7, r8, r9, r10, fp, lr}
	.cfi_def_cfa_offset 48
	.cfi_offset 4, -36
	.cfi_offset 5, -32
	.cfi_offset 6, -28
	.cfi_offset 7, -24
	.cfi_offset 8, -20
	.cfi_offset 9, -16
	.cfi_offset 10, -12
	.cfi_offset 11, -8
	.cfi_offset 14, -4
	.loc 1 782 0
	ldr	r4, [r1]
	.loc 1 780 0
	mov	r10, r0
	mov	r8, r1
	mov	r5, r3
	.loc 1 782 0
	cbz	r4, .L85
.LVL65:
.LBB12:
	.loc 1 785 0
	ldrh	r7, [r2]
.LVL66:
	.loc 1 790 0
	mov	r1, r4
.LVL67:
	mov	r2, r3
.LVL68:
	mov	r0, r7
.LVL69:
	bl	sn_coap_builder_options_get_option_part_count
.LVL70:
	.loc 1 793 0
	movs	r6, #0
	.loc 1 790 0
	mov	r9, r0
.LVL71:
.L69:
	uxtb	fp, r6
.LVL72:
	.loc 1 793 0 discriminator 1
	cmp	fp, r9
	bcc	.L77
.LVL73:
.L85:
.LBE12:
	.loc 1 806 0
	movs	r0, #0
	add	sp, sp, #12
	.cfi_remember_state
	.cfi_def_cfa_offset 36
	@ sp needed
	pop	{r4, r5, r6, r7, r8, r9, r10, fp, pc}
.LVL74:
.L77:
	.cfi_restore_state
.LBB23:
.LBB13:
	.loc 1 795 0 discriminator 3
	mov	r1, r4
	mov	r3, r5
	mov	r2, fp
	mov	r0, r7
	bl	sn_coap_builder_options_get_option_part_length_from_whole_option_string
.LVL75:
.LBB14:
.LBB15:
	.loc 1 1007 0 discriminator 3
	cmp	r5, #11
.LBE15:
.LBE14:
	.loc 1 795 0 discriminator 3
	mov	r1, r0
.LVL76:
.LBB21:
.LBB19:
	.loc 1 1007 0 discriminator 3
	beq	.L79
	.loc 1 1008 0
	cmp	r5, #8
	ite	ne
	movne	r0, #38
.LVL77:
	moveq	r0, #47
.L70:
.LVL78:
	.loc 1 1011 0
	cmp	fp, #0
	beq	.L71
	movs	r3, #0
	mov	ip, r3
.LBB16:
	.loc 1 1027 0
	add	lr, r6, #-1
.LVL79:
.L72:
	uxth	r2, r3
.LVL80:
.LBE16:
	.loc 1 1020 0
	cmp	r7, r2
	bhi	.L76
	.loc 1 1041 0
	mov	r2, #-1
.LVL81:
	b	.L73
.LVL82:
.L79:
	.loc 1 1008 0
	movs	r0, #47
.LVL83:
	b	.L70
.LVL84:
.L71:
	.loc 1 1012 0
	ldrb	r2, [r4]	@ zero_extendqisi2
	cbz	r2, .L81
	subs	r3, r2, r0
	rsbs	r2, r3, #0
	adcs	r2, r2, r3
.LVL85:
.L86:
.LBB17:
	.loc 1 1029 0
	sxth	r2, r2
.L73:
.LVL86:
.LBE17:
.LBE19:
.LBE21:
	.loc 1 801 0
	ldr	r0, [r8]
	ldr	r3, [sp, #48]
	uxtah	r2, r0, r2
.LVL87:
	str	r3, [sp]
	mov	r0, r10
	mov	r3, r5
	bl	sn_coap_builder_options_build_add_one_option
.LVL88:
	adds	r6, r6, #1
.LVL89:
	b	.L69
.LVL90:
.L76:
.LBB22:
.LBB20:
.LBB18:
	.loc 1 1025 0
	ldrb	fp, [r4, r3]	@ zero_extendqisi2
	cmp	fp, r0
	bne	.L74
	cbz	r2, .L74
	.loc 1 1027 0
	cmp	ip, lr
	bne	.L75
	.loc 1 1029 0
	adds	r2, r2, #1
.LVL91:
	b	.L86
.LVL92:
.L75:
	.loc 1 1033 0
	add	ip, ip, #1
.LVL93:
	uxtb	ip, ip
.LVL94:
.L74:
	adds	r3, r3, #1
.LVL95:
	b	.L72
.LVL96:
.L81:
.LBE18:
	.loc 1 1013 0
	movs	r2, #1
	b	.L73
.LBE20:
.LBE22:
.LBE13:
.LBE23:
	.cfi_endproc
.LFE189:
	.size	sn_coap_builder_options_build_add_multiple_option, .-sn_coap_builder_options_build_add_multiple_option
	.section	.text.sn_coap_builder_options_build_add_uint_option,"ax",%progbits
	.align	1
	.syntax unified
	.thumb
	.thumb_func
	.fpu softvfp
	.type	sn_coap_builder_options_build_add_uint_option, %function
sn_coap_builder_options_build_add_uint_option:
.LFB188:
	.loc 1 740 0
	.cfi_startproc
	@ args = 0, pretend = 0, frame = 8
	@ frame_needed = 0, uses_anonymous_args = 0
.LVL97:
	push	{r4, r5, r6, r7, lr}
	.cfi_def_cfa_offset 20
	.cfi_offset 4, -20
	.cfi_offset 5, -16
	.cfi_offset 6, -12
	.cfi_offset 7, -8
	.cfi_offset 14, -4
	movs	r5, #4
	.loc 1 742 0
	movs	r4, #0
	.loc 1 740 0
	sub	sp, sp, #20
	.cfi_def_cfa_offset 40
.LVL98:
.L90:
.LBB24:
	.loc 1 745 0
	cbnz	r4, .L88
.LVL99:
	.loc 1 745 0 is_stmt 0 discriminator 1
	tst	r1, #-16777216
	beq	.L89
.LVL100:
.L88:
	.loc 1 746 0 is_stmt 1
	add	r7, sp, #16
	adds	r6, r4, #1
.LVL101:
	add	r4, r4, r7
	lsrs	r7, r1, #24
	strb	r7, [r4, #-4]
	uxtb	r4, r6
.LVL102:
.L89:
	subs	r5, r5, #1
.LVL103:
	.loc 1 744 0 discriminator 2
	ands	r5, r5, #255
	.loc 1 748 0 discriminator 2
	lsl	r1, r1, #8
.LVL104:
	.loc 1 744 0 discriminator 2
	bne	.L90
.LBE24:
	.loc 1 752 0
	cbz	r0, .L91
.LBB25:
	.loc 1 753 0
	str	r3, [sp]
	mov	r1, r4
.LVL105:
	mov	r3, r2
.LVL106:
	add	r2, sp, #12
.LVL107:
	bl	sn_coap_builder_options_build_add_one_option
.LVL108:
	.loc 1 755 0
	cmp	r0, #0
.LVL109:
	bge	.L91
.L100:
.LBE25:
	.loc 1 761 0
	uxtb	r0, r0
	.loc 1 762 0
	add	sp, sp, #20
	.cfi_remember_state
	.cfi_def_cfa_offset 20
	@ sp needed
	pop	{r4, r5, r6, r7, pc}
.LVL110:
.L91:
	.cfi_restore_state
	.loc 1 761 0
	adds	r0, r4, #1
	b	.L100
	.cfi_endproc
.LFE188:
	.size	sn_coap_builder_options_build_add_uint_option, .-sn_coap_builder_options_build_add_uint_option
	.section	.text.sn_coap_build_response,"ax",%progbits
	.align	1
	.global	sn_coap_build_response
	.syntax unified
	.thumb
	.thumb_func
	.fpu softvfp
	.type	sn_coap_build_response, %function
sn_coap_build_response:
.LFB179:
	.loc 1 53 0
	.cfi_startproc
	@ args = 0, pretend = 0, frame = 0
	@ frame_needed = 0, uses_anonymous_args = 0
.LVL111:
	push	{r3, r4, r5, r6, r7, lr}
	.cfi_def_cfa_offset 24
	.cfi_offset 3, -24
	.cfi_offset 4, -20
	.cfi_offset 5, -16
	.cfi_offset 6, -12
	.cfi_offset 7, -8
	.cfi_offset 14, -4
	.loc 1 53 0
	mov	r6, r0
	mov	r7, r2
	.loc 1 56 0
	mov	r5, r1
	cbnz	r1, .L102
.LVL112:
.L119:
	.loc 1 79 0
	movs	r4, #0
.L101:
	.loc 1 92 0
	mov	r0, r4
	pop	{r3, r4, r5, r6, r7, pc}
.LVL113:
.L102:
	.loc 1 56 0 discriminator 1
	cmp	r0, #0
	beq	.L119
	.loc 1 60 0
	bl	sn_coap_parser_alloc_message
.LVL114:
	.loc 1 61 0
	mov	r4, r0
	cmp	r0, #0
	beq	.L119
	.loc 1 65 0
	ldrb	r3, [r5, #3]	@ zero_extendqisi2
	cbnz	r3, .L105
	.loc 1 66 0
	movs	r3, #32
	strb	r3, [r0, #3]
	.loc 1 68 0
	ldrh	r3, [r5, #8]
	.loc 1 67 0
	strb	r7, [r0, #2]
	.loc 1 68 0
	strh	r3, [r0, #8]	@ movhi
.L106:
	.loc 1 82 0
	ldr	r3, [r5, #16]
	cmp	r3, #0
	beq	.L101
	.loc 1 83 0
	ldrb	r0, [r5]	@ zero_extendqisi2
.LVL115:
	strb	r0, [r4]
	.loc 1 84 0
	ldr	r3, [r6]
	blx	r3
.LVL116:
	str	r0, [r4, #16]
	.loc 1 85 0
	cbnz	r0, .L108
	.loc 1 86 0
	ldr	r3, [r6, #4]
	mov	r0, r4
	b	.L118
.LVL117:
.L105:
	.loc 1 71 0
	cmp	r3, #16
	bne	.L107
	.loc 1 72 0
	strb	r3, [r0, #3]
	.loc 1 73 0
	strb	r7, [r0, #2]
	b	.L106
.L107:
	.loc 1 78 0
	ldr	r3, [r6, #4]
.L118:
	blx	r3
.LVL118:
	b	.L119
.L108:
	.loc 1 89 0
	ldrb	r2, [r4]	@ zero_extendqisi2
	ldr	r1, [r5, #16]
	bl	memcpy
.LVL119:
	b	.L101
	.cfi_endproc
.LFE179:
	.size	sn_coap_build_response, .-sn_coap_build_response
	.section	.text.sn_coap_builder_calc_needed_packet_data_size_2,"ax",%progbits
	.align	1
	.global	sn_coap_builder_calc_needed_packet_data_size_2
	.syntax unified
	.thumb
	.thumb_func
	.fpu softvfp
	.type	sn_coap_builder_calc_needed_packet_data_size_2, %function
sn_coap_builder_calc_needed_packet_data_size_2:
.LFB183:
	.loc 1 150 0
	.cfi_startproc
	@ args = 0, pretend = 0, frame = 8
	@ frame_needed = 0, uses_anonymous_args = 0
.LVL120:
	push	{r0, r1, r4, r5, r6, r7, r8, r9, r10, lr}
	.cfi_def_cfa_offset 40
	.cfi_offset 4, -32
	.cfi_offset 5, -28
	.cfi_offset 6, -24
	.cfi_offset 7, -20
	.cfi_offset 8, -16
	.cfi_offset 9, -12
	.cfi_offset 10, -8
	.cfi_offset 14, -4
	.loc 1 155 0
	mov	r4, r0
	cmp	r0, #0
	beq	.L123
.LVL121:
	.loc 1 166 0
	ldrb	r3, [r0, #3]	@ zero_extendqisi2
	cmp	r3, #48
	beq	.L164
.LVL122:
.LBB31:
.LBB32:
.LBB33:
	.loc 1 169 0
	ldr	r3, [r0, #16]
	cmp	r3, #0
	beq	.L165
	.loc 1 170 0
	ldrb	r0, [r0]	@ zero_extendqisi2
.LVL123:
	subs	r3, r0, #1
	cmp	r3, #7
	bhi	.L123
	.loc 1 174 0
	adds	r5, r0, #4
.LVL124:
.L122:
	.loc 1 177 0
	ldr	r1, [r4, #20]
.LVL125:
	cbz	r1, .L124
	.loc 1 178 0
	movs	r2, #11
	ldrh	r0, [r4, #10]
	bl	sn_coap_builder_options_calc_option_size
.LVL126:
	.loc 1 180 0
	cmp	r0, #0
	beq	.L123
	.loc 1 181 0
	add	r0, r0, r5
.LVL127:
	uxth	r5, r0
.LVL128:
.L124:
	.loc 1 187 0
	movs	r0, #0
	.loc 1 189 0
	ldr	r1, [r4, #4]
	.loc 1 187 0
	strh	r0, [sp, #6]	@ movhi
	.loc 1 189 0
	adds	r3, r1, #1
	beq	.L125
	.loc 1 190 0
	cmp	r1, #65536
	bcs	.L123
	.loc 1 194 0
	add	r3, sp, #6
	movs	r2, #12
	bl	sn_coap_builder_options_build_add_uint_option
.LVL129:
	add	r5, r5, r0
.LVL130:
	uxth	r5, r5
.LVL131:
.L125:
	.loc 1 197 0
	ldr	r3, [r4, #28]
	cmp	r3, #0
	beq	.L126
	.loc 1 199 0
	ldr	r1, [r3, #12]
	adds	r7, r1, #1
	beq	.L127
	.loc 1 200 0
	cmp	r1, #65536
	bcs	.L123
	.loc 1 204 0
	add	r3, sp, #6
	movs	r2, #17
	movs	r0, #0
	bl	sn_coap_builder_options_build_add_uint_option
.LVL132:
	add	r5, r5, r0
.LVL133:
	uxth	r5, r5
.LVL134:
.L127:
	.loc 1 207 0
	ldr	r3, [r4, #28]
	ldr	r1, [r3, #16]
	cmp	r1, #60
	beq	.L128
	.loc 1 208 0
	add	r3, sp, #6
	movs	r2, #14
	movs	r0, #0
	bl	sn_coap_builder_options_build_add_uint_option
.LVL135:
	add	r5, r5, r0
.LVL136:
	uxth	r5, r5
.LVL137:
.L128:
	.loc 1 211 0
	ldr	r6, [r4, #28]
	ldr	r3, [r6, #44]
	cbz	r3, .L129
	.loc 1 212 0
	ldrh	r3, [r6, #2]
	subs	r2, r3, #1
	cmp	r2, #11
	bhi	.L130
	.loc 1 213 0
	adds	r0, r5, #1
.L281:
	.loc 1 221 0
	uxth	r5, r0
.LVL138:
	.loc 1 229 0
	adds	r0, r3, r5
	uxth	r5, r0
.LVL139:
.L129:
	.loc 1 232 0
	ldr	r1, [r6, #48]
	cbz	r1, .L133
	.loc 1 233 0
	movs	r2, #4
	ldrb	r0, [r6]	@ zero_extendqisi2
	bl	sn_coap_builder_options_calc_option_size
.LVL140:
	.loc 1 235 0
	cmp	r0, #0
	beq	.L123
	.loc 1 236 0
	add	r0, r0, r5
.LVL141:
	uxth	r5, r0
.LVL142:
.L133:
	.loc 1 242 0
	ldr	r3, [r6, #52]
	cbz	r3, .L134
	.loc 1 243 0
	ldrh	r3, [r6, #4]
	subs	r2, r3, #1
	cmp	r2, #11
	bhi	.L135
	.loc 1 244 0
	adds	r0, r5, #1
.L282:
	.loc 1 248 0
	uxth	r5, r0
.LVL143:
	.loc 1 255 0
	adds	r0, r3, r5
	uxth	r5, r0
.LVL144:
.L134:
	.loc 1 258 0
	ldr	r1, [r6, #56]
	cbz	r1, .L137
	.loc 1 259 0
	movs	r2, #8
	ldrh	r0, [r6, #6]
	bl	sn_coap_builder_options_calc_option_size
.LVL145:
	.loc 1 261 0
	cmp	r0, #0
	beq	.L123
	.loc 1 262 0
	add	r0, r0, r5
.LVL146:
	uxth	r5, r0
.LVL147:
.L137:
	.loc 1 268 0
	ldr	r1, [r6, #28]
	adds	r6, r1, #1
	beq	.L138
	.loc 1 269 0
	cmp	r1, #65536
	bcs	.L123
	.loc 1 272 0
	add	r3, sp, #6
	movs	r2, #7
	movs	r0, #0
	bl	sn_coap_builder_options_build_add_uint_option
.LVL148:
	add	r5, r5, r0
.LVL149:
	uxth	r5, r5
.LVL150:
.L138:
	.loc 1 275 0
	ldr	r6, [r4, #28]
	ldr	r1, [r6, #60]
	cbz	r1, .L139
	.loc 1 276 0
	movs	r2, #20
	ldrh	r0, [r6, #8]
	bl	sn_coap_builder_options_calc_option_size
.LVL151:
	.loc 1 278 0
	cmp	r0, #0
	beq	.L123
	.loc 1 279 0
	add	r0, r0, r5
.LVL152:
	uxth	r5, r0
.LVL153:
.L139:
	.loc 1 285 0
	ldr	r1, [r6, #32]
	adds	r0, r1, #1
	beq	.L140
	.loc 1 286 0
	cmp	r1, #16777216
	bcs	.L123
	.loc 1 289 0
	add	r3, sp, #6
	movs	r2, #6
	movs	r0, #0
	bl	sn_coap_builder_options_build_add_uint_option
.LVL154:
	add	r5, r5, r0
.LVL155:
	uxth	r5, r5
.LVL156:
.L140:
	.loc 1 292 0
	ldr	r6, [r4, #28]
	ldr	r1, [r6, #64]
	cbz	r1, .L141
	.loc 1 293 0
	movs	r2, #15
	ldrh	r0, [r6, #10]
	bl	sn_coap_builder_options_calc_option_size
.LVL157:
	.loc 1 295 0
	cmp	r0, #0
	beq	.L123
	.loc 1 296 0
	add	r0, r0, r5
.LVL158:
	uxth	r5, r0
.LVL159:
.L141:
	.loc 1 303 0
	ldr	r1, [r6, #36]
	adds	r2, r1, #1
	beq	.L142
	.loc 1 304 0
	cmp	r1, #16777216
	bcs	.L123
	.loc 1 307 0
	add	r3, sp, #6
	movs	r2, #27
	movs	r0, #0
	bl	sn_coap_builder_options_build_add_uint_option
.LVL160:
	add	r5, r5, r0
.LVL161:
	uxth	r5, r5
.LVL162:
.L142:
	.loc 1 310 0
	ldr	r1, [r4, #28]
	ldrb	r3, [r1, #1]	@ zero_extendqisi2
	lsls	r3, r3, #31
	bpl	.L143
	.loc 1 311 0
	add	r3, sp, #6
	movs	r2, #60
	ldr	r1, [r1, #20]
	movs	r0, #0
	bl	sn_coap_builder_options_build_add_uint_option
.LVL163:
	add	r5, r5, r0
.LVL164:
	uxth	r5, r5
.LVL165:
.L143:
	.loc 1 314 0
	ldr	r3, [r4, #28]
	ldr	r1, [r3, #40]
	adds	r7, r1, #1
	beq	.L144
	.loc 1 315 0
	cmp	r1, #16777216
	bcs	.L123
	.loc 1 318 0
	add	r3, sp, #6
	movs	r2, #23
	movs	r0, #0
	bl	sn_coap_builder_options_build_add_uint_option
.LVL166:
	add	r5, r5, r0
.LVL167:
	uxth	r5, r5
.LVL168:
.L144:
	.loc 1 321 0
	ldr	r1, [r4, #28]
	ldrb	r3, [r1, #1]	@ zero_extendqisi2
	lsls	r6, r3, #30
	bpl	.L126
	.loc 1 322 0
	add	r3, sp, #6
	movs	r2, #28
	ldr	r1, [r1, #24]
	movs	r0, #0
	bl	sn_coap_builder_options_build_add_uint_option
.LVL169:
	add	r5, r5, r0
.LVL170:
	uxth	r5, r5
.LVL171:
.L126:
	.loc 1 332 0
	ldrh	r2, [r4, #12]
	adds	r0, r2, r5
	uxth	r3, r0
.LVL172:
	.loc 1 334 0
	cbz	r2, .L145
	.loc 1 335 0
	adds	r3, r3, #1
.LVL173:
	uxth	r3, r3
.LVL174:
.L145:
.LBB34:
.LBB35:
	.loc 1 358 0
	ldr	r0, [r4, #28]
	cmp	r0, #0
	beq	.L146
	.loc 1 361 0
	ldr	ip, [r0, #64]
	ldr	r7, [r0, #12]
	ldr	r6, [r0, #60]
	ldr	r10, [r0, #40]
	ldr	r8, [r0, #36]
	ldr	r9, [r0, #44]
	ldr	lr, [r0, #16]
	ldrb	r1, [r0, #1]	@ zero_extendqisi2
	cmp	ip, #0
	bne	.L147
	adds	r5, r7, #1
	bne	.L147
	.loc 1 362 0
	cbnz	r6, .L147
	.loc 1 363 0
	cmp	r10, #-1
	bne	.L147
	.loc 1 364 0
	cmp	r8, #-1
	bne	.L147
	.loc 1 365 0
	cmp	r9, #0
	bne	.L147
	.loc 1 366 0
	cmp	lr, #60
	bne	.L147
	.loc 1 368 0
	ands	r2, r1, #3
	beq	.L167
.L147:
	.loc 1 374 0
	ldr	r2, [r0, #52]
	.loc 1 378 0
	ldr	r5, [r0, #48]
	.loc 1 374 0
	cmp	r2, #0
	ite	ne
	movne	r2, #3
	moveq	r2, #0
.LVL175:
	.loc 1 378 0
	cmp	r5, #0
	.loc 1 382 0
	ldr	r5, [r0, #32]
	.loc 1 378 0
	it	ne
	movne	r2, #4
.LVL176:
	.loc 1 382 0
	adds	r5, r5, #1
	.loc 1 386 0
	ldr	r5, [r0, #28]
	.loc 1 389 0
	ldr	r0, [r0, #56]
	.loc 1 382 0
	it	ne
	movne	r2, #6
.LVL177:
	.loc 1 386 0
	adds	r5, r5, #1
	it	ne
	movne	r2, #7
.LVL178:
	.loc 1 390 0
	cmp	r0, #0
	.loc 1 393 0
	ldr	r0, [r4, #20]
	.loc 1 390 0
	it	ne
	movne	r2, #8
.LVL179:
	.loc 1 394 0
	cmp	r0, #0
	.loc 1 396 0
	ldr	r0, [r4, #4]
	.loc 1 394 0
	it	ne
	movne	r2, #11
.LVL180:
	.loc 1 397 0
	adds	r0, r0, #1
	it	ne
	movne	r2, #12
.LVL181:
	.loc 1 399 0
	cmp	lr, #60
	beq	.L169
	.loc 1 400 0
	rsb	r0, r2, #14
	.loc 1 356 0
	cmp	r0, #12
	ite	le
	movle	r0, #0
	movgt	r0, #1
	.loc 1 403 0
	movs	r2, #14
.LVL182:
.L155:
	.loc 1 406 0
	cmp	ip, #0
	beq	.L156
	.loc 1 407 0
	rsb	r2, r2, #15
.LVL183:
	cmp	r2, #12
	.loc 1 410 0
	mov	r2, #15
	.loc 1 408 0
	itt	gt
	addgt	r0, r0, #1
.LVL184:
	uxtbgt	r0, r0
.LVL185:
.L156:
	.loc 1 412 0
	adds	r7, r7, #1
	beq	.L157
	.loc 1 413 0
	rsb	r2, r2, #17
.LVL186:
	cmp	r2, #12
	.loc 1 416 0
	mov	r2, #17
	.loc 1 414 0
	itt	gt
	addgt	r0, r0, #1
.LVL187:
	uxtbgt	r0, r0
.LVL188:
.L157:
	.loc 1 418 0
	cbz	r6, .L158
	.loc 1 419 0
	rsb	r2, r2, #20
.LVL189:
	cmp	r2, #12
	.loc 1 422 0
	mov	r2, #20
	.loc 1 420 0
	itt	gt
	addgt	r0, r0, #1
.LVL190:
	uxtbgt	r0, r0
.LVL191:
.L158:
	.loc 1 424 0
	cmp	r10, #-1
	beq	.L159
	.loc 1 425 0
	rsb	r2, r2, #23
.LVL192:
	cmp	r2, #12
	.loc 1 428 0
	mov	r2, #23
	.loc 1 426 0
	itt	gt
	addgt	r0, r0, #1
.LVL193:
	uxtbgt	r0, r0
.LVL194:
.L159:
	.loc 1 430 0
	cmp	r8, #-1
	beq	.L160
	.loc 1 431 0
	rsb	r2, r2, #27
.LVL195:
	cmp	r2, #12
	.loc 1 434 0
	mov	r2, #27
	.loc 1 432 0
	itt	gt
	addgt	r0, r0, #1
.LVL196:
	uxtbgt	r0, r0
.LVL197:
.L160:
	.loc 1 436 0
	lsls	r4, r1, #30
.LVL198:
	bpl	.L161
	.loc 1 437 0
	rsb	r2, r2, #28
.LVL199:
	cmp	r2, #12
	.loc 1 440 0
	mov	r2, #28
	.loc 1 438 0
	itt	gt
	addgt	r0, r0, #1
.LVL200:
	uxtbgt	r0, r0
.LVL201:
.L161:
	.loc 1 442 0
	cmp	r9, #0
	beq	.L162
	.loc 1 443 0
	rsb	r2, r2, #35
.LVL202:
	cmp	r2, #12
	.loc 1 444 0
	itt	gt
	addgt	r0, r0, #1
.LVL203:
	uxtbgt	r0, r0
.LVL204:
.L162:
	.loc 1 451 0
	lsls	r2, r1, #31
	bpl	.L146
	.loc 1 453 0
	adds	r0, r0, #1
.LVL205:
	uxtb	r0, r0
.LVL206:
.L146:
.LBE35:
.LBE34:
	.loc 1 337 0
	add	r0, r0, r3
	uxth	r0, r0
.LVL207:
.L121:
.LBE33:
.LBE32:
.LBE31:
	.loc 1 340 0
	add	sp, sp, #8
	.cfi_remember_state
	.cfi_def_cfa_offset 32
	@ sp needed
	pop	{r4, r5, r6, r7, r8, r9, r10, pc}
.LVL208:
.L165:
	.cfi_restore_state
.LBB40:
.LBB39:
	.loc 1 161 0
	movs	r5, #4
	b	.L122
.LVL209:
.L130:
.LBB38:
	.loc 1 216 0
	sub	r2, r3, #13
	cmp	r2, #256
	bhi	.L132
	.loc 1 217 0
	adds	r0, r5, #2
	b	.L281
.L132:
	.loc 1 220 0
	sub	r2, r3, #270
	cmp	r2, #764
	bhi	.L123
	.loc 1 221 0
	adds	r0, r5, #3
	b	.L281
.L135:
	.loc 1 247 0
	sub	r2, r3, #13
	cmp	r2, #242
	bhi	.L123
	.loc 1 248 0
	adds	r0, r5, #2
	b	.L282
.LVL210:
.L169:
.LBB37:
.LBB36:
	.loc 1 356 0
	movs	r0, #0
	b	.L155
.LVL211:
.L167:
	mov	r0, r2
	b	.L146
.LVL212:
.L123:
.LBE36:
.LBE37:
	.loc 1 171 0
	movs	r0, #0
	b	.L121
.LVL213:
.L164:
.LBE38:
.LBE39:
.LBE40:
	.loc 1 161 0
	movs	r0, #4
.LVL214:
	b	.L121
	.cfi_endproc
.LFE183:
	.size	sn_coap_builder_calc_needed_packet_data_size_2, .-sn_coap_builder_calc_needed_packet_data_size_2
	.section	.text.sn_coap_builder_2,"ax",%progbits
	.align	1
	.global	sn_coap_builder_2
	.syntax unified
	.thumb
	.thumb_func
	.fpu softvfp
	.type	sn_coap_builder_2, %function
sn_coap_builder_2:
.LFB181:
	.loc 1 100 0
	.cfi_startproc
	@ args = 0, pretend = 0, frame = 16
	@ frame_needed = 0, uses_anonymous_args = 0
.LVL215:
	push	{r4, r5, r6, lr}
	.cfi_def_cfa_offset 16
	.cfi_offset 4, -16
	.cfi_offset 5, -12
	.cfi_offset 6, -8
	.cfi_offset 14, -4
	sub	sp, sp, #24
	.cfi_def_cfa_offset 40
	.loc 1 100 0
	str	r0, [sp, #12]
	mov	r4, r1
	.loc 1 105 0
	cmp	r0, #0
	beq	.L304
	.loc 1 105 0 discriminator 1
	cmp	r1, #0
	beq	.L304
	.loc 1 110 0
	mov	r1, r2
.LVL216:
	mov	r0, r4
.LVL217:
	bl	sn_coap_builder_calc_needed_packet_data_size_2
.LVL218:
	.loc 1 112 0
	mov	r2, r0
	cbnz	r0, .L285
.LVL219:
.L286:
	.loc 1 113 0
	mov	r0, #-1
.L284:
	.loc 1 143 0
	add	sp, sp, #24
	.cfi_remember_state
	.cfi_def_cfa_offset 16
	@ sp needed
	pop	{r4, r5, r6, pc}
.LVL220:
.L285:
	.cfi_restore_state
	.loc 1 116 0
	movs	r1, #0
	ldr	r0, [sp, #12]
.LVL221:
	bl	memset
.LVL222:
.LBB47:
.LBB48:
	.loc 1 485 0
	movs	r1, #64
	mov	r0, r4
.LBE48:
.LBE47:
	.loc 1 119 0
	ldr	r6, [sp, #12]
.LVL223:
.LBB52:
.LBB49:
	.loc 1 485 0
	bl	sn_coap_header_validity_check
.LVL224:
	cmp	r0, #0
	bne	.L286
	.loc 1 490 0
	ldr	r2, [sp, #12]
	ldrb	r3, [r2]	@ zero_extendqisi2
	adds	r3, r3, #64
	strb	r3, [r2]
	.loc 1 493 0
	ldr	r2, [sp, #12]
	ldrb	r1, [r4, #3]	@ zero_extendqisi2
	ldrb	r3, [r2]	@ zero_extendqisi2
	add	r3, r3, r1
	strb	r3, [r2]
	.loc 1 496 0
	ldr	r2, [sp, #12]
	ldrb	r1, [r4]	@ zero_extendqisi2
	ldrb	r3, [r2]	@ zero_extendqisi2
	add	r3, r3, r1
	strb	r3, [r2]
	.loc 1 498 0
	ldr	r3, [sp, #12]
	adds	r2, r3, #1
	str	r2, [sp, #12]
	.loc 1 500 0
	ldrb	r2, [r4, #2]	@ zero_extendqisi2
	strb	r2, [r3, #1]
	.loc 1 501 0
	ldr	r2, [sp, #12]
	adds	r3, r2, #1
	str	r3, [sp, #12]
	.loc 1 504 0
	ldrh	r3, [r4, #8]
	lsrs	r3, r3, #8
	strb	r3, [r2, #1]
	.loc 1 505 0
	ldr	r3, [sp, #12]
	adds	r2, r3, #1
	str	r2, [sp, #12]
	.loc 1 506 0
	ldrh	r2, [r4, #8]
	strb	r2, [r3, #1]
	.loc 1 507 0
	ldr	r0, [sp, #12]
.LBE49:
.LBE52:
	.loc 1 130 0
	ldrb	r3, [r4, #3]	@ zero_extendqisi2
.LBB53:
.LBB50:
	.loc 1 507 0
	adds	r0, r0, #1
.LBE50:
.LBE53:
	.loc 1 130 0
	cmp	r3, #48
.LBB54:
.LBB51:
	.loc 1 507 0
	str	r0, [sp, #12]
.LVL225:
.LBE51:
.LBE54:
	.loc 1 130 0
	beq	.L288
.LVL226:
.LBB55:
.LBB56:
	.loc 1 527 0
	ldr	r3, [r4, #20]
	cbnz	r3, .L289
	.loc 1 527 0
	ldr	r3, [r4, #16]
	cbnz	r3, .L289
	.loc 1 527 0
	ldr	r3, [r4, #4]
	adds	r3, r3, #1
	bne	.L289
	.loc 1 528 0
	ldr	r3, [r4, #28]
	cmp	r3, #0
	beq	.L290
.L289:
	.loc 1 533 0
	ldrb	r2, [r4]	@ zero_extendqisi2
	cbz	r2, .L291
	ldr	r1, [r4, #16]
	cbz	r1, .L291
	.loc 1 534 0
	bl	memcpy
.LVL227:
.L291:
	.loc 1 536 0
	ldrb	r2, [r4]	@ zero_extendqisi2
	ldr	r3, [sp, #12]
	add	r5, sp, #22
	add	r3, r3, r2
	str	r3, [sp, #12]
	.loc 1 541 0
	movs	r3, #0
	.loc 1 546 0
	ldr	r2, [r4, #28]
	.loc 1 541 0
	strh	r3, [sp, #22]	@ movhi
	.loc 1 546 0
	cbz	r2, .L292
	.loc 1 548 0
	ldrh	r1, [r2, #4]
	str	r5, [sp]
	movs	r3, #3
	ldr	r2, [r2, #52]
	add	r0, sp, #12
.LVL228:
	bl	sn_coap_builder_options_build_add_one_option
.LVL229:
	.loc 1 552 0
	ldr	r2, [r4, #28]
	movs	r3, #4
	add	r1, r2, #48
	str	r5, [sp]
	add	r0, sp, #12
.LVL230:
	bl	sn_coap_builder_options_build_add_multiple_option
.LVL231:
	.loc 1 556 0
	ldr	r3, [r4, #28]
	ldr	r1, [r3, #32]
	adds	r2, r1, #1
	beq	.L293
	.loc 1 557 0
	mov	r3, r5
	movs	r2, #6
	add	r0, sp, #12
.LVL232:
	bl	sn_coap_builder_options_build_add_uint_option
.LVL233:
.L293:
	.loc 1 562 0
	ldr	r3, [r4, #28]
	ldr	r1, [r3, #28]
	adds	r3, r1, #1
	beq	.L294
	.loc 1 563 0
	mov	r3, r5
	movs	r2, #7
	add	r0, sp, #12
.LVL234:
	bl	sn_coap_builder_options_build_add_uint_option
.LVL235:
.L294:
	.loc 1 568 0
	ldr	r1, [r4, #28]
	str	r5, [sp]
	adds	r2, r1, #6
	movs	r3, #8
	adds	r1, r1, #56
	add	r0, sp, #12
.LVL236:
	bl	sn_coap_builder_options_build_add_multiple_option
.LVL237:
.L292:
	.loc 1 572 0
	add	r1, r4, #20
	str	r5, [sp]
	movs	r3, #11
	add	r2, r4, #10
	add	r0, sp, #12
.LVL238:
	bl	sn_coap_builder_options_build_add_multiple_option
.LVL239:
	.loc 1 576 0
	ldr	r1, [r4, #4]
	adds	r0, r1, #1
	beq	.L295
	.loc 1 577 0
	movs	r2, #12
	mov	r3, r5
	add	r0, sp, r2
	bl	sn_coap_builder_options_build_add_uint_option
.LVL240:
.L295:
	.loc 1 581 0
	ldr	r3, [r4, #28]
	cmp	r3, #0
	beq	.L290
	.loc 1 583 0
	ldr	r1, [r3, #16]
	cmp	r1, #60
	beq	.L297
	.loc 1 584 0
	mov	r3, r5
	movs	r2, #14
	add	r0, sp, #12
.LVL241:
	bl	sn_coap_builder_options_build_add_uint_option
.LVL242:
.L297:
	.loc 1 589 0
	ldr	r1, [r4, #28]
	movs	r3, #15
	add	r2, r1, #10
	str	r5, [sp]
	adds	r1, r1, #64
	add	r0, sp, #12
.LVL243:
	bl	sn_coap_builder_options_build_add_multiple_option
.LVL244:
	.loc 1 593 0
	ldr	r3, [r4, #28]
	ldr	r1, [r3, #12]
	adds	r2, r1, #1
	beq	.L298
	.loc 1 594 0
	mov	r3, r5
	movs	r2, #17
	add	r0, sp, #12
.LVL245:
	bl	sn_coap_builder_options_build_add_uint_option
.LVL246:
.L298:
	.loc 1 599 0
	ldr	r1, [r4, #28]
	cmp	r1, #0
	beq	.L290
	.loc 1 601 0
	movs	r3, #20
	add	r2, r1, #8
	str	r5, [sp]
	adds	r1, r1, #60
	add	r0, sp, #12
.LVL247:
	bl	sn_coap_builder_options_build_add_multiple_option
.LVL248:
	.loc 1 605 0
	ldr	r3, [r4, #28]
	ldr	r1, [r3, #40]
	adds	r3, r1, #1
	beq	.L299
	.loc 1 606 0
	mov	r3, r5
	movs	r2, #23
	add	r0, sp, #12
.LVL249:
	bl	sn_coap_builder_options_build_add_uint_option
.LVL250:
.L299:
	.loc 1 611 0
	ldr	r3, [r4, #28]
	ldr	r1, [r3, #36]
	adds	r0, r1, #1
	beq	.L300
	.loc 1 612 0
	mov	r3, r5
	movs	r2, #27
	add	r0, sp, #12
.LVL251:
	bl	sn_coap_builder_options_build_add_uint_option
.LVL252:
.L300:
	.loc 1 617 0
	ldr	r1, [r4, #28]
	ldrb	r3, [r1, #1]	@ zero_extendqisi2
	lsls	r2, r3, #30
	bpl	.L301
	.loc 1 618 0
	mov	r3, r5
	movs	r2, #28
	ldr	r1, [r1, #24]
	add	r0, sp, #12
.LVL253:
	bl	sn_coap_builder_options_build_add_uint_option
.LVL254:
.L301:
	.loc 1 623 0
	ldr	r2, [r4, #28]
	movs	r3, #35
	ldrh	r1, [r2, #2]
	str	r5, [sp]
	ldr	r2, [r2, #44]
	add	r0, sp, #12
.LVL255:
	bl	sn_coap_builder_options_build_add_one_option
.LVL256:
	.loc 1 628 0
	ldr	r1, [r4, #28]
	ldrb	r3, [r1, #1]	@ zero_extendqisi2
	lsls	r3, r3, #31
	bpl	.L290
	.loc 1 629 0
	mov	r3, r5
	movs	r2, #60
	ldr	r1, [r1, #20]
	add	r0, sp, #12
.LVL257:
	bl	sn_coap_builder_options_build_add_uint_option
.LVL258:
.L290:
.LBE56:
.LBE55:
.LBB57:
.LBB58:
	.loc 1 1057 0
	ldrh	r3, [r4, #12]
	cbz	r3, .L288
	ldr	r3, [r4, #24]
	cbz	r3, .L288
	.loc 1 1060 0
	movs	r2, #255
	ldr	r3, [sp, #12]
	strb	r2, [r3]
	.loc 1 1061 0
	ldr	r0, [sp, #12]
	.loc 1 1064 0
	ldrh	r2, [r4, #12]
	.loc 1 1061 0
	adds	r0, r0, #1
	.loc 1 1064 0
	ldr	r1, [r4, #24]
	.loc 1 1061 0
	str	r0, [sp, #12]
	.loc 1 1064 0
	bl	memcpy
.LVL259:
	.loc 1 1067 0
	ldr	r3, [sp, #12]
	ldrh	r2, [r4, #12]
	add	r3, r3, r2
	str	r3, [sp, #12]
.LVL260:
.L288:
.LBE58:
.LBE57:
	.loc 1 142 0
	ldr	r0, [sp, #12]
	subs	r0, r0, r6
	sxth	r0, r0
	b	.L284
.LVL261:
.L304:
	.loc 1 106 0
	mvn	r0, #1
.LVL262:
	b	.L284
	.cfi_endproc
.LFE181:
	.size	sn_coap_builder_2, .-sn_coap_builder_2
	.section	.text.sn_coap_builder,"ax",%progbits
	.align	1
	.global	sn_coap_builder
	.syntax unified
	.thumb
	.thumb_func
	.fpu softvfp
	.type	sn_coap_builder, %function
sn_coap_builder:
.LFB180:
	.loc 1 95 0
	.cfi_startproc
	@ args = 0, pretend = 0, frame = 0
	@ frame_needed = 0, uses_anonymous_args = 0
	@ link register save eliminated.
.LVL263:
	.loc 1 96 0
	movs	r2, #0
	b	sn_coap_builder_2
.LVL264:
	.cfi_endproc
.LFE180:
	.size	sn_coap_builder, .-sn_coap_builder
	.section	.text.sn_coap_builder_calc_needed_packet_data_size,"ax",%progbits
	.align	1
	.global	sn_coap_builder_calc_needed_packet_data_size
	.syntax unified
	.thumb
	.thumb_func
	.fpu softvfp
	.type	sn_coap_builder_calc_needed_packet_data_size, %function
sn_coap_builder_calc_needed_packet_data_size:
.LFB182:
	.loc 1 145 0
	.cfi_startproc
	@ args = 0, pretend = 0, frame = 0
	@ frame_needed = 0, uses_anonymous_args = 0
	@ link register save eliminated.
.LVL265:
	.loc 1 146 0
	movs	r1, #0
	b	sn_coap_builder_calc_needed_packet_data_size_2
.LVL266:
	.cfi_endproc
.LFE182:
	.size	sn_coap_builder_calc_needed_packet_data_size, .-sn_coap_builder_calc_needed_packet_data_size
	.text
.Letext0:
	.file 2 "/home/ls/8720cf/sdk-ameba-v7.1d/tools/arm-none-eabi-gcc/asdk/linux/newlib/arm-none-eabi/include/machine/_default_types.h"
	.file 3 "/home/ls/8720cf/sdk-ameba-v7.1d/tools/arm-none-eabi-gcc/asdk/linux/newlib/lib/gcc/arm-none-eabi/6.5.0/include/stddef.h"
	.file 4 "/home/ls/8720cf/sdk-ameba-v7.1d/tools/arm-none-eabi-gcc/asdk/linux/newlib/arm-none-eabi/include/sys/lock.h"
	.file 5 "/home/ls/8720cf/sdk-ameba-v7.1d/tools/arm-none-eabi-gcc/asdk/linux/newlib/arm-none-eabi/include/sys/_types.h"
	.file 6 "/home/ls/8720cf/sdk-ameba-v7.1d/tools/arm-none-eabi-gcc/asdk/linux/newlib/arm-none-eabi/include/sys/reent.h"
	.file 7 "<built-in>"
	.file 8 "/home/ls/8720cf/sdk-ameba-v7.1d/tools/arm-none-eabi-gcc/asdk/linux/newlib/arm-none-eabi/include/sys/_stdint.h"
	.file 9 "/home/ls/8720cf/sdk-ameba-v7.1d/tools/arm-none-eabi-gcc/asdk/linux/newlib/arm-none-eabi/include/time.h"
	.file 10 "../../../component/common/network/coap/include/sn_coap_header.h"
	.file 11 "../../../component/common/network/coap/include/sn_coap_header_internal.h"
	.file 12 "../../../component/common/network/coap/include/ns_list.h"
	.file 13 "../inc/FreeRTOSConfig.h"
	.file 14 "../../../component/soc/realtek/8710c/cmsis/rtl8710c/include/basic_types.h"
	.file 15 "/home/ls/8720cf/sdk-ameba-v7.1d/tools/arm-none-eabi-gcc/asdk/linux/newlib/lib/gcc/arm-none-eabi/6.5.0/include/stdarg.h"
	.file 16 "../../../component/soc/realtek/8710c/app/rtl_printf/include/log_buf.h"
	.file 17 "../../../component/soc/realtek/8710c/app/stdio_port/stdio_port.h"
	.file 18 "../../../component/soc/realtek/8710c/app/rtl_printf/include/printf_entry.h"
	.file 19 "../../../component/soc/realtek/8710c/app/rtl_printf/include/rt_printf.h"
	.file 20 "../../../component/soc/realtek/8710c/misc/utilities/include/utility.h"
	.file 21 "/home/ls/8720cf/sdk-ameba-v7.1d/tools/arm-none-eabi-gcc/asdk/linux/newlib/arm-none-eabi/include/stdlib.h"
	.file 22 "../../../component/common/drivers/wlan/realtek/src/osdep/wireless.h"
	.file 23 "../../../component/common/drivers/wlan/realtek/include/autoconf.h"
	.file 24 "../../../component/common/api/wifi/wifi_util.h"
	.file 25 "../../../component/common/network/lwip/lwip_v2.0.2/port/realtek/arch/cc.h"
	.file 26 "../../../component/common/network/lwip/lwip_v2.0.2/src/include/lwip/ip4_addr.h"
	.file 27 "../../../component/common/network/lwip/lwip_v2.0.2/src/include/lwip/ip_addr.h"
	.file 28 "../../../component/common/network/lwip/lwip_v2.0.2/src/include/lwip/inet.h"
	.file 29 "../../../component/common/network/lwip/lwip_v2.0.2/src/include/lwip/errno.h"
	.file 30 "../../../component/common/network/lwip/lwip_v2.0.2/src/include/lwip/netdb.h"
	.file 31 "../../../component/common/network/coap/include/sn_coap_protocol_internal.h"