	.arch armv8-m.main
	.arch_extension dsp
	.eabi_attribute 20, 1
	.eabi_attribute 21, 1
	.eabi_attribute 23, 3
	.eabi_attribute 24, 1
	.eabi_attribute 25, 1
	.eabi_attribute 26, 1
	.eabi_attribute 30, 4
	.eabi_attribute 34, 1
	.eabi_attribute 18, 4
	.file	"sn_coap_parser.c"
	.text
.Ltext0:
	.cfi_sections	.debug_frame
	.section	.text.sn_coap_parser_options_parse_uint,"ax",%progbits
	.align	1
	.syntax unified
	.thumb
	.thumb_func
	.fpu softvfp
	.type	sn_coap_parser_options_parse_uint, %function
sn_coap_parser_options_parse_uint:
.LFB185:
	.file 1 "../../../component/common/network/coap/sn_coap_parser.c"
	.loc 1 233 0
	.cfi_startproc
	@ args = 0, pretend = 0, frame = 0
	@ frame_needed = 0, uses_anonymous_args = 0
.LVL0:
	.loc 1 234 0
	movs	r3, #0
	.loc 1 233 0
	push	{r4, lr}
	.cfi_def_cfa_offset 8
	.cfi_offset 4, -8
	.cfi_offset 14, -4
.LVL1:
.L2:
	.loc 1 235 0
	subs	r1, r1, #1
.LVL2:
	uxtb	r1, r1
.LVL3:
	cmp	r1, #255
	bne	.L3
	.loc 1 241 0
	mov	r0, r3
.LVL4:
	pop	{r4, pc}
.LVL5:
.L3:
	.loc 1 237 0
	ldr	r2, [r0]
	adds	r4, r2, #1
	str	r4, [r0]
	ldrb	r2, [r2]	@ zero_extendqisi2
	orr	r3, r2, r3, lsl #8
.LVL6:
	b	.L2
	.cfi_endproc
.LFE185:
	.size	sn_coap_parser_options_parse_uint, .-sn_coap_parser_options_parse_uint
	.section	.text.sn_coap_parser_options_parse_multiple_options.isra.0,"ax",%progbits
	.align	1
	.syntax unified
	.thumb
	.thumb_func
	.fpu softvfp
	.type	sn_coap_parser_options_parse_multiple_options.isra.0, %function
sn_coap_parser_options_parse_multiple_options.isra.0:
.LFB190:
	.loc 1 570 0
	.cfi_startproc
	@ args = 12, pretend = 0, frame = 8
	@ frame_needed = 0, uses_anonymous_args = 0
.LVL7:
	push	{r0, r1, r2, r4, r5, r6, r7, r8, r9, r10, fp, lr}
	.cfi_def_cfa_offset 48
	.cfi_offset 4, -36
	.cfi_offset 5, -32
	.cfi_offset 6, -28
	.cfi_offset 7, -24
	.cfi_offset 8, -20
	.cfi_offset 9, -16
	.cfi_offset 10, -12
	.cfi_offset 11, -8
	.cfi_offset 14, -4
	.loc 1 570 0
	ldrh	r5, [sp, #56]
	mov	r9, r1
	mov	r10, r3
	.loc 1 572 0
	ldr	r6, [r1]
.LVL8:
	mov	r3, r5
.LVL9:
.LBB4:
.LBB5:
	.loc 1 659 0
	movs	r1, #1
.LVL10:
	.loc 1 658 0
	movs	r4, #0
.LBE5:
.LBE4:
	.loc 1 570 0
	ldrb	r8, [sp, #52]	@ zero_extendqisi2
.LVL11:
.L5:
.LBB9:
.LBB6:
	.loc 1 662 0
	cmp	r2, r1
	bcs	.L20
.LVL12:
.L14:
	.loc 1 722 0
	cmp	r4, #0
	beq	.L21
	.loc 1 723 0
	subs	r4, r4, #1
.LVL13:
	sxth	r4, r4
	b	.L16
.LVL14:
.L20:
	.loc 1 663 0
	cmp	r8, #8
	bne	.L6
.L52:
	cmp	r3, #255
.L55:
	bls	.L7
.LVL15:
.L10:
.LBE6:
.LBE9:
	.loc 1 577 0
	mov	r0, #-1
.L8:
	.loc 1 636 0
	add	sp, sp, #12
	.cfi_remember_state
	.cfi_def_cfa_offset 36
	@ sp needed
	pop	{r4, r5, r6, r7, r8, r9, r10, fp, pc}
.LVL16:
.L6:
	.cfi_restore_state
.LBB10:
.LBB7:
	.loc 1 666 0
	cmp	r8, #11
	beq	.L52
	.loc 1 669 0
	cmp	r8, #15
	beq	.L52
	.loc 1 672 0
	cmp	r8, #20
	beq	.L52
	.loc 1 675 0
	cmp	r8, #17
	bne	.L13
	cmp	r3, #2
	b	.L55
.L13:
	.loc 1 678 0
	cmp	r8, #4
	bne	.L7
	cmp	r3, #8
	b	.L55
.L7:
	.loc 1 682 0
	add	r1, r1, r3
.LVL17:
	.loc 1 683 0
	add	r4, r4, r3
.LVL18:
	.loc 1 682 0
	uxth	r1, r1
.LVL19:
	.loc 1 683 0
	uxth	r3, r4
.LVL20:
	adds	r4, r3, #1
	.loc 1 685 0
	cmp	r2, r1
	.loc 1 683 0
	uxth	r4, r4
.LVL21:
	.loc 1 685 0
	beq	.L14
	.loc 1 688 0
	bcc	.L10
	.loc 1 692 0
	ldrb	r7, [r6, r1]	@ zero_extendqisi2
	lsrs	ip, r7, #4
	beq	.L15
	.loc 1 693 0
	sxth	r4, r3
.LVL22:
.LBE7:
.LBE10:
	.loc 1 576 0
	adds	r3, r4, #1
	beq	.L10
.LVL23:
.L16:
	.loc 1 580 0
	cbz	r4, .L21
	.loc 1 581 0
	ldr	r3, [r0]
	uxth	r0, r4
	blx	r3
.LVL24:
	str	r0, [r10]
	.loc 1 583 0
	cmp	r0, #0
	beq	.L10
.LVL25:
.L21:
	.loc 1 588 0
	ldr	r3, [sp, #48]
	.loc 1 598 0
	sub	r2, r8, #4
	.loc 1 588 0
	strh	r4, [r3]	@ movhi
	.loc 1 598 0
	ldr	r3, .L59
	uxtb	r2, r2
	lsrs	r3, r3, r2
	mvns	r3, r3
	cmp	r2, #16
	and	r3, r3, #1
	.loc 1 574 0
	mov	r6, #0
	it	hi
	movhi	r3, #1
	.loc 1 601 0
	mov	fp, #47
	.loc 1 590 0
	ldr	r7, [r10]
.LVL26:
.L22:
	.loc 1 593 0
	ldr	r2, [r10]
	subs	r2, r7, r2
	cmp	r4, r2
	ble	.L58
	.loc 1 595 0
	cbz	r6, .L23
	.loc 1 598 0
	cmp	r3, #0
	bne	.L24
	.loc 1 599 0
	mov	r2, #38
	strb	r2, [r7]
.L25:
	.loc 1 604 0
	adds	r7, r7, #1
.LVL27:
.L23:
	.loc 1 609 0
	ldr	r1, [r9]
	.loc 1 607 0
	adds	r6, r6, #1
.LVL28:
	.loc 1 609 0
	adds	r1, r1, #1
	str	r1, [r9]
	.loc 1 611 0
	ldr	r2, [r10]
	str	r3, [sp, #4]
	subs	r2, r7, r2
	add	r2, r2, r5
	cmp	r2, r4
	.loc 1 607 0
	uxtb	r6, r6
.LVL29:
	.loc 1 611 0
	bgt	.L10
	.loc 1 615 0
	mov	r2, r5
	mov	r0, r7
	bl	memcpy
.LVL30:
	.loc 1 617 0
	ldr	r0, [r9]
	.loc 1 618 0
	add	r7, r7, r5
.LVL31:
	.loc 1 617 0
	adds	r2, r0, r5
	str	r2, [r9]
	.loc 1 620 0
	ldr	r1, [r10]
	subs	r1, r7, r1
	cmp	r4, r1
	ble	.L58
	ldrb	r1, [r0, r5]	@ zero_extendqisi2
	lsrs	r3, r1, #4
	ldr	r3, [sp, #4]
	beq	.L28
.L58:
	.loc 1 635 0
	sxtb	r0, r6
	b	.L8
.LVL32:
.L15:
.LBB11:
.LBB8:
	.loc 1 698 0
	cmp	r7, #13
	bne	.L17
	.loc 1 700 0
	adds	r1, r1, #1
.LVL33:
	cmp	r1, r2
	bge	.L10
	.loc 1 704 0
	uxth	r1, r1
.LVL34:
	.loc 1 705 0
	ldrb	r3, [r6, r1]	@ zero_extendqisi2
	adds	r3, r3, #13
.LVL35:
.L18:
	.loc 1 718 0
	adds	r1, r1, #1
.LVL36:
	uxth	r1, r1
.LVL37:
	b	.L5
.LVL38:
.L17:
	.loc 1 706 0
	cmp	r7, #14
	.loc 1 696 0
	uxth	r3, r7
	.loc 1 706 0
	bne	.L19
	.loc 1 708 0
	adds	r7, r1, #2
.LVL39:
	cmp	r7, r2
	bge	.L10
.LVL40:
	.loc 1 712 0
	add	r1, r1, r6
.LVL41:
	ldrb	r3, [r1, #2]	@ zero_extendqisi2
	.loc 1 713 0
	ldrb	r1, [r1, #1]	@ zero_extendqisi2
	addw	r3, r3, #269
	add	r3, r3, r1, lsl #8
	uxth	r3, r3
.LVL42:
	.loc 1 714 0
	uxth	r1, r7
.LVL43:
	b	.L18
.LVL44:
.L19:
	.loc 1 715 0
	cmp	r3, #15
	bne	.L18
	b	.L10
.LVL45:
.L24:
.LBE8:
.LBE11:
	.loc 1 600 0
	cmp	r8, #11
	beq	.L26
	cmp	r8, #8
	bne	.L25
.L26:
	.loc 1 601 0
	strb	fp, [r7]
	b	.L25
.L28:
.LVL46:
	.loc 1 625 0
	cmp	r1, #13
	bne	.L29
	.loc 1 626 0
	ldrb	r5, [r2, #1]!	@ zero_extendqisi2
	adds	r5, r5, #13
.LVL47:
.L57:
	.loc 1 631 0
	str	r2, [r9]
	b	.L22
.LVL48:
.L29:
	.loc 1 628 0
	cmp	r1, #14
	.loc 1 624 0
	uxth	r5, r1
	.loc 1 628 0
	bne	.L22
.LVL49:
	.loc 1 629 0
	ldrb	r5, [r2, #2]	@ zero_extendqisi2
	.loc 1 630 0
	ldrb	r1, [r2, #1]	@ zero_extendqisi2
	addw	r5, r5, #269
	add	r5, r5, r1, lsl #8
	uxth	r5, r5
.LVL50:
	.loc 1 631 0
	adds	r2, r2, #2
	b	.L57
.L60:
	.align	2
.L59:
	.word	75777
	.cfi_endproc
.LFE190:
	.size	sn_coap_parser_options_parse_multiple_options.isra.0, .-sn_coap_parser_options_parse_multiple_options.isra.0
	.section	.text.sn_coap_parser_init_message,"ax",%progbits
	.align	1
	.global	sn_coap_parser_init_message
	.syntax unified
	.thumb
	.thumb_func
	.fpu softvfp
	.type	sn_coap_parser_init_message, %function
sn_coap_parser_init_message:
.LFB179:
	.loc 1 49 0
	.cfi_startproc
	@ args = 0, pretend = 0, frame = 0
	@ frame_needed = 0, uses_anonymous_args = 0
.LVL51:
	push	{r4, lr}
	.cfi_def_cfa_offset 8
	.cfi_offset 4, -8
	.cfi_offset 14, -4
	.loc 1 51 0
	mov	r4, r0
	cbz	r0, .L62
	.loc 1 56 0
	movs	r2, #32
	movs	r1, #0
	bl	memset
.LVL52:
	.loc 1 58 0
	mov	r3, #-1
	str	r3, [r4, #4]
.L62:
	.loc 1 61 0
	mov	r0, r4
	pop	{r4, pc}
	.cfi_endproc
.LFE179:
	.size	sn_coap_parser_init_message, .-sn_coap_parser_init_message
	.section	.text.sn_coap_parser_alloc_message,"ax",%progbits
	.align	1
	.global	sn_coap_parser_alloc_message
	.syntax unified
	.thumb
	.thumb_func
	.fpu softvfp
	.type	sn_coap_parser_alloc_message, %function
sn_coap_parser_alloc_message:
.LFB180:
	.loc 1 64 0
	.cfi_startproc
	@ args = 0, pretend = 0, frame = 0
	@ frame_needed = 0, uses_anonymous_args = 0
.LVL53:
	push	{r3, lr}
	.cfi_def_cfa_offset 8
	.cfi_offset 3, -8
	.cfi_offset 14, -4
	.loc 1 68 0
	cbz	r0, .L67
	.loc 1 73 0
	ldr	r3, [r0]
	movs	r0, #32
.LVL54:
	blx	r3
.LVL55:
	.loc 1 76 0
	pop	{r3, lr}
	.cfi_remember_state
	.cfi_restore 14
	.cfi_restore 3
	.cfi_def_cfa_offset 0
	.loc 1 75 0
	b	sn_coap_parser_init_message
.LVL56:
.L67:
	.cfi_restore_state
	.loc 1 76 0
	pop	{r3, pc}
	.cfi_endproc
.LFE180:
	.size	sn_coap_parser_alloc_message, .-sn_coap_parser_alloc_message
	.section	.text.sn_coap_parser_alloc_options,"ax",%progbits
	.align	1
	.global	sn_coap_parser_alloc_options
	.syntax unified
	.thumb
	.thumb_func
	.fpu softvfp
	.type	sn_coap_parser_alloc_options, %function
sn_coap_parser_alloc_options:
.LFB181:
	.loc 1 79 0
	.cfi_startproc
	@ args = 0, pretend = 0, frame = 0
	@ frame_needed = 0, uses_anonymous_args = 0
.LVL57:
	push	{r3, r4, r5, lr}
	.cfi_def_cfa_offset 16
	.cfi_offset 3, -16
	.cfi_offset 4, -12
	.cfi_offset 5, -8
	.cfi_offset 14, -4
	.loc 1 79 0
	mov	r5, r1
	.loc 1 81 0
	cbnz	r0, .L69
.LVL58:
.L71:
	.loc 1 82 0
	movs	r4, #0
.L68:
	.loc 1 108 0
	mov	r0, r4
	pop	{r3, r4, r5, pc}
.LVL59:
.L69:
	.loc 1 81 0 discriminator 1
	cmp	r1, #0
	beq	.L71
	.loc 1 86 0
	ldr	r4, [r1, #28]
	cmp	r4, #0
	bne	.L68
.LVL60:
.LBB14:
.LBB15:
	.loc 1 91 0
	ldr	r3, [r0]
	movs	r0, #68
.LVL61:
	blx	r3
.LVL62:
	str	r0, [r5, #28]
	.loc 1 93 0
	cmp	r0, #0
	beq	.L71
	.loc 1 98 0
	mov	r1, r4
	movs	r2, #68
	bl	memset
.LVL63:
	.loc 1 100 0
	movs	r3, #60
	ldr	r4, [r5, #28]
	str	r3, [r4, #16]
	.loc 1 101 0
	mov	r3, #-1
	str	r3, [r4, #28]
	.loc 1 102 0
	str	r3, [r4, #32]
	.loc 1 103 0
	str	r3, [r4, #12]
	.loc 1 104 0
	str	r3, [r4, #40]
	.loc 1 105 0
	str	r3, [r4, #36]
	b	.L68
.LBE15:
.LBE14:
	.cfi_endproc
.LFE181:
	.size	sn_coap_parser_alloc_options, .-sn_coap_parser_alloc_options
	.section	.text.sn_coap_parser,"ax",%progbits
	.align	1
	.global	sn_coap_parser
	.syntax unified
	.thumb
	.thumb_func
	.fpu softvfp
	.type	sn_coap_parser, %function
sn_coap_parser:
.LFB182:
	.loc 1 111 0
	.cfi_startproc
	@ args = 0, pretend = 0, frame = 16
	@ frame_needed = 0, uses_anonymous_args = 0
.LVL64:
	push	{r4, r5, r6, r7, r8, r9, r10, fp, lr}
	.cfi_def_cfa_offset 36
	.cfi_offset 4, -36
	.cfi_offset 5, -32
	.cfi_offset 6, -28
	.cfi_offset 7, -24
	.cfi_offset 8, -20
	.cfi_offset 9, -16
	.cfi_offset 10, -12
	.cfi_offset 11, -8
	.cfi_offset 14, -4
	sub	sp, sp, #36
	.cfi_def_cfa_offset 72
	.loc 1 111 0
	mov	r8, r0
	mov	r9, r1
	mov	r7, r2
	mov	r4, r3
	.loc 1 112 0
	str	r2, [sp, #28]
.LVL65:
	.loc 1 116 0
	cbnz	r2, .L79
.LVL66:
.L81:
	.loc 1 117 0
	movs	r5, #0
.LVL67:
.L78:
	.loc 1 146 0
	mov	r0, r5
	add	sp, sp, #36
	.cfi_remember_state
	.cfi_def_cfa_offset 36
	@ sp needed
	pop	{r4, r5, r6, r7, r8, r9, r10, fp, pc}
.LVL68:
.L79:
	.cfi_restore_state
	.loc 1 116 0 discriminator 1
	cmp	r1, #3
	bls	.L81
	.loc 1 116 0 is_stmt 0 discriminator 2
	cmp	r0, #0
	beq	.L81
	.loc 1 121 0 is_stmt 1
	bl	sn_coap_parser_alloc_message
.LVL69:
	.loc 1 123 0
	mov	r5, r0
	cmp	r0, #0
	beq	.L81
.LVL70:
.LBB23:
.LBB24:
	.loc 1 209 0
	ldr	r2, [sp, #28]
	.loc 1 210 0
	mov	r3, r2
	.loc 1 209 0
	ldrb	r1, [r2]	@ zero_extendqisi2
	bic	r1, r1, #63
	strb	r1, [r4]
	.loc 1 210 0
	ldrb	r1, [r3], #1	@ zero_extendqisi2
	and	r1, r1, #48
	strb	r1, [r0, #3]
	.loc 1 211 0
	str	r3, [sp, #28]
	.loc 1 214 0
	ldrb	r3, [r2, #1]	@ zero_extendqisi2
	strb	r3, [r0, #2]
	.loc 1 215 0
	adds	r3, r2, #2
	str	r3, [sp, #28]
	.loc 1 218 0
	ldrb	r3, [r2, #3]	@ zero_extendqisi2
	.loc 1 220 0
	adds	r2, r2, #4
	.loc 1 218 0
	strh	r3, [r0, #8]	@ movhi
	.loc 1 219 0
	ldrb	r1, [r2, #-2]	@ zero_extendqisi2
	.loc 1 220 0
	str	r2, [sp, #28]
.LVL71:
	.loc 1 219 0
	add	r3, r3, r1, lsl #8
	strh	r3, [r0, #8]	@ movhi
.LBE24:
.LBE23:
.LBB25:
.LBB26:
	.loc 1 261 0
	ldrb	r0, [r7]	@ zero_extendqisi2
.LVL72:
	and	r0, r0, #15
	strb	r0, [r5]
	.loc 1 263 0
	cbz	r0, .L82
	.loc 1 264 0
	cmp	r0, #8
	bhi	.L120
	ldr	r3, [r5, #16]
	cmp	r3, #0
	bne	.L120
	.loc 1 268 0
	ldr	r3, [r8]
	blx	r3
.LVL73:
	str	r0, [r5, #16]
	.loc 1 270 0
	cmp	r0, #0
	beq	.L120
	.loc 1 274 0
	ldrb	r2, [r5]	@ zero_extendqisi2
	ldr	r1, [sp, #28]
	bl	memcpy
.LVL74:
	.loc 1 275 0
	ldrb	r2, [r5]	@ zero_extendqisi2
	ldr	r3, [sp, #28]
	add	r3, r3, r2
	str	r3, [sp, #28]
.L82:
	.loc 1 255 0
	mov	r10, #0
	.loc 1 278 0
	add	r6, sp, #32
	ldr	r3, [r6, #-4]!
.LBB27:
	.loc 1 453 0
	add	fp, r5, #20
.LBE27:
	.loc 1 278 0
	subs	r3, r3, r7
	sub	r3, r9, r3
	uxth	r3, r3
.LVL75:
.L84:
	ldr	r2, [sp, #28]
	.loc 1 281 0
	cbz	r3, .L118
	ldrb	r3, [r2]	@ zero_extendqisi2
.LVL76:
	cmp	r3, #255
	bne	.L119
.L118:
.LVL77:
.LBE26:
.LBE25:
.LBB32:
.LBB33:
	.loc 1 745 0
	subs	r3, r2, r7
	cmp	r3, r9
	bge	.L78
	.loc 1 746 0
	ldrb	r3, [r2]	@ zero_extendqisi2
	cmp	r3, #255
	bne	.L120
	.loc 1 747 0
	adds	r2, r2, #1
.LVL78:
	.loc 1 749 0
	subs	r7, r2, r7
.LVL79:
	sub	r7, r9, r7
	uxth	r7, r7
	strh	r7, [r5, #12]	@ movhi
	.loc 1 752 0
	cmp	r7, #0
	beq	.L120
	.loc 1 757 0
	str	r2, [r5, #24]
	b	.L78
.LVL80:
.L119:
	and	r1, r3, #15
.LBE33:
.LBE32:
.LBB34:
.LBB30:
.LBB28:
	.loc 1 287 0
	cmp	r1, #15
	.loc 1 284 0
	uxth	r4, r1
.LVL81:
	.loc 1 287 0
	beq	.L120
	.loc 1 292 0
	lsrs	r1, r3, #4
.LVL82:
	.loc 1 294 0
	cmp	r1, #13
	bne	.L85
	.loc 1 295 0
	ldrb	r3, [r2, #1]!	@ zero_extendqisi2
	adds	r3, r3, #13
.LVL83:
.L170:
	.loc 1 300 0
	str	r2, [sp, #28]
.LVL84:
.L86:
	.loc 1 308 0
	add	r3, r3, r10
.LVL85:
	.loc 1 311 0
	cmp	r4, #13
	.loc 1 308 0
	uxth	r3, r3
.LVL86:
	ldr	r2, [sp, #28]
	.loc 1 311 0
	bne	.L88
	.loc 1 312 0
	ldrb	r4, [r2, #1]!	@ zero_extendqisi2
.LVL87:
	adds	r4, r4, #13
.LVL88:
.L171:
	.loc 1 317 0
	str	r2, [sp, #28]
.L89:
	.loc 1 320 0
	ldr	r2, [sp, #28]
	.loc 1 326 0
	cmp	r3, #17
	.loc 1 320 0
	sub	r2, r2, r7
	sub	r2, r9, r2
	uxth	r2, r2
.LVL89:
	.loc 1 324 0
	uxtb	r10, r3
.LVL90:
	.loc 1 326 0
	beq	.L91
	bhi	.L92
	cmp	r3, #8
	bhi	.L93
	cmp	r3, #6
	bcs	.L91
	subs	r1, r3, #3
.L173:
	cmp	r1, #1
	bhi	.L90
.L91:
	.loc 1 341 0
	mov	r1, r5
	mov	r0, r8
	str	r2, [sp, #20]
	str	r3, [sp, #16]
	bl	sn_coap_parser_alloc_options
.LVL91:
	ldr	r3, [sp, #16]
	ldr	r2, [sp, #20]
	cbnz	r0, .L90
	b	.L120
.LVL92:
.L85:
	.loc 1 297 0
	cmp	r1, #14
	.loc 1 292 0
	uxth	r3, r1
	.loc 1 297 0
	bne	.L87
.LVL93:
	.loc 1 298 0
	ldrb	r3, [r2, #2]	@ zero_extendqisi2
	.loc 1 299 0
	ldrb	r1, [r2, #1]	@ zero_extendqisi2
	addw	r3, r3, #269
	add	r3, r3, r1, lsl #8
	uxth	r3, r3
.LVL94:
	.loc 1 300 0
	adds	r2, r2, #2
	b	.L170
.LVL95:
.L87:
	.loc 1 303 0
	cmp	r3, #15
	bne	.L86
.LVL96:
.L120:
.LBE28:
.LBE30:
.LBE34:
	.loc 1 139 0
	movs	r3, #1
	strb	r3, [r5, #1]
	.loc 1 141 0
	b	.L78
.LVL97:
.L88:
.LBB35:
.LBB31:
.LBB29:
	.loc 1 314 0
	cmp	r4, #14
	bne	.L89
.LVL98:
	.loc 1 315 0
	ldrb	r4, [r2, #2]	@ zero_extendqisi2
	.loc 1 316 0
	ldrb	r1, [r2, #1]	@ zero_extendqisi2
	addw	r4, r4, #269
	add	r4, r4, r1, lsl #8
	uxth	r4, r4
.LVL99:
	.loc 1 317 0
	adds	r2, r2, #2
	b	.L171
.LVL100:
.L93:
	.loc 1 326 0
	sub	r1, r3, #14
	b	.L173
.L92:
	cmp	r3, #28
	bhi	.L94
	cmp	r3, #27
	bcs	.L91
	cmp	r3, #20
	beq	.L91
	cmp	r3, #23
.L175:
	beq	.L91
.LVL101:
.L90:
	.loc 1 348 0
	cmp	r3, #14
	beq	.L96
	bhi	.L97
	cmp	r3, #7
	beq	.L98
	bhi	.L99
	cmp	r3, #4
	beq	.L100
	cmp	r3, #6
	beq	.L101
	cmp	r3, #3
	bne	.L120
	.loc 1 398 0
	subs	r3, r4, #1
	uxth	r3, r3
	cmp	r3, #254
	bhi	.L120
	ldr	r3, [r5, #28]
	ldr	r2, [r3, #52]
	cmp	r2, #0
	bne	.L120
	.loc 1 402 0
	ldr	r2, [sp, #28]
	.loc 1 401 0
	strh	r4, [r3, #4]	@ movhi
	.loc 1 402 0
	adds	r2, r2, #1
	str	r2, [sp, #28]
	.loc 1 404 0
	mov	r0, r4
	ldr	r2, [r8]
	.loc 1 401 0
	str	r3, [sp, #16]
	.loc 1 404 0
	blx	r2
.LVL102:
	ldr	r3, [sp, #16]
	str	r0, [r3, #52]
	.loc 1 406 0
	ldr	r3, [r5, #28]
	ldr	r0, [r3, #52]
	b	.L178
.LVL103:
.L94:
	.loc 1 326 0
	cmp	r3, #35
	beq	.L91
	cmp	r3, #60
	b	.L175
.LVL104:
.L99:
	.loc 1 348 0
	cmp	r3, #11
	beq	.L103
	cmp	r3, #12
	beq	.L104
	cmp	r3, #8
	bne	.L120
	.loc 1 415 0
	ldr	r1, [r5, #28]
	ldr	r0, [r1, #56]
	cmp	r0, #0
	bne	.L120
	.loc 1 419 0
	str	r3, [sp, #4]
	adds	r3, r1, #6
	str	r3, [sp]
	str	r4, [sp, #8]
	add	r3, r1, #56
	b	.L176
.L97:
	.loc 1 348 0
	cmp	r3, #23
	beq	.L106
	bhi	.L107
	cmp	r3, #17
	beq	.L108
	cmp	r3, #20
	beq	.L109
	cmp	r3, #15
	bne	.L120
	.loc 1 478 0
	ldr	r1, [r5, #28]
	.loc 1 477 0
	str	r3, [sp, #4]
	add	r3, r1, #10
	str	r3, [sp]
	str	r4, [sp, #8]
	add	r3, r1, #64
	b	.L176
.L107:
	.loc 1 348 0
	cmp	r3, #28
	beq	.L111
	bhi	.L112
	cmp	r3, #27
	bne	.L120
	.loc 1 499 0
	cmp	r4, #3
	bhi	.L120
	ldr	r3, [r5, #28]
	ldr	r2, [r3, #36]
	str	r3, [sp, #16]
	adds	r2, r2, #1
	bne	.L120
	.loc 1 502 0
	ldr	r2, [sp, #28]
	.loc 1 504 0
	uxtb	r1, r4
	.loc 1 502 0
	adds	r2, r2, #1
	.loc 1 504 0
	mov	r0, r6
	.loc 1 502 0
	str	r2, [sp, #28]
	.loc 1 504 0
	bl	sn_coap_parser_options_parse_uint
.LVL105:
	ldr	r3, [sp, #16]
	str	r0, [r3, #36]
	b	.L116
.L112:
	.loc 1 348 0
	cmp	r3, #35
	beq	.L114
	cmp	r3, #60
	bne	.L120
	.loc 1 519 0
	cmp	r4, #4
	bhi	.L120
	ldr	r3, [r5, #28]
	ldrb	r2, [r3, #1]	@ zero_extendqisi2
	lsls	r0, r2, #31
	bmi	.L120
	.loc 1 522 0
	orr	r2, r2, #1
	strb	r2, [r3, #1]
	.loc 1 523 0
	ldr	r2, [sp, #28]
	.loc 1 524 0
	uxtb	r1, r4
	.loc 1 523 0
	adds	r2, r2, #1
	.loc 1 524 0
	mov	r0, r6
	.loc 1 522 0
	str	r3, [sp, #16]
	.loc 1 523 0
	str	r2, [sp, #28]
	.loc 1 524 0
	bl	sn_coap_parser_options_parse_uint
.LVL106:
	ldr	r3, [sp, #16]
	str	r0, [r3, #20]
	b	.L116
.L104:
	.loc 1 350 0
	cmp	r4, #2
	bhi	.L120
	ldr	r3, [r5, #4]
	adds	r3, r3, #1
	bne	.L120
	.loc 1 353 0
	ldr	r3, [sp, #28]
	.loc 1 354 0
	uxtb	r1, r4
	.loc 1 353 0
	adds	r3, r3, #1
	.loc 1 354 0
	mov	r0, r6
	.loc 1 353 0
	str	r3, [sp, #28]
	.loc 1 354 0
	bl	sn_coap_parser_options_parse_uint
.LVL107:
	str	r0, [r5, #4]
.LVL108:
.L116:
	.loc 1 541 0
	ldr	r3, [sp, #28]
	subs	r3, r3, r7
	cmp	r3, r9
	bgt	.L120
	.loc 1 545 0
	sub	r3, r9, r3
	uxth	r3, r3
.LVL109:
	b	.L84
.LVL110:
.L96:
	.loc 1 358 0
	cmp	r4, #4
	bhi	.L120
	.loc 1 361 0
	ldr	r3, [sp, #28]
	.loc 1 362 0
	uxtb	r1, r4
	.loc 1 361 0
	adds	r3, r3, #1
	str	r3, [sp, #28]
	.loc 1 362 0
	ldr	r3, [r5, #28]
	mov	r0, r6
	str	r3, [sp, #16]
	bl	sn_coap_parser_options_parse_uint
.LVL111:
	ldr	r3, [sp, #16]
	str	r0, [r3, #16]
	b	.L116
.L114:
	.loc 1 366 0
	movw	r2, #1033
	subs	r3, r4, #1
	uxth	r3, r3
	cmp	r3, r2
	bhi	.L120
	ldr	r3, [r5, #28]
	ldr	r2, [r3, #44]
	cmp	r2, #0
	bne	.L120
	.loc 1 370 0
	ldr	r2, [sp, #28]
	.loc 1 369 0
	strh	r4, [r3, #2]	@ movhi
	.loc 1 370 0
	adds	r2, r2, #1
	str	r2, [sp, #28]
	.loc 1 372 0
	mov	r0, r4
	ldr	r2, [r8]
	.loc 1 369 0
	str	r3, [sp, #16]
	.loc 1 372 0
	blx	r2
.LVL112:
	ldr	r3, [sp, #16]
	str	r0, [r3, #44]
	.loc 1 374 0
	ldr	r3, [r5, #28]
	ldr	r0, [r3, #44]
.L178:
	.loc 1 406 0
	cmp	r0, #0
	beq	.L120
	.loc 1 409 0
	mov	r2, r4
	ldr	r1, [sp, #28]
	bl	memcpy
.LVL113:
	.loc 1 410 0
	ldr	r3, [sp, #28]
	add	r4, r4, r3
.LVL114:
	str	r4, [sp, #28]
	b	.L116
.LVL115:
.L100:
	.loc 1 387 0
	ldr	r1, [r5, #28]
	.loc 1 385 0
	stm	sp, {r1, r3, r4}
	add	r3, r1, #48
.L176:
	.loc 1 477 0
	mov	r1, r6
	mov	r0, r8
	bl	sn_coap_parser_options_parse_multiple_options.isra.0
.LVL116:
	.loc 1 480 0
	cmp	r0, #0
	bge	.L116
	b	.L120
.LVL117:
.L98:
	.loc 1 432 0
	cmp	r4, #2
	bhi	.L120
	ldr	r3, [r5, #28]
	ldr	r2, [r3, #28]
	str	r3, [sp, #16]
	adds	r2, r2, #1
	bne	.L120
	.loc 1 435 0
	ldr	r2, [sp, #28]
	.loc 1 437 0
	uxtb	r1, r4
	.loc 1 435 0
	adds	r2, r2, #1
	.loc 1 437 0
	mov	r0, r6
	.loc 1 435 0
	str	r2, [sp, #28]
	.loc 1 437 0
	bl	sn_coap_parser_options_parse_uint
.LVL118:
	ldr	r3, [sp, #16]
	str	r0, [r3, #28]
	b	.L116
.L109:
	.loc 1 442 0
	ldr	r1, [r5, #28]
	.loc 1 441 0
	str	r3, [sp, #4]
	add	r3, r1, #8
	str	r3, [sp]
	str	r4, [sp, #8]
	add	r3, r1, #60
	b	.L176
.L103:
	.loc 1 453 0
	str	r3, [sp, #4]
	add	r3, r5, #10
	str	r3, [sp]
	str	r4, [sp, #8]
	mov	r3, fp
	b	.L176
.L101:
	.loc 1 465 0
	cmp	r4, #3
	bhi	.L120
	ldr	r3, [r5, #28]
	ldr	r2, [r3, #32]
	str	r3, [sp, #16]
	adds	r2, r2, #1
	bne	.L120
	.loc 1 469 0
	ldr	r2, [sp, #28]
	.loc 1 471 0
	uxtb	r1, r4
	.loc 1 469 0
	adds	r2, r2, #1
	.loc 1 471 0
	mov	r0, r6
	.loc 1 469 0
	str	r2, [sp, #28]
	.loc 1 471 0
	bl	sn_coap_parser_options_parse_uint
.LVL119:
	ldr	r3, [sp, #16]
	str	r0, [r3, #32]
	b	.L116
.L106:
	.loc 1 489 0
	cmp	r4, #3
	bhi	.L120
	ldr	r3, [r5, #28]
	ldr	r2, [r3, #40]
	str	r3, [sp, #16]
	adds	r2, r2, #1
	bne	.L120
	.loc 1 492 0
	ldr	r2, [sp, #28]
	.loc 1 494 0
	uxtb	r1, r4
	.loc 1 492 0
	adds	r2, r2, #1
	.loc 1 494 0
	mov	r0, r6
	.loc 1 492 0
	str	r2, [sp, #28]
	.loc 1 494 0
	bl	sn_coap_parser_options_parse_uint
.LVL120:
	ldr	r3, [sp, #16]
	str	r0, [r3, #40]
	b	.L116
.L108:
	.loc 1 509 0
	cmp	r4, #2
	bhi	.L120
	ldr	r3, [r5, #28]
	ldr	r2, [r3, #12]
	str	r3, [sp, #16]
	adds	r2, r2, #1
	bne	.L120
	.loc 1 513 0
	ldr	r2, [sp, #28]
	.loc 1 515 0
	uxtb	r1, r4
	.loc 1 513 0
	adds	r2, r2, #1
	.loc 1 515 0
	mov	r0, r6
	.loc 1 513 0
	str	r2, [sp, #28]
	.loc 1 515 0
	bl	sn_coap_parser_options_parse_uint
.LVL121:
	ldr	r3, [sp, #16]
	str	r0, [r3, #12]
	b	.L116
.L111:
	.loc 1 528 0
	cmp	r4, #4
	bhi	.L120
	ldr	r3, [r5, #28]
	ldrb	r2, [r3, #1]	@ zero_extendqisi2
	lsls	r1, r2, #30
	bmi	.L120
	.loc 1 531 0
	orr	r2, r2, #2
	strb	r2, [r3, #1]
	.loc 1 532 0
	ldr	r2, [sp, #28]
	.loc 1 533 0
	uxtb	r1, r4
	.loc 1 532 0
	adds	r2, r2, #1
	.loc 1 533 0
	mov	r0, r6
	.loc 1 531 0
	str	r3, [sp, #16]
	.loc 1 532 0
	str	r2, [sp, #28]
	.loc 1 533 0
	bl	sn_coap_parser_options_parse_uint
.LVL122:
	ldr	r3, [sp, #16]
	str	r0, [r3, #24]
	b	.L116
.LBE29:
.LBE31:
.LBE35:
	.cfi_endproc
.LFE182:
	.size	sn_coap_parser, .-sn_coap_parser
	.section	.text.sn_coap_parser_release_allocated_coap_msg_mem,"ax",%progbits
	.align	1
	.global	sn_coap_parser_release_allocated_coap_msg_mem
	.syntax unified
	.thumb
	.thumb_func
	.fpu softvfp
	.type	sn_coap_parser_release_allocated_coap_msg_mem, %function
sn_coap_parser_release_allocated_coap_msg_mem:
.LFB183:
	.loc 1 149 0
	.cfi_startproc
	@ args = 0, pretend = 0, frame = 0
	@ frame_needed = 0, uses_anonymous_args = 0
.LVL123:
	push	{r4, r5, r6, lr}
	.cfi_def_cfa_offset 16
	.cfi_offset 4, -16
	.cfi_offset 5, -12
	.cfi_offset 6, -8
	.cfi_offset 14, -4
	.loc 1 149 0
	mov	r4, r1
	.loc 1 150 0
	mov	r5, r0
	cmp	r0, #0
	beq	.L179
	.loc 1 154 0
	cmp	r1, #0
	beq	.L179
	.loc 1 155 0
	ldr	r0, [r1, #20]
.LVL124:
	cbz	r0, .L181
	.loc 1 156 0
	ldr	r3, [r5, #4]
	blx	r3
.LVL125:
.L181:
	.loc 1 159 0
	ldr	r0, [r4, #16]
	cbz	r0, .L182
	.loc 1 160 0
	ldr	r3, [r5, #4]
	blx	r3
.LVL126:
.L182:
	.loc 1 163 0
	ldr	r3, [r4, #28]
	cbz	r3, .L183
	.loc 1 164 0
	ldr	r0, [r3, #44]
	cbz	r0, .L184
	.loc 1 165 0
	ldr	r3, [r5, #4]
	blx	r3
.LVL127:
.L184:
	.loc 1 168 0
	ldr	r3, [r4, #28]
	ldr	r0, [r3, #48]
	cbz	r0, .L185
	.loc 1 169 0
	ldr	r3, [r5, #4]
	blx	r3
.LVL128:
.L185:
	.loc 1 172 0
	ldr	r3, [r4, #28]
	ldr	r0, [r3, #52]
	cbz	r0, .L186
	.loc 1 173 0
	ldr	r3, [r5, #4]
	blx	r3
.LVL129:
.L186:
	.loc 1 176 0
	ldr	r3, [r4, #28]
	ldr	r0, [r3, #56]
	cbz	r0, .L187
	.loc 1 177 0
	ldr	r3, [r5, #4]
	blx	r3
.LVL130:
.L187:
	.loc 1 180 0
	ldr	r3, [r4, #28]
	ldr	r0, [r3, #60]
	cbz	r0, .L188
	.loc 1 181 0
	ldr	r3, [r5, #4]
	blx	r3
.LVL131:
.L188:
	.loc 1 184 0
	ldr	r3, [r4, #28]
	ldr	r0, [r3, #64]
	cbz	r0, .L189
	.loc 1 185 0
	ldr	r3, [r5, #4]
	blx	r3
.LVL132:
.L189:
	.loc 1 188 0
	ldr	r3, [r5, #4]
	ldr	r0, [r4, #28]
	blx	r3
.LVL133:
.L183:
	.loc 1 191 0
	ldr	r3, [r5, #4]
	mov	r0, r4
	.loc 1 193 0
	pop	{r4, r5, r6, lr}
	.cfi_remember_state
	.cfi_restore 14
	.cfi_restore 6
	.cfi_restore 5
	.cfi_restore 4
	.cfi_def_cfa_offset 0
.LVL134:
	.loc 1 191 0
	bx	r3	@ indirect register sibling call
.LVL135:
.L179:
	.cfi_restore_state
	pop	{r4, r5, r6, pc}
	.cfi_endproc
.LFE183:
	.size	sn_coap_parser_release_allocated_coap_msg_mem, .-sn_coap_parser_release_allocated_coap_msg_mem
	.text
.Letext0:
	.file 2 "/home/ls/samba_share/sdk-ameba-v7.1d/tools/arm-none-eabi-gcc/asdk/linux/newlib/arm-none-eabi/include/machine/_default_types.h"
	.file 3 "/home/ls/samba_share/sdk-ameba-v7.1d/tools/arm-none-eabi-gcc/asdk/linux/newlib/lib/gcc/arm-none-eabi/6.5.0/include/stddef.h"
	.file 4 "/home/ls/samba_share/sdk-ameba-v7.1d/tools/arm-none-eabi-gcc/asdk/linux/newlib/arm-none-eabi/include/sys/lock.h"
	.file 5 "/home/ls/samba_share/sdk-ameba-v7.1d/tools/arm-none-eabi-gcc/asdk/linux/newlib/arm-none-eabi/include/sys/_types.h"
	.file 6 "/home/ls/samba_share/sdk-ameba-v7.1d/tools/arm-none-eabi-gcc/asdk/linux/newlib/arm-none-eabi/include/sys/reent.h"
	.file 7 "<built-in>"
	.file 8 "/home/ls/samba_share/sdk-ameba-v7.1d/tools/arm-none-eabi-gcc/asdk/linux/newlib/arm-none-eabi/include/sys/_stdint.h"
	.file 9 "/home/ls/samba_share/sdk-ameba-v7.1d/tools/arm-none-eabi-gcc/asdk/linux/newlib/arm-none-eabi/include/time.h"
	.file 10 "/home/ls/samba_share/sdk-ameba-v7.1d/tools/arm-none-eabi-gcc/asdk/linux/newlib/lib/gcc/arm-none-eabi/6.5.0/include/stdarg.h"
	.file 11 "/home/ls/samba_share/sdk-ameba-v7.1d/tools/arm-none-eabi-gcc/asdk/linux/newlib/arm-none-eabi/include/stdio.h"
	.file 12 "../../../component/common/network/coap/include/sn_coap_header.h"
	.file 13 "../../../component/common/network/coap/include/sn_coap_header_internal.h"
	.file 14 "../../../component/common/network/coap/include/ns_list.h"
	.file 15 "../inc/FreeRTOSConfig.h"
	.file 16 "../../../component/soc/realtek/8710c/cmsis/rtl8710c/include/basic_types.h"
	.file 17 "../../../component/soc/realtek/8710c/app/rtl_printf/include/log_buf.h"
	.file 18 "../../../component/soc/realtek/8710c/app/stdio_port/stdio_port.h"
	.file 19 "../../../component/soc/realtek/8710c/app/rtl_printf/include/printf_entry.h"
	.file 20 "../../../component/soc/realtek/8710c/app/rtl_printf/include/rt_printf.h"
	.file 21 "../../../component/soc/realtek/8710c/misc/utilities/include/utility.h"
	.file 22 "/home/ls/samba_share/sdk-ameba-v7.1d/tools/arm-none-eabi-gcc/asdk/linux/newlib/arm-none-eabi/include/stdlib.h"
	.file 23 "../../../component/common/drivers/wlan/realtek/src/osdep/wireless.h"
	.file 24 "../../../component/common/drivers/wlan/realtek/include/autoconf.h"
	.file 25 "../../../component/common/api/wifi/wifi_util.h"
	.file 26 "../../../component/common/network/lwip/lwip_v2.0.2/port/realtek/arch/cc.h"
	.file 27 "../../../component/common/network/lwip/lwip_v2.0.2/src/include/lwip/ip4_addr.h"
	.file 28 "../../../component/common/network/lwip/lwip_v2.0.2/src/include/lwip/ip_addr.h"
	.file 29 "../../../component/common/network/lwip/lwip_v2.0.2/src/include/lwip/inet.h"
	.file 30 "../../../component/common/network/lwip/lwip_v2.0.2/src/include/lwip/errno.h"
	.file 31 "../../../component/common/network/lwip/lwip_v2.0.2/src/include/lwip/netdb.h"
	.file 32 "../../../component/common/network/coap/include/sn_coap_protocol_internal.h"