	.arch armv8-m.main
	.arch_extension dsp
	.eabi_attribute 20, 1
	.eabi_attribute 21, 1
	.eabi_attribute 23, 3
	.eabi_attribute 24, 1
	.eabi_attribute 25, 1
	.eabi_attribute 26, 1
	.eabi_attribute 30, 4
	.eabi_attribute 34, 1
	.eabi_attribute 18, 4
	.file	"sntp.c"
	.text
.Ltext0:
	.cfi_sections	.debug_frame
	.section	.text.sntp_retry,"ax",%progbits
	.align	1
	.syntax unified
	.thumb
	.thumb_func
	.fpu softvfp
	.type	sntp_retry, %function
sntp_retry:
.LFB152:
	.file 1 "../../../component/common/network/sntp/sntp.c"
	.loc 1 420 0
	.cfi_startproc
	@ args = 0, pretend = 0, frame = 0
	@ frame_needed = 0, uses_anonymous_args = 0
.LVL0:
	push	{r4, lr}
	.cfi_def_cfa_offset 8
	.cfi_offset 4, -8
	.cfi_offset 14, -4
	.loc 1 427 0
	ldr	r4, .L3
	movs	r2, #0
	ldr	r1, .L3+4
	ldr	r0, [r4]
.LVL1:
	bl	sys_timeout
.LVL2:
.LBB3:
	.loc 1 435 0
	movw	r1, #30000
	.loc 1 433 0
	ldr	r2, [r4]
	lsls	r3, r2, #1
.LVL3:
	.loc 1 435 0
	cmp	r3, r1
	bhi	.L1
	.loc 1 435 0 is_stmt 0 discriminator 1
	cmp	r2, r3
	.loc 1 437 0 is_stmt 1 discriminator 1
	it	cc
	strcc	r3, [r4]
.L1:
	pop	{r4, pc}
.L4:
	.align	2
.L3:
	.word	.LANCHOR0
	.word	sntp_request
.LBE3:
	.cfi_endproc
.LFE152:
	.size	sntp_retry, .-sntp_retry
	.section	.text.sntp_recv,"ax",%progbits
	.align	1
	.syntax unified
	.thumb
	.thumb_func
	.fpu softvfp
	.type	sntp_recv, %function
sntp_recv:
.LFB153:
	.loc 1 479 0
	.cfi_startproc
	@ args = 4, pretend = 0, frame = 16
	@ frame_needed = 0, uses_anonymous_args = 0
.LVL4:
	push	{r0, r1, r2, r3, r4, r5, r6, lr}
	.cfi_def_cfa_offset 32
	.cfi_offset 4, -16
	.cfi_offset 5, -12
	.cfi_offset 6, -8
	.cfi_offset 14, -4
	.loc 1 479 0
	mov	r5, r2
	.loc 1 489 0
	movs	r1, #0
.LVL5:
	ldr	r0, .L12
.LVL6:
	bl	sys_untimeout
.LVL7:
	.loc 1 490 0
	movs	r1, #0
	ldr	r0, .L12+4
	bl	sys_untimeout
.LVL8:
	.loc 1 503 0
	ldrh	r3, [r5, #8]
	cmp	r3, #48
	beq	.L6
.L8:
	.loc 1 492 0
	mvn	r4, #15
.LVL9:
.L7:
	.loc 1 539 0
	mov	r0, r5
	bl	pbuf_free
.LVL10:
	.loc 1 540 0
	cmp	r4, #0
	bne	.L9
.LVL11:
	.loc 1 542 0
	movw	r2, #3000
	ldr	r3, .L12+8
.LBB6:
.LBB7:
	.loc 1 373 0
	ldr	r0, [sp, #8]
.LBE7:
.LBE6:
	.loc 1 542 0
	str	r2, [r3]
.LVL12:
.LBB11:
.LBB8:
	.loc 1 373 0
	bl	lwip_htonl
.LVL13:
	mov	r6, r0
.LVL14:
	.loc 1 376 0
	ldr	r0, [sp, #12]
.LVL15:
	bl	lwip_htonl
.LVL16:
	mov	r5, r0
.LVL17:
	.loc 1 377 0
	bl	xTaskGetTickCount
.LVL18:
	ldr	r3, .L12+12
	ldr	r2, .L12+16
	str	r0, [r3]
	.loc 1 373 0
	ldr	r3, .L12+20
.LBE8:
.LBE11:
	.loc 1 547 0
	ldr	r1, .L12+4
.LBB12:
.LBB9:
	.loc 1 373 0
	add	r3, r3, r6
	stm	r2, {r3, r4}
	.loc 1 376 0
	movw	r2, #4295
	udiv	r5, r5, r2
.LVL19:
	.loc 1 377 0
	ldr	r3, .L12+24
.LBE9:
.LBE12:
	.loc 1 547 0
	mov	r2, r4
	ldr	r0, .L12+28
.LBB13:
.LBB10:
	.loc 1 377 0
	str	r5, [r3]
	str	r4, [r3, #4]
.LVL20:
.LBE10:
.LBE13:
	.loc 1 547 0
	bl	sys_timeout
.LVL21:
.L5:
	.loc 1 557 0
	add	sp, sp, #16
	.cfi_remember_state
	.cfi_def_cfa_offset 16
	@ sp needed
	pop	{r4, r5, r6, pc}
.LVL22:
.L6:
	.cfi_restore_state
	.loc 1 504 0
	movs	r3, #0
	movs	r2, #1
	add	r1, sp, #6
	mov	r0, r5
	bl	pbuf_copy_partial
.LVL23:
	.loc 1 505 0
	ldrb	r3, [sp, #6]	@ zero_extendqisi2
	and	r3, r3, #7
	strb	r3, [sp, #6]
	.loc 1 507 0
	subs	r3, r3, #4
	cmp	r3, #1
	bhi	.L8
	.loc 1 509 0
	movs	r3, #1
	add	r1, sp, #7
	mov	r2, r3
	mov	r0, r5
	bl	pbuf_copy_partial
.LVL24:
	.loc 1 510 0
	ldrb	r3, [sp, #7]	@ zero_extendqisi2
	cbz	r3, .L11
.LVL25:
	.loc 1 529 0
	movs	r2, #8
	movs	r3, #32
	add	r1, sp, r2
	mov	r0, r5
	bl	pbuf_copy_partial
.LVL26:
	.loc 1 528 0
	movs	r4, #0
	b	.L7
.LVL27:
.L11:
	.loc 1 512 0
	movs	r4, #1
	b	.L7
.LVL28:
.L9:
	.loc 1 552 0
	movs	r0, #0
	bl	sntp_retry
.LVL29:
	.loc 1 557 0
	b	.L5
.L13:
	.align	2
.L12:
	.word	sntp_retry
	.word	sntp_request
	.word	.LANCHOR0
	.word	.LANCHOR1
	.word	.LANCHOR2
	.word	2085978496
	.word	.LANCHOR3
	.word	3600000
	.cfi_endproc
.LFE153:
	.size	sntp_recv, .-sntp_recv
	.section	.text.sntp_send_request,"ax",%progbits
	.align	1
	.syntax unified
	.thumb
	.thumb_func
	.fpu softvfp
	.type	sntp_send_request, %function
sntp_send_request:
.LFB154:
	.loc 1 565 0
	.cfi_startproc
	@ args = 0, pretend = 0, frame = 0
	@ frame_needed = 0, uses_anonymous_args = 0
.LVL30:
	.loc 1 567 0
	movs	r2, #0
	.loc 1 565 0
	push	{r4, r5, r6, lr}
	.cfi_def_cfa_offset 16
	.cfi_offset 4, -16
	.cfi_offset 5, -12
	.cfi_offset 6, -8
	.cfi_offset 14, -4
	.loc 1 567 0
	movs	r1, #48
	.loc 1 565 0
	mov	r6, r0
	.loc 1 567 0
	mov	r0, r2
.LVL31:
	bl	pbuf_alloc
.LVL32:
	.loc 1 568 0
	mov	r4, r0
	cbz	r0, .L15
.LBB20:
	.loc 1 569 0
	ldr	r5, [r0, #4]
.LVL33:
.LBB21:
.LBB22:
	.loc 1 396 0
	movs	r2, #48
	movs	r1, #0
	mov	r0, r5
.LVL34:
	bl	memset
.LVL35:
	.loc 1 397 0
	movs	r3, #35
.LBE22:
.LBE21:
	.loc 1 574 0
	ldr	r0, .L17
	mov	r2, r6
	mov	r1, r4
.LBB24:
.LBB23:
	.loc 1 397 0
	strb	r3, [r5]
.LVL36:
.LBE23:
.LBE24:
	.loc 1 574 0
	ldr	r0, [r0]
	movs	r3, #123
	bl	udp_sendto
.LVL37:
	.loc 1 576 0
	mov	r0, r4
	bl	pbuf_free
.LVL38:
	.loc 1 578 0
	movs	r2, #0
	ldr	r1, .L17+4
.LVL39:
.L16:
.LBE20:
.LBB25:
.LBB26:
	.loc 1 587 0
	movw	r0, #3000
.LBE26:
.LBE25:
	.loc 1 589 0
	pop	{r4, r5, r6, lr}
	.cfi_remember_state
	.cfi_restore 14
	.cfi_restore 6
	.cfi_restore 5
	.cfi_restore 4
	.cfi_def_cfa_offset 0
.LVL40:
.LBB28:
.LBB27:
	.loc 1 587 0
	b	sys_timeout
.LVL41:
.L15:
	.cfi_restore_state
	mov	r2, r0
	ldr	r1, .L17+8
	b	.L16
.L18:
	.align	2
.L17:
	.word	.LANCHOR4
	.word	sntp_retry
	.word	sntp_request
.LBE27:
.LBE28:
	.cfi_endproc
.LFE154:
	.size	sntp_send_request, .-sntp_send_request
	.section	.text.sntp_request,"ax",%progbits
	.align	1
	.syntax unified
	.thumb
	.thumb_func
	.fpu softvfp
	.type	sntp_request, %function
sntp_request:
.LFB156:
	.loc 1 620 0
	.cfi_startproc
	@ args = 0, pretend = 0, frame = 8
	@ frame_needed = 0, uses_anonymous_args = 0
.LVL42:
	push	{r0, r1, r2, lr}
	.cfi_def_cfa_offset 16
	.cfi_offset 14, -4
	.loc 1 628 0
	ldr	r0, .L25
.LVL43:
	movs	r3, #0
	ldr	r2, .L25+4
	add	r1, sp, #4
	ldr	r0, [r0]
	bl	dns_gethostbyname
.LVL44:
	.loc 1 630 0
	adds	r3, r0, #5
	beq	.L19
	.loc 1 641 0
	cbnz	r0, .L21
	.loc 1 642 0
	add	r0, sp, #4
.LVL45:
	bl	sntp_send_request
.LVL46:
.L19:
	.loc 1 648 0
	add	sp, sp, #12
	.cfi_remember_state
	.cfi_def_cfa_offset 4
	@ sp needed
	ldr	pc, [sp], #4
.LVL47:
.L21:
	.cfi_restore_state
	.loc 1 646 0
	movs	r2, #0
	ldr	r1, .L25+8
	movw	r0, #3000
.LVL48:
	bl	sys_timeout
.LVL49:
	b	.L19
.L26:
	.align	2
.L25:
	.word	.LANCHOR5
	.word	sntp_dns_found
	.word	sntp_retry
	.cfi_endproc
.LFE156:
	.size	sntp_request, .-sntp_request
	.section	.text.sntp_dns_found,"ax",%progbits
	.align	1
	.syntax unified
	.thumb
	.thumb_func
	.fpu softvfp
	.type	sntp_dns_found, %function
sntp_dns_found:
.LFB155:
	.loc 1 597 0
	.cfi_startproc
	@ args = 0, pretend = 0, frame = 0
	@ frame_needed = 0, uses_anonymous_args = 0
	@ link register save eliminated.
.LVL50:
	.loc 1 601 0
	mov	r0, r1
.LVL51:
	cbz	r1, .L28
	.loc 1 604 0
	b	sntp_send_request
.LVL52:
.L28:
	.loc 1 608 0
	b	sntp_retry
.LVL53:
	.cfi_endproc
.LFE155:
	.size	sntp_dns_found, .-sntp_dns_found
	.section	.text.sntp_get_lasttime,"ax",%progbits
	.align	1
	.global	sntp_get_lasttime
	.syntax unified
	.thumb
	.thumb_func
	.fpu softvfp
	.type	sntp_get_lasttime, %function
sntp_get_lasttime:
.LFB146:
	.loc 1 154 0
	.cfi_startproc
	@ args = 0, pretend = 0, frame = 0
	@ frame_needed = 0, uses_anonymous_args = 0
	@ link register save eliminated.
.LVL54:
	.loc 1 155 0
	ldr	r3, .L30
	ldr	r3, [r3]
	str	r3, [r0]
	.loc 1 156 0
	ldr	r3, .L30+4
	ldr	r3, [r3]
	str	r3, [r1]
	.loc 1 157 0
	ldr	r3, .L30+8
	ldr	r3, [r3]
	str	r3, [r2]
	bx	lr
.L31:
	.align	2
.L30:
	.word	.LANCHOR2
	.word	.LANCHOR3
	.word	.LANCHOR1
	.cfi_endproc
.LFE146:
	.size	sntp_get_lasttime, .-sntp_get_lasttime
	.section	.text.sntp_set_lasttime,"ax",%progbits
	.align	1
	.global	sntp_set_lasttime
	.syntax unified
	.thumb
	.thumb_func
	.fpu softvfp
	.type	sntp_set_lasttime, %function
sntp_set_lasttime:
.LFB147:
	.loc 1 161 0
	.cfi_startproc
	@ args = 0, pretend = 0, frame = 0
	@ frame_needed = 0, uses_anonymous_args = 0
.LVL55:
	push	{r4, r5, lr}
	.cfi_def_cfa_offset 12
	.cfi_offset 4, -12
	.cfi_offset 5, -8
	.cfi_offset 14, -4
	.loc 1 162 0
	mov	r4, r0
	asrs	r5, r0, #31
	.loc 1 163 0
	mov	r0, r1
.LVL56:
	.loc 1 162 0
	ldr	r3, .L33
	.loc 1 163 0
	asrs	r1, r1, #31
.LVL57:
	.loc 1 162 0
	strd	r4, [r3]
	.loc 1 163 0
	ldr	r3, .L33+4
	strd	r0, [r3]
	.loc 1 164 0
	ldr	r3, .L33+8
	str	r2, [r3]
	pop	{r4, r5, pc}
.LVL58:
.L34:
	.align	2
.L33:
	.word	.LANCHOR2
	.word	.LANCHOR3
	.word	.LANCHOR1
	.cfi_endproc
.LFE147:
	.size	sntp_set_lasttime, .-sntp_set_lasttime
	.section	.text.sntp_gen_system_time,"ax",%progbits
	.align	1
	.global	sntp_gen_system_time
	.syntax unified
	.thumb
	.thumb_func
	.fpu softvfp
	.type	sntp_gen_system_time, %function
sntp_gen_system_time:
.LFB148:
	.loc 1 168 0
	.cfi_startproc
	@ args = 0, pretend = 0, frame = 16
	@ frame_needed = 0, uses_anonymous_args = 0
.LVL59:
	.loc 1 170 0
	movs	r3, #0
	.loc 1 168 0
	push	{r4, r5, r6, r7, lr}
	.cfi_def_cfa_offset 20
	.cfi_offset 4, -20
	.cfi_offset 5, -16
	.cfi_offset 6, -12
	.cfi_offset 7, -8
	.cfi_offset 14, -4
	sub	sp, sp, #20
	.cfi_def_cfa_offset 40
	.loc 1 170 0
	str	r3, [sp]
	.loc 1 171 0
	str	r3, [sp, #4]
	str	r3, [sp, #8]
	str	r3, [sp, #12]
	.loc 1 168 0
	mov	r5, r1
	mov	r6, r0
	.loc 1 172 0
	bl	xTaskGetTickCount
.LVL60:
	.loc 1 174 0
	mov	r2, sp
	.loc 1 172 0
	mov	r4, r0
.LVL61:
	.loc 1 174 0
	add	r1, sp, #8
	add	r0, sp, #4
.LVL62:
	bl	sntp_get_lasttime
.LVL63:
	.loc 1 176 0
	ldr	r3, [sp]
	mov	r0, #1000
	cbz	r3, .L36
.LBB29:
	.loc 1 179 0
	subs	r4, r4, r3
.LVL64:
	udiv	r3, r4, r0
.LVL65:
	.loc 1 181 0
	ldr	r2, [sp, #4]
	.loc 1 182 0
	ldr	r1, [sp, #8]
	.loc 1 181 0
	add	r2, r2, r3
	.loc 1 180 0
	mls	r3, r0, r3, r4
.LVL66:
	.loc 1 182 0
	mla	r0, r0, r3, r1
	.loc 1 183 0
	ldr	r3, .L38
	.loc 1 182 0
	str	r0, [sp, #8]
	.loc 1 183 0
	sdiv	r0, r0, r3
	mov	r3, #3600
	add	r0, r0, r2
	mla	r0, r3, r5, r0
	.loc 1 181 0
	str	r2, [sp, #4]
	.loc 1 183 0
	str	r0, [sp, #12]
.LVL67:
.L37:
.LBE29:
	.loc 1 189 0
	add	r0, sp, #12
	bl	localtime
.LVL68:
	mov	r4, r6
	mov	r5, r0
.LVL69:
	mov	r7, r0
	ldmia	r5!, {r0, r1, r2, r3}
	stmia	r4!, {r0, r1, r2, r3}
	ldmia	r5!, {r0, r1, r2, r3}
	stmia	r4!, {r0, r1, r2, r3}
	.loc 1 191 0
	mov	r2, r0
	.loc 1 194 0
	mov	r0, r6
	.loc 1 189 0
	ldr	r3, [r5]
	.loc 1 191 0
	adds	r2, r2, #1
	.loc 1 189 0
	str	r3, [r4]
.LVL70:
	.loc 1 190 0
	ldr	r3, [r7, #20]
	.loc 1 193 0
	str	r2, [r6, #16]
	.loc 1 190 0
	addw	r3, r3, #1900
.LVL71:
	.loc 1 193 0
	str	r3, [r6, #20]
.LVL72:
	.loc 1 194 0
	add	sp, sp, #20
	.cfi_remember_state
	.cfi_def_cfa_offset 20
	@ sp needed
	pop	{r4, r5, r6, r7, pc}
.LVL73:
.L36:
	.cfi_restore_state
	.loc 1 186 0
	udiv	r4, r4, r0
.LVL74:
	str	r4, [sp, #12]
	b	.L37
.L39:
	.align	2
.L38:
	.word	1000000
	.cfi_endproc
.LFE148:
	.size	sntp_gen_system_time, .-sntp_gen_system_time
	.section	.text.sntp_set_timeserver,"ax",%progbits
	.align	1
	.global	sntp_set_timeserver
	.syntax unified
	.thumb
	.thumb_func
	.fpu softvfp
	.type	sntp_set_timeserver, %function
sntp_set_timeserver:
.LFB149:
	.loc 1 201 0
	.cfi_startproc
	@ args = 0, pretend = 0, frame = 8
	@ frame_needed = 0, uses_anonymous_args = 0
.LVL75:
	push	{r0, r1, r2, r4, r5, lr}
	.cfi_def_cfa_offset 24
	.cfi_offset 4, -12
	.cfi_offset 5, -8
	.cfi_offset 14, -4
	.loc 1 206 0
	bl	lwip_htonl
.LVL76:
	.loc 1 211 0
	ldr	r4, .L43
	.loc 1 206 0
	add	r5, sp, #8
	str	r0, [r5, #-4]!
	.loc 1 211 0
	movs	r2, #16
	movs	r1, #0
	mov	r0, r4
	bl	memset
.LVL77:
	.loc 1 212 0
	movs	r2, #16
	mov	r1, r4
	mov	r0, r5
	bl	ip4addr_ntoa_r
.LVL78:
	cbz	r0, .L42
	.loc 1 216 0
	movs	r0, #0
	.loc 1 214 0
	ldr	r3, .L43+4
	str	r4, [r3]
.L40:
	.loc 1 217 0
	add	sp, sp, #12
	.cfi_remember_state
	.cfi_def_cfa_offset 12
	@ sp needed
	pop	{r4, r5, pc}
.L42:
	.cfi_restore_state
	.loc 1 213 0
	mov	r0, #-1
	b	.L40
.L44:
	.align	2
.L43:
	.word	.LANCHOR6
	.word	.LANCHOR5
	.cfi_endproc
.LFE149:
	.size	sntp_set_timeserver, .-sntp_set_timeserver
	.section	.text.sntp_init,"ax",%progbits
	.align	1
	.global	sntp_init
	.syntax unified
	.thumb
	.thumb_func
	.fpu softvfp
	.type	sntp_init, %function
sntp_init:
.LFB157:
	.loc 1 656 0
	.cfi_startproc
	@ args = 0, pretend = 0, frame = 0
	@ frame_needed = 0, uses_anonymous_args = 0
	push	{r3, r4, r5, lr}
	.cfi_def_cfa_offset 16
	.cfi_offset 3, -16
	.cfi_offset 4, -12
	.cfi_offset 5, -8
	.cfi_offset 14, -4
	.loc 1 657 0
	ldr	r5, .L52
	ldr	r4, [r5]
	cbnz	r4, .L45
	.loc 1 658 0
	movw	r2, #3000
	ldr	r3, .L52+4
	str	r2, [r3]
	.loc 1 659 0
	bl	udp_new
.LVL79:
	str	r0, [r5]
	.loc 1 661 0
	cbz	r0, .L45
	.loc 1 662 0
	mov	r2, r4
	ldr	r1, .L52+8
	bl	udp_recv
.LVL80:
	.loc 1 666 0
	mov	r0, r4
	.loc 1 670 0
	pop	{r3, r4, r5, lr}
	.cfi_remember_state
	.cfi_restore 14
	.cfi_restore 5
	.cfi_restore 4
	.cfi_restore 3
	.cfi_def_cfa_offset 0
	.loc 1 666 0
	b	sntp_request
.LVL81:
.L45:
	.cfi_restore_state
	pop	{r3, r4, r5, pc}
.L53:
	.align	2
.L52:
	.word	.LANCHOR4
	.word	.LANCHOR0
	.word	sntp_recv
	.cfi_endproc
.LFE157:
	.size	sntp_init, .-sntp_init
	.section	.text.sntp_stop,"ax",%progbits
	.align	1
	.global	sntp_stop
	.syntax unified
	.thumb
	.thumb_func
	.fpu softvfp
	.type	sntp_stop, %function
sntp_stop:
.LFB158:
	.loc 1 677 0
	.cfi_startproc
	@ args = 0, pretend = 0, frame = 0
	@ frame_needed = 0, uses_anonymous_args = 0
	push	{r4, lr}
	.cfi_def_cfa_offset 8
	.cfi_offset 4, -8
	.cfi_offset 14, -4
	.loc 1 678 0
	ldr	r4, .L59
	ldr	r3, [r4]
	cbz	r3, .L54
	.loc 1 679 0
	movs	r1, #0
	ldr	r0, .L59+4
	bl	sys_untimeout
.LVL82:
	.loc 1 680 0
	ldr	r0, [r4]
	bl	udp_remove
.LVL83:
	.loc 1 681 0
	movs	r3, #0
	str	r3, [r4]
.L54:
	pop	{r4, pc}
.L60:
	.align	2
.L59:
	.word	.LANCHOR4
	.word	sntp_request
	.cfi_endproc
.LFE158:
	.size	sntp_stop, .-sntp_stop
	.section	.bss.sntp_pcb,"aw",%nobits
	.align	2
	.set	.LANCHOR4,. + 0
	.type	sntp_pcb, %object
	.size	sntp_pcb, 4
sntp_pcb:
	.space	4
	.section	.bss.sntp_retry_timeout,"aw",%nobits
	.align	2
	.set	.LANCHOR0,. + 0
	.type	sntp_retry_timeout, %object
	.size	sntp_retry_timeout, 4
sntp_retry_timeout:
	.space	4
	.section	.bss.sntp_update_sec,"aw",%nobits
	.align	3
	.set	.LANCHOR2,. + 0
	.type	sntp_update_sec, %object
	.size	sntp_update_sec, 8
sntp_update_sec:
	.space	8
	.section	.bss.sntp_update_tick,"aw",%nobits
	.align	2
	.set	.LANCHOR1,. + 0
	.type	sntp_update_tick, %object
	.size	sntp_update_tick, 4
sntp_update_tick:
	.space	4
	.section	.bss.sntp_update_usec,"aw",%nobits
	.align	3
	.set	.LANCHOR3,. + 0
	.type	sntp_update_usec, %object
	.size	sntp_update_usec, 8
sntp_update_usec:
	.space	8
	.section	.bss.str_addr.7760,"aw",%nobits
	.set	.LANCHOR6,. + 0
	.type	str_addr.7760, %object
	.size	str_addr.7760, 16
str_addr.7760:
	.space	16
	.section	.data.sntp_server_addresses,"aw",%progbits
	.align	2
	.set	.LANCHOR5,. + 0
	.type	sntp_server_addresses, %object
	.size	sntp_server_addresses, 4
sntp_server_addresses:
	.word	.LC0
	.section	.rodata.str1.1,"aMS",%progbits,1
.LC0:
	.ascii	"pool.ntp.org\000"
	.text
.Letext0:
	.file 2 "/home/ls/samba_share/sdk-ameba-v7.1d/tools/arm-none-eabi-gcc/asdk/linux/newlib/arm-none-eabi/include/machine/_default_types.h"
	.file 3 "/home/ls/samba_share/sdk-ameba-v7.1d/tools/arm-none-eabi-gcc/asdk/linux/newlib/lib/gcc/arm-none-eabi/6.5.0/include/stddef.h"
	.file 4 "/home/ls/samba_share/sdk-ameba-v7.1d/tools/arm-none-eabi-gcc/asdk/linux/newlib/arm-none-eabi/include/sys/lock.h"
	.file 5 "/home/ls/samba_share/sdk-ameba-v7.1d/tools/arm-none-eabi-gcc/asdk/linux/newlib/arm-none-eabi/include/sys/_types.h"
	.file 6 "/home/ls/samba_share/sdk-ameba-v7.1d/tools/arm-none-eabi-gcc/asdk/linux/newlib/arm-none-eabi/include/sys/reent.h"
	.file 7 "<built-in>"
	.file 8 "/home/ls/samba_share/sdk-ameba-v7.1d/tools/arm-none-eabi-gcc/asdk/linux/newlib/arm-none-eabi/include/sys/_stdint.h"
	.file 9 "/home/ls/samba_share/sdk-ameba-v7.1d/tools/arm-none-eabi-gcc/asdk/linux/newlib/arm-none-eabi/include/time.h"
	.file 10 "/home/ls/samba_share/sdk-ameba-v7.1d/tools/arm-none-eabi-gcc/asdk/linux/newlib/lib/gcc/arm-none-eabi/6.5.0/include/stdarg.h"
	.file 11 "/home/ls/samba_share/sdk-ameba-v7.1d/tools/arm-none-eabi-gcc/asdk/linux/newlib/arm-none-eabi/include/stdio.h"
	.file 12 "/home/ls/samba_share/sdk-ameba-v7.1d/tools/arm-none-eabi-gcc/asdk/linux/newlib/arm-none-eabi/include/stdlib.h"
	.file 13 "../../../component/soc/realtek/8710c/cmsis/rtl8710c/include/basic_types.h"
	.file 14 "../../../component/common/network/lwip/lwip_v2.0.2/port/realtek/arch/cc.h"
	.file 15 "../../../component/common/network/lwip/lwip_v2.0.2/src/include/lwip/err.h"
	.file 16 "../inc/FreeRTOSConfig.h"
	.file 17 "../../../component/soc/realtek/8710c/app/rtl_printf/include/log_buf.h"
	.file 18 "../../../component/soc/realtek/8710c/app/stdio_port/stdio_port.h"
	.file 19 "../../../component/soc/realtek/8710c/app/rtl_printf/include/printf_entry.h"
	.file 20 "../../../component/soc/realtek/8710c/app/rtl_printf/include/rt_printf.h"
	.file 21 "../../../component/soc/realtek/8710c/misc/utilities/include/utility.h"
	.file 22 "../../../component/os/freertos/freertos_v10.0.1/Source/portable/GCC/ARM_RTL8710C/portmacro.h"
	.file 23 "../../../component/common/network/lwip/lwip_v2.0.2/src/include/lwip/timeouts.h"
	.file 24 "../../../component/common/network/lwip/lwip_v2.0.2/src/include/lwip/pbuf.h"
	.file 25 "../../../component/common/network/lwip/lwip_v2.0.2/src/include/lwip/ip4_addr.h"
	.file 26 "../../../component/common/network/lwip/lwip_v2.0.2/src/include/lwip/ip_addr.h"
	.file 27 "../../../component/common/network/lwip/lwip_v2.0.2/src/include/lwip/memp.h"
	.file 28 "../../../component/common/network/lwip/lwip_v2.0.2/src/include/lwip/priv/memp_priv.h"
	.file 29 "../../../component/common/network/lwip/lwip_v2.0.2/src/include/lwip/netif.h"
	.file 30 "../../../component/common/network/lwip/lwip_v2.0.2/src/include/lwip/prot/ip4.h"
	.file 31 "../../../component/common/network/lwip/lwip_v2.0.2/src/include/lwip/ip.h"
	.file 32 "../../../component/common/network/lwip/lwip_v2.0.2/src/include/lwip/udp.h"
	.file 33 "../../../component/common/network/lwip/lwip_v2.0.2/src/include/lwip/dns.h"
	.file 34 "../../../component/common/network/lwip/lwip_v2.0.2/src/include/lwip/def.h"
	.file 35 "../../../component/os/freertos/freertos_v10.0.1/Source/include/task.h"