	.arch armv8-m.main
	.arch_extension dsp
	.eabi_attribute 20, 1
	.eabi_attribute 21, 1
	.eabi_attribute 23, 3
	.eabi_attribute 24, 1
	.eabi_attribute 25, 1
	.eabi_attribute 26, 1
	.eabi_attribute 30, 4
	.eabi_attribute 34, 1
	.eabi_attribute 18, 4
	.file	"tasks.c"
	.text
.Ltext0:
	.cfi_sections	.debug_frame
	.section	.text.prvAddNewTaskToReadyList,"ax",%progbits
	.align	1
	.syntax unified
	.thumb
	.thumb_func
	.fpu softvfp
	.type	prvAddNewTaskToReadyList, %function
prvAddNewTaskToReadyList:
.LFB149:
	.file 1 "../../../component/os/freertos/freertos_v10.0.1/Source/tasks.c"
	.loc 1 1186 0
	.cfi_startproc
	@ args = 0, pretend = 0, frame = 0
	@ frame_needed = 0, uses_anonymous_args = 0
.LVL0:
	push	{r4, r5, r6, r7, r8, lr}
	.cfi_def_cfa_offset 24
	.cfi_offset 4, -24
	.cfi_offset 5, -20
	.cfi_offset 6, -16
	.cfi_offset 7, -12
	.cfi_offset 8, -8
	.cfi_offset 14, -4
	.loc 1 1186 0
	mov	r6, r0
	.loc 1 1189 0
	bl	vPortEnterCritical
.LVL1:
	.loc 1 1191 0
	ldr	r3, .L13
	.loc 1 1192 0
	ldr	r4, .L13+4
	.loc 1 1191 0
	ldr	r2, [r3]
	ldr	r7, .L13+8
	adds	r2, r2, #1
	str	r2, [r3]
	.loc 1 1192 0
	ldr	r5, [r4]
	cmp	r5, #0
	bne	.L2
	.loc 1 1196 0
	str	r6, [r4]
	.loc 1 1198 0
	ldr	r3, [r3]
	cmp	r3, #1
	bne	.L4
.L5:
.LBB226:
.LBB227:
	.loc 1 3617 0
	adds	r0, r7, r5
	adds	r5, r5, #20
	bl	vListInitialise
.LVL2:
	.loc 1 3615 0
	cmp	r5, #220
	bne	.L5
	.loc 1 3620 0
	ldr	r8, .L13+52
	.loc 1 3621 0
	ldr	r5, .L13+12
	.loc 1 3620 0
	mov	r0, r8
	bl	vListInitialise
.LVL3:
	.loc 1 3621 0
	mov	r0, r5
	bl	vListInitialise
.LVL4:
	.loc 1 3622 0
	ldr	r0, .L13+16
	bl	vListInitialise
.LVL5:
	.loc 1 3626 0
	ldr	r0, .L13+20
	bl	vListInitialise
.LVL6:
	.loc 1 3632 0
	ldr	r0, .L13+24
	bl	vListInitialise
.LVL7:
	.loc 1 3638 0
	ldr	r3, .L13+28
	str	r8, [r3]
	.loc 1 3639 0
	ldr	r3, .L13+32
	str	r5, [r3]
.L4:
.LBE227:
.LBE226:
	.loc 1 1242 0
	movs	r0, #20
	.loc 1 1232 0
	ldr	r2, .L13+36
	ldr	r3, [r2]
	adds	r3, r3, #1
	str	r3, [r2]
	.loc 1 1242 0
	ldr	r2, .L13+40
	ldr	r3, [r6, #48]
	ldr	r1, [r2]
	mla	r0, r0, r3, r7
	cmp	r3, r1
	add	r1, r6, #8
	it	hi
	strhi	r3, [r2]
	bl	vListInsertEnd
.LVL8:
	.loc 1 1246 0
	bl	vPortExitCritical
.LVL9:
	.loc 1 1248 0
	ldr	r3, .L13+44
	ldr	r3, [r3]
	cbz	r3, .L1
	.loc 1 1252 0
	ldr	r3, [r4]
	ldr	r2, [r3, #48]
	ldr	r3, [r6, #48]
	cmp	r2, r3
	bcs	.L1
	.loc 1 1254 0
	mov	r2, #268435456
	ldr	r3, .L13+48
	str	r2, [r3]
	.syntax unified
@ 1254 "../../../component/os/freertos/freertos_v10.0.1/Source/tasks.c" 1
	dsb
@ 0 "" 2
@ 1254 "../../../component/os/freertos/freertos_v10.0.1/Source/tasks.c" 1
	isb
@ 0 "" 2
	.thumb
	.syntax unified
.L1:
	pop	{r4, r5, r6, r7, r8, pc}
.LVL10:
.L2:
	.loc 1 1215 0
	ldr	r3, .L13+44
	ldr	r3, [r3]
	cmp	r3, #0
	bne	.L4
	.loc 1 1217 0
	ldr	r3, [r4]
	ldr	r2, [r3, #48]
	ldr	r3, [r6, #48]
	cmp	r2, r3
	.loc 1 1219 0
	it	ls
	strls	r6, [r4]
	b	.L4
.L14:
	.align	2
.L13:
	.word	.LANCHOR0
	.word	.LANCHOR1
	.word	.LANCHOR2
	.word	.LANCHOR4
	.word	.LANCHOR5
	.word	.LANCHOR6
	.word	.LANCHOR7
	.word	.LANCHOR8
	.word	.LANCHOR9
	.word	.LANCHOR11
	.word	.LANCHOR12
	.word	.LANCHOR10
	.word	-536810236
	.word	.LANCHOR3
	.cfi_endproc
.LFE149:
	.size	prvAddNewTaskToReadyList, .-prvAddNewTaskToReadyList
	.section	.text.prvResetNextTaskUnblockTime,"ax",%progbits
	.align	1
	.syntax unified
	.thumb
	.thumb_func
	.fpu softvfp
	.type	prvResetNextTaskUnblockTime, %function
prvResetNextTaskUnblockTime:
.LFB184:
	.loc 1 3909 0
	.cfi_startproc
	@ args = 0, pretend = 0, frame = 0
	@ frame_needed = 0, uses_anonymous_args = 0
	@ link register save eliminated.
	.loc 1 3912 0
	ldr	r2, .L21
	ldr	r3, [r2]
	ldr	r1, [r3]
	ldr	r3, .L21+4
	cbnz	r1, .L19
	.loc 1 3918 0
	mov	r2, #-1
.L20:
.LBB230:
.LBB231:
	.loc 1 3927 0
	str	r2, [r3]
	bx	lr
.L19:
	.loc 1 3926 0
	ldr	r2, [r2]
.LVL11:
	ldr	r2, [r2, #12]
.LVL12:
	.loc 1 3927 0
	ldr	r2, [r2, #12]
.LVL13:
	ldr	r2, [r2, #8]
.LVL14:
	b	.L20
.L22:
	.align	2
.L21:
	.word	.LANCHOR8
	.word	.LANCHOR13
.LBE231:
.LBE230:
	.cfi_endproc
.LFE184:
	.size	prvResetNextTaskUnblockTime, .-prvResetNextTaskUnblockTime
	.section	.text.prvAddCurrentTaskToDelayedList,"ax",%progbits
	.align	1
	.syntax unified
	.thumb
	.thumb_func
	.fpu softvfp
	.type	prvAddCurrentTaskToDelayedList, %function
prvAddCurrentTaskToDelayedList:
.LFB198:
	.loc 1 5091 0
	.cfi_startproc
	@ args = 0, pretend = 0, frame = 0
	@ frame_needed = 0, uses_anonymous_args = 0
.LVL15:
	push	{r3, r4, r5, r6, r7, lr}
	.cfi_def_cfa_offset 24
	.cfi_offset 3, -24
	.cfi_offset 4, -20
	.cfi_offset 5, -16
	.cfi_offset 6, -12
	.cfi_offset 7, -8
	.cfi_offset 14, -4
	.loc 1 5091 0
	mov	r5, r0
	.loc 1 5093 0
	ldr	r3, .L32
	.loc 1 5106 0
	ldr	r6, .L32+4
	.loc 1 5093 0
	ldr	r4, [r3]
.LVL16:
	.loc 1 5106 0
	ldr	r0, [r6]
.LVL17:
	.loc 1 5091 0
	mov	r7, r1
	.loc 1 5106 0
	adds	r0, r0, #8
	bl	uxListRemove
.LVL18:
	.loc 1 5119 0
	adds	r3, r5, #1
	mov	r3, r6
	bne	.L24
	.loc 1 5119 0 is_stmt 0 discriminator 1
	cbz	r7, .L24
.LVL19:
.LBB234:
.LBB235:
	.loc 1 5124 0 is_stmt 1
	ldr	r1, [r6]
	ldr	r0, .L32+8
	adds	r1, r1, #8
.LBE235:
.LBE234:
	.loc 1 5199 0
	pop	{r3, r4, r5, r6, r7, lr}
	.cfi_remember_state
	.cfi_restore 14
	.cfi_restore 7
	.cfi_restore 6
	.cfi_restore 5
	.cfi_restore 4
	.cfi_restore 3
	.cfi_def_cfa_offset 0
.LVL20:
.LBB237:
.LBB236:
	.loc 1 5124 0
	b	vListInsertEnd
.LVL21:
.L24:
	.cfi_restore_state
.LBE236:
.LBE237:
	.loc 1 5134 0
	ldr	r2, [r3]
	adds	r4, r4, r5
.LVL22:
	str	r4, [r2, #8]
	.loc 1 5136 0
	bcc	.L27
	.loc 1 5140 0
	ldr	r2, .L32+12
	ldr	r0, [r2]
	ldr	r1, [r3]
	.loc 1 5199 0
	pop	{r3, r4, r5, r6, r7, lr}
	.cfi_remember_state
	.cfi_restore 14
	.cfi_restore 7
	.cfi_restore 6
	.cfi_restore 5
	.cfi_restore 4
	.cfi_restore 3
	.cfi_def_cfa_offset 0
.LVL23:
	.loc 1 5140 0
	adds	r1, r1, #8
	b	vListInsert
.LVL24:
.L27:
	.cfi_restore_state
	.loc 1 5146 0
	ldr	r2, .L32+16
	ldr	r0, [r2]
	ldr	r1, [r3]
	adds	r1, r1, #8
	bl	vListInsert
.LVL25:
	.loc 1 5151 0
	ldr	r3, .L32+20
	ldr	r2, [r3]
	cmp	r4, r2
	.loc 1 5153 0
	it	cc
	strcc	r4, [r3]
	pop	{r3, r4, r5, r6, r7, pc}
.LVL26:
.L33:
	.align	2
.L32:
	.word	.LANCHOR14
	.word	.LANCHOR1
	.word	.LANCHOR7
	.word	.LANCHOR9
	.word	.LANCHOR8
	.word	.LANCHOR13
	.cfi_endproc
.LFE198:
	.size	prvAddCurrentTaskToDelayedList, .-prvAddCurrentTaskToDelayedList
	.section	.text.prvInitialiseNewTask.isra.4,"ax",%progbits
	.align	1
	.syntax unified
	.thumb
	.thumb_func
	.fpu softvfp
	.type	prvInitialiseNewTask.isra.4, %function
prvInitialiseNewTask.isra.4:
.LFB203:
	.loc 1 981 0
	.cfi_startproc
	@ args = 12, pretend = 0, frame = 0
	@ frame_needed = 0, uses_anonymous_args = 0
.LVL27:
	push	{r4, r5, r6, r7, r8, r9, r10, lr}
	.cfi_def_cfa_offset 32
	.cfi_offset 4, -32
	.cfi_offset 5, -28
	.cfi_offset 6, -24
	.cfi_offset 7, -20
	.cfi_offset 8, -16
	.cfi_offset 9, -12
	.cfi_offset 10, -8
	.cfi_offset 14, -4
	.loc 1 981 0
	mov	r5, r1
	ldr	r4, [sp, #40]
	.loc 1 1011 0
	lsls	r6, r2, #2
	mov	r2, r6
.LVL28:
	.loc 1 981 0
	mov	r8, r0
.LVL29:
	.loc 1 1011 0
	movs	r1, #165
.LVL30:
	ldr	r0, [r4, #4]
.LVL31:
	.loc 1 981 0
	mov	r9, r3
	ldr	r7, [sp, #36]
	.loc 1 1011 0
	bl	memset
.LVL32:
	.loc 1 1021 0
	ldr	r3, [r4, #4]
	subs	r6, r6, #4
.LVL33:
	add	r6, r6, r3
.LVL34:
	.loc 1 1022 0
	bic	r6, r6, #7
.LVL35:
	subs	r3, r5, #1
	add	r2, r4, #52
	adds	r5, r5, #9
.LVL36:
.L36:
	.loc 1 1051 0
	ldrb	r1, [r3, #1]	@ zero_extendqisi2
	strb	r1, [r2], #1
	.loc 1 1056 0
	ldrb	r1, [r3, #1]!	@ zero_extendqisi2
.LVL37:
	cbz	r1, .L35
.LVL38:
	.loc 1 1049 0
	cmp	r3, r5
	bne	.L36
.LVL39:
.L35:
	ldr	r5, [sp, #32]
.LVL40:
	.loc 1 1068 0
	mov	r10, #0
	cmp	r5, #10
	it	cs
	movcs	r5, #10
.LVL41:
	.loc 1 1089 0
	add	r0, r4, #8
	.loc 1 1081 0
	str	r5, [r4, #48]
	.loc 1 1084 0
	str	r5, [r4, #64]
	.loc 1 1068 0
	strb	r10, [r4, #61]
	.loc 1 1085 0
	str	r10, [r4, #68]
	.loc 1 1089 0
	bl	vListInitialiseItem
.LVL42:
	.loc 1 1097 0
	rsb	r5, r5, #11
.LVL43:
	.loc 1 1090 0
	add	r0, r4, #28
	bl	vListInitialiseItem
.LVL44:
	.loc 1 1140 0
	str	r10, [r4, #72]
	.loc 1 1094 0
	str	r4, [r4, #20]
	.loc 1 1097 0
	str	r5, [r4, #28]
	.loc 1 1098 0
	str	r4, [r4, #40]
	.loc 1 1141 0
	strb	r10, [r4, #76]
	.loc 1 1168 0
	mov	r2, r9
	mov	r1, r8
	mov	r0, r6
	bl	pxPortInitialiseStack
.LVL45:
	str	r0, [r4]
	.loc 1 1172 0
	cbz	r7, .L34
	.loc 1 1176 0
	str	r4, [r7]
.L34:
	pop	{r4, r5, r6, r7, r8, r9, r10, pc}
	.cfi_endproc
.LFE203:
	.size	prvInitialiseNewTask.isra.4, .-prvInitialiseNewTask.isra.4
	.section	.text.prvIdleTask,"ax",%progbits
	.align	1
	.syntax unified
	.thumb
	.thumb_func
	.fpu softvfp
	.type	prvIdleTask, %function
prvIdleTask:
.LFB180:
	.loc 1 3400 0
	.cfi_startproc
	@ Volatile: function does not return.
	@ args = 0, pretend = 0, frame = 0
	@ frame_needed = 0, uses_anonymous_args = 0
.LVL46:
	push	{r7, lr}
	.cfi_def_cfa_offset 8
	.cfi_offset 7, -8
	.cfi_offset 14, -4
	.loc 1 3441 0
	ldr	r8, .L51+16
.LBB243:
.LBB244:
	.loc 1 3658 0
	ldr	r7, .L51
.LVL47:
.L49:
	.loc 1 3654 0
	ldr	r4, .L51+4
.L48:
	.loc 1 3660 0
	ldr	r6, .L51+8
.L46:
	.loc 1 3654 0
	ldr	r3, [r4]
	cbnz	r3, .L47
.LBE244:
.LBE243:
	.loc 1 3439 0
	ldr	r3, .L51+12
	ldr	r3, [r3]
	cmp	r3, #1
	bls	.L48
	.loc 1 3441 0
	mov	r3, #268435456
	str	r3, [r8]
	.syntax unified
@ 3441 "../../../component/os/freertos/freertos_v10.0.1/Source/tasks.c" 1
	dsb
@ 0 "" 2
@ 3441 "../../../component/os/freertos/freertos_v10.0.1/Source/tasks.c" 1
	isb
@ 0 "" 2
	.thumb
	.syntax unified
	b	.L49
.L47:
.LBB248:
.LBB247:
	.loc 1 3656 0
	bl	vPortEnterCritical
.LVL48:
	.loc 1 3658 0
	ldr	r3, [r7, #12]
	ldr	r5, [r3, #12]
.LVL49:
	.loc 1 3659 0
	add	r0, r5, #8
	bl	uxListRemove
.LVL50:
	.loc 1 3660 0
	ldr	r3, [r6]
	subs	r3, r3, #1
	str	r3, [r6]
	.loc 1 3661 0
	ldr	r3, [r4]
	subs	r3, r3, #1
	str	r3, [r4]
	.loc 1 3663 0
	bl	vPortExitCritical
.LVL51:
.LBB245:
.LBB246:
	.loc 1 3873 0
	ldr	r0, [r5, #4]
	bl	vPortFree
.LVL52:
	.loc 1 3874 0
	mov	r0, r5
	bl	vPortFree
.LVL53:
	b	.L46
.L52:
	.align	2
.L51:
	.word	.LANCHOR6
	.word	.LANCHOR15
	.word	.LANCHOR0
	.word	.LANCHOR2
	.word	-536810236
.LBE246:
.LBE245:
.LBE247:
.LBE248:
	.cfi_endproc
.LFE180:
	.size	prvIdleTask, .-prvIdleTask
	.section	.text.xTaskCreate,"ax",%progbits
	.align	1
	.global	xTaskCreate
	.syntax unified
	.thumb
	.thumb_func
	.fpu softvfp
	.type	xTaskCreate, %function
xTaskCreate:
.LFB146:
	.loc 1 763 0
	.cfi_startproc
	@ args = 8, pretend = 0, frame = 0
	@ frame_needed = 0, uses_anonymous_args = 0
.LVL54:
	push	{r4, r5, r6, r7, r8, r9, lr}
	.cfi_def_cfa_offset 28
	.cfi_offset 4, -28
	.cfi_offset 5, -24
	.cfi_offset 6, -20
	.cfi_offset 7, -16
	.cfi_offset 8, -12
	.cfi_offset 9, -8
	.cfi_offset 14, -4
	mov	r7, r0
	sub	sp, sp, #20
	.cfi_def_cfa_offset 48
.LBB249:
	.loc 1 797 0
	lsls	r0, r2, #2
.LVL55:
.LBE249:
	.loc 1 763 0
	mov	r8, r1
	mov	r6, r2
	mov	r9, r3
.LBB250:
	.loc 1 797 0
	bl	pvPortMalloc
.LVL56:
	.loc 1 799 0
	mov	r5, r0
	cbz	r0, .L56
	.loc 1 802 0
	movs	r0, #80
.LVL57:
	bl	pvPortMalloc
.LVL58:
	.loc 1 804 0
	mov	r4, r0
	cbz	r0, .L55
.LBE250:
	.loc 1 838 0
	ldr	r3, [sp, #52]
.LBB251:
	.loc 1 807 0
	str	r5, [r0, #4]
.LBE251:
	.loc 1 838 0
	str	r3, [sp, #4]
	ldr	r3, [sp, #48]
	str	r0, [sp, #8]
	str	r3, [sp]
	mov	r2, r6
	mov	r3, r9
	mov	r1, r8
	mov	r0, r7
.LVL59:
	bl	prvInitialiseNewTask.isra.4
.LVL60:
	.loc 1 839 0
	mov	r0, r4
	bl	prvAddNewTaskToReadyList
.LVL61:
	.loc 1 840 0
	movs	r0, #1
.LVL62:
.L53:
	.loc 1 848 0
	add	sp, sp, #20
	.cfi_remember_state
	.cfi_def_cfa_offset 28
	@ sp needed
	pop	{r4, r5, r6, r7, r8, r9, pc}
.LVL63:
.L55:
	.cfi_restore_state
.LBB252:
	.loc 1 813 0
	mov	r0, r5
.LVL64:
	bl	vPortFree
.LVL65:
.L56:
.LBE252:
	.loc 1 844 0
	mov	r0, #-1
.LVL66:
	.loc 1 847 0
	b	.L53
	.cfi_endproc
.LFE146:
	.size	xTaskCreate, .-xTaskCreate
	.section	.text.xTaskGenericCreate,"ax",%progbits
	.align	1
	.global	xTaskGenericCreate
	.syntax unified
	.thumb
	.thumb_func
	.fpu softvfp
	.type	xTaskGenericCreate, %function
xTaskGenericCreate:
.LFB147:
	.loc 1 858 0
	.cfi_startproc
	@ args = 16, pretend = 0, frame = 0
	@ frame_needed = 0, uses_anonymous_args = 0
.LVL67:
	push	{r4, r5, r6, r7, r8, r9, r10, fp, lr}
	.cfi_def_cfa_offset 36
	.cfi_offset 4, -36
	.cfi_offset 5, -32
	.cfi_offset 6, -28
	.cfi_offset 7, -24
	.cfi_offset 8, -20
	.cfi_offset 9, -16
	.cfi_offset 10, -12
	.cfi_offset 11, -8
	.cfi_offset 14, -4
	sub	sp, sp, #20
	.cfi_def_cfa_offset 56
	.loc 1 858 0
	ldr	r5, [sp, #64]
	mov	r8, r0
	mov	r9, r1
	mov	r10, r2
	mov	fp, r3
	ldr	r6, [sp, #56]
	ldr	r7, [sp, #60]
	ldr	r4, [sp, #68]
	.loc 1 862 0
	cbnz	r5, .L58
	.loc 1 862 0 is_stmt 0 discriminator 1
	cbnz	r4, .L61
	.loc 1 942 0 is_stmt 1
	add	sp, sp, #20
	.cfi_remember_state
	.cfi_def_cfa_offset 36
	@ sp needed
	pop	{r4, r5, r6, r7, r8, r9, r10, fp, lr}
	.cfi_restore 14
	.cfi_restore 11
	.cfi_restore 10
	.cfi_restore 9
	.cfi_restore 8
	.cfi_restore 7
	.cfi_restore 6
	.cfi_restore 5
	.cfi_restore 4
	.cfi_def_cfa_offset 0
.LVL68:
	.loc 1 864 0
	b	xTaskCreate
.LVL69:
.L58:
	.cfi_restore_state
.LBB253:
	.loc 1 901 0
	movs	r0, #80
.LVL70:
	bl	pvPortMalloc
.LVL71:
	.loc 1 903 0
	mov	r4, r0
	cbz	r0, .L60
	.loc 1 906 0
	str	r5, [r0, #4]
.LBE253:
	.loc 1 932 0
	mov	r3, fp
	str	r0, [sp, #8]
	mov	r2, r10
	mov	r1, r9
	mov	r0, r8
.LVL72:
	stm	sp, {r6, r7}
	bl	prvInitialiseNewTask.isra.4
.LVL73:
	.loc 1 933 0
	mov	r0, r4
	bl	prvAddNewTaskToReadyList
.LVL74:
	.loc 1 934 0
	movs	r0, #1
.LVL75:
.L57:
	.loc 1 942 0
	add	sp, sp, #20
	.cfi_remember_state
	.cfi_def_cfa_offset 36
	@ sp needed
	pop	{r4, r5, r6, r7, r8, r9, r10, fp, pc}
.LVL76:
.L60:
	.cfi_restore_state
.LBB254:
	.loc 1 912 0
	mov	r0, r5
.LVL77:
	bl	vPortFree
.LVL78:
.L61:
.LBE254:
	.loc 1 938 0
	mov	r0, #-1
	b	.L57
	.cfi_endproc
.LFE147:
	.size	xTaskGenericCreate, .-xTaskGenericCreate
	.section	.text.uxTaskPriorityGet,"ax",%progbits
	.align	1
	.global	uxTaskPriorityGet
	.syntax unified
	.thumb
	.thumb_func
	.fpu softvfp
	.type	uxTaskPriorityGet, %function
uxTaskPriorityGet:
.LFB154:
	.loc 1 1563 0
	.cfi_startproc
	@ args = 0, pretend = 0, frame = 0
	@ frame_needed = 0, uses_anonymous_args = 0
.LVL79:
	push	{r4, lr}
	.cfi_def_cfa_offset 8
	.cfi_offset 4, -8
	.cfi_offset 14, -4
	.loc 1 1563 0
	mov	r4, r0
	.loc 1 1567 0
	bl	vPortEnterCritical
.LVL80:
	.loc 1 1571 0
	cbnz	r4, .L63
	.loc 1 1571 0 is_stmt 0 discriminator 1
	ldr	r3, .L65
	ldr	r4, [r3]
.LVL81:
.L63:
	.loc 1 1572 0 is_stmt 1 discriminator 4
	ldr	r4, [r4, #48]
.LVL82:
	.loc 1 1574 0 discriminator 4
	bl	vPortExitCritical
.LVL83:
	.loc 1 1577 0 discriminator 4
	mov	r0, r4
	pop	{r4, pc}
.LVL84:
.L66:
	.align	2
.L65:
	.word	.LANCHOR1
	.cfi_endproc
.LFE154:
	.size	uxTaskPriorityGet, .-uxTaskPriorityGet
	.section	.text.uxTaskPriorityGetFromISR,"ax",%progbits
	.align	1
	.global	uxTaskPriorityGetFromISR
	.syntax unified
	.thumb
	.thumb_func
	.fpu softvfp
	.type	uxTaskPriorityGetFromISR, %function
uxTaskPriorityGetFromISR:
.LFB155:
	.loc 1 1585 0
	.cfi_startproc
	@ args = 0, pretend = 0, frame = 0
	@ frame_needed = 0, uses_anonymous_args = 0
.LVL85:
	push	{r4, lr}
	.cfi_def_cfa_offset 8
	.cfi_offset 4, -8
	.cfi_offset 14, -4
	.loc 1 1585 0
	mov	r4, r0
	.loc 1 1605 0
	bl	vPortValidateInterruptPriority
.LVL86:
.LBB255:
.LBB256:
	.file 2 "../../../component/os/freertos/freertos_v10.0.1/Source/portable/GCC/ARM_RTL8710C/portmacro.h"
	.loc 2 213 0
	.syntax unified
@ 213 "../../../component/os/freertos/freertos_v10.0.1/Source/portable/GCC/ARM_RTL8710C/portmacro.h" 1
		mrs r3, basepri											
	mov r2, #64												
	cpsid i													
	msr basepri, r2											
	isb														
	dsb														
	cpsie i													

@ 0 "" 2
	.thumb
	.syntax unified
.LBE256:
.LBE255:
	.loc 1 1611 0
	cbnz	r4, .L68
	.loc 1 1611 0 is_stmt 0 discriminator 1
	ldr	r2, .L70
	ldr	r4, [r2]
.LVL87:
.L68:
	.loc 1 1612 0 is_stmt 1 discriminator 4
	ldr	r0, [r4, #48]
.LVL88:
.LBB257:
.LBB258:
	.loc 2 233 0 discriminator 4
	.syntax unified
@ 233 "../../../component/os/freertos/freertos_v10.0.1/Source/portable/GCC/ARM_RTL8710C/portmacro.h" 1
		msr basepri, r3	
@ 0 "" 2
.LVL89:
	.thumb
	.syntax unified
.LBE258:
.LBE257:
	.loc 1 1617 0 discriminator 4
	pop	{r4, pc}
.LVL90:
.L71:
	.align	2
.L70:
	.word	.LANCHOR1
	.cfi_endproc
.LFE155:
	.size	uxTaskPriorityGetFromISR, .-uxTaskPriorityGetFromISR
	.section	.text.vTaskEndScheduler,"ax",%progbits
	.align	1
	.global	vTaskEndScheduler
	.syntax unified
	.thumb
	.thumb_func
	.fpu softvfp
	.type	vTaskEndScheduler, %function
vTaskEndScheduler:
.LFB161:
	.loc 1 2184 0
	.cfi_startproc
	@ args = 0, pretend = 0, frame = 0
	@ frame_needed = 0, uses_anonymous_args = 0
	@ link register save eliminated.
.LBB259:
.LBB260:
	.loc 2 195 0
	.syntax unified
@ 195 "../../../component/os/freertos/freertos_v10.0.1/Source/portable/GCC/ARM_RTL8710C/portmacro.h" 1
		mov r3, #64												
	cpsid i													
	msr basepri, r3											
	isb														
	dsb														
	cpsie i													

@ 0 "" 2
	.thumb
	.syntax unified
.LBE260:
.LBE259:
	.loc 1 2189 0
	movs	r2, #0
	ldr	r3, .L73
	str	r2, [r3]
	.loc 1 2190 0
	b	vPortEndScheduler
.LVL91:
.L74:
	.align	2
.L73:
	.word	.LANCHOR10
	.cfi_endproc
.LFE161:
	.size	vTaskEndScheduler, .-vTaskEndScheduler
	.section	.text.vTaskSuspendAll,"ax",%progbits
	.align	1
	.global	vTaskSuspendAll
	.syntax unified
	.thumb
	.thumb_func
	.fpu softvfp
	.type	vTaskSuspendAll, %function
vTaskSuspendAll:
.LFB162:
	.loc 1 2195 0
	.cfi_startproc
	@ args = 0, pretend = 0, frame = 0
	@ frame_needed = 0, uses_anonymous_args = 0
	@ link register save eliminated.
	.loc 1 2200 0
	ldr	r2, .L76
	ldr	r3, [r2]
	adds	r3, r3, #1
	str	r3, [r2]
	bx	lr
.L77:
	.align	2
.L76:
	.word	.LANCHOR16
	.cfi_endproc
.LFE162:
	.size	vTaskSuspendAll, .-vTaskSuspendAll
	.section	.text.xTaskGetTickCount,"ax",%progbits
	.align	1
	.global	xTaskGetTickCount
	.syntax unified
	.thumb
	.thumb_func
	.fpu softvfp
	.type	xTaskGetTickCount, %function
xTaskGetTickCount:
.LFB164:
	.loc 1 2385 0
	.cfi_startproc
	@ args = 0, pretend = 0, frame = 0
	@ frame_needed = 0, uses_anonymous_args = 0
	@ link register save eliminated.
	.loc 1 2391 0
	ldr	r3, .L79
	ldr	r0, [r3]
.LVL92:
	.loc 1 2396 0
	bx	lr
.L80:
	.align	2
.L79:
	.word	.LANCHOR14
	.cfi_endproc
.LFE164:
	.size	xTaskGetTickCount, .-xTaskGetTickCount
	.section	.text.xTaskGetTickCountFromISR,"ax",%progbits
	.align	1
	.global	xTaskGetTickCountFromISR
	.syntax unified
	.thumb
	.thumb_func
	.fpu softvfp
	.type	xTaskGetTickCountFromISR, %function
xTaskGetTickCountFromISR:
.LFB165:
	.loc 1 2400 0
	.cfi_startproc
	@ args = 0, pretend = 0, frame = 0
	@ frame_needed = 0, uses_anonymous_args = 0
	push	{r3, lr}
	.cfi_def_cfa_offset 8
	.cfi_offset 3, -8
	.cfi_offset 14, -4
	.loc 1 2418 0
	bl	vPortValidateInterruptPriority
.LVL93:
	.loc 1 2422 0
	ldr	r3, .L82
	ldr	r0, [r3]
.LVL94:
	.loc 1 2427 0
	pop	{r3, pc}
.L83:
	.align	2
.L82:
	.word	.LANCHOR14
	.cfi_endproc
.LFE165:
	.size	xTaskGetTickCountFromISR, .-xTaskGetTickCountFromISR
	.section	.text.uxTaskGetNumberOfTasks,"ax",%progbits
	.align	1
	.global	uxTaskGetNumberOfTasks
	.syntax unified
	.thumb
	.thumb_func
	.fpu softvfp
	.type	uxTaskGetNumberOfTasks, %function
uxTaskGetNumberOfTasks:
.LFB166:
	.loc 1 2431 0
	.cfi_startproc
	@ args = 0, pretend = 0, frame = 0
	@ frame_needed = 0, uses_anonymous_args = 0
	@ link register save eliminated.
	.loc 1 2434 0
	ldr	r3, .L85
	ldr	r0, [r3]
	.loc 1 2435 0
	bx	lr
.L86:
	.align	2
.L85:
	.word	.LANCHOR0
	.cfi_endproc
.LFE166:
	.size	uxTaskGetNumberOfTasks, .-uxTaskGetNumberOfTasks
	.section	.text.vTaskIncTick,"ax",%progbits
	.align	1
	.global	vTaskIncTick
	.syntax unified
	.thumb
	.thumb_func
	.fpu softvfp
	.type	vTaskIncTick, %function
vTaskIncTick:
.LFB168:
	.loc 1 2682 0
	.cfi_startproc
	@ args = 0, pretend = 0, frame = 0
	@ frame_needed = 0, uses_anonymous_args = 0
	@ link register save eliminated.
.LVL95:
	.loc 1 2683 0
	ldr	r2, .L88
	ldr	r3, [r2]
	add	r0, r0, r3
.LVL96:
	str	r0, [r2]
	bx	lr
.L89:
	.align	2
.L88:
	.word	.LANCHOR14
	.cfi_endproc
.LFE168:
	.size	vTaskIncTick, .-vTaskIncTick
	.section	.text.vTaskInternalSetTimeOutState,"ax",%progbits
	.align	1
	.global	vTaskInternalSetTimeOutState
	.syntax unified
	.thumb
	.thumb_func
	.fpu softvfp
	.type	vTaskInternalSetTimeOutState, %function
vTaskInternalSetTimeOutState:
.LFB177:
	.loc 1 3274 0
	.cfi_startproc
	@ args = 0, pretend = 0, frame = 0
	@ frame_needed = 0, uses_anonymous_args = 0
	@ link register save eliminated.
.LVL97:
	.loc 1 3276 0
	ldr	r3, .L91
	ldr	r3, [r3]
	str	r3, [r0]
	.loc 1 3277 0
	ldr	r3, .L91+4
	ldr	r3, [r3]
	str	r3, [r0, #4]
	bx	lr
.L92:
	.align	2
.L91:
	.word	.LANCHOR17
	.word	.LANCHOR14
	.cfi_endproc
.LFE177:
	.size	vTaskInternalSetTimeOutState, .-vTaskInternalSetTimeOutState
	.section	.text.vTaskMissedYield,"ax",%progbits
	.align	1
	.global	vTaskMissedYield
	.syntax unified
	.thumb
	.thumb_func
	.fpu softvfp
	.type	vTaskMissedYield, %function
vTaskMissedYield:
.LFB179:
	.loc 1 3345 0
	.cfi_startproc
	@ args = 0, pretend = 0, frame = 0
	@ frame_needed = 0, uses_anonymous_args = 0
	@ link register save eliminated.
	.loc 1 3346 0
	movs	r2, #1
	ldr	r3, .L94
	str	r2, [r3]
	bx	lr
.L95:
	.align	2
.L94:
	.word	.LANCHOR18
	.cfi_endproc
.LFE179:
	.size	vTaskMissedYield, .-vTaskMissedYield
	.section	.text.xTaskGetCurrentTaskHandle,"ax",%progbits
	.align	1
	.global	xTaskGetCurrentTaskHandle
	.syntax unified
	.thumb
	.thumb_func
	.fpu softvfp
	.type	xTaskGetCurrentTaskHandle, %function
xTaskGetCurrentTaskHandle:
.LFB185:
	.loc 1 3935 0
	.cfi_startproc
	@ args = 0, pretend = 0, frame = 0
	@ frame_needed = 0, uses_anonymous_args = 0
	@ link register save eliminated.
	.loc 1 3941 0
	ldr	r3, .L97
	ldr	r0, [r3]
.LVL98:
	.loc 1 3944 0
	bx	lr
.L98:
	.align	2
.L97:
	.word	.LANCHOR1
	.cfi_endproc
.LFE185:
	.size	xTaskGetCurrentTaskHandle, .-xTaskGetCurrentTaskHandle
	.section	.text.xTaskGetSchedulerState,"ax",%progbits
	.align	1
	.global	xTaskGetSchedulerState
	.syntax unified
	.thumb
	.thumb_func
	.fpu softvfp
	.type	xTaskGetSchedulerState, %function
xTaskGetSchedulerState:
.LFB186:
	.loc 1 3952 0
	.cfi_startproc
	@ args = 0, pretend = 0, frame = 0
	@ frame_needed = 0, uses_anonymous_args = 0
	@ link register save eliminated.
	.loc 1 3955 0
	ldr	r3, .L103
	ldr	r3, [r3]
	cbz	r3, .L101
.LBB263:
	.loc 1 3961 0
	ldr	r3, .L103+4
	ldr	r3, [r3]
	cmp	r3, #0
	.loc 1 3967 0
	ite	eq
	moveq	r0, #2
	movne	r0, #0
	bx	lr
.L101:
.LBE263:
	.loc 1 3957 0
	movs	r0, #1
	.loc 1 3972 0
	bx	lr
.L104:
	.align	2
.L103:
	.word	.LANCHOR10
	.word	.LANCHOR16
	.cfi_endproc
.LFE186:
	.size	xTaskGetSchedulerState, .-xTaskGetSchedulerState
	.section	.text.pcTaskGetName,"ax",%progbits
	.align	1
	.global	pcTaskGetName
	.syntax unified
	.thumb
	.thumb_func
	.fpu softvfp
	.type	pcTaskGetName, %function
pcTaskGetName:
.LFB167:
	.loc 1 2439 0
	.cfi_startproc
	@ args = 0, pretend = 0, frame = 0
	@ frame_needed = 0, uses_anonymous_args = 0
.LVL99:
	push	{r4, lr}
	.cfi_def_cfa_offset 8
	.cfi_offset 4, -8
	.cfi_offset 14, -4
	.loc 1 2444 0
	cbnz	r0, .L106
	.loc 1 2444 0 is_stmt 0 discriminator 1
	ldr	r3, .L115
	ldr	r0, [r3]
.LVL100:
	.loc 1 2445 0 is_stmt 1 discriminator 1
	cbnz	r0, .L106
.LVL101:
.LBB271:
.LBB272:
.LBB273:
.LBB274:
.LBB275:
	.file 3 "../../../component/soc/realtek/8710c/cmsis/cmsis-core/include/cmsis_gcc.h"
	.loc 3 209 0
	.syntax unified
@ 209 "../../../component/soc/realtek/8710c/cmsis/cmsis-core/include/cmsis_gcc.h" 1
	MRS r2, ipsr
@ 0 "" 2
	.thumb
	.syntax unified
.LBE275:
.LBE274:
	.loc 1 2445 0
	cbz	r2, .L107
.LVL102:
.L109:
	ldr	r1, .L115+4
.LVL103:
.L108:
	.loc 1 2445 0
	ldr	r4, .L115+8
	ldr	r3, .L115+12
	movw	r2, #2445
	ldr	r4, [r4, #28]
	ldr	r0, .L115+16
	blx	r4
.LVL104:
.LBB276:
.LBB277:
	.loc 2 195 0
	.syntax unified
@ 195 "../../../component/os/freertos/freertos_v10.0.1/Source/portable/GCC/ARM_RTL8710C/portmacro.h" 1
		mov r3, #64												
	cpsid i													
	msr basepri, r3											
	isb														
	dsb														
	cpsie i													

@ 0 "" 2
.LVL105:
	.thumb
	.syntax unified
.L110:
	b	.L110
.LVL106:
.L107:
.LBE277:
.LBE276:
	.loc 1 2445 0
	bl	xTaskGetSchedulerState
.LVL107:
	cmp	r0, #1
	beq	.L109
	mov	r0, r2
	bl	pcTaskGetName
.LVL108:
	mov	r1, r0
.LVL109:
	b	.L108
.LVL110:
.L106:
.LBE273:
.LBE272:
.LBE271:
	.loc 1 2447 0
	adds	r0, r0, #52
.LVL111:
	pop	{r4, pc}
.L116:
	.align	2
.L115:
	.word	.LANCHOR1
	.word	.LC0
	.word	stdio_printf_stubs
	.word	.LC1
	.word	.LC2
	.cfi_endproc
.LFE167:
	.size	pcTaskGetName, .-pcTaskGetName
	.section	.text.vTaskDelete,"ax",%progbits
	.align	1
	.global	vTaskDelete
	.syntax unified
	.thumb
	.thumb_func
	.fpu softvfp
	.type	vTaskDelete, %function
vTaskDelete:
.LFB150:
	.loc 1 1271 0
	.cfi_startproc
	@ args = 0, pretend = 0, frame = 0
	@ frame_needed = 0, uses_anonymous_args = 0
.LVL112:
	push	{r4, r5, r6, lr}
	.cfi_def_cfa_offset 16
	.cfi_offset 4, -16
	.cfi_offset 5, -12
	.cfi_offset 6, -8
	.cfi_offset 14, -4
	.loc 1 1271 0
	mov	r4, r0
	ldr	r5, .L138
	.loc 1 1274 0
	bl	vPortEnterCritical
.LVL113:
	.loc 1 1278 0
	cbnz	r4, .L118
	.loc 1 1278 0 is_stmt 0 discriminator 1
	ldr	r4, [r5]
.LVL114:
.L118:
	.loc 1 1281 0 is_stmt 1 discriminator 4
	add	r6, r4, #8
	mov	r0, r6
	bl	uxListRemove
.LVL115:
	.loc 1 1291 0 discriminator 4
	ldr	r3, [r4, #44]
	cbz	r3, .L119
	.loc 1 1293 0
	add	r0, r4, #28
	bl	uxListRemove
.LVL116:
.L119:
	.loc 1 1304 0
	ldr	r2, .L138+4
	ldr	r3, [r2]
	adds	r3, r3, #1
	str	r3, [r2]
	.loc 1 1306 0
	ldr	r3, [r5]
	cmp	r4, r3
	bne	.L120
	.loc 1 1313 0
	mov	r1, r6
	ldr	r0, .L138+8
	bl	vListInsertEnd
.LVL117:
	.loc 1 1318 0
	ldr	r2, .L138+12
	ldr	r3, [r2]
	adds	r3, r3, #1
	str	r3, [r2]
.L121:
	.loc 1 1339 0
	bl	vPortExitCritical
.LVL118:
	.loc 1 1343 0
	ldr	r3, .L138+16
	ldr	r3, [r3]
	cmp	r3, #0
	beq	.L117
	.loc 1 1345 0
	ldr	r3, [r5]
	cmp	r4, r3
	bne	.L117
	.loc 1 1347 0
	ldr	r3, .L138+20
	ldr	r3, [r3]
	cbz	r3, .L123
.LVL119:
.LBB285:
.LBB286:
.LBB287:
	.loc 3 209 0 discriminator 1
	.syntax unified
@ 209 "../../../component/soc/realtek/8710c/cmsis/cmsis-core/include/cmsis_gcc.h" 1
	MRS r2, ipsr
@ 0 "" 2
	.thumb
	.syntax unified
.LBE287:
.LBE286:
	.loc 1 1347 0 discriminator 1
	cbz	r2, .L124
.L126:
	.loc 1 1347 0 is_stmt 0
	ldr	r1, .L138+24
.LVL120:
.L125:
	.loc 1 1347 0 is_stmt 1 discriminator 6
	ldr	r4, .L138+28
.LVL121:
	ldr	r3, .L138+32
	movw	r2, #1347
	ldr	r4, [r4, #28]
	ldr	r0, .L138+36
	blx	r4
.LVL122:
.LBB288:
.LBB289:
	.loc 2 195 0 discriminator 6
	.syntax unified
@ 195 "../../../component/os/freertos/freertos_v10.0.1/Source/portable/GCC/ARM_RTL8710C/portmacro.h" 1
		mov r3, #64												
	cpsid i													
	msr basepri, r3											
	isb														
	dsb														
	cpsie i													

@ 0 "" 2
.LVL123:
	.thumb
	.syntax unified
.L127:
	b	.L127
.LVL124:
.L120:
.LBE289:
.LBE288:
.LBE285:
	.loc 1 1329 0
	ldr	r2, .L138+40
.LBB290:
.LBB291:
	.loc 1 3873 0
	ldr	r0, [r4, #4]
.LBE291:
.LBE290:
	.loc 1 1329 0
	ldr	r3, [r2]
	subs	r3, r3, #1
	str	r3, [r2]
.LVL125:
.LBB293:
.LBB292:
	.loc 1 3873 0
	bl	vPortFree
.LVL126:
	.loc 1 3874 0
	mov	r0, r4
	bl	vPortFree
.LVL127:
.LBE292:
.LBE293:
	.loc 1 1334 0
	bl	prvResetNextTaskUnblockTime
.LVL128:
	b	.L121
.LVL129:
.L124:
.LBB294:
	.loc 1 1347 0 discriminator 2
	bl	xTaskGetSchedulerState
.LVL130:
	cmp	r0, #1
	beq	.L126
	.loc 1 1347 0 is_stmt 0 discriminator 4
	mov	r0, r2
	bl	pcTaskGetName
.LVL131:
	mov	r1, r0
.LVL132:
	b	.L125
.LVL133:
.L123:
.LBE294:
	.loc 1 1348 0 is_stmt 1
	mov	r2, #268435456
	ldr	r3, .L138+44
	str	r2, [r3]
	.syntax unified
@ 1348 "../../../component/os/freertos/freertos_v10.0.1/Source/tasks.c" 1
	dsb
@ 0 "" 2
@ 1348 "../../../component/os/freertos/freertos_v10.0.1/Source/tasks.c" 1
	isb
@ 0 "" 2
	.thumb
	.syntax unified
.L117:
	pop	{r4, r5, r6, pc}
.LVL134:
.L139:
	.align	2
.L138:
	.word	.LANCHOR1
	.word	.LANCHOR11
	.word	.LANCHOR6
	.word	.LANCHOR15
	.word	.LANCHOR10
	.word	.LANCHOR16
	.word	.LC0
	.word	stdio_printf_stubs
	.word	.LC1
	.word	.LC3
	.word	.LANCHOR0
	.word	-536810236
	.cfi_endproc
.LFE150:
	.size	vTaskDelete, .-vTaskDelete
	.section	.text.eTaskGetState,"ax",%progbits
	.align	1
	.global	eTaskGetState
	.syntax unified
	.thumb
	.thumb_func
	.fpu softvfp
	.type	eTaskGetState, %function
eTaskGetState:
.LFB153:
	.loc 1 1492 0
	.cfi_startproc
	@ args = 0, pretend = 0, frame = 0
	@ frame_needed = 0, uses_anonymous_args = 0
.LVL135:
	push	{r3, r4, r5, lr}
	.cfi_def_cfa_offset 16
	.cfi_offset 3, -16
	.cfi_offset 4, -12
	.cfi_offset 5, -8
	.cfi_offset 14, -4
	.loc 1 1497 0
	mov	r5, r0
	cbnz	r0, .L141
.LVL136:
.LBB295:
.LBB296:
.LBB297:
	.loc 3 209 0 discriminator 1
	.syntax unified
@ 209 "../../../component/soc/realtek/8710c/cmsis/cmsis-core/include/cmsis_gcc.h" 1
	MRS r2, ipsr
@ 0 "" 2
	.thumb
	.syntax unified
.LBE297:
.LBE296:
	.loc 1 1497 0 discriminator 1
	cbz	r2, .L142
.LVL137:
.L144:
	.loc 1 1497 0 is_stmt 0
	ldr	r1, .L157
.LVL138:
.L143:
	.loc 1 1497 0 is_stmt 1 discriminator 6
	ldr	r4, .L157+4
	ldr	r3, .L157+8
	movw	r2, #1497
	ldr	r4, [r4, #28]
	ldr	r0, .L157+12
	blx	r4
.LVL139:
.LBB298:
.LBB299:
	.loc 2 195 0 discriminator 6
	.syntax unified
@ 195 "../../../component/os/freertos/freertos_v10.0.1/Source/portable/GCC/ARM_RTL8710C/portmacro.h" 1
		mov r3, #64												
	cpsid i													
	msr basepri, r3											
	isb														
	dsb														
	cpsie i													

@ 0 "" 2
.LVL140:
	.thumb
	.syntax unified
.L145:
	b	.L145
.LVL141:
.L142:
.LBE299:
.LBE298:
	.loc 1 1497 0 discriminator 2
	bl	xTaskGetSchedulerState
.LVL142:
	cmp	r0, #1
	beq	.L144
	.loc 1 1497 0 is_stmt 0 discriminator 4
	mov	r0, r2
	bl	pcTaskGetName
.LVL143:
	mov	r1, r0
.LVL144:
	b	.L143
.LVL145:
.L141:
.LBE295:
	.loc 1 1499 0 is_stmt 1
	ldr	r3, .L157+16
	ldr	r3, [r3]
	cmp	r0, r3
	beq	.L148
	.loc 1 1506 0
	bl	vPortEnterCritical
.LVL146:
	.loc 1 1508 0
	ldr	r4, [r5, #24]
.LVL147:
	.loc 1 1510 0
	bl	vPortExitCritical
.LVL148:
	.loc 1 1512 0
	ldr	r3, .L157+20
	ldr	r3, [r3]
	cmp	r4, r3
	beq	.L150
	.loc 1 1512 0 is_stmt 0 discriminator 1
	ldr	r3, .L157+24
	ldr	r3, [r3]
	cmp	r4, r3
	beq	.L150
	.loc 1 1520 0 is_stmt 1
	ldr	r3, .L157+28
	cmp	r4, r3
	bne	.L147
	.loc 1 1525 0
	ldr	r3, [r5, #44]
	.loc 1 1527 0
	cmp	r3, #0
	ite	ne
	movne	r0, #2
	moveq	r0, #3
	pop	{r3, r4, r5, pc}
.LVL149:
.L147:
	.loc 1 1537 0
	ldr	r3, .L157+32
	cmp	r4, r3
	beq	.L152
	.loc 1 1550 0 discriminator 1
	cmp	r4, #0
	ite	eq
	moveq	r0, #4
	movne	r0, #1
	pop	{r3, r4, r5, pc}
.LVL150:
.L148:
	.loc 1 1502 0
	movs	r0, #0
.LVL151:
	pop	{r3, r4, r5, pc}
.LVL152:
.L150:
	.loc 1 1531 0
	movs	r0, #2
	pop	{r3, r4, r5, pc}
.LVL153:
.L152:
	.loc 1 1542 0
	movs	r0, #4
.LVL154:
	.loc 1 1555 0
	pop	{r3, r4, r5, pc}
.LVL155:
.L158:
	.align	2
.L157:
	.word	.LC0
	.word	stdio_printf_stubs
	.word	.LC1
	.word	.LC2
	.word	.LANCHOR1
	.word	.LANCHOR8
	.word	.LANCHOR9
	.word	.LANCHOR7
	.word	.LANCHOR6
	.cfi_endproc
.LFE153:
	.size	eTaskGetState, .-eTaskGetState
	.section	.text.vTaskPrioritySet,"ax",%progbits
	.align	1
	.global	vTaskPrioritySet
	.syntax unified
	.thumb
	.thumb_func
	.fpu softvfp
	.type	vTaskPrioritySet, %function
vTaskPrioritySet:
.LFB156:
	.loc 1 1625 0
	.cfi_startproc
	@ args = 0, pretend = 0, frame = 0
	@ frame_needed = 0, uses_anonymous_args = 0
.LVL156:
	.loc 1 1630 0
	cmp	r1, #10
	.loc 1 1625 0
	push	{r3, r4, r5, r6, r7, lr}
	.cfi_def_cfa_offset 24
	.cfi_offset 3, -24
	.cfi_offset 4, -20
	.cfi_offset 5, -16
	.cfi_offset 6, -12
	.cfi_offset 7, -8
	.cfi_offset 14, -4
	.loc 1 1625 0
	mov	r4, r0
	mov	r5, r1
	.loc 1 1630 0
	bls	.L160
.LVL157:
.LBB300:
.LBB301:
.LBB302:
	.loc 3 209 0 discriminator 1
	.syntax unified
@ 209 "../../../component/soc/realtek/8710c/cmsis/cmsis-core/include/cmsis_gcc.h" 1
	MRS r2, ipsr
@ 0 "" 2
	.thumb
	.syntax unified
.LBE302:
.LBE301:
	.loc 1 1630 0 discriminator 1
	cbz	r2, .L161
.LVL158:
.L163:
	.loc 1 1630 0 is_stmt 0
	ldr	r1, .L185
.LVL159:
.L162:
	.loc 1 1630 0 is_stmt 1 discriminator 6
	ldr	r4, .L185+4
.LVL160:
	ldr	r3, .L185+8
	movw	r2, #1630
	ldr	r4, [r4, #28]
	ldr	r0, .L185+12
	blx	r4
.LVL161:
.LBB303:
.LBB304:
	.loc 2 195 0 discriminator 6
	.syntax unified
@ 195 "../../../component/os/freertos/freertos_v10.0.1/Source/portable/GCC/ARM_RTL8710C/portmacro.h" 1
		mov r3, #64												
	cpsid i													
	msr basepri, r3											
	isb														
	dsb														
	cpsie i													

@ 0 "" 2
.LVL162:
	.thumb
	.syntax unified
.L164:
	b	.L164
.LVL163:
.L161:
.LBE304:
.LBE303:
	.loc 1 1630 0 discriminator 2
	bl	xTaskGetSchedulerState
.LVL164:
	cmp	r0, #1
	beq	.L163
	.loc 1 1630 0 is_stmt 0 discriminator 4
	mov	r0, r2
	bl	pcTaskGetName
.LVL165:
	mov	r1, r0
.LVL166:
	b	.L162
.LVL167:
.L160:
.LBE300:
	.loc 1 1642 0 is_stmt 1
	bl	vPortEnterCritical
.LVL168:
	.loc 1 1646 0
	cbnz	r4, .L165
	.loc 1 1646 0 is_stmt 0 discriminator 1
	ldr	r3, .L185+16
	ldr	r4, [r3]
.LVL169:
.L165:
	.loc 1 1652 0 is_stmt 1 discriminator 4
	ldr	r2, [r4, #64]
.LVL170:
	.loc 1 1660 0 discriminator 4
	cmp	r5, r2
	beq	.L167
	ldr	r3, .L185+16
	.loc 1 1664 0
	bls	.L168
	.loc 1 1666 0
	ldr	r1, [r3]
	cmp	r4, r1
	beq	.L178
	.loc 1 1671 0
	ldr	r3, [r3]
	ldr	r6, [r3, #48]
	cmp	r5, r6
	ite	cc
	movcc	r6, #0
	movcs	r6, #1
.L169:
.LVL171:
	.loc 1 1704 0
	ldr	r3, [r4, #48]
.LVL172:
	.loc 1 1720 0
	str	r5, [r4, #64]
	.loc 1 1710 0
	cmp	r2, r3
	.loc 1 1730 0
	ldr	r2, [r4, #28]
.LVL173:
	.loc 1 1712 0
	it	eq
	streq	r5, [r4, #48]
	.loc 1 1730 0
	cmp	r2, #0
	.loc 1 1743 0
	mov	r2, #20
	.loc 1 1732 0
	itt	ge
	rsbge	r5, r5, #11
.LVL174:
	strge	r5, [r4, #28]
	.loc 1 1743 0
	ldr	r5, .L185+20
	mla	r3, r2, r3, r5
.LVL175:
	ldr	r2, [r4, #24]
	cmp	r2, r3
	bne	.L173
	.loc 1 1748 0
	add	r7, r4, #8
	mov	r0, r7
	bl	uxListRemove
.LVL176:
	.loc 1 1759 0
	ldr	r2, .L185+24
	ldr	r3, [r4, #48]
	ldr	r1, [r2]
	cmp	r3, r1
	bls	.L176
	.loc 1 1759 0 is_stmt 0 discriminator 1
	str	r3, [r2]
.L176:
	.loc 1 1759 0 discriminator 3
	movs	r0, #20
	mov	r1, r7
	mla	r0, r0, r3, r5
	bl	vListInsertEnd
.LVL177:
.L173:
	.loc 1 1766 0 is_stmt 1
	cbz	r6, .L167
	.loc 1 1768 0
	mov	r2, #268435456
	ldr	r3, .L185+28
	str	r2, [r3]
	.syntax unified
@ 1768 "../../../component/os/freertos/freertos_v10.0.1/Source/tasks.c" 1
	dsb
@ 0 "" 2
@ 1768 "../../../component/os/freertos/freertos_v10.0.1/Source/tasks.c" 1
	isb
@ 0 "" 2
.LVL178:
	.thumb
	.syntax unified
.L167:
	.loc 1 1781 0
	pop	{r3, r4, r5, r6, r7, lr}
	.cfi_remember_state
	.cfi_restore 14
	.cfi_restore 7
	.cfi_restore 6
	.cfi_restore 5
	.cfi_restore 4
	.cfi_restore 3
	.cfi_def_cfa_offset 0
.LVL179:
	.loc 1 1780 0
	b	vPortExitCritical
.LVL180:
.L168:
	.cfi_restore_state
	.loc 1 1687 0
	ldr	r6, [r3]
	subs	r3, r4, r6
	rsbs	r6, r3, #0
	adcs	r6, r6, r3
	b	.L169
.L178:
	.loc 1 1628 0
	movs	r6, #0
	b	.L169
.L186:
	.align	2
.L185:
	.word	.LC0
	.word	stdio_printf_stubs
	.word	.LC1
	.word	.LC4
	.word	.LANCHOR1
	.word	.LANCHOR2
	.word	.LANCHOR12
	.word	-536810236
	.cfi_endproc
.LFE156:
	.size	vTaskPrioritySet, .-vTaskPrioritySet
	.section	.text.vTaskResume,"ax",%progbits
	.align	1
	.global	vTaskResume
	.syntax unified
	.thumb
	.thumb_func
	.fpu softvfp
	.type	vTaskResume, %function
vTaskResume:
.LFB159:
	.loc 1 1936 0
	.cfi_startproc
	@ args = 0, pretend = 0, frame = 0
	@ frame_needed = 0, uses_anonymous_args = 0
.LVL181:
	push	{r4, r5, r6, lr}
	.cfi_def_cfa_offset 16
	.cfi_offset 4, -16
	.cfi_offset 5, -12
	.cfi_offset 6, -8
	.cfi_offset 14, -4
	.loc 1 1940 0
	mov	r4, r0
	cbnz	r0, .L188
.LVL182:
.LBB317:
.LBB318:
.LBB319:
	.loc 3 209 0 discriminator 1
	.syntax unified
@ 209 "../../../component/soc/realtek/8710c/cmsis/cmsis-core/include/cmsis_gcc.h" 1
	MRS r2, ipsr
@ 0 "" 2
	.thumb
	.syntax unified
.LBE319:
.LBE318:
	.loc 1 1940 0 discriminator 1
	cbz	r2, .L189
.LVL183:
.L191:
	.loc 1 1940 0 is_stmt 0
	ldr	r1, .L202
.LVL184:
.L190:
	.loc 1 1940 0 is_stmt 1 discriminator 6
	ldr	r4, .L202+4
.LVL185:
	ldr	r3, .L202+8
	movw	r2, #1940
	ldr	r4, [r4, #28]
	ldr	r0, .L202+12
	blx	r4
.LVL186:
.LBB320:
.LBB321:
	.loc 2 195 0 discriminator 6
	.syntax unified
@ 195 "../../../component/os/freertos/freertos_v10.0.1/Source/portable/GCC/ARM_RTL8710C/portmacro.h" 1
		mov r3, #64												
	cpsid i													
	msr basepri, r3											
	isb														
	dsb														
	cpsie i													

@ 0 "" 2
.LVL187:
	.thumb
	.syntax unified
.L192:
	b	.L192
.LVL188:
.L189:
.LBE321:
.LBE320:
	.loc 1 1940 0 discriminator 2
	bl	xTaskGetSchedulerState
.LVL189:
	cmp	r0, #1
	beq	.L191
	.loc 1 1940 0 is_stmt 0 discriminator 4
	mov	r0, r2
	bl	pcTaskGetName
.LVL190:
	mov	r1, r0
.LVL191:
	b	.L190
.LVL192:
.L188:
.LBE317:
	.loc 1 1944 0 is_stmt 1 discriminator 1
	ldr	r6, .L202+16
	ldr	r2, [r6]
	cmp	r0, r2
	beq	.L187
	.loc 1 1946 0
	bl	vPortEnterCritical
.LVL193:
.LBB322:
.LBB323:
	.loc 1 1901 0
	ldr	r2, [r4, #24]
	ldr	r3, .L202+20
	cmp	r2, r3
	bne	.L195
	.loc 1 1904 0
	ldr	r3, [r4, #44]
	ldr	r2, .L202+24
	cmp	r3, r2
	beq	.L195
.LVL194:
.LBE323:
.LBE322:
	.loc 1 1948 0
	cbnz	r3, .L195
	.loc 1 1954 0
	add	r5, r4, #8
	mov	r0, r5
	bl	uxListRemove
.LVL195:
	.loc 1 1955 0
	movs	r0, #20
	ldr	r2, .L202+28
	ldr	r3, [r4, #48]
	ldr	r1, [r2]
	cmp	r3, r1
	it	hi
	strhi	r3, [r2]
	ldr	r2, .L202+32
	mov	r1, r5
	mla	r0, r0, r3, r2
	bl	vListInsertEnd
.LVL196:
	.loc 1 1958 0
	ldr	r3, [r6]
	ldr	r2, [r4, #48]
	ldr	r3, [r3, #48]
	cmp	r2, r3
	bcc	.L195
	.loc 1 1963 0
	mov	r2, #268435456
	ldr	r3, .L202+36
	str	r2, [r3]
	.syntax unified
@ 1963 "../../../component/os/freertos/freertos_v10.0.1/Source/tasks.c" 1
	dsb
@ 0 "" 2
@ 1963 "../../../component/os/freertos/freertos_v10.0.1/Source/tasks.c" 1
	isb
@ 0 "" 2
	.thumb
	.syntax unified
.L195:
	.loc 1 1981 0
	pop	{r4, r5, r6, lr}
	.cfi_remember_state
	.cfi_restore 14
	.cfi_restore 6
	.cfi_restore 5
	.cfi_restore 4
	.cfi_def_cfa_offset 0
.LVL197:
	.loc 1 1975 0
	b	vPortExitCritical
.LVL198:
.L187:
	.cfi_restore_state
	pop	{r4, r5, r6, pc}
.L203:
	.align	2
.L202:
	.word	.LC0
	.word	stdio_printf_stubs
	.word	.LC1
	.word	.LC5
	.word	.LANCHOR1
	.word	.LANCHOR7
	.word	.LANCHOR5
	.word	.LANCHOR12
	.word	.LANCHOR2
	.word	-536810236
	.cfi_endproc
.LFE159:
	.size	vTaskResume, .-vTaskResume
	.section	.text.vTaskStartScheduler,"ax",%progbits
	.align	1
	.global	vTaskStartScheduler
	.syntax unified
	.thumb
	.thumb_func
	.fpu softvfp
	.type	vTaskStartScheduler, %function
vTaskStartScheduler:
.LFB160:
	.loc 1 2060 0
	.cfi_startproc
	@ args = 0, pretend = 0, frame = 0
	@ frame_needed = 0, uses_anonymous_args = 0
	push	{r0, r1, r4, lr}
	.cfi_def_cfa_offset 16
	.cfi_offset 4, -8
	.cfi_offset 14, -4
	.loc 1 2097 0
	movs	r4, #0
	ldr	r3, .L214
	str	r4, [sp]
	str	r3, [sp, #4]
	movs	r2, #70
	mov	r3, r4
	ldr	r1, .L214+4
	ldr	r0, .L214+8
	bl	xTaskCreate
.LVL199:
	.loc 1 2108 0
	cmp	r0, #1
	bne	.L205
	.loc 1 2110 0
	bl	xTimerCreateTimerTask
.LVL200:
	.loc 1 2119 0
	cmp	r0, #1
	bne	.L205
.LBB324:
.LBB325:
	.loc 2 195 0
	.syntax unified
@ 195 "../../../component/os/freertos/freertos_v10.0.1/Source/portable/GCC/ARM_RTL8710C/portmacro.h" 1
		mov r3, #64												
	cpsid i													
	msr basepri, r3											
	isb														
	dsb														
	cpsie i													

@ 0 "" 2
	.thumb
	.syntax unified
.LBE325:
.LBE324:
	.loc 1 2145 0
	mov	r2, #-1
	ldr	r3, .L214+12
	str	r2, [r3]
	.loc 1 2146 0
	ldr	r3, .L214+16
	str	r0, [r3]
	.loc 1 2147 0
	ldr	r3, .L214+20
	str	r4, [r3]
	.loc 1 2180 0
	add	sp, sp, #8
	.cfi_remember_state
	.cfi_def_cfa_offset 8
	@ sp needed
	pop	{r4, lr}
	.cfi_restore 14
	.cfi_restore 4
	.cfi_def_cfa_offset 0
	.loc 1 2159 0
	b	xPortStartScheduler
.LVL201:
.L205:
	.cfi_restore_state
	.loc 1 2174 0
	adds	r0, r0, #1
.LVL202:
	bne	.L204
.LVL203:
.LBB326:
.LBB327:
.LBB328:
	.loc 3 209 0 discriminator 1
	.syntax unified
@ 209 "../../../component/soc/realtek/8710c/cmsis/cmsis-core/include/cmsis_gcc.h" 1
	MRS r2, ipsr
@ 0 "" 2
	.thumb
	.syntax unified
.LBE328:
.LBE327:
	.loc 1 2174 0 discriminator 1
	cbz	r2, .L207
.LVL204:
.L209:
	.loc 1 2174 0 is_stmt 0
	ldr	r1, .L214+24
.LVL205:
.L208:
	.loc 1 2174 0 is_stmt 1 discriminator 6
	ldr	r4, .L214+28
	ldr	r3, .L214+32
	movw	r2, #2174
	ldr	r4, [r4, #28]
	ldr	r0, .L214+36
	blx	r4
.LVL206:
.LBB329:
.LBB330:
	.loc 2 195 0 discriminator 6
	.syntax unified
@ 195 "../../../component/os/freertos/freertos_v10.0.1/Source/portable/GCC/ARM_RTL8710C/portmacro.h" 1
		mov r3, #64												
	cpsid i													
	msr basepri, r3											
	isb														
	dsb														
	cpsie i													

@ 0 "" 2
.LVL207:
	.thumb
	.syntax unified
.L210:
	b	.L210
.LVL208:
.L207:
.LBE330:
.LBE329:
	.loc 1 2174 0 discriminator 2
	bl	xTaskGetSchedulerState
.LVL209:
	cmp	r0, #1
	beq	.L209
	.loc 1 2174 0 is_stmt 0 discriminator 4
	mov	r0, r2
	bl	pcTaskGetName
.LVL210:
	mov	r1, r0
.LVL211:
	b	.L208
.LVL212:
.L204:
.LBE326:
	.loc 1 2180 0 is_stmt 1
	add	sp, sp, #8
	.cfi_def_cfa_offset 8
	@ sp needed
	pop	{r4, pc}
.L215:
	.align	2
.L214:
	.word	.LANCHOR19
	.word	.LC6
	.word	prvIdleTask
	.word	.LANCHOR13
	.word	.LANCHOR10
	.word	.LANCHOR14
	.word	.LC0
	.word	stdio_printf_stubs
	.word	.LC1
	.word	.LC7
	.cfi_endproc
.LFE160:
	.size	vTaskStartScheduler, .-vTaskStartScheduler
	.section	.text.xTaskIncrementTick,"ax",%progbits
	.align	1
	.global	xTaskIncrementTick
	.syntax unified
	.thumb
	.thumb_func
	.fpu softvfp
	.type	xTaskIncrementTick, %function
xTaskIncrementTick:
.LFB169:
	.loc 1 2765 0
	.cfi_startproc
	@ args = 0, pretend = 0, frame = 0
	@ frame_needed = 0, uses_anonymous_args = 0
.LVL213:
	push	{r3, r4, r5, r6, r7, r8, r9, r10, fp, lr}
	.cfi_def_cfa_offset 40
	.cfi_offset 3, -40
	.cfi_offset 4, -36
	.cfi_offset 5, -32
	.cfi_offset 6, -28
	.cfi_offset 7, -24
	.cfi_offset 8, -20
	.cfi_offset 9, -16
	.cfi_offset 10, -12
	.cfi_offset 11, -8
	.cfi_offset 14, -4
	.loc 1 2774 0
	ldr	r3, .L247
	ldr	r3, [r3]
	cmp	r3, #0
	bne	.L217
.LBB331:
	.loc 1 2778 0
	ldr	r3, .L247+4
	ldr	r4, [r3]
	adds	r4, r4, #1
.LVL214:
	.loc 1 2782 0
	str	r4, [r3]
	.loc 1 2784 0
	cmp	r4, #0
	bne	.L218
.LBB332:
	.loc 1 2786 0
	ldr	r3, .L247+8
	ldr	r2, [r3]
	ldr	r2, [r2]
	cbz	r2, .L219
.LVL215:
.LBB333:
.LBB334:
.LBB335:
	.loc 3 209 0 discriminator 1
	.syntax unified
@ 209 "../../../component/soc/realtek/8710c/cmsis/cmsis-core/include/cmsis_gcc.h" 1
	MRS r2, ipsr
@ 0 "" 2
	.thumb
	.syntax unified
.LBE335:
.LBE334:
	.loc 1 2786 0 discriminator 1
	cbz	r2, .L220
.L222:
	.loc 1 2786 0 is_stmt 0
	ldr	r1, .L247+12
.LVL216:
.L221:
	.loc 1 2786 0 is_stmt 1 discriminator 7
	ldr	r4, .L247+16
.LVL217:
	ldr	r3, .L247+20
	movw	r2, #2786
	ldr	r4, [r4, #28]
	ldr	r0, .L247+24
	blx	r4
.LVL218:
.LBB336:
.LBB337:
	.loc 2 195 0 discriminator 7
	.syntax unified
@ 195 "../../../component/os/freertos/freertos_v10.0.1/Source/portable/GCC/ARM_RTL8710C/portmacro.h" 1
		mov r3, #64												
	cpsid i													
	msr basepri, r3											
	isb														
	dsb														
	cpsie i													

@ 0 "" 2
.LVL219:
	.thumb
	.syntax unified
.L223:
	b	.L223
.LVL220:
.L220:
.LBE337:
.LBE336:
	.loc 1 2786 0 discriminator 3
	bl	xTaskGetSchedulerState
.LVL221:
	cmp	r0, #1
	beq	.L222
	.loc 1 2786 0 is_stmt 0 discriminator 5
	mov	r0, r2
	bl	pcTaskGetName
.LVL222:
	mov	r1, r0
.LVL223:
	b	.L221
.LVL224:
.L219:
.LBE333:
	.loc 1 2786 0 is_stmt 1 discriminator 2
	ldr	r2, .L247+28
	ldr	r1, [r3]
.LVL225:
	ldr	r0, [r2]
	str	r0, [r3]
	str	r1, [r2]
	ldr	r2, .L247+32
	ldr	r3, [r2]
	adds	r3, r3, #1
	str	r3, [r2]
	bl	prvResetNextTaskUnblockTime
.LVL226:
.L218:
.LBE332:
	.loc 1 2797 0
	ldr	r5, .L247+36
	mov	fp, #0
	ldr	r3, [r5]
	ldr	r7, .L247+40
	cmp	r4, r3
	bcc	.L224
	.loc 1 2801 0
	ldr	r8, .L247+8
	.loc 1 2851 0
	ldr	r9, .L247+56
.LVL227:
.L225:
	.loc 1 2801 0
	ldr	r2, [r8]
	ldr	r2, [r2]
	cbnz	r2, .L244
	.loc 1 2808 0
	mov	r2, #-1
	str	r2, [r5]
	.loc 1 2809 0
	b	.L224
.LVL228:
.L246:
	.loc 1 2836 0
	add	r10, r6, #8
	mov	r0, r10
	bl	uxListRemove
.LVL229:
	.loc 1 2840 0
	ldr	r1, [r6, #44]
	cbz	r1, .L228
	.loc 1 2842 0
	add	r0, r6, #28
	bl	uxListRemove
.LVL230:
.L228:
	.loc 1 2851 0
	movs	r2, #20
	ldr	r0, [r6, #48]
	ldr	r1, [r9]
	ldr	r3, .L247+44
	cmp	r0, r1
	it	hi
	strhi	r0, [r9]
	mov	r1, r10
	mla	r0, r2, r0, r3
	bl	vListInsertEnd
.LVL231:
	.loc 1 2861 0
	ldr	r0, [r7]
	ldr	r1, [r6, #48]
	ldr	r2, [r0, #48]
	.loc 1 2863 0
	cmp	r1, r2
	it	cs
	movcs	fp, #1
.LVL232:
	b	.L225
.LVL233:
.L217:
.LBE331:
	.loc 1 2908 0
	ldr	r2, .L247+48
	.loc 1 2768 0
	mov	fp, #0
	.loc 1 2908 0
	ldr	r3, [r2]
	adds	r3, r3, #1
	str	r3, [r2]
	b	.L231
.LVL234:
.L244:
.LBB338:
	.loc 1 2817 0
	ldr	r2, [r8]
	ldr	r2, [r2, #12]
	ldr	r6, [r2, #12]
.LVL235:
	.loc 1 2818 0
	ldr	r1, [r6, #8]
.LVL236:
	.loc 1 2820 0
	cmp	r4, r1
	bcs	.L246
	.loc 1 2827 0
	str	r1, [r5]
.LVL237:
.L224:
	.loc 1 2880 0
	ldr	r2, [r7]
	ldr	r3, .L247+44
	ldr	r1, [r2, #48]
	movs	r2, #20
	muls	r2, r1, r2
	ldr	r2, [r3, r2]
	.loc 1 2882 0
	cmp	r2, #2
	it	cs
	movcs	fp, #1
.LVL238:
.L231:
.LBE338:
	.loc 1 2921 0
	ldr	r2, .L247+52
	ldr	r2, [r2]
	.loc 1 2923 0
	cmp	r2, #0
	it	ne
	movne	fp, #1
.LVL239:
	.loc 1 2933 0
	mov	r0, fp
	pop	{r3, r4, r5, r6, r7, r8, r9, r10, fp, pc}
.L248:
	.align	2
.L247:
	.word	.LANCHOR16
	.word	.LANCHOR14
	.word	.LANCHOR8
	.word	.LC0
	.word	stdio_printf_stubs
	.word	.LC1
	.word	.LC8
	.word	.LANCHOR9
	.word	.LANCHOR17
	.word	.LANCHOR13
	.word	.LANCHOR1
	.word	.LANCHOR2
	.word	.LANCHOR20
	.word	.LANCHOR18
	.word	.LANCHOR12
	.cfi_endproc
.LFE169:
	.size	xTaskIncrementTick, .-xTaskIncrementTick
	.section	.text.xTaskResumeAll,"ax",%progbits
	.align	1
	.global	xTaskResumeAll
	.syntax unified
	.thumb
	.thumb_func
	.fpu softvfp
	.type	xTaskResumeAll, %function
xTaskResumeAll:
.LFB163:
	.loc 1 2268 0
	.cfi_startproc
	@ args = 0, pretend = 0, frame = 0
	@ frame_needed = 0, uses_anonymous_args = 0
.LVL240:
	push	{r3, r4, r5, r6, r7, r8, r9, lr}
	.cfi_def_cfa_offset 32
	.cfi_offset 3, -32
	.cfi_offset 4, -28
	.cfi_offset 5, -24
	.cfi_offset 6, -20
	.cfi_offset 7, -16
	.cfi_offset 8, -12
	.cfi_offset 9, -8
	.cfi_offset 14, -4
	.loc 1 2274 0
	ldr	r4, .L289
	ldr	r3, [r4]
	cbnz	r3, .L250
.LVL241:
.LBB339:
.LBB340:
.LBB341:
	.loc 3 209 0 discriminator 1
	.syntax unified
@ 209 "../../../component/soc/realtek/8710c/cmsis/cmsis-core/include/cmsis_gcc.h" 1
	MRS r2, ipsr
@ 0 "" 2
	.thumb
	.syntax unified
.LBE341:
.LBE340:
	.loc 1 2274 0 discriminator 1
	cbz	r2, .L251
.L253:
	.loc 1 2274 0 is_stmt 0
	ldr	r1, .L289+4
.LVL242:
.L252:
	.loc 1 2274 0 is_stmt 1 discriminator 6
	ldr	r4, .L289+8
	ldr	r3, .L289+12
	movw	r2, #2274
	ldr	r4, [r4, #28]
	ldr	r0, .L289+16
	blx	r4
.LVL243:
.LBB342:
.LBB343:
	.loc 2 195 0 discriminator 6
	.syntax unified
@ 195 "../../../component/os/freertos/freertos_v10.0.1/Source/portable/GCC/ARM_RTL8710C/portmacro.h" 1
		mov r3, #64												
	cpsid i													
	msr basepri, r3											
	isb														
	dsb														
	cpsie i													

@ 0 "" 2
.LVL244:
	.thumb
	.syntax unified
.L254:
	b	.L254
.LVL245:
.L251:
.LBE343:
.LBE342:
	.loc 1 2274 0 discriminator 2
	bl	xTaskGetSchedulerState
.LVL246:
	cmp	r0, #1
	beq	.L253
	.loc 1 2274 0 is_stmt 0 discriminator 4
	mov	r0, r2
	bl	pcTaskGetName
.LVL247:
	mov	r1, r0
.LVL248:
	b	.L252
.LVL249:
.L250:
.LBE339:
.LBB344:
.LBB345:
	.loc 3 209 0 is_stmt 1
	.syntax unified
@ 209 "../../../component/soc/realtek/8710c/cmsis/cmsis-core/include/cmsis_gcc.h" 1
	MRS r3, ipsr
@ 0 "" 2
	.thumb
	.syntax unified
.LBE345:
.LBE344:
	.loc 1 2282 0
	cbz	r3, .L255
.LBB346:
.LBB347:
	.loc 2 213 0
	.syntax unified
@ 213 "../../../component/os/freertos/freertos_v10.0.1/Source/portable/GCC/ARM_RTL8710C/portmacro.h" 1
		mrs r6, basepri											
	mov r3, #64												
	cpsid i													
	msr basepri, r3											
	isb														
	dsb														
	cpsie i													

@ 0 "" 2
	.thumb
	.syntax unified
.L256:
.LVL250:
.LBE347:
.LBE346:
	.loc 1 2287 0
	ldr	r3, [r4]
	subs	r3, r3, #1
	str	r3, [r4]
	.loc 1 2289 0
	ldr	r4, [r4]
	cbz	r4, .L257
.LVL251:
.L259:
	.loc 1 2270 0
	movs	r4, #0
.LVL252:
.L258:
.LBB348:
.LBB349:
	.loc 3 209 0
	.syntax unified
@ 209 "../../../component/soc/realtek/8710c/cmsis/cmsis-core/include/cmsis_gcc.h" 1
	MRS r3, ipsr
@ 0 "" 2
	.thumb
	.syntax unified
.LBE349:
.LBE348:
	.loc 1 2375 0
	cmp	r3, #0
	beq	.L268
.LVL253:
.LBB350:
.LBB351:
	.loc 2 233 0
	.syntax unified
@ 233 "../../../component/os/freertos/freertos_v10.0.1/Source/portable/GCC/ARM_RTL8710C/portmacro.h" 1
		msr basepri, r6	
@ 0 "" 2
.LVL254:
	.thumb
	.syntax unified
.L249:
.LBE351:
.LBE350:
	.loc 1 2381 0
	mov	r0, r4
	pop	{r3, r4, r5, r6, r7, r8, r9, pc}
.LVL255:
.L255:
	.loc 1 2285 0
	bl	vPortEnterCritical
.LVL256:
	b	.L256
.LVL257:
.L257:
	.loc 1 2291 0
	ldr	r3, .L289+20
	ldr	r3, [r3]
	cmp	r3, #0
	beq	.L259
	.loc 1 2295 0
	ldr	r7, .L289+24
	.loc 1 2300 0
	ldr	r8, .L289+44
	ldr	r9, .L289+48
.LVL258:
.L260:
	.loc 1 2295 0
	ldr	r3, [r7]
	cbnz	r3, .L263
	.loc 1 2314 0
	cbz	r4, .L264
	.loc 1 2322 0
	bl	prvResetNextTaskUnblockTime
.LVL259:
.L264:
.LBB352:
	.loc 1 2330 0
	ldr	r5, .L289+28
	ldr	r4, [r5]
.LVL260:
	.loc 1 2332 0
	cbz	r4, .L265
	.loc 1 2338 0
	mov	r8, #1
	ldr	r7, .L289+32
.L267:
	.loc 1 2336 0
	bl	xTaskIncrementTick
.LVL261:
	cbz	r0, .L266
	.loc 1 2338 0
	str	r8, [r7]
.L266:
.LVL262:
	.loc 1 2345 0
	subs	r4, r4, #1
.LVL263:
	bne	.L267
	.loc 1 2347 0
	str	r4, [r5]
.L265:
.LBE352:
	.loc 1 2355 0
	ldr	r3, .L289+32
	ldr	r3, [r3]
	cmp	r3, #0
	beq	.L259
.LVL264:
	.loc 1 2362 0
	mov	r2, #268435456
	ldr	r3, .L289+36
	str	r2, [r3]
	.syntax unified
@ 2362 "../../../component/os/freertos/freertos_v10.0.1/Source/tasks.c" 1
	dsb
@ 0 "" 2
@ 2362 "../../../component/os/freertos/freertos_v10.0.1/Source/tasks.c" 1
	isb
@ 0 "" 2
	.loc 1 2359 0
	.thumb
	.syntax unified
	movs	r4, #1
.LVL265:
	b	.L258
.LVL266:
.L263:
	.loc 1 2297 0
	ldr	r3, [r7, #12]
	ldr	r4, [r3, #12]
.LVL267:
	.loc 1 2299 0
	add	r5, r4, #8
	.loc 1 2298 0
	add	r0, r4, #28
	bl	uxListRemove
.LVL268:
	.loc 1 2299 0
	mov	r0, r5
	bl	uxListRemove
.LVL269:
	.loc 1 2300 0
	movs	r0, #20
	ldr	r3, [r4, #48]
	ldr	r2, [r8]
	mla	r0, r0, r3, r9
	cmp	r3, r2
	mov	r1, r5
	it	hi
	strhi	r3, [r8]
	bl	vListInsertEnd
.LVL270:
	.loc 1 2304 0
	ldr	r3, .L289+40
	ldr	r2, [r4, #48]
	ldr	r3, [r3]
	ldr	r3, [r3, #48]
	cmp	r2, r3
	.loc 1 2306 0
	ittt	cs
	movcs	r2, #1
	ldrcs	r3, .L289+32
	strcs	r2, [r3]
	b	.L260
.LVL271:
.L268:
	.loc 1 2378 0
	bl	vPortExitCritical
.LVL272:
	.loc 1 2380 0
	b	.L249
.L290:
	.align	2
.L289:
	.word	.LANCHOR16
	.word	.LC0
	.word	stdio_printf_stubs
	.word	.LC1
	.word	.LC9
	.word	.LANCHOR0
	.word	.LANCHOR5
	.word	.LANCHOR20
	.word	.LANCHOR18
	.word	-536810236
	.word	.LANCHOR1
	.word	.LANCHOR12
	.word	.LANCHOR2
	.cfi_endproc
.LFE163:
	.size	xTaskResumeAll, .-xTaskResumeAll
	.section	.text.vTaskDelayUntil,"ax",%progbits
	.align	1
	.global	vTaskDelayUntil
	.syntax unified
	.thumb
	.thumb_func
	.fpu softvfp
	.type	vTaskDelayUntil, %function
vTaskDelayUntil:
.LFB151:
	.loc 1 1363 0
	.cfi_startproc
	@ args = 0, pretend = 0, frame = 0
	@ frame_needed = 0, uses_anonymous_args = 0
.LVL273:
	push	{r3, r4, r5, lr}
	.cfi_def_cfa_offset 16
	.cfi_offset 3, -16
	.cfi_offset 4, -12
	.cfi_offset 5, -8
	.cfi_offset 14, -4
	.loc 1 1367 0
	cbnz	r0, .L292
.LVL274:
.LBB353:
.LBB354:
.LBB355:
	.loc 3 209 0 discriminator 1
	.syntax unified
@ 209 "../../../component/soc/realtek/8710c/cmsis/cmsis-core/include/cmsis_gcc.h" 1
	MRS r2, ipsr
@ 0 "" 2
	.thumb
	.syntax unified
.LBE355:
.LBE354:
	.loc 1 1367 0 discriminator 1
	cbz	r2, .L293
.LVL275:
.L295:
	.loc 1 1367 0 is_stmt 0
	ldr	r1, .L328
.LVL276:
.L294:
	.loc 1 1367 0 is_stmt 1 discriminator 6
	ldr	r4, .L328+4
	ldr	r3, .L328+8
	movw	r2, #1367
	ldr	r4, [r4, #28]
	ldr	r0, .L328+12
	blx	r4
.LVL277:
.LBB356:
.LBB357:
	.loc 2 195 0 discriminator 6
	.syntax unified
@ 195 "../../../component/os/freertos/freertos_v10.0.1/Source/portable/GCC/ARM_RTL8710C/portmacro.h" 1
		mov r3, #64												
	cpsid i													
	msr basepri, r3											
	isb														
	dsb														
	cpsie i													

@ 0 "" 2
.LVL278:
	.thumb
	.syntax unified
.L296:
	b	.L296
.LVL279:
.L293:
.LBE357:
.LBE356:
	.loc 1 1367 0 discriminator 2
	bl	xTaskGetSchedulerState
.LVL280:
	cmp	r0, #1
	beq	.L295
	.loc 1 1367 0 is_stmt 0 discriminator 4
	mov	r0, r2
	bl	pcTaskGetName
.LVL281:
	mov	r1, r0
.LVL282:
	b	.L294
.LVL283:
.L292:
.LBE353:
	.loc 1 1368 0 is_stmt 1
	cbnz	r1, .L297
.LVL284:
.LBB358:
.LBB359:
.LBB360:
	.loc 3 209 0 discriminator 1
	.syntax unified
@ 209 "../../../component/soc/realtek/8710c/cmsis/cmsis-core/include/cmsis_gcc.h" 1
	MRS r2, ipsr
@ 0 "" 2
	.thumb
	.syntax unified
.LBE360:
.LBE359:
	.loc 1 1368 0 discriminator 1
	cbz	r2, .L298
.LVL285:
.L300:
	.loc 1 1368 0 is_stmt 0
	ldr	r1, .L328
.LVL286:
.L299:
	.loc 1 1368 0 is_stmt 1 discriminator 6
	ldr	r4, .L328+4
	ldr	r3, .L328+8
	mov	r2, #1368
	ldr	r4, [r4, #28]
	ldr	r0, .L328+16
	blx	r4
.LVL287:
.LBB361:
.LBB362:
	.loc 2 195 0 discriminator 6
	.syntax unified
@ 195 "../../../component/os/freertos/freertos_v10.0.1/Source/portable/GCC/ARM_RTL8710C/portmacro.h" 1
		mov r3, #64												
	cpsid i													
	msr basepri, r3											
	isb														
	dsb														
	cpsie i													

@ 0 "" 2
.LVL288:
	.thumb
	.syntax unified
.L301:
	b	.L301
.LVL289:
.L298:
.LBE362:
.LBE361:
	.loc 1 1368 0 discriminator 2
	bl	xTaskGetSchedulerState
.LVL290:
	cmp	r0, #1
	beq	.L300
	.loc 1 1368 0 is_stmt 0 discriminator 4
	mov	r0, r2
	bl	pcTaskGetName
.LVL291:
	mov	r1, r0
.LVL292:
	b	.L299
.LVL293:
.L297:
.LBE358:
	.loc 1 1369 0 is_stmt 1
	ldr	r3, .L328+20
	ldr	r3, [r3]
	cbz	r3, .L302
.LVL294:
.LBB363:
.LBB364:
.LBB365:
	.loc 3 209 0 discriminator 1
	.syntax unified
@ 209 "../../../component/soc/realtek/8710c/cmsis/cmsis-core/include/cmsis_gcc.h" 1
	MRS r2, ipsr
@ 0 "" 2
	.thumb
	.syntax unified
.LBE365:
.LBE364:
	.loc 1 1369 0 discriminator 1
	cbz	r2, .L303
.LVL295:
.L305:
	.loc 1 1369 0 is_stmt 0
	ldr	r1, .L328
.LVL296:
.L304:
	.loc 1 1369 0 is_stmt 1 discriminator 6
	ldr	r4, .L328+4
	ldr	r3, .L328+8
	movw	r2, #1369
	ldr	r4, [r4, #28]
	ldr	r0, .L328+24
	blx	r4
.LVL297:
.LBB366:
.LBB367:
	.loc 2 195 0 discriminator 6
	.syntax unified
@ 195 "../../../component/os/freertos/freertos_v10.0.1/Source/portable/GCC/ARM_RTL8710C/portmacro.h" 1
		mov r3, #64												
	cpsid i													
	msr basepri, r3											
	isb														
	dsb														
	cpsie i													

@ 0 "" 2
.LVL298:
	.thumb
	.syntax unified
.L306:
	b	.L306
.LVL299:
.L303:
.LBE367:
.LBE366:
	.loc 1 1369 0 discriminator 2
	bl	xTaskGetSchedulerState
.LVL300:
	cmp	r0, #1
	beq	.L305
	.loc 1 1369 0 is_stmt 0 discriminator 4
	mov	r0, r2
	bl	pcTaskGetName
.LVL301:
	mov	r1, r0
.LVL302:
	b	.L304
.LVL303:
.L302:
.LBE363:
	.loc 1 1371 0 is_stmt 1
	bl	vTaskSuspendAll
.LVL304:
.LBB368:
	.loc 1 1375 0
	ldr	r3, .L328+28
	.loc 1 1378 0
	ldr	r5, [r0]
	.loc 1 1375 0
	ldr	r4, [r3]
.LVL305:
	adds	r3, r1, r5
	ite	cs
	movcs	r2, #1
	movcc	r2, #0
.LVL306:
	.loc 1 1380 0
	cmp	r4, r5
	bcs	.L309
	.loc 1 1387 0
	cbz	r2, .L310
.L327:
	.loc 1 1401 0 discriminator 1
	cmp	r4, r3
	ite	cs
	movcs	r2, #0
	movcc	r2, #1
.L310:
.LVL307:
	.loc 1 1412 0
	str	r3, [r0]
	.loc 1 1414 0
	cbz	r2, .L311
.LVL308:
	.loc 1 1420 0
	movs	r1, #0
.LVL309:
	subs	r0, r3, r4
.LVL310:
	bl	prvAddCurrentTaskToDelayedList
.LVL311:
.L311:
.LBE368:
	.loc 1 1427 0
	bl	xTaskResumeAll
.LVL312:
	.loc 1 1431 0
	cbnz	r0, .L291
	.loc 1 1433 0
	mov	r2, #268435456
	ldr	r3, .L328+32
	str	r2, [r3]
	.syntax unified
@ 1433 "../../../component/os/freertos/freertos_v10.0.1/Source/tasks.c" 1
	dsb
@ 0 "" 2
@ 1433 "../../../component/os/freertos/freertos_v10.0.1/Source/tasks.c" 1
	isb
@ 0 "" 2
	.thumb
	.syntax unified
.L291:
	pop	{r3, r4, r5, pc}
.LVL313:
.L309:
.LBB369:
	.loc 1 1401 0
	cmp	r2, #0
	beq	.L327
	.loc 1 1403 0
	movs	r2, #1
	b	.L310
.L329:
	.align	2
.L328:
	.word	.LC0
	.word	stdio_printf_stubs
	.word	.LC1
	.word	.LC10
	.word	.LC11
	.word	.LANCHOR16
	.word	.LC3
	.word	.LANCHOR14
	.word	-536810236
.LBE369:
	.cfi_endproc
.LFE151:
	.size	vTaskDelayUntil, .-vTaskDelayUntil
	.section	.text.vTaskDelay,"ax",%progbits
	.align	1
	.global	vTaskDelay
	.syntax unified
	.thumb
	.thumb_func
	.fpu softvfp
	.type	vTaskDelay, %function
vTaskDelay:
.LFB152:
	.loc 1 1447 0
	.cfi_startproc
	@ args = 0, pretend = 0, frame = 0
	@ frame_needed = 0, uses_anonymous_args = 0
.LVL314:
	push	{r4, lr}
	.cfi_def_cfa_offset 8
	.cfi_offset 4, -8
	.cfi_offset 14, -4
	.loc 1 1451 0
	cbnz	r0, .L331
.LVL315:
.L338:
	.loc 1 1478 0
	mov	r2, #268435456
	ldr	r3, .L345
	str	r2, [r3]
	.syntax unified
@ 1478 "../../../component/os/freertos/freertos_v10.0.1/Source/tasks.c" 1
	dsb
@ 0 "" 2
@ 1478 "../../../component/os/freertos/freertos_v10.0.1/Source/tasks.c" 1
	isb
@ 0 "" 2
	.thumb
	.syntax unified
	pop	{r4, pc}
.LVL316:
.L331:
	.loc 1 1453 0
	ldr	r3, .L345+4
	ldr	r1, [r3]
	cbz	r1, .L333
.LVL317:
.LBB370:
.LBB371:
.LBB372:
	.loc 3 209 0 discriminator 1
	.syntax unified
@ 209 "../../../component/soc/realtek/8710c/cmsis/cmsis-core/include/cmsis_gcc.h" 1
	MRS r2, ipsr
@ 0 "" 2
	.thumb
	.syntax unified
.LBE372:
.LBE371:
	.loc 1 1453 0 discriminator 1
	cbz	r2, .L334
.LVL318:
.L336:
	.loc 1 1453 0 is_stmt 0
	ldr	r1, .L345+8
.LVL319:
.L335:
	.loc 1 1453 0 is_stmt 1 discriminator 6
	ldr	r4, .L345+12
	ldr	r3, .L345+16
	movw	r2, #1453
	ldr	r4, [r4, #28]
	ldr	r0, .L345+20
	blx	r4
.LVL320:
.LBB373:
.LBB374:
	.loc 2 195 0 discriminator 6
	.syntax unified
@ 195 "../../../component/os/freertos/freertos_v10.0.1/Source/portable/GCC/ARM_RTL8710C/portmacro.h" 1
		mov r3, #64												
	cpsid i													
	msr basepri, r3											
	isb														
	dsb														
	cpsie i													

@ 0 "" 2
.LVL321:
	.thumb
	.syntax unified
.L337:
	b	.L337
.LVL322:
.L334:
.LBE374:
.LBE373:
	.loc 1 1453 0 discriminator 2
	bl	xTaskGetSchedulerState
.LVL323:
	cmp	r0, #1
	beq	.L336
	.loc 1 1453 0 is_stmt 0 discriminator 4
	mov	r0, r2
	bl	pcTaskGetName
.LVL324:
	mov	r1, r0
.LVL325:
	b	.L335
.LVL326:
.L333:
.LBE370:
	.loc 1 1454 0 is_stmt 1
	bl	vTaskSuspendAll
.LVL327:
	.loc 1 1465 0
	bl	prvAddCurrentTaskToDelayedList
.LVL328:
	.loc 1 1467 0
	bl	xTaskResumeAll
.LVL329:
	.loc 1 1476 0
	cmp	r0, #0
	beq	.L338
	pop	{r4, pc}
.L346:
	.align	2
.L345:
	.word	-536810236
	.word	.LANCHOR16
	.word	.LC0
	.word	stdio_printf_stubs
	.word	.LC1
	.word	.LC3
	.cfi_endproc
.LFE152:
	.size	vTaskDelay, .-vTaskDelay
	.section	.text.vTaskSwitchContext,"ax",%progbits
	.align	1
	.global	vTaskSwitchContext
	.syntax unified
	.thumb
	.thumb_func
	.fpu softvfp
	.type	vTaskSwitchContext, %function
vTaskSwitchContext:
.LFB170:
	.loc 1 3027 0
	.cfi_startproc
	@ args = 0, pretend = 0, frame = 0
	@ frame_needed = 0, uses_anonymous_args = 0
	push	{r3, r4, r5, r6, r7, lr}
	.cfi_def_cfa_offset 24
	.cfi_offset 3, -24
	.cfi_offset 4, -20
	.cfi_offset 5, -16
	.cfi_offset 6, -12
	.cfi_offset 7, -8
	.cfi_offset 14, -4
	.loc 1 3028 0
	ldr	r3, .L366
	ldr	r2, [r3]
	ldr	r3, .L366+4
	cbz	r2, .L348
	.loc 1 3032 0
	movs	r2, #1
	str	r2, [r3]
	pop	{r3, r4, r5, r6, r7, pc}
.L348:
.LBB375:
	.loc 1 3067 0
	ldr	r4, .L366+8
.LBE375:
	.loc 1 3036 0
	str	r2, [r3]
.LBB376:
	.loc 1 3067 0
	ldr	r3, [r4]
	ldr	r3, [r3, #4]
.LVL330:
	ldr	r2, [r3]
	cmp	r2, #-1515870811
	bne	.L350
	.loc 1 3067 0 is_stmt 0 discriminator 2
	ldr	r2, [r3, #4]
	cmp	r2, #-1515870811
	bne	.L350
	.loc 1 3067 0 discriminator 4
	ldr	r2, [r3, #8]
	cmp	r2, #-1515870811
	bne	.L350
	.loc 1 3067 0 discriminator 6
	ldr	r3, [r3, #12]
.LVL331:
	cmp	r3, #-1515870811
	beq	.L351
.L350:
	.loc 1 3067 0 discriminator 7
	ldr	r0, [r4]
	ldr	r1, [r4]
	adds	r1, r1, #52
	bl	vApplicationStackOverflowHook
.LVL332:
.L351:
.LBE376:
.LBB377:
	.loc 1 3071 0 is_stmt 1
	ldr	r3, .L366+12
	mov	ip, #20
	mov	r7, r3
	ldr	r6, .L366+16
	ldr	r2, [r6]
.LVL333:
.L352:
	.loc 1 3071 0 is_stmt 0 discriminator 1
	mul	r1, ip, r2
	ldr	r5, [r3, r1]
	adds	r0, r3, r1
	cbz	r5, .L358
.LVL334:
.LBB378:
	.loc 1 3074 0 is_stmt 1
	ldr	r5, [r0, #4]
	adds	r1, r1, #8
	ldr	r5, [r5, #4]
	add	r3, r3, r1
	cmp	r5, r3
	it	eq
	ldreq	r3, [r5, #4]
	.loc 1 3073 0
	str	r5, [r0, #4]
	.loc 1 3074 0
	it	eq
	streq	r3, [r0, #4]
	.loc 1 3075 0
	movs	r3, #20
	mla	r3, r3, r2, r7
	ldr	r3, [r3, #4]
	ldr	r3, [r3, #12]
	str	r3, [r4]
.LBE378:
	str	r2, [r6]
	pop	{r3, r4, r5, r6, r7, pc}
.LVL335:
.L358:
	.loc 1 3071 0 discriminator 8
	cbnz	r2, .L353
.LVL336:
.LBB379:
.LBB380:
.LBB381:
	.loc 3 209 0 discriminator 2
	.syntax unified
@ 209 "../../../component/soc/realtek/8710c/cmsis/cmsis-core/include/cmsis_gcc.h" 1
	MRS r3, ipsr
@ 0 "" 2
	.thumb
	.syntax unified
.LBE381:
.LBE380:
	.loc 1 3071 0 discriminator 2
	cbz	r3, .L354
.L356:
	.loc 1 3071 0 is_stmt 0
	ldr	r1, .L366+20
.LVL337:
.L355:
	.loc 1 3071 0 is_stmt 1 discriminator 7
	ldr	r4, .L366+24
	ldr	r3, .L366+28
	movw	r2, #3071
	ldr	r4, [r4, #28]
	ldr	r0, .L366+32
	blx	r4
.LVL338:
.LBB382:
.LBB383:
	.loc 2 195 0 discriminator 7
	.syntax unified
@ 195 "../../../component/os/freertos/freertos_v10.0.1/Source/portable/GCC/ARM_RTL8710C/portmacro.h" 1
		mov r3, #64												
	cpsid i													
	msr basepri, r3											
	isb														
	dsb														
	cpsie i													

@ 0 "" 2
.LVL339:
	.thumb
	.syntax unified
.L357:
	b	.L357
.LVL340:
.L354:
.LBE383:
.LBE382:
	.loc 1 3071 0 discriminator 3
	bl	xTaskGetSchedulerState
.LVL341:
	cmp	r0, #1
	beq	.L356
	.loc 1 3071 0 is_stmt 0 discriminator 5
	mov	r0, r2
	bl	pcTaskGetName
.LVL342:
	mov	r1, r0
.LVL343:
	b	.L355
.LVL344:
.L353:
.LBE379:
	.loc 1 3072 0 is_stmt 1
	subs	r2, r2, #1
.LVL345:
	b	.L352
.L367:
	.align	2
.L366:
	.word	.LANCHOR16
	.word	.LANCHOR18
	.word	.LANCHOR1
	.word	.LANCHOR2
	.word	.LANCHOR12
	.word	.LC0
	.word	stdio_printf_stubs
	.word	.LC1
	.word	.LC12
.LBE377:
	.cfi_endproc
.LFE170:
	.size	vTaskSwitchContext, .-vTaskSwitchContext
	.section	.text.vTaskSuspend,"ax",%progbits
	.align	1
	.global	vTaskSuspend
	.syntax unified
	.thumb
	.thumb_func
	.fpu softvfp
	.type	vTaskSuspend, %function
vTaskSuspend:
.LFB157:
	.loc 1 1789 0
	.cfi_startproc
	@ args = 0, pretend = 0, frame = 0
	@ frame_needed = 0, uses_anonymous_args = 0
.LVL346:
	push	{r4, r5, r6, lr}
	.cfi_def_cfa_offset 16
	.cfi_offset 4, -16
	.cfi_offset 5, -12
	.cfi_offset 6, -8
	.cfi_offset 14, -4
	.loc 1 1789 0
	mov	r4, r0
	ldr	r6, .L391
	.loc 1 1792 0
	bl	vPortEnterCritical
.LVL347:
	.loc 1 1796 0
	cbnz	r4, .L369
	.loc 1 1796 0 is_stmt 0 discriminator 1
	ldr	r4, [r6]
.LVL348:
.L369:
	.loc 1 1802 0 is_stmt 1 discriminator 4
	add	r5, r4, #8
	mov	r0, r5
	bl	uxListRemove
.LVL349:
	.loc 1 1812 0 discriminator 4
	ldr	r3, [r4, #44]
	cbz	r3, .L370
	.loc 1 1814 0
	add	r0, r4, #28
	bl	uxListRemove
.LVL350:
.L370:
	.loc 1 1821 0
	mov	r1, r5
	ldr	r0, .L391+4
	bl	vListInsertEnd
.LVL351:
	.loc 1 1825 0
	ldrb	r3, [r4, #76]	@ zero_extendqisi2
	.loc 1 1836 0
	ldr	r5, .L391+8
	.loc 1 1825 0
	cmp	r3, #1
	.loc 1 1829 0
	itt	eq
	moveq	r3, #0
	strbeq	r3, [r4, #76]
	.loc 1 1834 0
	bl	vPortExitCritical
.LVL352:
	.loc 1 1836 0
	ldr	r2, [r5]
	cbz	r2, .L372
	.loc 1 1840 0
	bl	vPortEnterCritical
.LVL353:
	.loc 1 1842 0
	bl	prvResetNextTaskUnblockTime
.LVL354:
	.loc 1 1844 0
	bl	vPortExitCritical
.LVL355:
.L372:
	.loc 1 1851 0
	ldr	r3, [r6]
	cmp	r4, r3
	bne	.L368
	.loc 1 1853 0
	ldr	r3, [r5]
	cbz	r3, .L374
	.loc 1 1856 0
	ldr	r3, .L391+12
	ldr	r3, [r3]
	cbz	r3, .L375
.LVL356:
.LBB384:
.LBB385:
.LBB386:
	.loc 3 209 0 discriminator 1
	.syntax unified
@ 209 "../../../component/soc/realtek/8710c/cmsis/cmsis-core/include/cmsis_gcc.h" 1
	MRS r2, ipsr
@ 0 "" 2
	.thumb
	.syntax unified
.LBE386:
.LBE385:
	.loc 1 1856 0 discriminator 1
	cbz	r2, .L376
.L378:
	.loc 1 1856 0 is_stmt 0
	ldr	r1, .L391+16
.LVL357:
.L377:
	.loc 1 1856 0 is_stmt 1 discriminator 6
	ldr	r4, .L391+20
.LVL358:
	ldr	r3, .L391+24
	mov	r2, #1856
	ldr	r4, [r4, #28]
	ldr	r0, .L391+28
	blx	r4
.LVL359:
.LBB387:
.LBB388:
	.loc 2 195 0 discriminator 6
	.syntax unified
@ 195 "../../../component/os/freertos/freertos_v10.0.1/Source/portable/GCC/ARM_RTL8710C/portmacro.h" 1
		mov r3, #64												
	cpsid i													
	msr basepri, r3											
	isb														
	dsb														
	cpsie i													

@ 0 "" 2
.LVL360:
	.thumb
	.syntax unified
.L379:
	b	.L379
.LVL361:
.L376:
.LBE388:
.LBE387:
	.loc 1 1856 0 discriminator 2
	bl	xTaskGetSchedulerState
.LVL362:
	cmp	r0, #1
	beq	.L378
	.loc 1 1856 0 is_stmt 0 discriminator 4
	mov	r0, r2
	bl	pcTaskGetName
.LVL363:
	mov	r1, r0
.LVL364:
	b	.L377
.LVL365:
.L375:
.LBE384:
	.loc 1 1857 0 is_stmt 1
	mov	r2, #268435456
	ldr	r3, .L391+32
	str	r2, [r3]
	.syntax unified
@ 1857 "../../../component/os/freertos/freertos_v10.0.1/Source/tasks.c" 1
	dsb
@ 0 "" 2
@ 1857 "../../../component/os/freertos/freertos_v10.0.1/Source/tasks.c" 1
	isb
@ 0 "" 2
	.thumb
	.syntax unified
	pop	{r4, r5, r6, pc}
.LVL366:
.L374:
	.loc 1 1864 0
	ldr	r2, .L391+4
	ldr	r1, [r2]
	ldr	r2, .L391+36
	ldr	r2, [r2]
	cmp	r1, r2
	bne	.L380
	.loc 1 1870 0
	str	r3, [r6]
	pop	{r4, r5, r6, pc}
.LVL367:
.L380:
	.loc 1 1882 0
	pop	{r4, r5, r6, lr}
	.cfi_remember_state
	.cfi_restore 14
	.cfi_restore 6
	.cfi_restore 5
	.cfi_restore 4
	.cfi_def_cfa_offset 0
.LVL368:
	.loc 1 1874 0
	b	vTaskSwitchContext
.LVL369:
.L368:
	.cfi_restore_state
	pop	{r4, r5, r6, pc}
.LVL370:
.L392:
	.align	2
.L391:
	.word	.LANCHOR1
	.word	.LANCHOR7
	.word	.LANCHOR10
	.word	.LANCHOR16
	.word	.LC0
	.word	stdio_printf_stubs
	.word	.LC1
	.word	.LC3
	.word	-536810236
	.word	.LANCHOR0
	.cfi_endproc
.LFE157:
	.size	vTaskSuspend, .-vTaskSuspend
	.section	.text.vTaskPlaceOnEventList,"ax",%progbits
	.align	1
	.global	vTaskPlaceOnEventList
	.syntax unified
	.thumb
	.thumb_func
	.fpu softvfp
	.type	vTaskPlaceOnEventList, %function
vTaskPlaceOnEventList:
.LFB171:
	.loc 1 3086 0
	.cfi_startproc
	@ args = 0, pretend = 0, frame = 0
	@ frame_needed = 0, uses_anonymous_args = 0
.LVL371:
	push	{r4, lr}
	.cfi_def_cfa_offset 8
	.cfi_offset 4, -8
	.cfi_offset 14, -4
	.loc 1 3086 0
	mov	r4, r1
	.loc 1 3087 0
	cbnz	r0, .L394
.LVL372:
.LBB389:
.LBB390:
.LBB391:
	.loc 3 209 0 discriminator 1
	.syntax unified
@ 209 "../../../component/soc/realtek/8710c/cmsis/cmsis-core/include/cmsis_gcc.h" 1
	MRS r2, ipsr
@ 0 "" 2
	.thumb
	.syntax unified
.LBE391:
.LBE390:
	.loc 1 3087 0 discriminator 1
	cbz	r2, .L395
.LVL373:
.L397:
	.loc 1 3087 0 is_stmt 0
	ldr	r1, .L402
.LVL374:
.L396:
	.loc 1 3087 0 is_stmt 1 discriminator 6
	ldr	r4, .L402+4
.LVL375:
	ldr	r3, .L402+8
	movw	r2, #3087
	ldr	r4, [r4, #28]
	ldr	r0, .L402+12
	blx	r4
.LVL376:
.LBB392:
.LBB393:
	.loc 2 195 0 discriminator 6
	.syntax unified
@ 195 "../../../component/os/freertos/freertos_v10.0.1/Source/portable/GCC/ARM_RTL8710C/portmacro.h" 1
		mov r3, #64												
	cpsid i													
	msr basepri, r3											
	isb														
	dsb														
	cpsie i													

@ 0 "" 2
.LVL377:
	.thumb
	.syntax unified
.L398:
	b	.L398
.LVL378:
.L395:
.LBE393:
.LBE392:
	.loc 1 3087 0 discriminator 2
	bl	xTaskGetSchedulerState
.LVL379:
	cmp	r0, #1
	beq	.L397
	.loc 1 3087 0 is_stmt 0 discriminator 4
	mov	r0, r2
	bl	pcTaskGetName
.LVL380:
	mov	r1, r0
.LVL381:
	b	.L396
.LVL382:
.L394:
.LBE389:
	.loc 1 3096 0 is_stmt 1
	ldr	r3, .L402+16
	ldr	r1, [r3]
.LVL383:
	adds	r1, r1, #28
	bl	vListInsert
.LVL384:
	.loc 1 3098 0
	mov	r0, r4
	.loc 1 3099 0
	pop	{r4, lr}
	.cfi_restore 14
	.cfi_restore 4
	.cfi_def_cfa_offset 0
.LVL385:
	.loc 1 3098 0
	movs	r1, #1
	b	prvAddCurrentTaskToDelayedList
.LVL386:
.L403:
	.align	2
.L402:
	.word	.LC0
	.word	stdio_printf_stubs
	.word	.LC1
	.word	.LC13
	.word	.LANCHOR1
	.cfi_endproc
.LFE171:
	.size	vTaskPlaceOnEventList, .-vTaskPlaceOnEventList
	.section	.text.vTaskPlaceOnUnorderedEventList,"ax",%progbits
	.align	1
	.global	vTaskPlaceOnUnorderedEventList
	.syntax unified
	.thumb
	.thumb_func
	.fpu softvfp
	.type	vTaskPlaceOnUnorderedEventList, %function
vTaskPlaceOnUnorderedEventList:
.LFB172:
	.loc 1 3103 0
	.cfi_startproc
	@ args = 0, pretend = 0, frame = 0
	@ frame_needed = 0, uses_anonymous_args = 0
.LVL387:
	push	{r4, lr}
	.cfi_def_cfa_offset 8
	.cfi_offset 4, -8
	.cfi_offset 14, -4
	.loc 1 3103 0
	mov	r4, r2
	.loc 1 3104 0
	cbnz	r0, .L405
.LVL388:
.LBB394:
.LBB395:
.LBB396:
	.loc 3 209 0 discriminator 1
	.syntax unified
@ 209 "../../../component/soc/realtek/8710c/cmsis/cmsis-core/include/cmsis_gcc.h" 1
	MRS r2, ipsr
@ 0 "" 2
.LVL389:
	.thumb
	.syntax unified
.LBE396:
.LBE395:
	.loc 1 3104 0 discriminator 1
	cbz	r2, .L406
.LVL390:
.L408:
	.loc 1 3104 0 is_stmt 0
	ldr	r1, .L421
.LVL391:
.L407:
	.loc 1 3104 0 is_stmt 1 discriminator 6
	ldr	r4, .L421+4
.LVL392:
	ldr	r3, .L421+8
	mov	r2, #3104
	ldr	r4, [r4, #28]
	ldr	r0, .L421+12
	blx	r4
.LVL393:
.LBB397:
.LBB398:
	.loc 2 195 0 discriminator 6
	.syntax unified
@ 195 "../../../component/os/freertos/freertos_v10.0.1/Source/portable/GCC/ARM_RTL8710C/portmacro.h" 1
		mov r3, #64												
	cpsid i													
	msr basepri, r3											
	isb														
	dsb														
	cpsie i													

@ 0 "" 2
.LVL394:
	.thumb
	.syntax unified
.L409:
	b	.L409
.LVL395:
.L406:
.LBE398:
.LBE397:
	.loc 1 3104 0 discriminator 2
	bl	xTaskGetSchedulerState
.LVL396:
	cmp	r0, #1
	beq	.L408
	.loc 1 3104 0 is_stmt 0 discriminator 4
	mov	r0, r2
	bl	pcTaskGetName
.LVL397:
	mov	r1, r0
.LVL398:
	b	.L407
.LVL399:
.L405:
.LBE394:
	.loc 1 3108 0 is_stmt 1
	ldr	r3, .L421+16
	ldr	r3, [r3]
	cbnz	r3, .L410
.LVL400:
.LBB399:
.LBB400:
.LBB401:
	.loc 3 209 0 discriminator 1
	.syntax unified
@ 209 "../../../component/soc/realtek/8710c/cmsis/cmsis-core/include/cmsis_gcc.h" 1
	MRS r2, ipsr
@ 0 "" 2
.LVL401:
	.thumb
	.syntax unified
.LBE401:
.LBE400:
	.loc 1 3108 0 discriminator 1
	cbz	r2, .L411
.LVL402:
.L413:
	.loc 1 3108 0 is_stmt 0
	ldr	r1, .L421
.LVL403:
.L412:
	.loc 1 3108 0 is_stmt 1 discriminator 6
	ldr	r4, .L421+4
.LVL404:
	ldr	r3, .L421+8
	movw	r2, #3108
	ldr	r4, [r4, #28]
	ldr	r0, .L421+20
	blx	r4
.LVL405:
.LBB402:
.LBB403:
	.loc 2 195 0 discriminator 6
	.syntax unified
@ 195 "../../../component/os/freertos/freertos_v10.0.1/Source/portable/GCC/ARM_RTL8710C/portmacro.h" 1
		mov r3, #64												
	cpsid i													
	msr basepri, r3											
	isb														
	dsb														
	cpsie i													

@ 0 "" 2
.LVL406:
	.thumb
	.syntax unified
.L414:
	b	.L414
.LVL407:
.L411:
.LBE403:
.LBE402:
	.loc 1 3108 0 discriminator 2
	bl	xTaskGetSchedulerState
.LVL408:
	cmp	r0, #1
	beq	.L413
	.loc 1 3108 0 is_stmt 0 discriminator 4
	mov	r0, r2
	bl	pcTaskGetName
.LVL409:
	mov	r1, r0
.LVL410:
	b	.L412
.LVL411:
.L410:
.LBE399:
	.loc 1 3113 0 is_stmt 1
	ldr	r3, .L421+24
	orr	r1, r1, #-2147483648
.LVL412:
	ldr	r2, [r3]
.LVL413:
	str	r1, [r2, #28]
	.loc 1 3120 0
	ldr	r1, [r3]
	adds	r1, r1, #28
	bl	vListInsertEnd
.LVL414:
	.loc 1 3122 0
	mov	r0, r4
	.loc 1 3123 0
	pop	{r4, lr}
	.cfi_restore 14
	.cfi_restore 4
	.cfi_def_cfa_offset 0
.LVL415:
	.loc 1 3122 0
	movs	r1, #1
	b	prvAddCurrentTaskToDelayedList
.LVL416:
.L422:
	.align	2
.L421:
	.word	.LC0
	.word	stdio_printf_stubs
	.word	.LC1
	.word	.LC13
	.word	.LANCHOR16
	.word	.LC14
	.word	.LANCHOR1
	.cfi_endproc
.LFE172:
	.size	vTaskPlaceOnUnorderedEventList, .-vTaskPlaceOnUnorderedEventList
	.section	.text.vTaskPlaceOnEventListRestricted,"ax",%progbits
	.align	1
	.global	vTaskPlaceOnEventListRestricted
	.syntax unified
	.thumb
	.thumb_func
	.fpu softvfp
	.type	vTaskPlaceOnEventListRestricted, %function
vTaskPlaceOnEventListRestricted:
.LFB173:
	.loc 1 3129 0
	.cfi_startproc
	@ args = 0, pretend = 0, frame = 0
	@ frame_needed = 0, uses_anonymous_args = 0
.LVL417:
	push	{r3, r4, r5, lr}
	.cfi_def_cfa_offset 16
	.cfi_offset 3, -16
	.cfi_offset 4, -12
	.cfi_offset 5, -8
	.cfi_offset 14, -4
	.loc 1 3129 0
	mov	r5, r1
	mov	r4, r2
	.loc 1 3130 0
	cbnz	r0, .L424
.LVL418:
.LBB404:
.LBB405:
.LBB406:
	.loc 3 209 0 discriminator 1
	.syntax unified
@ 209 "../../../component/soc/realtek/8710c/cmsis/cmsis-core/include/cmsis_gcc.h" 1
	MRS r2, ipsr
@ 0 "" 2
.LVL419:
	.thumb
	.syntax unified
.LBE406:
.LBE405:
	.loc 1 3130 0 discriminator 1
	cbz	r2, .L425
.LVL420:
.L427:
	.loc 1 3130 0 is_stmt 0
	ldr	r1, .L435
.LVL421:
.L426:
	.loc 1 3130 0 is_stmt 1 discriminator 6
	ldr	r4, .L435+4
.LVL422:
	ldr	r3, .L435+8
	movw	r2, #3130
	ldr	r4, [r4, #28]
	ldr	r0, .L435+12
	blx	r4
.LVL423:
.LBB407:
.LBB408:
	.loc 2 195 0 discriminator 6
	.syntax unified
@ 195 "../../../component/os/freertos/freertos_v10.0.1/Source/portable/GCC/ARM_RTL8710C/portmacro.h" 1
		mov r3, #64												
	cpsid i													
	msr basepri, r3											
	isb														
	dsb														
	cpsie i													

@ 0 "" 2
.LVL424:
	.thumb
	.syntax unified
.L428:
	b	.L428
.LVL425:
.L425:
.LBE408:
.LBE407:
	.loc 1 3130 0 discriminator 2
	bl	xTaskGetSchedulerState
.LVL426:
	cmp	r0, #1
	beq	.L427
	.loc 1 3130 0 is_stmt 0 discriminator 4
	mov	r0, r2
	bl	pcTaskGetName
.LVL427:
	mov	r1, r0
.LVL428:
	b	.L426
.LVL429:
.L424:
.LBE404:
	.loc 1 3142 0 is_stmt 1
	ldr	r3, .L435+16
	ldr	r1, [r3]
.LVL430:
	adds	r1, r1, #28
	bl	vListInsertEnd
.LVL431:
	.loc 1 3149 0
	cmp	r4, #0
.LVL432:
	.loc 1 3153 0
	mov	r1, r4
	it	eq
	moveq	r0, r5
	.loc 1 3154 0
	pop	{r3, r4, r5, lr}
	.cfi_restore 14
	.cfi_restore 5
	.cfi_restore 4
	.cfi_restore 3
	.cfi_def_cfa_offset 0
.LVL433:
	.loc 1 3153 0
	it	ne
	movne	r0, #-1
	b	prvAddCurrentTaskToDelayedList
.LVL434:
.L436:
	.align	2
.L435:
	.word	.LC0
	.word	stdio_printf_stubs
	.word	.LC1
	.word	.LC13
	.word	.LANCHOR1
	.cfi_endproc
.LFE173:
	.size	vTaskPlaceOnEventListRestricted, .-vTaskPlaceOnEventListRestricted
	.section	.text.xTaskRemoveFromEventList,"ax",%progbits
	.align	1
	.global	xTaskRemoveFromEventList
	.syntax unified
	.thumb
	.thumb_func
	.fpu softvfp
	.type	xTaskRemoveFromEventList, %function
xTaskRemoveFromEventList:
.LFB174:
	.loc 1 3160 0
	.cfi_startproc
	@ args = 0, pretend = 0, frame = 0
	@ frame_needed = 0, uses_anonymous_args = 0
.LVL435:
	push	{r3, r4, r5, lr}
	.cfi_def_cfa_offset 16
	.cfi_offset 3, -16
	.cfi_offset 4, -12
	.cfi_offset 5, -8
	.cfi_offset 14, -4
	.loc 1 3177 0
	ldr	r3, [r0, #12]
	ldr	r4, [r3, #12]
.LVL436:
	.loc 1 3178 0
	cbnz	r4, .L438
.LVL437:
.LBB409:
.LBB410:
.LBB411:
	.loc 3 209 0 discriminator 1
	.syntax unified
@ 209 "../../../component/soc/realtek/8710c/cmsis/cmsis-core/include/cmsis_gcc.h" 1
	MRS r2, ipsr
@ 0 "" 2
	.thumb
	.syntax unified
.LBE411:
.LBE410:
	.loc 1 3178 0 discriminator 1
	cbz	r2, .L439
.LVL438:
.L441:
	.loc 1 3178 0 is_stmt 0
	ldr	r1, .L452
.LVL439:
.L440:
	.loc 1 3178 0 is_stmt 1 discriminator 6
	ldr	r4, .L452+4
.LVL440:
	ldr	r3, .L452+8
	movw	r2, #3178
	ldr	r4, [r4, #28]
	ldr	r0, .L452+12
	blx	r4
.LVL441:
.LBB412:
.LBB413:
	.loc 2 195 0 discriminator 6
	.syntax unified
@ 195 "../../../component/os/freertos/freertos_v10.0.1/Source/portable/GCC/ARM_RTL8710C/portmacro.h" 1
		mov r3, #64												
	cpsid i													
	msr basepri, r3											
	isb														
	dsb														
	cpsie i													

@ 0 "" 2
.LVL442:
	.thumb
	.syntax unified
.L442:
	b	.L442
.LVL443:
.L439:
.LBE413:
.LBE412:
	.loc 1 3178 0 discriminator 2
	bl	xTaskGetSchedulerState
.LVL444:
	cmp	r0, #1
	beq	.L441
	.loc 1 3178 0 is_stmt 0 discriminator 4
	mov	r0, r2
	bl	pcTaskGetName
.LVL445:
	mov	r1, r0
.LVL446:
	b	.L440
.LVL447:
.L438:
.LBE409:
	.loc 1 3179 0 is_stmt 1
	add	r5, r4, #28
	mov	r0, r5
.LVL448:
	bl	uxListRemove
.LVL449:
	.loc 1 3181 0
	ldr	r3, .L452+16
	ldr	r3, [r3]
	cbnz	r3, .L443
	.loc 1 3183 0
	add	r5, r4, #8
	mov	r0, r5
	bl	uxListRemove
.LVL450:
	.loc 1 3184 0
	ldr	r2, .L452+20
	movs	r0, #20
	ldr	r1, [r2]
	ldr	r3, [r4, #48]
	cmp	r3, r1
	mov	r1, r5
	it	hi
	strhi	r3, [r2]
	ldr	r2, .L452+24
	mla	r0, r0, r3, r2
.L451:
	.loc 1 3190 0
	bl	vListInsertEnd
.LVL451:
	.loc 1 3193 0
	ldr	r3, .L452+28
	ldr	r2, [r4, #48]
	ldr	r3, [r3]
	ldr	r3, [r3, #48]
	cmp	r2, r3
.LVL452:
	.loc 1 3202 0
	ittet	hi
	movhi	r0, #1
	ldrhi	r3, .L452+32
	.loc 1 3206 0
	movls	r0, #0
.LVL453:
	.loc 1 3202 0
	strhi	r0, [r3]
	.loc 1 3224 0
	pop	{r3, r4, r5, pc}
.LVL454:
.L443:
	.loc 1 3190 0
	mov	r1, r5
	ldr	r0, .L452+36
	b	.L451
.L453:
	.align	2
.L452:
	.word	.LC0
	.word	stdio_printf_stubs
	.word	.LC1
	.word	.LC15
	.word	.LANCHOR16
	.word	.LANCHOR12
	.word	.LANCHOR2
	.word	.LANCHOR1
	.word	.LANCHOR18
	.word	.LANCHOR5
	.cfi_endproc
.LFE174:
	.size	xTaskRemoveFromEventList, .-xTaskRemoveFromEventList
	.section	.text.vTaskRemoveFromUnorderedEventList,"ax",%progbits
	.align	1
	.global	vTaskRemoveFromUnorderedEventList
	.syntax unified
	.thumb
	.thumb_func
	.fpu softvfp
	.type	vTaskRemoveFromUnorderedEventList, %function
vTaskRemoveFromUnorderedEventList:
.LFB175:
	.loc 1 3228 0
	.cfi_startproc
	@ args = 0, pretend = 0, frame = 0
	@ frame_needed = 0, uses_anonymous_args = 0
.LVL455:
	.loc 1 3233 0
	ldr	r2, .L473
	.loc 1 3228 0
	push	{r3, r4, r5, lr}
	.cfi_def_cfa_offset 16
	.cfi_offset 3, -16
	.cfi_offset 4, -12
	.cfi_offset 5, -8
	.cfi_offset 14, -4
	.loc 1 3233 0
	ldr	r2, [r2]
	cbnz	r2, .L455
.LVL456:
.LBB414:
.LBB415:
.LBB416:
	.loc 3 209 0 discriminator 1
	.syntax unified
@ 209 "../../../component/soc/realtek/8710c/cmsis/cmsis-core/include/cmsis_gcc.h" 1
	MRS r2, ipsr
@ 0 "" 2
	.thumb
	.syntax unified
.LBE416:
.LBE415:
	.loc 1 3233 0 discriminator 1
	cbz	r2, .L456
.LVL457:
.L458:
	.loc 1 3233 0 is_stmt 0
	ldr	r1, .L473+4
.LVL458:
.L457:
	.loc 1 3233 0 is_stmt 1 discriminator 6
	ldr	r4, .L473+8
	ldr	r3, .L473+12
	movw	r2, #3233
	ldr	r4, [r4, #28]
	ldr	r0, .L473+16
	blx	r4
.LVL459:
.LBB417:
.LBB418:
	.loc 2 195 0 discriminator 6
	.syntax unified
@ 195 "../../../component/os/freertos/freertos_v10.0.1/Source/portable/GCC/ARM_RTL8710C/portmacro.h" 1
		mov r3, #64												
	cpsid i													
	msr basepri, r3											
	isb														
	dsb														
	cpsie i													

@ 0 "" 2
.LVL460:
	.thumb
	.syntax unified
.L459:
	b	.L459
.LVL461:
.L456:
.LBE418:
.LBE417:
	.loc 1 3233 0 discriminator 2
	bl	xTaskGetSchedulerState
.LVL462:
	cmp	r0, #1
	beq	.L458
	.loc 1 3233 0 is_stmt 0 discriminator 4
	mov	r0, r2
	bl	pcTaskGetName
.LVL463:
	mov	r1, r0
.LVL464:
	b	.L457
.LVL465:
.L455:
.LBE414:
	.loc 1 3240 0 is_stmt 1
	ldr	r4, [r0, #12]
.LVL466:
	.loc 1 3236 0
	orr	r1, r1, #-2147483648
.LVL467:
	str	r1, [r0]
	.loc 1 3241 0
	cbnz	r4, .L460
.LVL468:
.LBB419:
.LBB420:
.LBB421:
	.loc 3 209 0 discriminator 1
	.syntax unified
@ 209 "../../../component/soc/realtek/8710c/cmsis/cmsis-core/include/cmsis_gcc.h" 1
	MRS r2, ipsr
@ 0 "" 2
	.thumb
	.syntax unified
.LBE421:
.LBE420:
	.loc 1 3241 0 discriminator 1
	cbz	r2, .L461
.LVL469:
.L463:
	.loc 1 3241 0 is_stmt 0
	ldr	r1, .L473+4
.LVL470:
.L462:
	.loc 1 3241 0 is_stmt 1 discriminator 6
	ldr	r4, .L473+8
.LVL471:
	ldr	r3, .L473+12
	movw	r2, #3241
	ldr	r4, [r4, #28]
	ldr	r0, .L473+20
	blx	r4
.LVL472:
.LBB422:
.LBB423:
	.loc 2 195 0 discriminator 6
	.syntax unified
@ 195 "../../../component/os/freertos/freertos_v10.0.1/Source/portable/GCC/ARM_RTL8710C/portmacro.h" 1
		mov r3, #64												
	cpsid i													
	msr basepri, r3											
	isb														
	dsb														
	cpsie i													

@ 0 "" 2
.LVL473:
	.thumb
	.syntax unified
.L464:
	b	.L464
.LVL474:
.L461:
.LBE423:
.LBE422:
	.loc 1 3241 0 discriminator 2
	bl	xTaskGetSchedulerState
.LVL475:
	cmp	r0, #1
	beq	.L463
	.loc 1 3241 0 is_stmt 0 discriminator 4
	mov	r0, r2
	bl	pcTaskGetName
.LVL476:
	mov	r1, r0
.LVL477:
	b	.L462
.LVL478:
.L460:
.LBE419:
	.loc 1 3247 0 is_stmt 1
	add	r5, r4, #8
	.loc 1 3242 0
	bl	uxListRemove
.LVL479:
	.loc 1 3247 0
	mov	r0, r5
	bl	uxListRemove
.LVL480:
	.loc 1 3248 0
	movs	r0, #20
	ldr	r2, .L473+24
	ldr	r3, [r4, #48]
	ldr	r1, [r2]
	cmp	r3, r1
	it	hi
	strhi	r3, [r2]
	ldr	r2, .L473+28
	mov	r1, r5
	mla	r0, r0, r3, r2
	bl	vListInsertEnd
.LVL481:
	.loc 1 3250 0
	ldr	r3, .L473+32
	ldr	r2, [r4, #48]
	ldr	r3, [r3]
	ldr	r3, [r3, #48]
	cmp	r2, r3
	.loc 1 3256 0
	ittt	hi
	movhi	r2, #1
	ldrhi	r3, .L473+36
	strhi	r2, [r3]
	pop	{r3, r4, r5, pc}
.LVL482:
.L474:
	.align	2
.L473:
	.word	.LANCHOR16
	.word	.LC0
	.word	stdio_printf_stubs
	.word	.LC1
	.word	.LC16
	.word	.LC15
	.word	.LANCHOR12
	.word	.LANCHOR2
	.word	.LANCHOR1
	.word	.LANCHOR18
	.cfi_endproc
.LFE175:
	.size	vTaskRemoveFromUnorderedEventList, .-vTaskRemoveFromUnorderedEventList
	.section	.text.vTaskSetTimeOutState,"ax",%progbits
	.align	1
	.global	vTaskSetTimeOutState
	.syntax unified
	.thumb
	.thumb_func
	.fpu softvfp
	.type	vTaskSetTimeOutState, %function
vTaskSetTimeOutState:
.LFB176:
	.loc 1 3262 0
	.cfi_startproc
	@ args = 0, pretend = 0, frame = 0
	@ frame_needed = 0, uses_anonymous_args = 0
.LVL483:
	push	{r4, lr}
	.cfi_def_cfa_offset 8
	.cfi_offset 4, -8
	.cfi_offset 14, -4
	.loc 1 3263 0
	mov	r4, r0
	cbnz	r0, .L476
.LVL484:
.LBB424:
.LBB425:
.LBB426:
	.loc 3 209 0 discriminator 1
	.syntax unified
@ 209 "../../../component/soc/realtek/8710c/cmsis/cmsis-core/include/cmsis_gcc.h" 1
	MRS r2, ipsr
@ 0 "" 2
	.thumb
	.syntax unified
.LBE426:
.LBE425:
	.loc 1 3263 0 discriminator 1
	cbz	r2, .L477
.LVL485:
.L479:
	.loc 1 3263 0 is_stmt 0
	ldr	r1, .L484
.LVL486:
.L478:
	.loc 1 3263 0 is_stmt 1 discriminator 6
	ldr	r4, .L484+4
.LVL487:
	ldr	r3, .L484+8
	movw	r2, #3263
	ldr	r4, [r4, #28]
	ldr	r0, .L484+12
	blx	r4
.LVL488:
.LBB427:
.LBB428:
	.loc 2 195 0 discriminator 6
	.syntax unified
@ 195 "../../../component/os/freertos/freertos_v10.0.1/Source/portable/GCC/ARM_RTL8710C/portmacro.h" 1
		mov r3, #64												
	cpsid i													
	msr basepri, r3											
	isb														
	dsb														
	cpsie i													

@ 0 "" 2
.LVL489:
	.thumb
	.syntax unified
.L480:
	b	.L480
.LVL490:
.L477:
.LBE428:
.LBE427:
	.loc 1 3263 0 discriminator 2
	bl	xTaskGetSchedulerState
.LVL491:
	cmp	r0, #1
	beq	.L479
	.loc 1 3263 0 is_stmt 0 discriminator 4
	mov	r0, r2
	bl	pcTaskGetName
.LVL492:
	mov	r1, r0
.LVL493:
	b	.L478
.LVL494:
.L476:
.LBE424:
	.loc 1 3264 0 is_stmt 1
	bl	vPortEnterCritical
.LVL495:
	.loc 1 3266 0
	ldr	r3, .L484+16
	ldr	r3, [r3]
	str	r3, [r4]
	.loc 1 3267 0
	ldr	r3, .L484+20
	ldr	r3, [r3]
	str	r3, [r4, #4]
	.loc 1 3270 0
	pop	{r4, lr}
	.cfi_restore 14
	.cfi_restore 4
	.cfi_def_cfa_offset 0
.LVL496:
	.loc 1 3269 0
	b	vPortExitCritical
.LVL497:
.L485:
	.align	2
.L484:
	.word	.LC0
	.word	stdio_printf_stubs
	.word	.LC1
	.word	.LC17
	.word	.LANCHOR17
	.word	.LANCHOR14
	.cfi_endproc
.LFE176:
	.size	vTaskSetTimeOutState, .-vTaskSetTimeOutState
	.section	.text.xTaskCheckForTimeOut,"ax",%progbits
	.align	1
	.global	xTaskCheckForTimeOut
	.syntax unified
	.thumb
	.thumb_func
	.fpu softvfp
	.type	xTaskCheckForTimeOut, %function
xTaskCheckForTimeOut:
.LFB178:
	.loc 1 3282 0
	.cfi_startproc
	@ args = 0, pretend = 0, frame = 0
	@ frame_needed = 0, uses_anonymous_args = 0
.LVL498:
	push	{r4, r5, r6, lr}
	.cfi_def_cfa_offset 16
	.cfi_offset 4, -16
	.cfi_offset 5, -12
	.cfi_offset 6, -8
	.cfi_offset 14, -4
	.loc 1 3282 0
	mov	r4, r1
	.loc 1 3285 0
	mov	r5, r0
	cbnz	r0, .L487
.LVL499:
.LBB429:
.LBB430:
.LBB431:
	.loc 3 209 0 discriminator 1
	.syntax unified
@ 209 "../../../component/soc/realtek/8710c/cmsis/cmsis-core/include/cmsis_gcc.h" 1
	MRS r2, ipsr
@ 0 "" 2
	.thumb
	.syntax unified
.LBE431:
.LBE430:
	.loc 1 3285 0 discriminator 1
	cbz	r2, .L488
.LVL500:
.L490:
	.loc 1 3285 0 is_stmt 0
	ldr	r1, .L508
.LVL501:
.L489:
	.loc 1 3285 0 is_stmt 1 discriminator 6
	ldr	r4, .L508+4
.LVL502:
	ldr	r3, .L508+8
	movw	r2, #3285
	ldr	r4, [r4, #28]
	ldr	r0, .L508+12
	blx	r4
.LVL503:
.LBB432:
.LBB433:
	.loc 2 195 0 discriminator 6
	.syntax unified
@ 195 "../../../component/os/freertos/freertos_v10.0.1/Source/portable/GCC/ARM_RTL8710C/portmacro.h" 1
		mov r3, #64												
	cpsid i													
	msr basepri, r3											
	isb														
	dsb														
	cpsie i													

@ 0 "" 2
.LVL504:
	.thumb
	.syntax unified
.L491:
	b	.L491
.LVL505:
.L488:
.LBE433:
.LBE432:
	.loc 1 3285 0 discriminator 2
	bl	xTaskGetSchedulerState
.LVL506:
	cmp	r0, #1
	beq	.L490
	.loc 1 3285 0 is_stmt 0 discriminator 4
	mov	r0, r2
	bl	pcTaskGetName
.LVL507:
	mov	r1, r0
.LVL508:
	b	.L489
.LVL509:
.L487:
.LBE429:
	.loc 1 3286 0 is_stmt 1
	cbnz	r1, .L492
.LVL510:
.LBB434:
.LBB435:
.LBB436:
	.loc 3 209 0 discriminator 1
	.syntax unified
@ 209 "../../../component/soc/realtek/8710c/cmsis/cmsis-core/include/cmsis_gcc.h" 1
	MRS r2, ipsr
@ 0 "" 2
	.thumb
	.syntax unified
.LBE436:
.LBE435:
	.loc 1 3286 0 discriminator 1
	cbz	r2, .L493
.LVL511:
.L495:
	.loc 1 3286 0 is_stmt 0
	ldr	r1, .L508
.LVL512:
.L494:
	.loc 1 3286 0 is_stmt 1 discriminator 6
	ldr	r4, .L508+4
.LVL513:
	ldr	r3, .L508+8
	movw	r2, #3286
	ldr	r4, [r4, #28]
	ldr	r0, .L508+16
	blx	r4
.LVL514:
.LBB437:
.LBB438:
	.loc 2 195 0 discriminator 6
	.syntax unified
@ 195 "../../../component/os/freertos/freertos_v10.0.1/Source/portable/GCC/ARM_RTL8710C/portmacro.h" 1
		mov r3, #64												
	cpsid i													
	msr basepri, r3											
	isb														
	dsb														
	cpsie i													

@ 0 "" 2
.LVL515:
	.thumb
	.syntax unified
.L496:
	b	.L496
.LVL516:
.L493:
.LBE438:
.LBE437:
	.loc 1 3286 0 discriminator 2
	bl	xTaskGetSchedulerState
.LVL517:
	cmp	r0, #1
	beq	.L495
	.loc 1 3286 0 is_stmt 0 discriminator 4
	mov	r0, r2
	bl	pcTaskGetName
.LVL518:
	mov	r1, r0
.LVL519:
	b	.L494
.LVL520:
.L492:
.LBE434:
	.loc 1 3288 0 is_stmt 1
	bl	vPortEnterCritical
.LVL521:
.LBB439:
	.loc 1 3291 0
	ldr	r3, .L508+20
	.loc 1 3292 0
	ldr	r1, [r5, #4]
	.loc 1 3291 0
	ldr	r2, [r3]
.LVL522:
	.loc 1 3306 0
	ldr	r3, [r4]
	adds	r0, r3, #1
	beq	.L500
	.loc 1 3316 0
	ldr	r0, .L508+24
	ldr	r6, [r5]
	ldr	r0, [r0]
	cmp	r6, r0
	beq	.L498
	.loc 1 3316 0 is_stmt 0 discriminator 1
	cmp	r2, r1
	bcs	.L501
.L498:
	.loc 1 3292 0 is_stmt 1
	subs	r2, r2, r1
.LVL523:
	.loc 1 3325 0
	cmp	r2, r3
	bcs	.L499
	.loc 1 3328 0
	subs	r3, r3, r2
	str	r3, [r4]
	.loc 1 3329 0
	mov	r0, r5
	bl	vTaskInternalSetTimeOutState
.LVL524:
.L500:
	.loc 1 3311 0
	movs	r4, #0
.LVL525:
.L497:
.LBE439:
	.loc 1 3338 0
	bl	vPortExitCritical
.LVL526:
	.loc 1 3341 0
	mov	r0, r4
	pop	{r4, r5, r6, pc}
.LVL527:
.L499:
.LBB440:
	.loc 1 3334 0
	movs	r3, #0
	str	r3, [r4]
.LVL528:
.L501:
	.loc 1 3323 0
	movs	r4, #1
.LVL529:
	b	.L497
.L509:
	.align	2
.L508:
	.word	.LC0
	.word	stdio_printf_stubs
	.word	.LC1
	.word	.LC17
	.word	.LC18
	.word	.LANCHOR14
	.word	.LANCHOR17
.LBE440:
	.cfi_endproc
.LFE178:
	.size	xTaskCheckForTimeOut, .-xTaskCheckForTimeOut
	.section	.text.xTaskPriorityInherit,"ax",%progbits
	.align	1
	.global	xTaskPriorityInherit
	.syntax unified
	.thumb
	.thumb_func
	.fpu softvfp
	.type	xTaskPriorityInherit, %function
xTaskPriorityInherit:
.LFB187:
	.loc 1 3980 0
	.cfi_startproc
	@ args = 0, pretend = 0, frame = 0
	@ frame_needed = 0, uses_anonymous_args = 0
.LVL530:
	push	{r3, r4, r5, r6, r7, lr}
	.cfi_def_cfa_offset 24
	.cfi_offset 3, -24
	.cfi_offset 4, -20
	.cfi_offset 5, -16
	.cfi_offset 6, -12
	.cfi_offset 7, -8
	.cfi_offset 14, -4
	.loc 1 3987 0
	mov	r4, r0
	cmp	r0, #0
	beq	.L518
	.loc 1 3992 0
	ldr	r2, .L521
	ldr	r3, [r0, #48]
	ldr	r1, [r2]
	mov	r6, r2
	ldr	r1, [r1, #48]
	cmp	r3, r1
	bcs	.L512
	.loc 1 3997 0
	ldr	r2, [r0, #28]
	.loc 1 4008 0
	ldr	r5, .L521+4
	.loc 1 3997 0
	cmp	r2, #0
	.loc 1 3999 0
	itttt	ge
	ldrge	r2, [r6]
	ldrge	r2, [r2, #48]
	rsbge	r2, r2, #11
	strge	r2, [r0, #28]
	.loc 1 4008 0
	movs	r2, #20
	mla	r3, r2, r3, r5
	ldr	r2, [r0, #24]
	cmp	r2, r3
	bne	.L519
	.loc 1 4010 0
	add	r7, r0, #8
	mov	r0, r7
.LVL531:
	bl	uxListRemove
.LVL532:
	.loc 1 4020 0
	ldr	r3, [r6]
	.loc 1 4021 0
	ldr	r2, .L521+8
	.loc 1 4020 0
	ldr	r3, [r3, #48]
	.loc 1 4021 0
	ldr	r1, [r2]
	.loc 1 4020 0
	str	r3, [r4, #48]
	.loc 1 4021 0
	cmp	r3, r1
	bls	.L517
	.loc 1 4021 0 is_stmt 0 discriminator 1
	str	r3, [r2]
.L517:
	.loc 1 4021 0 discriminator 3
	movs	r0, #20
	mov	r1, r7
	mla	r0, r0, r3, r5
	bl	vListInsertEnd
.LVL533:
.L520:
	.loc 1 4032 0 is_stmt 1
	movs	r0, #1
	.loc 1 4059 0
	pop	{r3, r4, r5, r6, r7, pc}
.LVL534:
.L512:
	.loc 1 4036 0
	ldr	r3, [r2]
	ldr	r0, [r0, #64]
.LVL535:
	ldr	r4, [r3, #48]
.LVL536:
	cmp	r0, r4
	ite	cs
	movcs	r0, #0
	movcc	r0, #1
	pop	{r3, r4, r5, r6, r7, pc}
.LVL537:
.L518:
	.loc 1 4058 0
	pop	{r3, r4, r5, r6, r7, pc}
.LVL538:
.L519:
	.loc 1 4026 0
	ldr	r3, [r6]
	ldr	r3, [r3, #48]
	str	r3, [r0, #48]
	b	.L520
.L522:
	.align	2
.L521:
	.word	.LANCHOR1
	.word	.LANCHOR2
	.word	.LANCHOR12
	.cfi_endproc
.LFE187:
	.size	xTaskPriorityInherit, .-xTaskPriorityInherit
	.section	.text.xTaskPriorityDisinherit,"ax",%progbits
	.align	1
	.global	xTaskPriorityDisinherit
	.syntax unified
	.thumb
	.thumb_func
	.fpu softvfp
	.type	xTaskPriorityDisinherit, %function
xTaskPriorityDisinherit:
.LFB188:
	.loc 1 4067 0
	.cfi_startproc
	@ args = 0, pretend = 0, frame = 0
	@ frame_needed = 0, uses_anonymous_args = 0
.LVL539:
	push	{r3, r4, r5, lr}
	.cfi_def_cfa_offset 16
	.cfi_offset 3, -16
	.cfi_offset 4, -12
	.cfi_offset 5, -8
	.cfi_offset 14, -4
	.loc 1 4071 0
	mov	r4, r0
	cbnz	r0, .L524
.L536:
	.loc 1 4069 0
	movs	r0, #0
.LVL540:
	pop	{r3, r4, r5, pc}
.LVL541:
.L524:
	.loc 1 4077 0
	ldr	r3, .L544
	ldr	r3, [r3]
	cmp	r0, r3
	beq	.L526
.LVL542:
.LBB441:
.LBB442:
.LBB443:
	.loc 3 209 0 discriminator 1
	.syntax unified
@ 209 "../../../component/soc/realtek/8710c/cmsis/cmsis-core/include/cmsis_gcc.h" 1
	MRS r2, ipsr
@ 0 "" 2
	.thumb
	.syntax unified
.LBE443:
.LBE442:
	.loc 1 4077 0 discriminator 1
	cbz	r2, .L527
.LVL543:
.L529:
	.loc 1 4077 0 is_stmt 0
	ldr	r1, .L544+4
.LVL544:
.L528:
	.loc 1 4077 0 is_stmt 1 discriminator 6
	ldr	r4, .L544+8
.LVL545:
	ldr	r3, .L544+12
	movw	r2, #4077
	ldr	r4, [r4, #28]
	ldr	r0, .L544+16
	blx	r4
.LVL546:
.LBB444:
.LBB445:
	.loc 2 195 0 discriminator 6
	.syntax unified
@ 195 "../../../component/os/freertos/freertos_v10.0.1/Source/portable/GCC/ARM_RTL8710C/portmacro.h" 1
		mov r3, #64												
	cpsid i													
	msr basepri, r3											
	isb														
	dsb														
	cpsie i													

@ 0 "" 2
.LVL547:
	.thumb
	.syntax unified
.L530:
	b	.L530
.LVL548:
.L527:
.LBE445:
.LBE444:
	.loc 1 4077 0 discriminator 2
	bl	xTaskGetSchedulerState
.LVL549:
	cmp	r0, #1
	beq	.L529
	.loc 1 4077 0 is_stmt 0 discriminator 4
	mov	r0, r2
	bl	pcTaskGetName
.LVL550:
	mov	r1, r0
.LVL551:
	b	.L528
.LVL552:
.L526:
.LBE441:
	.loc 1 4078 0 is_stmt 1
	ldr	r3, [r0, #68]
	cbnz	r3, .L531
.LVL553:
.LBB446:
.LBB447:
.LBB448:
	.loc 3 209 0 discriminator 1
	.syntax unified
@ 209 "../../../component/soc/realtek/8710c/cmsis/cmsis-core/include/cmsis_gcc.h" 1
	MRS r2, ipsr
@ 0 "" 2
	.thumb
	.syntax unified
.LBE448:
.LBE447:
	.loc 1 4078 0 discriminator 1
	cbz	r2, .L532
.LVL554:
.L534:
	.loc 1 4078 0 is_stmt 0
	ldr	r1, .L544+4
.LVL555:
.L533:
	.loc 1 4078 0 is_stmt 1 discriminator 6
	ldr	r4, .L544+8
.LVL556:
	ldr	r3, .L544+12
	movw	r2, #4078
	ldr	r4, [r4, #28]
	ldr	r0, .L544+20
	blx	r4
.LVL557:
.LBB449:
.LBB450:
	.loc 2 195 0 discriminator 6
	.syntax unified
@ 195 "../../../component/os/freertos/freertos_v10.0.1/Source/portable/GCC/ARM_RTL8710C/portmacro.h" 1
		mov r3, #64												
	cpsid i													
	msr basepri, r3											
	isb														
	dsb														
	cpsie i													

@ 0 "" 2
.LVL558:
	.thumb
	.syntax unified
.L535:
	b	.L535
.LVL559:
.L532:
.LBE450:
.LBE449:
	.loc 1 4078 0 discriminator 2
	bl	xTaskGetSchedulerState
.LVL560:
	cmp	r0, #1
	beq	.L534
	.loc 1 4078 0 is_stmt 0 discriminator 4
	mov	r0, r2
	bl	pcTaskGetName
.LVL561:
	mov	r1, r0
.LVL562:
	b	.L533
.LVL563:
.L531:
.LBE446:
	.loc 1 4083 0 is_stmt 1
	ldr	r1, [r0, #48]
	ldr	r2, [r0, #64]
	.loc 1 4079 0
	subs	r3, r3, #1
	.loc 1 4083 0
	cmp	r1, r2
	.loc 1 4079 0
	str	r3, [r0, #68]
	.loc 1 4083 0
	beq	.L536
	.loc 1 4086 0
	cmp	r3, #0
	bne	.L536
	.loc 1 4093 0
	add	r5, r0, #8
	mov	r0, r5
.LVL564:
	bl	uxListRemove
.LVL565:
	.loc 1 4111 0
	movs	r0, #20
	.loc 1 4105 0
	ldr	r3, [r4, #64]
	.loc 1 4110 0
	rsb	r2, r3, #11
	str	r2, [r4, #28]
	.loc 1 4111 0
	ldr	r2, .L544+24
	.loc 1 4105 0
	str	r3, [r4, #48]
	.loc 1 4111 0
	ldr	r1, [r2]
	cmp	r3, r1
	it	hi
	strhi	r3, [r2]
	ldr	r2, .L544+28
	mov	r1, r5
	mla	r0, r0, r3, r2
	bl	vListInsertEnd
.LVL566:
	.loc 1 4121 0
	movs	r0, #1
	.loc 1 4139 0
	pop	{r3, r4, r5, pc}
.LVL567:
.L545:
	.align	2
.L544:
	.word	.LANCHOR1
	.word	.LC0
	.word	stdio_printf_stubs
	.word	.LC1
	.word	.LC19
	.word	.LC20
	.word	.LANCHOR12
	.word	.LANCHOR2
	.cfi_endproc
.LFE188:
	.size	xTaskPriorityDisinherit, .-xTaskPriorityDisinherit
	.section	.text.vTaskPriorityDisinheritAfterTimeout,"ax",%progbits
	.align	1
	.global	vTaskPriorityDisinheritAfterTimeout
	.syntax unified
	.thumb
	.thumb_func
	.fpu softvfp
	.type	vTaskPriorityDisinheritAfterTimeout, %function
vTaskPriorityDisinheritAfterTimeout:
.LFB189:
	.loc 1 4147 0
	.cfi_startproc
	@ args = 0, pretend = 0, frame = 0
	@ frame_needed = 0, uses_anonymous_args = 0
.LVL568:
	push	{r4, r5, r6, lr}
	.cfi_def_cfa_offset 16
	.cfi_offset 4, -16
	.cfi_offset 5, -12
	.cfi_offset 6, -8
	.cfi_offset 14, -4
	.loc 1 4152 0
	mov	r4, r0
	cmp	r0, #0
	beq	.L546
	.loc 1 4156 0
	ldr	r2, [r0, #68]
	cbnz	r2, .L549
.LVL569:
.LBB451:
.LBB452:
.LBB453:
	.loc 3 209 0 discriminator 1
	.syntax unified
@ 209 "../../../component/soc/realtek/8710c/cmsis/cmsis-core/include/cmsis_gcc.h" 1
	MRS r2, ipsr
@ 0 "" 2
	.thumb
	.syntax unified
.LBE453:
.LBE452:
	.loc 1 4156 0 discriminator 1
	cbz	r2, .L550
.LVL570:
.L552:
	.loc 1 4156 0 is_stmt 0
	ldr	r1, .L570
.LVL571:
.L551:
	.loc 1 4156 0 is_stmt 1 discriminator 6
	ldr	r4, .L570+4
.LVL572:
	ldr	r3, .L570+8
	movw	r2, #4156
	ldr	r4, [r4, #28]
	ldr	r0, .L570+12
	blx	r4
.LVL573:
.LBB454:
.LBB455:
	.loc 2 195 0 discriminator 6
	.syntax unified
@ 195 "../../../component/os/freertos/freertos_v10.0.1/Source/portable/GCC/ARM_RTL8710C/portmacro.h" 1
		mov r3, #64												
	cpsid i													
	msr basepri, r3											
	isb														
	dsb														
	cpsie i													

@ 0 "" 2
.LVL574:
	.thumb
	.syntax unified
.L553:
	b	.L553
.LVL575:
.L550:
.LBE455:
.LBE454:
	.loc 1 4156 0 discriminator 2
	bl	xTaskGetSchedulerState
.LVL576:
	cmp	r0, #1
	beq	.L552
	.loc 1 4156 0 is_stmt 0 discriminator 4
	mov	r0, r2
	bl	pcTaskGetName
.LVL577:
	mov	r1, r0
.LVL578:
	b	.L551
.LVL579:
.L549:
	ldr	r3, [r0, #64]
	cmp	r1, r3
	it	cc
	movcc	r1, r3
.LVL580:
.LBE451:
	.loc 1 4172 0 is_stmt 1
	ldr	r3, [r0, #48]
	cmp	r3, r1
	beq	.L546
	.loc 1 4178 0
	cmp	r2, #1
	bne	.L546
	.loc 1 4183 0
	ldr	r2, .L570+16
	ldr	r2, [r2]
	cmp	r0, r2
	bne	.L555
.LVL581:
.LBB456:
.LBB457:
.LBB458:
	.loc 3 209 0 discriminator 1
	.syntax unified
@ 209 "../../../component/soc/realtek/8710c/cmsis/cmsis-core/include/cmsis_gcc.h" 1
	MRS r2, ipsr
@ 0 "" 2
	.thumb
	.syntax unified
.LBE458:
.LBE457:
	.loc 1 4183 0 discriminator 1
	cbz	r2, .L556
.LVL582:
.L558:
	.loc 1 4183 0 is_stmt 0
	ldr	r1, .L570
.LVL583:
.L557:
	.loc 1 4183 0 is_stmt 1 discriminator 6
	ldr	r4, .L570+4
.LVL584:
	ldr	r3, .L570+8
	movw	r2, #4183
	ldr	r4, [r4, #28]
	ldr	r0, .L570+20
	blx	r4
.LVL585:
.LBB459:
.LBB460:
	.loc 2 195 0 discriminator 6
	.syntax unified
@ 195 "../../../component/os/freertos/freertos_v10.0.1/Source/portable/GCC/ARM_RTL8710C/portmacro.h" 1
		mov r3, #64												
	cpsid i													
	msr basepri, r3											
	isb														
	dsb														
	cpsie i													

@ 0 "" 2
.LVL586:
	.thumb
	.syntax unified
.L559:
	b	.L559
.LVL587:
.L556:
.LBE460:
.LBE459:
	.loc 1 4183 0 discriminator 2
	bl	xTaskGetSchedulerState
.LVL588:
	cmp	r0, #1
	beq	.L558
	.loc 1 4183 0 is_stmt 0 discriminator 4
	mov	r0, r2
	bl	pcTaskGetName
.LVL589:
	mov	r1, r0
.LVL590:
	b	.L557
.LVL591:
.L555:
.LBE456:
	.loc 1 4194 0 is_stmt 1
	ldr	r2, [r0, #28]
	.loc 1 4209 0
	ldr	r5, .L570+24
	.loc 1 4194 0
	cmp	r2, #0
	.loc 1 4209 0
	mov	r2, #20
	mla	r3, r2, r3, r5
.LVL592:
	ldr	r2, [r0, #24]
	.loc 1 4190 0
	str	r1, [r0, #48]
.LVL593:
	.loc 1 4196 0
	itt	ge
	rsbge	r1, r1, #11
.LVL594:
	strge	r1, [r0, #28]
	.loc 1 4209 0
	cmp	r2, r3
	bne	.L546
	.loc 1 4211 0
	add	r6, r0, #8
	mov	r0, r6
.LVL595:
	bl	uxListRemove
.LVL596:
	.loc 1 4220 0
	ldr	r2, .L570+28
	ldr	r3, [r4, #48]
	ldr	r1, [r2]
	cmp	r3, r1
	bls	.L563
	.loc 1 4220 0 is_stmt 0 discriminator 1
	str	r3, [r2]
.L563:
	.loc 1 4220 0 discriminator 3
	movs	r0, #20
	mov	r1, r6
	mla	r0, r0, r3, r5
	.loc 1 4241 0 is_stmt 1 discriminator 3
	pop	{r4, r5, r6, lr}
	.cfi_remember_state
	.cfi_restore 14
	.cfi_restore 6
	.cfi_restore 5
	.cfi_restore 4
	.cfi_def_cfa_offset 0
.LVL597:
	.loc 1 4220 0 discriminator 3
	b	vListInsertEnd
.LVL598:
.L546:
	.cfi_restore_state
	pop	{r4, r5, r6, pc}
.L571:
	.align	2
.L570:
	.word	.LC0
	.word	stdio_printf_stubs
	.word	.LC1
	.word	.LC20
	.word	.LANCHOR1
	.word	.LC21
	.word	.LANCHOR2
	.word	.LANCHOR12
	.cfi_endproc
.LFE189:
	.size	vTaskPriorityDisinheritAfterTimeout, .-vTaskPriorityDisinheritAfterTimeout
	.section	.text.uxTaskResetEventItemValue,"ax",%progbits
	.align	1
	.global	uxTaskResetEventItemValue
	.syntax unified
	.thumb
	.thumb_func
	.fpu softvfp
	.type	uxTaskResetEventItemValue, %function
uxTaskResetEventItemValue:
.LFB190:
	.loc 1 4561 0
	.cfi_startproc
	@ args = 0, pretend = 0, frame = 0
	@ frame_needed = 0, uses_anonymous_args = 0
	@ link register save eliminated.
	.loc 1 4564 0
	ldr	r3, .L573
	ldr	r2, [r3]
	ldr	r0, [r2, #28]
.LVL599:
	.loc 1 4568 0
	ldr	r2, [r3]
	ldr	r3, [r3]
	ldr	r3, [r3, #48]
	rsb	r3, r3, #11
	str	r3, [r2, #28]
	.loc 1 4571 0
	bx	lr
.L574:
	.align	2
.L573:
	.word	.LANCHOR1
	.cfi_endproc
.LFE190:
	.size	uxTaskResetEventItemValue, .-uxTaskResetEventItemValue
	.section	.text.pvTaskIncrementMutexHeldCount,"ax",%progbits
	.align	1
	.global	pvTaskIncrementMutexHeldCount
	.syntax unified
	.thumb
	.thumb_func
	.fpu softvfp
	.type	pvTaskIncrementMutexHeldCount, %function
pvTaskIncrementMutexHeldCount:
.LFB191:
	.loc 1 4577 0
	.cfi_startproc
	@ args = 0, pretend = 0, frame = 0
	@ frame_needed = 0, uses_anonymous_args = 0
	@ link register save eliminated.
	.loc 1 4580 0
	ldr	r3, .L580
	ldr	r2, [r3]
	cbz	r2, .L576
	.loc 1 4582 0
	ldr	r1, [r3]
	ldr	r2, [r1, #68]
	adds	r2, r2, #1
	str	r2, [r1, #68]
.L576:
	.loc 1 4585 0
	ldr	r0, [r3]
	.loc 1 4586 0
	bx	lr
.L581:
	.align	2
.L580:
	.word	.LANCHOR1
	.cfi_endproc
.LFE191:
	.size	pvTaskIncrementMutexHeldCount, .-pvTaskIncrementMutexHeldCount
	.section	.text.ulTaskNotifyTake,"ax",%progbits
	.align	1
	.global	ulTaskNotifyTake
	.syntax unified
	.thumb
	.thumb_func
	.fpu softvfp
	.type	ulTaskNotifyTake, %function
ulTaskNotifyTake:
.LFB192:
	.loc 1 4594 0
	.cfi_startproc
	@ args = 0, pretend = 0, frame = 0
	@ frame_needed = 0, uses_anonymous_args = 0
.LVL600:
	push	{r4, r5, r6, lr}
	.cfi_def_cfa_offset 16
	.cfi_offset 4, -16
	.cfi_offset 5, -12
	.cfi_offset 6, -8
	.cfi_offset 14, -4
	.loc 1 4600 0
	ldr	r4, .L595
	.loc 1 4594 0
	mov	r6, r0
	mov	r5, r1
	.loc 1 4597 0
	bl	vPortEnterCritical
.LVL601:
	.loc 1 4600 0
	ldr	r3, [r4]
	ldr	r3, [r3, #72]
	cbnz	r3, .L584
	.loc 1 4603 0
	movs	r1, #1
	ldr	r3, [r4]
	strb	r1, [r3, #76]
	.loc 1 4605 0
	cbz	r5, .L584
	.loc 1 4607 0
	mov	r0, r5
	bl	prvAddCurrentTaskToDelayedList
.LVL602:
	.loc 1 4614 0
	mov	r2, #268435456
	ldr	r3, .L595+4
	str	r2, [r3]
	.syntax unified
@ 4614 "../../../component/os/freertos/freertos_v10.0.1/Source/tasks.c" 1
	dsb
@ 0 "" 2
@ 4614 "../../../component/os/freertos/freertos_v10.0.1/Source/tasks.c" 1
	isb
@ 0 "" 2
	.thumb
	.syntax unified
.L584:
	.loc 1 4626 0
	bl	vPortExitCritical
.LVL603:
	.loc 1 4628 0
	bl	vPortEnterCritical
.LVL604:
	.loc 1 4631 0
	ldr	r3, [r4]
	ldr	r5, [r3, #72]
.LVL605:
	.loc 1 4633 0
	cbz	r5, .L586
	.loc 1 4637 0
	ldr	r3, [r4]
	.loc 1 4635 0
	cbz	r6, .L587
	.loc 1 4637 0
	movs	r2, #0
.L594:
	.loc 1 4641 0
	str	r2, [r3, #72]
.L586:
	.loc 1 4649 0
	movs	r2, #0
	ldr	r3, [r4]
	strb	r2, [r3, #76]
	.loc 1 4651 0
	bl	vPortExitCritical
.LVL606:
	.loc 1 4654 0
	mov	r0, r5
	pop	{r4, r5, r6, pc}
.LVL607:
.L587:
	.loc 1 4641 0
	subs	r2, r5, #1
	b	.L594
.L596:
	.align	2
.L595:
	.word	.LANCHOR1
	.word	-536810236
	.cfi_endproc
.LFE192:
	.size	ulTaskNotifyTake, .-ulTaskNotifyTake
	.section	.text.xTaskNotifyWait,"ax",%progbits
	.align	1
	.global	xTaskNotifyWait
	.syntax unified
	.thumb
	.thumb_func
	.fpu softvfp
	.type	xTaskNotifyWait, %function
xTaskNotifyWait:
.LFB193:
	.loc 1 4662 0
	.cfi_startproc
	@ args = 0, pretend = 0, frame = 0
	@ frame_needed = 0, uses_anonymous_args = 0
.LVL608:
	push	{r4, r5, r6, r7, r8, lr}
	.cfi_def_cfa_offset 24
	.cfi_offset 4, -24
	.cfi_offset 5, -20
	.cfi_offset 6, -16
	.cfi_offset 7, -12
	.cfi_offset 8, -8
	.cfi_offset 14, -4
	.loc 1 4668 0
	ldr	r4, .L610
	.loc 1 4662 0
	mov	r6, r3
	mov	r8, r0
	mov	r7, r1
	mov	r5, r2
	.loc 1 4665 0
	bl	vPortEnterCritical
.LVL609:
	.loc 1 4668 0
	ldr	r3, [r4]
	ldrb	r3, [r3, #76]	@ zero_extendqisi2
	cmp	r3, #2
	beq	.L599
	.loc 1 4676 0
	movs	r1, #1
	.loc 1 4673 0
	ldr	r3, [r4]
	ldr	r2, [r3, #72]
	bic	r2, r2, r8
	str	r2, [r3, #72]
	.loc 1 4676 0
	ldr	r3, [r4]
	strb	r1, [r3, #76]
	.loc 1 4678 0
	cbz	r6, .L599
	.loc 1 4680 0
	mov	r0, r6
	bl	prvAddCurrentTaskToDelayedList
.LVL610:
	.loc 1 4687 0
	mov	r2, #268435456
	ldr	r3, .L610+4
	str	r2, [r3]
	.syntax unified
@ 4687 "../../../component/os/freertos/freertos_v10.0.1/Source/tasks.c" 1
	dsb
@ 0 "" 2
@ 4687 "../../../component/os/freertos/freertos_v10.0.1/Source/tasks.c" 1
	isb
@ 0 "" 2
	.thumb
	.syntax unified
.L599:
	.loc 1 4699 0
	bl	vPortExitCritical
.LVL611:
	.loc 1 4701 0
	bl	vPortEnterCritical
.LVL612:
	.loc 1 4705 0
	cbz	r5, .L601
	.loc 1 4709 0
	ldr	r3, [r4]
	ldr	r3, [r3, #72]
	str	r3, [r5]
.L601:
	.loc 1 4716 0
	ldr	r3, [r4]
	.loc 1 4729 0
	movs	r2, #0
	.loc 1 4716 0
	ldrb	r3, [r3, #76]	@ zero_extendqisi2
	cmp	r3, #2
	.loc 1 4726 0
	itett	eq
	moveq	r5, #1
.LVL613:
	.loc 1 4719 0
	movne	r5, #0
	.loc 1 4725 0
	ldreq	r3, [r4]
	ldreq	r1, [r3, #72]
	itt	eq
	biceq	r1, r1, r7
	streq	r1, [r3, #72]
.LVL614:
	.loc 1 4729 0
	ldr	r3, [r4]
	strb	r2, [r3, #76]
	.loc 1 4731 0
	bl	vPortExitCritical
.LVL615:
	.loc 1 4734 0
	mov	r0, r5
	pop	{r4, r5, r6, r7, r8, pc}
.LVL616:
.L611:
	.align	2
.L610:
	.word	.LANCHOR1
	.word	-536810236
	.cfi_endproc
.LFE193:
	.size	xTaskNotifyWait, .-xTaskNotifyWait
	.section	.text.xTaskGenericNotify,"ax",%progbits
	.align	1
	.global	xTaskGenericNotify
	.syntax unified
	.thumb
	.thumb_func
	.fpu softvfp
	.type	xTaskGenericNotify, %function
xTaskGenericNotify:
.LFB194:
	.loc 1 4742 0
	.cfi_startproc
	@ args = 0, pretend = 0, frame = 0
	@ frame_needed = 0, uses_anonymous_args = 0
.LVL617:
	push	{r3, r4, r5, r6, r7, lr}
	.cfi_def_cfa_offset 24
	.cfi_offset 3, -24
	.cfi_offset 4, -20
	.cfi_offset 5, -16
	.cfi_offset 6, -12
	.cfi_offset 7, -8
	.cfi_offset 14, -4
	.loc 1 4742 0
	mov	r6, r1
	mov	r5, r2
	mov	r7, r3
	.loc 1 4747 0
	mov	r4, r0
	cbnz	r0, .L613
.LVL618:
.LBB461:
.LBB462:
.LBB463:
	.loc 3 209 0 discriminator 1
	.syntax unified
@ 209 "../../../component/soc/realtek/8710c/cmsis/cmsis-core/include/cmsis_gcc.h" 1
	MRS r2, ipsr
@ 0 "" 2
.LVL619:
	.thumb
	.syntax unified
.LBE463:
.LBE462:
	.loc 1 4747 0 discriminator 1
	cbz	r2, .L614
.LVL620:
.L616:
	.loc 1 4747 0 is_stmt 0
	ldr	r1, .L646
.LVL621:
.L615:
	.loc 1 4747 0 is_stmt 1 discriminator 6
	ldr	r4, .L646+4
.LVL622:
	ldr	r3, .L646+8
	movw	r2, #4747
	ldr	r4, [r4, #28]
	ldr	r0, .L646+12
	blx	r4
.LVL623:
.LBB464:
.LBB465:
	.loc 2 195 0 discriminator 6
	.syntax unified
@ 195 "../../../component/os/freertos/freertos_v10.0.1/Source/portable/GCC/ARM_RTL8710C/portmacro.h" 1
		mov r3, #64												
	cpsid i													
	msr basepri, r3											
	isb														
	dsb														
	cpsie i													

@ 0 "" 2
.LVL624:
	.thumb
	.syntax unified
.L617:
	b	.L617
.LVL625:
.L614:
.LBE465:
.LBE464:
	.loc 1 4747 0 discriminator 2
	bl	xTaskGetSchedulerState
.LVL626:
	cmp	r0, #1
	beq	.L616
	.loc 1 4747 0 is_stmt 0 discriminator 4
	mov	r0, r2
	bl	pcTaskGetName
.LVL627:
	mov	r1, r0
.LVL628:
	b	.L615
.LVL629:
.L613:
.LBE461:
	.loc 1 4750 0 is_stmt 1
	bl	vPortEnterCritical
.LVL630:
	.loc 1 4752 0
	cbz	r7, .L618
	.loc 1 4754 0
	ldr	r3, [r4, #72]
	str	r3, [r7]
.L618:
	.loc 1 4759 0
	movs	r2, #2
	.loc 1 4757 0
	ldrb	r3, [r4, #76]	@ zero_extendqisi2
	.loc 1 4759 0
	strb	r2, [r4, #76]
	.loc 1 4761 0
	subs	r2, r5, #1
	.loc 1 4757 0
	uxtb	r3, r3
.LVL631:
	.loc 1 4761 0
	cmp	r2, #3
	bhi	.L619
	tbb	[pc, r2]
.L621:
	.byte	(.L620-.L621)/2
	.byte	(.L622-.L621)/2
	.byte	(.L644-.L621)/2
	.byte	(.L624-.L621)/2
	.p2align 1
.L620:
	.loc 1 4764 0
	ldr	r1, [r4, #72]
	orrs	r6, r6, r1
.LVL632:
.L644:
	.loc 1 4778 0
	str	r6, [r4, #72]
	b	.L619
.LVL633:
.L622:
	.loc 1 4768 0
	ldr	r2, [r4, #72]
	adds	r2, r2, #1
	str	r2, [r4, #72]
.LVL634:
.L619:
	.loc 1 4797 0
	cmp	r3, #1
	beq	.L626
.LVL635:
.L645:
	movs	r4, #1
.LVL636:
.L625:
	.loc 1 4837 0
	bl	vPortExitCritical
.LVL637:
	.loc 1 4840 0
	mov	r0, r4
	pop	{r3, r4, r5, r6, r7, pc}
.LVL638:
.L624:
	.loc 1 4776 0
	cmp	r3, #2
	bne	.L644
	.loc 1 4783 0
	movs	r4, #0
.LVL639:
	b	.L625
.LVL640:
.L626:
	.loc 1 4799 0
	add	r5, r4, #8
	mov	r0, r5
	bl	uxListRemove
.LVL641:
	.loc 1 4800 0
	movs	r0, #20
	ldr	r2, .L646+16
	ldr	r3, [r4, #48]
	ldr	r1, [r2]
	cmp	r3, r1
	it	hi
	strhi	r3, [r2]
	ldr	r2, .L646+20
	mov	r1, r5
	mla	r0, r0, r3, r2
	bl	vListInsertEnd
.LVL642:
	.loc 1 4803 0
	ldr	r3, [r4, #44]
	cbz	r3, .L628
.LVL643:
.LBB466:
.LBB467:
.LBB468:
	.loc 3 209 0 discriminator 1
	.syntax unified
@ 209 "../../../component/soc/realtek/8710c/cmsis/cmsis-core/include/cmsis_gcc.h" 1
	MRS r2, ipsr
@ 0 "" 2
	.thumb
	.syntax unified
.LBE468:
.LBE467:
	.loc 1 4803 0 discriminator 1
	cbz	r2, .L629
.L631:
	.loc 1 4803 0 is_stmt 0
	ldr	r1, .L646
.LVL644:
.L630:
	.loc 1 4803 0 is_stmt 1 discriminator 6
	ldr	r4, .L646+4
.LVL645:
	ldr	r3, .L646+8
	movw	r2, #4803
	ldr	r4, [r4, #28]
	ldr	r0, .L646+24
	blx	r4
.LVL646:
.LBB469:
.LBB470:
	.loc 2 195 0 discriminator 6
	.syntax unified
@ 195 "../../../component/os/freertos/freertos_v10.0.1/Source/portable/GCC/ARM_RTL8710C/portmacro.h" 1
		mov r3, #64												
	cpsid i													
	msr basepri, r3											
	isb														
	dsb														
	cpsie i													

@ 0 "" 2
.LVL647:
	.thumb
	.syntax unified
.L632:
	b	.L632
.LVL648:
.L629:
.LBE470:
.LBE469:
	.loc 1 4803 0 discriminator 2
	bl	xTaskGetSchedulerState
.LVL649:
	cmp	r0, #1
	beq	.L631
	.loc 1 4803 0 is_stmt 0 discriminator 4
	mov	r0, r2
	bl	pcTaskGetName
.LVL650:
	mov	r1, r0
.LVL651:
	b	.L630
.LVL652:
.L628:
.LBE466:
	.loc 1 4821 0 is_stmt 1
	ldr	r3, .L646+28
	ldr	r2, [r4, #48]
	ldr	r3, [r3]
	ldr	r3, [r3, #48]
	cmp	r2, r3
	bls	.L645
	.loc 1 4825 0
	mov	r2, #268435456
	ldr	r3, .L646+32
	str	r2, [r3]
	.syntax unified
@ 4825 "../../../component/os/freertos/freertos_v10.0.1/Source/tasks.c" 1
	dsb
@ 0 "" 2
@ 4825 "../../../component/os/freertos/freertos_v10.0.1/Source/tasks.c" 1
	isb
@ 0 "" 2
	.thumb
	.syntax unified
	b	.L645
.L647:
	.align	2
.L646:
	.word	.LC0
	.word	stdio_printf_stubs
	.word	.LC1
	.word	.LC22
	.word	.LANCHOR12
	.word	.LANCHOR2
	.word	.LC23
	.word	.LANCHOR1
	.word	-536810236
	.cfi_endproc
.LFE194:
	.size	xTaskGenericNotify, .-xTaskGenericNotify
	.section	.text.xTaskGenericNotifyFromISR,"ax",%progbits
	.align	1
	.global	xTaskGenericNotifyFromISR
	.syntax unified
	.thumb
	.thumb_func
	.fpu softvfp
	.type	xTaskGenericNotifyFromISR, %function
xTaskGenericNotifyFromISR:
.LFB195:
	.loc 1 4848 0
	.cfi_startproc
	@ args = 4, pretend = 0, frame = 0
	@ frame_needed = 0, uses_anonymous_args = 0
.LVL653:
	push	{r3, r4, r5, r6, r7, r8, r9, lr}
	.cfi_def_cfa_offset 32
	.cfi_offset 3, -32
	.cfi_offset 4, -28
	.cfi_offset 5, -24
	.cfi_offset 6, -20
	.cfi_offset 7, -16
	.cfi_offset 8, -12
	.cfi_offset 9, -8
	.cfi_offset 14, -4
	.loc 1 4848 0
	ldr	r7, [sp, #32]
	mov	r8, r1
	mov	r5, r2
	mov	r9, r3
	.loc 1 4854 0
	mov	r4, r0
	cbnz	r0, .L649
.LVL654:
.LBB471:
.LBB472:
.LBB473:
	.loc 3 209 0 discriminator 1
	.syntax unified
@ 209 "../../../component/soc/realtek/8710c/cmsis/cmsis-core/include/cmsis_gcc.h" 1
	MRS r2, ipsr
@ 0 "" 2
.LVL655:
	.thumb
	.syntax unified
.LBE473:
.LBE472:
	.loc 1 4854 0 discriminator 1
	cbz	r2, .L650
.LVL656:
.L652:
	.loc 1 4854 0 is_stmt 0
	ldr	r1, .L685
.LVL657:
.L651:
	.loc 1 4854 0 is_stmt 1 discriminator 6
	ldr	r4, .L685+4
.LVL658:
	ldr	r3, .L685+8
	movw	r2, #4854
	ldr	r4, [r4, #28]
	ldr	r0, .L685+12
	blx	r4
.LVL659:
.LBB474:
.LBB475:
	.loc 2 195 0 discriminator 6
	.syntax unified
@ 195 "../../../component/os/freertos/freertos_v10.0.1/Source/portable/GCC/ARM_RTL8710C/portmacro.h" 1
		mov r3, #64												
	cpsid i													
	msr basepri, r3											
	isb														
	dsb														
	cpsie i													

@ 0 "" 2
.LVL660:
	.thumb
	.syntax unified
.L653:
	b	.L653
.LVL661:
.L650:
.LBE475:
.LBE474:
	.loc 1 4854 0 discriminator 2
	bl	xTaskGetSchedulerState
.LVL662:
	cmp	r0, #1
	beq	.L652
	.loc 1 4854 0 is_stmt 0 discriminator 4
	mov	r0, r2
	bl	pcTaskGetName
.LVL663:
	mov	r1, r0
.LVL664:
	b	.L651
.LVL665:
.L649:
.LBE471:
	.loc 1 4872 0 is_stmt 1
	bl	vPortValidateInterruptPriority
.LVL666:
.LBB476:
.LBB477:
	.loc 2 213 0
	.syntax unified
@ 213 "../../../component/os/freertos/freertos_v10.0.1/Source/portable/GCC/ARM_RTL8710C/portmacro.h" 1
		mrs r6, basepri											
	mov r3, #64												
	cpsid i													
	msr basepri, r3											
	isb														
	dsb														
	cpsie i													

@ 0 "" 2
	.thumb
	.syntax unified
.LBE477:
.LBE476:
	.loc 1 4878 0
	cmp	r9, #0
	beq	.L654
	.loc 1 4880 0
	ldr	r3, [r4, #72]
	str	r3, [r9]
.L654:
	.loc 1 4884 0
	movs	r2, #2
	.loc 1 4883 0
	ldrb	r3, [r4, #76]	@ zero_extendqisi2
	.loc 1 4884 0
	strb	r2, [r4, #76]
	.loc 1 4886 0
	subs	r2, r5, #1
	.loc 1 4883 0
	uxtb	r3, r3
.LVL667:
	.loc 1 4886 0
	cmp	r2, #3
	bhi	.L655
	tbb	[pc, r2]
.L657:
	.byte	(.L656-.L657)/2
	.byte	(.L658-.L657)/2
	.byte	(.L683-.L657)/2
	.byte	(.L660-.L657)/2
	.p2align 1
.L656:
	.loc 1 4889 0
	ldr	r1, [r4, #72]
	orr	r1, r1, r8
	str	r1, [r4, #72]
.L655:
	.loc 1 4922 0
	cmp	r3, #1
	beq	.L662
.LVL668:
.L671:
.LBB478:
	.loc 1 4925 0
	movs	r0, #1
.L661:
.LVL669:
.LBE478:
.LBB483:
.LBB484:
	.loc 2 233 0
	.syntax unified
@ 233 "../../../component/os/freertos/freertos_v10.0.1/Source/portable/GCC/ARM_RTL8710C/portmacro.h" 1
		msr basepri, r6	
@ 0 "" 2
.LVL670:
	.thumb
	.syntax unified
.LBE484:
.LBE483:
	.loc 1 4964 0
	pop	{r3, r4, r5, r6, r7, r8, r9, pc}
.LVL671:
.L658:
	.loc 1 4893 0
	ldr	r2, [r4, #72]
	adds	r2, r2, #1
	str	r2, [r4, #72]
	.loc 1 4894 0
	b	.L655
.L660:
	.loc 1 4901 0
	cmp	r3, #2
	beq	.L673
.L683:
	.loc 1 4903 0
	str	r8, [r4, #72]
	b	.L655
.L662:
	.loc 1 4925 0
	ldr	r3, [r4, #44]
.LVL672:
	cbz	r3, .L663
.LVL673:
.LBB485:
.LBB479:
.LBB480:
	.loc 3 209 0 discriminator 1
	.syntax unified
@ 209 "../../../component/soc/realtek/8710c/cmsis/cmsis-core/include/cmsis_gcc.h" 1
	MRS r2, ipsr
@ 0 "" 2
	.thumb
	.syntax unified
.LBE480:
.LBE479:
	.loc 1 4925 0 discriminator 1
	cbz	r2, .L664
.L666:
	.loc 1 4925 0 is_stmt 0
	ldr	r1, .L685
.LVL674:
.L665:
	.loc 1 4925 0 is_stmt 1 discriminator 6
	ldr	r4, .L685+4
.LVL675:
	ldr	r3, .L685+8
	movw	r2, #4925
	ldr	r4, [r4, #28]
	ldr	r0, .L685+16
	blx	r4
.LVL676:
.LBB481:
.LBB482:
	.loc 2 195 0 discriminator 6
	.syntax unified
@ 195 "../../../component/os/freertos/freertos_v10.0.1/Source/portable/GCC/ARM_RTL8710C/portmacro.h" 1
		mov r3, #64												
	cpsid i													
	msr basepri, r3											
	isb														
	dsb														
	cpsie i													

@ 0 "" 2
.LVL677:
	.thumb
	.syntax unified
.L667:
	b	.L667
.LVL678:
.L664:
.LBE482:
.LBE481:
	.loc 1 4925 0 discriminator 2
	bl	xTaskGetSchedulerState
.LVL679:
	cmp	r0, #1
	beq	.L666
	.loc 1 4925 0 is_stmt 0 discriminator 4
	mov	r0, r2
	bl	pcTaskGetName
.LVL680:
	mov	r1, r0
.LVL681:
	b	.L665
.LVL682:
.L663:
.LBE485:
	.loc 1 4927 0 is_stmt 1
	ldr	r3, .L685+20
	ldr	r3, [r3]
	cbnz	r3, .L668
	.loc 1 4929 0
	add	r5, r4, #8
	mov	r0, r5
	bl	uxListRemove
.LVL683:
	.loc 1 4930 0
	ldr	r2, .L685+24
	movs	r0, #20
	ldr	r1, [r2]
	ldr	r3, [r4, #48]
	cmp	r3, r1
	mov	r1, r5
	it	hi
	strhi	r3, [r2]
	ldr	r2, .L685+28
	mla	r0, r0, r3, r2
.L684:
	.loc 1 4936 0
	bl	vListInsertEnd
.LVL684:
	.loc 1 4939 0
	ldr	r3, .L685+32
	ldr	r2, [r4, #48]
	ldr	r3, [r3]
	ldr	r3, [r3, #48]
	cmp	r2, r3
	bls	.L671
	movs	r0, #1
	.loc 1 4943 0
	cbz	r7, .L672
	.loc 1 4945 0
	str	r0, [r7]
	b	.L661
.L668:
	.loc 1 4936 0
	add	r1, r4, #28
	ldr	r0, .L685+36
	b	.L684
.L672:
	.loc 1 4952 0
	ldr	r3, .L685+40
	str	r0, [r3]
	b	.L661
.LVL685:
.L673:
	.loc 1 4908 0
	movs	r0, #0
	b	.L661
.L686:
	.align	2
.L685:
	.word	.LC0
	.word	stdio_printf_stubs
	.word	.LC1
	.word	.LC22
	.word	.LC23
	.word	.LANCHOR16
	.word	.LANCHOR12
	.word	.LANCHOR2
	.word	.LANCHOR1
	.word	.LANCHOR5
	.word	.LANCHOR18
	.cfi_endproc
.LFE195:
	.size	xTaskGenericNotifyFromISR, .-xTaskGenericNotifyFromISR
	.section	.text.vTaskNotifyGiveFromISR,"ax",%progbits
	.align	1
	.global	vTaskNotifyGiveFromISR
	.syntax unified
	.thumb
	.thumb_func
	.fpu softvfp
	.type	vTaskNotifyGiveFromISR, %function
vTaskNotifyGiveFromISR:
.LFB196:
	.loc 1 4972 0
	.cfi_startproc
	@ args = 0, pretend = 0, frame = 0
	@ frame_needed = 0, uses_anonymous_args = 0
.LVL686:
	push	{r3, r4, r5, r6, r7, lr}
	.cfi_def_cfa_offset 24
	.cfi_offset 3, -24
	.cfi_offset 4, -20
	.cfi_offset 5, -16
	.cfi_offset 6, -12
	.cfi_offset 7, -8
	.cfi_offset 14, -4
	.loc 1 4972 0
	mov	r5, r1
	.loc 1 4977 0
	mov	r4, r0
	cbnz	r0, .L688
.LVL687:
.LBB486:
.LBB487:
.LBB488:
	.loc 3 209 0 discriminator 1
	.syntax unified
@ 209 "../../../component/soc/realtek/8710c/cmsis/cmsis-core/include/cmsis_gcc.h" 1
	MRS r2, ipsr
@ 0 "" 2
	.thumb
	.syntax unified
.LBE488:
.LBE487:
	.loc 1 4977 0 discriminator 1
	cbz	r2, .L689
.LVL688:
.L691:
	.loc 1 4977 0 is_stmt 0
	ldr	r1, .L712
.LVL689:
.L690:
	.loc 1 4977 0 is_stmt 1 discriminator 6
	ldr	r4, .L712+4
.LVL690:
	ldr	r3, .L712+8
	movw	r2, #4977
	ldr	r4, [r4, #28]
	ldr	r0, .L712+12
	blx	r4
.LVL691:
.LBB489:
.LBB490:
	.loc 2 195 0 discriminator 6
	.syntax unified
@ 195 "../../../component/os/freertos/freertos_v10.0.1/Source/portable/GCC/ARM_RTL8710C/portmacro.h" 1
		mov r3, #64												
	cpsid i													
	msr basepri, r3											
	isb														
	dsb														
	cpsie i													

@ 0 "" 2
.LVL692:
	.thumb
	.syntax unified
.L692:
	b	.L692
.LVL693:
.L689:
.LBE490:
.LBE489:
	.loc 1 4977 0 discriminator 2
	bl	xTaskGetSchedulerState
.LVL694:
	cmp	r0, #1
	beq	.L691
	.loc 1 4977 0 is_stmt 0 discriminator 4
	mov	r0, r2
	bl	pcTaskGetName
.LVL695:
	mov	r1, r0
.LVL696:
	b	.L690
.LVL697:
.L688:
.LBE486:
	.loc 1 4995 0 is_stmt 1
	bl	vPortValidateInterruptPriority
.LVL698:
.LBB491:
.LBB492:
	.loc 2 213 0
	.syntax unified
@ 213 "../../../component/os/freertos/freertos_v10.0.1/Source/portable/GCC/ARM_RTL8710C/portmacro.h" 1
		mrs r7, basepri											
	mov r3, #64												
	cpsid i													
	msr basepri, r3											
	isb														
	dsb														
	cpsie i													

@ 0 "" 2
	.thumb
	.syntax unified
.LBE492:
.LBE491:
	.loc 1 5002 0
	movs	r3, #2
	.loc 1 5001 0
	ldrb	r2, [r4, #76]	@ zero_extendqisi2
.LVL699:
	.loc 1 5002 0
	strb	r3, [r4, #76]
	.loc 1 5006 0
	ldr	r3, [r4, #72]
	.loc 1 5012 0
	cmp	r2, #1
	.loc 1 5006 0
	add	r3, r3, #1
	str	r3, [r4, #72]
	.loc 1 5012 0
	bne	.L694
	.loc 1 5015 0
	ldr	r3, [r4, #44]
	cbz	r3, .L695
.LVL700:
.LBB493:
.LBB494:
.LBB495:
	.loc 3 209 0 discriminator 1
	.syntax unified
@ 209 "../../../component/soc/realtek/8710c/cmsis/cmsis-core/include/cmsis_gcc.h" 1
	MRS r2, ipsr
@ 0 "" 2
.LVL701:
	.thumb
	.syntax unified
.LBE495:
.LBE494:
	.loc 1 5015 0 discriminator 1
	cbz	r2, .L696
.L698:
	.loc 1 5015 0 is_stmt 0
	ldr	r1, .L712
.LVL702:
.L697:
	.loc 1 5015 0 is_stmt 1 discriminator 6
	ldr	r4, .L712+4
.LVL703:
	ldr	r3, .L712+8
	movw	r2, #5015
	ldr	r4, [r4, #28]
	ldr	r0, .L712+16
	blx	r4
.LVL704:
.LBB496:
.LBB497:
	.loc 2 195 0 discriminator 6
	.syntax unified
@ 195 "../../../component/os/freertos/freertos_v10.0.1/Source/portable/GCC/ARM_RTL8710C/portmacro.h" 1
		mov r3, #64												
	cpsid i													
	msr basepri, r3											
	isb														
	dsb														
	cpsie i													

@ 0 "" 2
.LVL705:
	.thumb
	.syntax unified
.L699:
	b	.L699
.LVL706:
.L696:
.LBE497:
.LBE496:
	.loc 1 5015 0 discriminator 2
	bl	xTaskGetSchedulerState
.LVL707:
	cmp	r0, #1
	beq	.L698
	.loc 1 5015 0 is_stmt 0 discriminator 4
	mov	r0, r2
	bl	pcTaskGetName
.LVL708:
	mov	r1, r0
.LVL709:
	b	.L697
.LVL710:
.L695:
.LBE493:
	.loc 1 5017 0 is_stmt 1
	ldr	r3, .L712+20
	ldr	r3, [r3]
	cbnz	r3, .L700
	.loc 1 5019 0
	add	r6, r4, #8
	mov	r0, r6
	bl	uxListRemove
.LVL711:
	.loc 1 5020 0
	ldr	r2, .L712+24
	movs	r0, #20
	ldr	r1, [r2]
	ldr	r3, [r4, #48]
	cmp	r3, r1
	mov	r1, r6
	it	hi
	strhi	r3, [r2]
	ldr	r2, .L712+28
	mla	r0, r0, r3, r2
.L711:
	.loc 1 5026 0
	bl	vListInsertEnd
.LVL712:
	.loc 1 5029 0
	ldr	r3, .L712+32
	ldr	r2, [r4, #48]
	ldr	r3, [r3]
	ldr	r3, [r3, #48]
	cmp	r2, r3
	bls	.L694
	movs	r3, #1
	.loc 1 5033 0
	cbz	r5, .L704
	.loc 1 5035 0
	str	r3, [r5]
.L694:
.LVL713:
.LBB498:
.LBB499:
	.loc 2 233 0
	.syntax unified
@ 233 "../../../component/os/freertos/freertos_v10.0.1/Source/portable/GCC/ARM_RTL8710C/portmacro.h" 1
		msr basepri, r7	
@ 0 "" 2
.LVL714:
	.thumb
	.syntax unified
	pop	{r3, r4, r5, r6, r7, pc}
.LVL715:
.L700:
.LBE499:
.LBE498:
	.loc 1 5026 0
	add	r1, r4, #28
	ldr	r0, .L712+36
	b	.L711
.LVL716:
.L704:
	.loc 1 5042 0
	ldr	r2, .L712+40
	str	r3, [r2]
	b	.L694
.L713:
	.align	2
.L712:
	.word	.LC0
	.word	stdio_printf_stubs
	.word	.LC1
	.word	.LC22
	.word	.LC23
	.word	.LANCHOR16
	.word	.LANCHOR12
	.word	.LANCHOR2
	.word	.LANCHOR1
	.word	.LANCHOR5
	.word	.LANCHOR18
	.cfi_endproc
.LFE196:
	.size	vTaskNotifyGiveFromISR, .-vTaskNotifyGiveFromISR
	.section	.text.xTaskNotifyStateClear,"ax",%progbits
	.align	1
	.global	xTaskNotifyStateClear
	.syntax unified
	.thumb
	.thumb_func
	.fpu softvfp
	.type	xTaskNotifyStateClear, %function
xTaskNotifyStateClear:
.LFB197:
	.loc 1 5061 0
	.cfi_startproc
	@ args = 0, pretend = 0, frame = 0
	@ frame_needed = 0, uses_anonymous_args = 0
.LVL717:
	push	{r4, lr}
	.cfi_def_cfa_offset 8
	.cfi_offset 4, -8
	.cfi_offset 14, -4
	.loc 1 5067 0
	cbnz	r0, .L717
	.loc 1 5067 0 is_stmt 0 discriminator 1
	ldr	r3, .L719
	ldr	r4, [r3]
.L715:
.LVL718:
	.loc 1 5069 0 is_stmt 1 discriminator 4
	bl	vPortEnterCritical
.LVL719:
	movs	r0, #0
	.loc 1 5071 0 discriminator 4
	ldrb	r3, [r4, #76]	@ zero_extendqisi2
	cmp	r3, #2
	.loc 1 5073 0 discriminator 4
	itet	eq
	strbeq	r0, [r4, #76]
.LVL720:
	.loc 1 5078 0 discriminator 4
	movne	r4, r0
.LVL721:
	.loc 1 5074 0 discriminator 4
	moveq	r4, #1
.LVL722:
	.loc 1 5081 0 discriminator 4
	bl	vPortExitCritical
.LVL723:
	.loc 1 5084 0 discriminator 4
	mov	r0, r4
	pop	{r4, pc}
.LVL724:
.L717:
	mov	r4, r0
	b	.L715
.L720:
	.align	2
.L719:
	.word	.LANCHOR1
	.cfi_endproc
.LFE197:
	.size	xTaskNotifyStateClear, .-xTaskNotifyStateClear
	.global	pxCurrentTCB
	.section	.bss.pxCurrentTCB,"aw",%nobits
	.align	2
	.set	.LANCHOR1,. + 0
	.type	pxCurrentTCB, %object
	.size	pxCurrentTCB, 4
pxCurrentTCB:
	.space	4
	.section	.bss.pxDelayedTaskList,"aw",%nobits
	.align	2
	.set	.LANCHOR8,. + 0
	.type	pxDelayedTaskList, %object
	.size	pxDelayedTaskList, 4
pxDelayedTaskList:
	.space	4
	.section	.bss.pxOverflowDelayedTaskList,"aw",%nobits
	.align	2
	.set	.LANCHOR9,. + 0
	.type	pxOverflowDelayedTaskList, %object
	.size	pxOverflowDelayedTaskList, 4
pxOverflowDelayedTaskList:
	.space	4
	.section	.bss.pxReadyTasksLists,"aw",%nobits
	.align	2
	.set	.LANCHOR2,. + 0
	.type	pxReadyTasksLists, %object
	.size	pxReadyTasksLists, 220
pxReadyTasksLists:
	.space	220
	.section	.bss.uxCurrentNumberOfTasks,"aw",%nobits
	.align	2
	.set	.LANCHOR0,. + 0
	.type	uxCurrentNumberOfTasks, %object
	.size	uxCurrentNumberOfTasks, 4
uxCurrentNumberOfTasks:
	.space	4
	.section	.bss.uxDeletedTasksWaitingCleanUp,"aw",%nobits
	.align	2
	.set	.LANCHOR15,. + 0
	.type	uxDeletedTasksWaitingCleanUp, %object
	.size	uxDeletedTasksWaitingCleanUp, 4
uxDeletedTasksWaitingCleanUp:
	.space	4
	.section	.bss.uxPendedTicks,"aw",%nobits
	.align	2
	.set	.LANCHOR20,. + 0
	.type	uxPendedTicks, %object
	.size	uxPendedTicks, 4
uxPendedTicks:
	.space	4
	.section	.bss.uxSchedulerSuspended,"aw",%nobits
	.align	2
	.set	.LANCHOR16,. + 0
	.type	uxSchedulerSuspended, %object
	.size	uxSchedulerSuspended, 4
uxSchedulerSuspended:
	.space	4
	.section	.bss.uxTaskNumber,"aw",%nobits
	.align	2
	.set	.LANCHOR11,. + 0
	.type	uxTaskNumber, %object
	.size	uxTaskNumber, 4
uxTaskNumber:
	.space	4
	.section	.bss.uxTopReadyPriority,"aw",%nobits
	.align	2
	.set	.LANCHOR12,. + 0
	.type	uxTopReadyPriority, %object
	.size	uxTopReadyPriority, 4
uxTopReadyPriority:
	.space	4
	.section	.bss.xDelayedTaskList1,"aw",%nobits
	.align	2
	.set	.LANCHOR3,. + 0
	.type	xDelayedTaskList1, %object
	.size	xDelayedTaskList1, 20
xDelayedTaskList1:
	.space	20
	.section	.bss.xDelayedTaskList2,"aw",%nobits
	.align	2
	.set	.LANCHOR4,. + 0
	.type	xDelayedTaskList2, %object
	.size	xDelayedTaskList2, 20
xDelayedTaskList2:
	.space	20
	.section	.bss.xIdleTaskHandle,"aw",%nobits
	.align	2
	.set	.LANCHOR19,. + 0
	.type	xIdleTaskHandle, %object
	.size	xIdleTaskHandle, 4
xIdleTaskHandle:
	.space	4
	.section	.bss.xNextTaskUnblockTime,"aw",%nobits
	.align	2
	.set	.LANCHOR13,. + 0
	.type	xNextTaskUnblockTime, %object
	.size	xNextTaskUnblockTime, 4
xNextTaskUnblockTime:
	.space	4
	.section	.bss.xNumOfOverflows,"aw",%nobits
	.align	2
	.set	.LANCHOR17,. + 0
	.type	xNumOfOverflows, %object
	.size	xNumOfOverflows, 4
xNumOfOverflows:
	.space	4
	.section	.bss.xPendingReadyList,"aw",%nobits
	.align	2
	.set	.LANCHOR5,. + 0
	.type	xPendingReadyList, %object
	.size	xPendingReadyList, 20
xPendingReadyList:
	.space	20
	.section	.bss.xSchedulerRunning,"aw",%nobits
	.align	2
	.set	.LANCHOR10,. + 0
	.type	xSchedulerRunning, %object
	.size	xSchedulerRunning, 4
xSchedulerRunning:
	.space	4
	.section	.bss.xSuspendedTaskList,"aw",%nobits
	.align	2
	.set	.LANCHOR7,. + 0
	.type	xSuspendedTaskList, %object
	.size	xSuspendedTaskList, 20
xSuspendedTaskList:
	.space	20
	.section	.bss.xTasksWaitingTermination,"aw",%nobits
	.align	2
	.set	.LANCHOR6,. + 0
	.type	xTasksWaitingTermination, %object
	.size	xTasksWaitingTermination, 20
xTasksWaitingTermination:
	.space	20
	.section	.bss.xTickCount,"aw",%nobits
	.align	2
	.set	.LANCHOR14,. + 0
	.type	xTickCount, %object
	.size	xTickCount, 4
xTickCount:
	.space	4
	.section	.bss.xYieldPending,"aw",%nobits
	.align	2
	.set	.LANCHOR18,. + 0
	.type	xYieldPending, %object
	.size	xYieldPending, 4
xYieldPending:
	.space	4
	.section	.rodata.pcTaskGetName.str1.1,"aMS",%progbits,1
.LC0:
	.ascii	"ISR\000"
.LC1:
	.ascii	"../../../component/os/freertos/freertos_v10.0.1/Sou"
	.ascii	"rce/tasks.c\000"
.LC2:
	.ascii	"\012\015[%s]Assert(pxTCB) failed on line %d in file"
	.ascii	" %s\015\012\000"
	.section	.rodata.vTaskDelayUntil.str1.1,"aMS",%progbits,1
.LC10:
	.ascii	"\012\015[%s]Assert(pxPreviousWakeTime) failed on li"
	.ascii	"ne %d in file %s\015\012\000"
.LC11:
	.ascii	"\012\015[%s]Assert(( xTimeIncrement > 0U )) failed "
	.ascii	"on line %d in file %s\015\012\000"
	.section	.rodata.vTaskDelete.str1.1,"aMS",%progbits,1
.LC3:
	.ascii	"\012\015[%s]Assert(uxSchedulerSuspended == 0) faile"
	.ascii	"d on line %d in file %s\015\012\000"
	.section	.rodata.vTaskPlaceOnEventList.str1.1,"aMS",%progbits,1
.LC13:
	.ascii	"\012\015[%s]Assert(pxEventList) failed on line %d i"
	.ascii	"n file %s\015\012\000"
	.section	.rodata.vTaskPlaceOnUnorderedEventList.str1.1,"aMS",%progbits,1
.LC14:
	.ascii	"\012\015[%s]Assert(uxSchedulerSuspended != 0) faile"
	.ascii	"d on line %d in file %s\015\012\000"
	.section	.rodata.vTaskPriorityDisinheritAfterTimeout.str1.1,"aMS",%progbits,1
.LC21:
	.ascii	"\012\015[%s]Assert(pxTCB != pxCurrentTCB) failed on"
	.ascii	" line %d in file %s\015\012\000"
	.section	.rodata.vTaskPrioritySet.str1.1,"aMS",%progbits,1
.LC4:
	.ascii	"\012\015[%s]Assert(( uxNewPriority < configMAX_PRIO"
	.ascii	"RITIES )) failed on line %d in file %s\015\012\000"
	.section	.rodata.vTaskRemoveFromUnorderedEventList.str1.1,"aMS",%progbits,1
.LC16:
	.ascii	"\012\015[%s]Assert(uxSchedulerSuspended != pdFALSE)"
	.ascii	" failed on line %d in file %s\015\012\000"
	.section	.rodata.vTaskResume.str1.1,"aMS",%progbits,1
.LC5:
	.ascii	"\012\015[%s]Assert(xTaskToResume) failed on line %d"
	.ascii	" in file %s\015\012\000"
	.section	.rodata.vTaskSetTimeOutState.str1.1,"aMS",%progbits,1
.LC17:
	.ascii	"\012\015[%s]Assert(pxTimeOut) failed on line %d in "
	.ascii	"file %s\015\012\000"
	.section	.rodata.vTaskStartScheduler.str1.1,"aMS",%progbits,1
.LC6:
	.ascii	"IDLE\000"
.LC7:
	.ascii	"\012\015[%s]Assert(xReturn != errCOULD_NOT_ALLOCATE"
	.ascii	"_REQUIRED_MEMORY) failed on line %d in file %s\015\012"
	.ascii	"\000"
	.section	.rodata.vTaskSwitchContext.str1.1,"aMS",%progbits,1
.LC12:
	.ascii	"\012\015[%s]Assert(uxTopPriority) failed on line %d"
	.ascii	" in file %s\015\012\000"
	.section	.rodata.xTaskCheckForTimeOut.str1.1,"aMS",%progbits,1
.LC18:
	.ascii	"\012\015[%s]Assert(pxTicksToWait) failed on line %d"
	.ascii	" in file %s\015\012\000"
	.section	.rodata.xTaskGenericNotify.str1.1,"aMS",%progbits,1
.LC22:
	.ascii	"\012\015[%s]Assert(xTaskToNotify) failed on line %d"
	.ascii	" in file %s\015\012\000"
.LC23:
	.ascii	"\012\015[%s]Assert(listLIST_ITEM_CONTAINER( &( pxTC"
	.ascii	"B->xEventListItem ) ) == NULL) failed on line %d in"
	.ascii	" file %s\015\012\000"
	.section	.rodata.xTaskIncrementTick.str1.1,"aMS",%progbits,1
.LC8:
	.ascii	"\012\015[%s]Assert(( listLIST_IS_EMPTY( pxDelayedTa"
	.ascii	"skList ) )) failed on line %d in file %s\015\012\000"
	.section	.rodata.xTaskPriorityDisinherit.str1.1,"aMS",%progbits,1
.LC19:
	.ascii	"\012\015[%s]Assert(pxTCB == pxCurrentTCB) failed on"
	.ascii	" line %d in file %s\015\012\000"
.LC20:
	.ascii	"\012\015[%s]Assert(pxTCB->uxMutexesHeld) failed on "
	.ascii	"line %d in file %s\015\012\000"
	.section	.rodata.xTaskRemoveFromEventList.str1.1,"aMS",%progbits,1
.LC15:
	.ascii	"\012\015[%s]Assert(pxUnblockedTCB) failed on line %"
	.ascii	"d in file %s\015\012\000"
	.section	.rodata.xTaskResumeAll.str1.1,"aMS",%progbits,1
.LC9:
	.ascii	"\012\015[%s]Assert(uxSchedulerSuspended) failed on "
	.ascii	"line %d in file %s\015\012\000"
	.text
.Letext0:
	.file 4 "/home/ls/8720cf/sdk-ameba-v7.1d/tools/arm-none-eabi-gcc/asdk/linux/newlib/arm-none-eabi/include/machine/_default_types.h"
	.file 5 "/home/ls/8720cf/sdk-ameba-v7.1d/tools/arm-none-eabi-gcc/asdk/linux/newlib/lib/gcc/arm-none-eabi/6.5.0/include/stddef.h"
	.file 6 "/home/ls/8720cf/sdk-ameba-v7.1d/tools/arm-none-eabi-gcc/asdk/linux/newlib/arm-none-eabi/include/sys/lock.h"
	.file 7 "/home/ls/8720cf/sdk-ameba-v7.1d/tools/arm-none-eabi-gcc/asdk/linux/newlib/arm-none-eabi/include/sys/_types.h"
	.file 8 "/home/ls/8720cf/sdk-ameba-v7.1d/tools/arm-none-eabi-gcc/asdk/linux/newlib/arm-none-eabi/include/sys/reent.h"
	.file 9 "<built-in>"
	.file 10 "/home/ls/8720cf/sdk-ameba-v7.1d/tools/arm-none-eabi-gcc/asdk/linux/newlib/arm-none-eabi/include/sys/_stdint.h"
	.file 11 "/home/ls/8720cf/sdk-ameba-v7.1d/tools/arm-none-eabi-gcc/asdk/linux/newlib/arm-none-eabi/include/time.h"
	.file 12 "../inc/FreeRTOSConfig.h"
	.file 13 "../../../component/soc/realtek/8710c/cmsis/rtl8710c/include/basic_types.h"
	.file 14 "/home/ls/8720cf/sdk-ameba-v7.1d/tools/arm-none-eabi-gcc/asdk/linux/newlib/lib/gcc/arm-none-eabi/6.5.0/include/stdarg.h"
	.file 15 "../../../component/soc/realtek/8710c/app/rtl_printf/include/log_buf.h"
	.file 16 "../../../component/soc/realtek/8710c/app/stdio_port/stdio_port.h"
	.file 17 "../../../component/soc/realtek/8710c/app/rtl_printf/include/printf_entry.h"
	.file 18 "../../../component/soc/realtek/8710c/app/rtl_printf/include/rt_printf.h"
	.file 19 "../../../component/soc/realtek/8710c/misc/utilities/include/utility.h"
	.file 20 "../../../component/os/freertos/freertos_v10.0.1/Source/include/projdefs.h"
	.file 21 "../../../component/os/freertos/freertos_v10.0.1/Source/include/list.h"
	.file 22 "../../../component/os/freertos/freertos_v10.0.1/Source/include/task.h"
	.file 23 "../../../component/os/freertos/freertos_v10.0.1/Source/include/portable.h"
	.file 24 "../../../component/os/freertos/freertos_v10.0.1/Source/include/timers.h"
	.file 25 "/home/ls/8720cf/sdk-ameba-v7.1d/tools/arm-none-eabi-gcc/asdk/linux/newlib/arm-none-eabi/include/string.h"