	.arch armv8-m.main
	.arch_extension dsp
	.eabi_attribute 20, 1
	.eabi_attribute 21, 1
	.eabi_attribute 23, 3
	.eabi_attribute 24, 1
	.eabi_attribute 25, 1
	.eabi_attribute 26, 1
	.eabi_attribute 30, 4
	.eabi_attribute 34, 1
	.eabi_attribute 18, 4
	.file	"tcp_in.c"
	.text
.Ltext0:
	.cfi_sections	.debug_frame
	.section	.text.tcp_oos_insert_segment,"ax",%progbits
	.align	1
	.syntax unified
	.thumb
	.thumb_func
	.fpu softvfp
	.type	tcp_oos_insert_segment, %function
tcp_oos_insert_segment:
.LFB6:
	.file 1 "../../../component/common/network/lwip/lwip_v2.0.2/src/core/tcp_in.c"
	.loc 1 971 0
	.cfi_startproc
	@ args = 0, pretend = 0, frame = 0
	@ frame_needed = 0, uses_anonymous_args = 0
.LVL0:
	push	{r4, r5, r6, r7, r8, lr}
	.cfi_def_cfa_offset 24
	.cfi_offset 4, -24
	.cfi_offset 5, -20
	.cfi_offset 6, -16
	.cfi_offset 7, -12
	.cfi_offset 8, -8
	.cfi_offset 14, -4
	.loc 1 974 0
	ldr	r3, [r0, #12]
	.loc 1 971 0
	mov	r5, r0
	.loc 1 974 0
	ldrh	r0, [r3, #12]	@ unaligned
.LVL1:
	.loc 1 971 0
	mov	r4, r1
	.loc 1 974 0
	bl	lwip_htons
.LVL2:
	lsls	r2, r0, #31
	bmi	.L2
	.loc 1 982 0
	ldr	r6, .L17
.L3:
	.loc 1 981 0
	cbz	r4, .L4
	.loc 1 982 0 discriminator 1
	ldr	r7, [r4, #12]
	ldr	r0, [r6]
	ldrh	r3, [r5, #8]
	ldr	r1, [r7, #4]	@ unaligned
	ldrh	r2, [r4, #8]
	add	r3, r3, r0
	add	r2, r2, r1
	subs	r2, r3, r2
	.loc 1 981 0 discriminator 1
	cmp	r2, #0
	bge	.L6
	.loc 1 993 0
	subs	r3, r3, r1
	.loc 1 992 0
	cmp	r3, #0
	ble	.L4
	.loc 1 995 0
	subs	r1, r1, r0
	uxth	r1, r1
	strh	r1, [r5, #8]	@ movhi
	.loc 1 996 0
	ldr	r0, [r5, #4]
	bl	pbuf_realloc
.LVL3:
	b	.L4
.L2:
	.loc 1 976 0
	mov	r0, r4
	bl	tcp_segs_free
.LVL4:
	.loc 1 977 0
	movs	r4, #0
.LVL5:
.L4:
	.loc 1 999 0
	str	r4, [r5]
	.loc 1 1000 0
	pop	{r4, r5, r6, r7, r8, pc}
.LVL6:
.L6:
	.loc 1 985 0
	ldrh	r0, [r7, #12]	@ unaligned
	bl	lwip_htons
.LVL7:
	lsls	r3, r0, #31
	bpl	.L5
	.loc 1 986 0
	ldr	r8, [r5, #12]
	movs	r0, #1
	ldrh	r7, [r8, #12]	@ unaligned
	bl	lwip_htons
.LVL8:
	orrs	r0, r0, r7
	strh	r0, [r8, #12]	@ unaligned
.L5:
.LVL9:
	.loc 1 989 0
	ldr	r7, [r4]
.LVL10:
	.loc 1 990 0
	mov	r0, r4
	bl	tcp_seg_free
.LVL11:
	.loc 1 989 0
	mov	r4, r7
.LVL12:
	b	.L3
.L18:
	.align	2
.L17:
	.word	.LANCHOR0
	.cfi_endproc
.LFE6:
	.size	tcp_oos_insert_segment, .-tcp_oos_insert_segment
	.section	.text.tcp_receive,"ax",%progbits
	.align	1
	.syntax unified
	.thumb
	.thumb_func
	.fpu softvfp
	.type	tcp_receive, %function
tcp_receive:
.LFB7:
	.loc 1 1017 0
	.cfi_startproc
	@ args = 0, pretend = 0, frame = 0
	@ frame_needed = 0, uses_anonymous_args = 0
.LVL13:
	push	{r4, r5, r6, r7, r8, r9, r10, lr}
	.cfi_def_cfa_offset 32
	.cfi_offset 4, -32
	.cfi_offset 5, -28
	.cfi_offset 6, -24
	.cfi_offset 7, -20
	.cfi_offset 8, -16
	.cfi_offset 9, -12
	.cfi_offset 10, -8
	.cfi_offset 14, -4
	.loc 1 1034 0
	ldr	r3, .L166
	.loc 1 1017 0
	mov	r4, r0
	.loc 1 1034 0
	ldrb	r3, [r3]	@ zero_extendqisi2
	ldr	r6, .L166+4
	tst	r3, #16
	beq	.L21
	.loc 1 1038 0
	ldr	r3, [r4, #80]
	ldr	r7, [r6]
	.loc 1 1032 0
	ldrb	r0, [r0, #20]	@ zero_extendqisi2
.LVL14:
	.loc 1 1038 0
	subs	r5, r3, r7
	cmp	r5, #0
	.loc 1 1035 0
	ldrh	r2, [r4, #92]
	ldr	r1, [r4, #84]
.LVL15:
	ldr	r5, .L166+8
	.loc 1 1038 0
	blt	.L22
	.loc 1 1038 0 is_stmt 0 discriminator 1
	cmp	r3, r7
	bne	.L23
	.loc 1 1039 0 is_stmt 1
	ldr	r3, [r5]
	subs	r3, r1, r3
	cmp	r3, #0
	blt	.L22
.L23:
	.loc 1 1039 0 is_stmt 0 discriminator 1
	ldr	r3, [r5]
	cmp	r1, r3
	bne	.L25
	.loc 1 1040 0 is_stmt 1
	ldr	r3, .L166+12
	ldr	r3, [r3]
	ldrh	r3, [r3, #14]	@ unaligned
	cmp	r3, r2
	bls	.L25
.L22:
	.loc 1 1041 0
	ldr	r3, .L166+12
	.loc 1 1044 0
	ldrh	lr, [r4, #94]
	.loc 1 1041 0
	ldr	r3, [r3]
	ldrh	ip, [r3, #14]	@ unaligned
	.loc 1 1047 0
	str	r7, [r4, #80]
	.loc 1 1041 0
	mov	r3, ip
	.loc 1 1048 0
	ldr	r7, [r5]
	.loc 1 1044 0
	cmp	lr, ip
	.loc 1 1048 0
	str	r7, [r4, #84]
	.loc 1 1041 0
	strh	ip, [r4, #92]	@ movhi
	.loc 1 1045 0
	it	cc
	strhcc	ip, [r4, #94]	@ movhi
	ldrb	r7, [r4, #157]	@ zero_extendqisi2
	.loc 1 1049 0
	cmp	r3, #0
	bne	.L28
	.loc 1 1050 0
	cbnz	r7, .L25
	.loc 1 1053 0
	movs	r3, #1
	.loc 1 1052 0
	strb	ip, [r4, #156]
.L159:
	.loc 1 1057 0
	strb	r3, [r4, #157]
.L25:
	.loc 1 1092 0
	ldr	r3, [r5]
	ldr	ip, [r4, #68]
	sub	r7, r3, ip
	cmp	r7, #0
	ldr	r7, .L166+16
	bgt	.L29
	.loc 1 1094 0
	ldr	r0, .L166+20
	ldrh	r0, [r0]
	cmp	r0, #0
	bne	.L30
	.loc 1 1035 0
	add	r2, r2, r1
.LVL16:
	.loc 1 1096 0
	ldr	r0, [r4, #84]
	ldrh	r1, [r4, #92]
	add	r1, r1, r0
	cmp	r2, r1
	bne	.L30
	.loc 1 1098 0
	ldrsh	r2, [r4, #48]
	cmp	r2, #0
	blt	.L30
	.loc 1 1100 0
	cmp	r3, ip
	bne	.L30
.LVL17:
	.loc 1 1102 0
	ldrb	r2, [r4, #67]	@ zero_extendqisi2
	adds	r3, r2, #1
	uxtb	r3, r3
	cmp	r2, r3
	.loc 1 1103 0
	it	cc
	strbcc	r3, [r4, #67]
	.loc 1 1105 0
	ldrb	r3, [r4, #67]	@ zero_extendqisi2
	cmp	r3, #3
	bls	.L32
	.loc 1 1108 0
	ldrh	r2, [r4, #72]
	ldrh	r3, [r4, #50]
	add	r3, r3, r2
	uxth	r3, r3
	cmp	r2, r3
	bcs	.L104
	.loc 1 1109 0
	strh	r3, [r4, #72]	@ movhi
.LVL18:
.L104:
	.loc 1 1224 0
	ldr	r3, [r4, #104]
	cmp	r3, #0
	bne	.L46
.L49:
	.loc 1 1250 0
	ldrh	r3, [r4, #96]
	ldrh	r2, [r7]
	add	r3, r3, r2
	.loc 1 1259 0
	ldr	r2, [r4, #52]
	.loc 1 1250 0
	strh	r3, [r4, #96]	@ movhi
	.loc 1 1259 0
	cmp	r2, #0
	bne	.L47
.L21:
	.loc 1 1288 0
	ldr	r7, .L166+20
	ldr	r2, [r4, #36]
	ldrh	r0, [r7]
	cmp	r0, #0
	beq	.L52
	.loc 1 1288 0 is_stmt 0 discriminator 1
	ldrb	r3, [r4, #20]	@ zero_extendqisi2
	cmp	r3, #6
	bhi	.L52
	.loc 1 1319 0 is_stmt 1
	ldr	r3, [r6]
	sub	ip, r2, r3
	cmp	ip, #1
	bmi	.L53
	.loc 1 1319 0 is_stmt 0 discriminator 1
	rsb	r1, r3, #1
	subs	r1, r1, r0
	add	r1, r1, r2
	cmp	r1, #0
	bgt	.L53
.LBB6:
	.loc 1 1340 0 is_stmt 1
	ldr	r5, .L166+24
	.loc 1 1341 0
	mov	r1, ip
	.loc 1 1340 0
	ldr	r0, [r5, #4]
.LVL19:
	.loc 1 1344 0
	ldrh	r3, [r0, #10]
	cmp	ip, r3
	ble	.L54
	.loc 1 1353 0
	mov	ip, #0
	.loc 1 1346 0
	ldrh	r3, [r0, #8]
	subs	r3, r3, r1
	uxth	r3, r3
.LVL20:
.L55:
	.loc 1 1347 0
	ldrh	r2, [r0, #10]
	cmp	r1, r2
	bgt	.L56
	.loc 1 1356 0
	negs	r1, r1
.LVL21:
.L161:
	.loc 1 1361 0
	sxth	r1, r1
	bl	pbuf_header
.LVL22:
	.loc 1 1366 0
	ldrh	r1, [r5, #8]
	ldr	r3, [r6]
	ldr	r2, [r4, #36]
	add	r3, r3, r1
	subs	r3, r3, r2
	strh	r3, [r5, #8]	@ movhi
	.loc 1 1367 0
	ldr	r3, [r5, #12]
	str	r2, [r6]
	str	r2, [r3, #4]	@ unaligned
.L58:
.LBE6:
	.loc 1 1382 0
	ldr	r1, [r6]
	ldr	r2, [r4, #36]
	subs	r3, r1, r2
	cmp	r3, #0
	blt	.L59
	.loc 1 1382 0 is_stmt 0 discriminator 1
	adds	r3, r1, #1
	ldrh	r0, [r4, #40]
	subs	r3, r3, r2
	subs	r3, r3, r0
	cmp	r3, #0
	bgt	.L59
	.loc 1 1384 0 is_stmt 1
	cmp	r1, r2
	bne	.L60
	.loc 1 1388 0
	ldr	r5, .L166+24
	ldr	r3, [r5, #12]
	ldrh	r8, [r5, #8]
	ldrh	r0, [r3, #12]	@ unaligned
	bl	lwip_htons
.LVL23:
	ands	r0, r0, #3
	it	ne
	movne	r0, #1
	.loc 1 1390 0
	ldrh	r3, [r4, #40]
	.loc 1 1388 0
	add	r0, r0, r8
	uxth	r0, r0
	.loc 1 1390 0
	cmp	r3, r0
	.loc 1 1388 0
	strh	r0, [r7]	@ movhi
	.loc 1 1390 0
	bcs	.L61
	.loc 1 1395 0
	ldr	r3, [r5, #12]
	ldrh	r0, [r3, #12]	@ unaligned
	bl	lwip_htons
.LVL24:
	lsls	r2, r0, #31
	bpl	.L62
	.loc 1 1399 0
	ldr	r9, [r5, #12]
	ldrh	r8, [r9, #12]	@ unaligned
	mov	r0, r8
	bl	lwip_htons
.LVL25:
	and	r0, r0, #62
	bl	lwip_htons
.LVL26:
	bic	r8, r8, #16128
	orr	r8, r0, r8
	strh	r8, [r9, #12]	@ unaligned
.L62:
	.loc 1 1403 0
	ldrh	r3, [r4, #40]
	strh	r3, [r5, #8]	@ movhi
	.loc 1 1404 0
	ldr	r3, [r5, #12]
	ldrh	r0, [r3, #12]	@ unaligned
	bl	lwip_htons
.LVL27:
	lsls	r3, r0, #30
	.loc 1 1405 0
	it	mi
	ldrhmi	r3, [r5, #8]
	.loc 1 1407 0
	ldr	r0, [r5, #4]
	.loc 1 1405 0
	itt	mi
	addmi	r3, r3, #-1
	strhmi	r3, [r5, #8]	@ movhi
	.loc 1 1407 0
	ldrh	r1, [r5, #8]
	bl	pbuf_realloc
.LVL28:
	.loc 1 1408 0
	ldr	r3, [r5, #12]
	ldrh	r8, [r5, #8]
	ldrh	r0, [r3, #12]	@ unaligned
	bl	lwip_htons
.LVL29:
	ands	r0, r0, #3
	it	ne
	movne	r0, #1
	add	r8, r8, r0
	strh	r8, [r7]	@ movhi
.L61:
	.loc 1 1416 0
	ldr	r3, [r4, #112]
	cmp	r3, #0
	beq	.L65
	.loc 1 1417 0
	ldr	r3, [r5, #12]
	ldrh	r0, [r3, #12]	@ unaligned
	bl	lwip_htons
.LVL30:
	lsls	r0, r0, #31
	bmi	.L139
	.loc 1 1429 0
	ldr	r8, [r4, #112]
.LVL31:
.L70:
	.loc 1 1432 0
	cmp	r8, #0
	beq	.L74
	.loc 1 1433 0 discriminator 1
	ldr	ip, [r8, #12]
	ldr	r0, [r6]
	ldrh	r3, [r7]
	ldr	r2, [ip, #4]	@ unaligned
	ldrh	r1, [r8, #8]
	add	r3, r3, r0
	add	r1, r1, r2
	subs	r1, r3, r1
	.loc 1 1432 0 discriminator 1
	cmp	r1, #0
	bge	.L75
	.loc 1 1448 0
	subs	r3, r3, r2
	.loc 1 1447 0
	cmp	r3, #0
	ble	.L74
	.loc 1 1452 0
	ldr	r3, [r5, #12]
	.loc 1 1451 0
	subs	r2, r2, r0
	strh	r2, [r5, #8]	@ movhi
	.loc 1 1452 0
	ldrh	r0, [r3, #12]	@ unaligned
	bl	lwip_htons
.LVL32:
	lsls	r3, r0, #30
	.loc 1 1453 0
	it	mi
	ldrhmi	r3, [r5, #8]
	.loc 1 1455 0
	ldr	r0, [r5, #4]
	.loc 1 1453 0
	itt	mi
	addmi	r3, r3, #-1
	strhmi	r3, [r5, #8]	@ movhi
	.loc 1 1455 0
	ldrh	r1, [r5, #8]
	bl	pbuf_realloc
.LVL33:
	.loc 1 1456 0
	ldr	r3, [r5, #12]
	ldrh	r9, [r5, #8]
	ldrh	r0, [r3, #12]	@ unaligned
	bl	lwip_htons
.LVL34:
	ands	r0, r0, #3
	it	ne
	movne	r0, #1
	add	r9, r9, r0
	strh	r9, [r7]	@ movhi
.L74:
	.loc 1 1460 0
	str	r8, [r4, #112]
	b	.L65
.LVL35:
.L28:
	.loc 1 1055 0
	cmp	r7, #0
	beq	.L25
	.loc 1 1057 0
	movs	r3, #0
	b	.L159
.LVL36:
.L32:
	.loc 1 1111 0
	bne	.L104
	.loc 1 1113 0
	mov	r0, r4
	bl	tcp_rexmit_fast
.LVL37:
	b	.L104
.LVL38:
.L29:
	.loc 1 1124 0
	ldr	r2, [r4, #76]
.LVL39:
	subs	r2, r3, r2
	cmp	r2, #0
	bgt	.L34
	.loc 1 1130 0
	ldrb	r2, [r4, #26]	@ zero_extendqisi2
	.loc 1 1139 0
	ldrsh	ip, [r4, #60]
	.loc 1 1130 0
	lsls	r1, r2, #29
	.loc 1 1136 0
	mov	r1, #0
	.loc 1 1131 0
	ittt	mi
	bicmi	r2, r2, #4
	strbmi	r2, [r4, #26]
	.loc 1 1132 0
	ldrhmi	r2, [r4, #74]
	.loc 1 1136 0
	strb	r1, [r4, #66]
	.loc 1 1132 0
	it	mi
	strhmi	r2, [r4, #72]	@ movhi
	.loc 1 1139 0
	ldrh	r2, [r4, #62]
	.loc 1 1147 0
	cmp	r0, #3
	.loc 1 1139 0
	add	r2, r2, ip, asr #3
	strh	r2, [r4, #64]	@ movhi
	.loc 1 1142 0
	strb	r1, [r4, #67]
	.loc 1 1143 0
	str	r3, [r4, #68]
	.loc 1 1147 0
	bls	.L38
	.loc 1 1148 0
	ldrh	r3, [r4, #74]
	ldrh	r2, [r4, #72]
	cmp	r3, r2
	.loc 1 1149 0
	ldrh	r3, [r4, #50]
	.loc 1 1148 0
	bls	.L37
	.loc 1 1149 0
	add	r3, r3, r2
	uxth	r3, r3
	cmp	r2, r3
	bcs	.L38
.L160:
.LBB7:
	.loc 1 1158 0
	strh	r3, [r4, #72]	@ movhi
	b	.L38
.L167:
	.align	2
.L166:
	.word	.LANCHOR1
	.word	.LANCHOR0
	.word	.LANCHOR2
	.word	.LANCHOR3
	.word	.LANCHOR5
	.word	.LANCHOR4
	.word	.LANCHOR6
.L37:
	.loc 1 1155 0
	muls	r3, r3, r3
	sdiv	r3, r3, r2
	add	r3, r3, r2
.LVL40:
	.loc 1 1156 0
	uxth	r1, r3
	.loc 1 1157 0
	cmp	r1, r2
	bhi	.L160
.LVL41:
.L38:
.LBE7:
	.loc 1 1172 0
	ldr	r3, [r4, #108]
	cbnz	r3, .L39
.L43:
	.loc 1 1199 0
	ldr	r2, [r4, #108]
	movs	r3, #0
	cmp	r2, #0
	bne	.L156
	.loc 1 1200 0
	movw	r2, #65535
	strh	r2, [r4, #48]	@ movhi
.L44:
	.loc 1 1205 0
	strb	r3, [r4, #27]
	b	.L104
.L39:
	.loc 1 1173 0
	ldr	r3, [r3, #12]
	ldr	r0, [r3, #4]	@ unaligned
	bl	lwip_htonl
.LVL42:
	ldr	r3, [r4, #108]
	mov	r9, r0
	ldrh	r8, [r3, #8]
	ldr	r3, [r3, #12]
	ldrh	r0, [r3, #12]	@ unaligned
	bl	lwip_htons
.LVL43:
	ands	r0, r0, #3
	it	ne
	movne	r0, #1
	ldr	r3, [r5]
	sub	r8, r8, r3
	add	r8, r8, r9
	add	r8, r8, r0
	.loc 1 1172 0
	cmp	r8, #0
	bgt	.L43
	.loc 1 1180 0
	ldr	r8, [r4, #108]
.LVL44:
	.loc 1 1181 0
	ldr	r3, [r8]
	.loc 1 1184 0
	ldr	r0, [r8, #4]
	.loc 1 1181 0
	str	r3, [r4, #108]
	.loc 1 1184 0
	bl	pbuf_clen
.LVL45:
	.loc 1 1186 0
	ldr	r0, [r8, #4]
	bl	pbuf_clen
.LVL46:
	ldrh	r3, [r4, #98]
	.loc 1 1187 0
	ldrh	r2, [r7]
	.loc 1 1186 0
	subs	r0, r3, r0
	.loc 1 1187 0
	ldrh	r3, [r8, #8]
	.loc 1 1186 0
	strh	r0, [r4, #98]	@ movhi
	.loc 1 1187 0
	add	r3, r3, r2
	.loc 1 1188 0
	mov	r0, r8
	.loc 1 1187 0
	strh	r3, [r7]	@ movhi
	.loc 1 1188 0
	bl	tcp_seg_free
.LVL47:
	b	.L38
.LVL48:
.L156:
	.loc 1 1202 0
	strh	r3, [r4, #48]	@ movhi
	b	.L44
.L34:
	.loc 1 1215 0
	mov	r0, r4
	bl	tcp_send_empty_ack
.LVL49:
	b	.L104
.LVL50:
.L46:
	.loc 1 1225 0
	ldr	r3, [r3, #12]
	ldr	r8, [r5]
	ldr	r0, [r3, #4]	@ unaligned
	bl	lwip_htonl
.LVL51:
	ldr	r3, [r4, #104]
	mov	r9, r0
	ldrh	r10, [r3, #8]
	ldr	r3, [r3, #12]
	sub	r8, r8, r10
	ldrh	r0, [r3, #12]	@ unaligned
	bl	lwip_htons
.LVL52:
	ands	r0, r0, #3
	it	ne
	movne	r0, #1
	sub	r8, r8, r9
	sub	r8, r8, r0
	.loc 1 1224 0
	cmp	r8, #0
	blt	.L49
	.loc 1 1225 0
	ldr	r3, [r5]
	ldr	r2, [r4, #76]
	subs	r3, r3, r2
	cmp	r3, #0
	bgt	.L49
	.loc 1 1231 0
	ldr	r8, [r4, #104]
.LVL53:
	.loc 1 1232 0
	ldr	r3, [r8]
	str	r3, [r4, #104]
	.loc 1 1234 0
	cbnz	r3, .L45
	.loc 1 1235 0
	strh	r3, [r4, #100]	@ movhi
.L45:
	.loc 1 1239 0
	ldr	r0, [r8, #4]
	bl	pbuf_clen
.LVL54:
	.loc 1 1241 0
	ldr	r0, [r8, #4]
	bl	pbuf_clen
.LVL55:
	ldrh	r3, [r4, #98]
	.loc 1 1242 0
	ldrh	r2, [r7]
	.loc 1 1241 0
	subs	r0, r3, r0
	.loc 1 1242 0
	ldrh	r3, [r8, #8]
	.loc 1 1241 0
	strh	r0, [r4, #98]	@ movhi
	.loc 1 1242 0
	add	r3, r3, r2
	.loc 1 1243 0
	mov	r0, r8
	.loc 1 1242 0
	strh	r3, [r7]	@ movhi
	.loc 1 1243 0
	bl	tcp_seg_free
.LVL56:
	b	.L104
.LVL57:
.L47:
	.loc 1 1259 0 discriminator 1
	ldr	r3, [r4, #56]
	ldr	r1, [r5]
	subs	r3, r3, r1
	cmp	r3, #0
	bge	.L21
.LVL58:
	.loc 1 1262 0
	ldr	r3, .L168
.LVL59:
	.loc 1 1268 0
	ldrsh	r0, [r4, #60]
	.loc 1 1262 0
	ldr	r1, [r3]
	subs	r1, r1, r2
	.loc 1 1268 0
	sub	r1, r1, r0, asr #3
	uxth	r1, r1
	sxth	r3, r1
.LVL60:
	.loc 1 1270 0
	cmp	r3, #0
	.loc 1 1273 0
	ldrsh	r2, [r4, #62]
	.loc 1 1269 0
	add	r0, r0, r1
	.loc 1 1271 0
	itt	lt
	rsblt	r1, r1, #0
	sxthlt	r3, r1
.LVL61:
	.loc 1 1274 0
	sub	r2, r2, r2, asr #2
.LVL62:
	add	r3, r3, r2
.LVL63:
	.loc 1 1269 0
	sxth	r0, r0
	.loc 1 1274 0
	uxth	r3, r3
	strh	r3, [r4, #62]	@ movhi
.LVL64:
	.loc 1 1275 0
	add	r3, r3, r0, asr #3
	strh	r3, [r4, #64]	@ movhi
	.loc 1 1280 0
	movs	r3, #0
	.loc 1 1269 0
	strh	r0, [r4, #60]	@ movhi
	.loc 1 1280 0
	str	r3, [r4, #52]
	b	.L21
.LVL65:
.L56:
.LBB8:
	.loc 1 1352 0
	strh	r3, [r0, #8]	@ movhi
	.loc 1 1353 0
	strh	ip, [r0, #10]	@ movhi
	.loc 1 1348 0
	subs	r1, r1, r2
.LVL66:
	.loc 1 1354 0
	ldr	r0, [r0]
.LVL67:
	b	.L55
.LVL68:
.L54:
	.loc 1 1361 0
	rsb	r1, ip, #0
.LVL69:
	b	.L161
.LVL70:
.L53:
.LBE8:
	.loc 1 1370 0
	subs	r3, r3, r2
	cmp	r3, #0
	.loc 1 1375 0
	ittt	lt
	ldrblt	r3, [r4, #26]	@ zero_extendqisi2
	orrlt	r3, r3, #2
	strblt	r3, [r4, #26]
	b	.L58
.L68:
.LVL71:
.LBB9:
	.loc 1 1425 0
	ldr	r3, [r0]
	str	r3, [r4, #112]
	.loc 1 1426 0
	bl	tcp_seg_free
.LVL72:
.L139:
.LBE9:
	.loc 1 1423 0
	ldr	r0, [r4, #112]
	cmp	r0, #0
	bne	.L68
.L65:
	.loc 1 1465 0
	ldrh	r1, [r7]
	.loc 1 1469 0
	ldrh	r3, [r4, #40]
	.loc 1 1465 0
	ldr	r2, [r6]
	.loc 1 1469 0
	subs	r3, r3, r1
	.loc 1 1465 0
	add	r2, r2, r1
	str	r2, [r4, #36]
	.loc 1 1469 0
	strh	r3, [r4, #40]	@ movhi
	.loc 1 1471 0
	mov	r0, r4
	bl	tcp_update_rcv_ann_wnd
.LVL73:
	.loc 1 1482 0
	ldr	r3, [r5, #4]
	ldrh	r2, [r3, #8]
	cbz	r2, .L78
	.loc 1 1483 0
	ldr	r2, .L168+4
	str	r3, [r2]
	.loc 1 1487 0
	movs	r3, #0
	str	r3, [r5, #4]
.L78:
	.loc 1 1489 0
	ldr	r3, [r5, #12]
	.loc 1 1521 0
	mov	r9, #0
	.loc 1 1489 0
	ldrh	r0, [r3, #12]	@ unaligned
	bl	lwip_htons
.LVL74:
	lsls	r5, r0, #31
	.loc 1 1491 0
	it	mi
	ldrmi	r2, .L168+8
	.loc 1 1516 0
	ldr	r7, .L168+4
	.loc 1 1491 0
	it	mi
	ldrbmi	r3, [r2]	@ zero_extendqisi2
	.loc 1 1525 0
	ldr	r8, .L168+8
	.loc 1 1491 0
	itt	mi
	orrmi	r3, r3, #32
	strbmi	r3, [r2]
.L80:
	.loc 1 1497 0
	ldr	r5, [r4, #112]
	cbz	r5, .L87
	.loc 1 1498 0 discriminator 1
	ldr	r1, [r5, #12]
	.loc 1 1497 0 discriminator 1
	ldr	r2, [r4, #36]
	.loc 1 1498 0 discriminator 1
	ldr	r3, [r1, #4]	@ unaligned
	.loc 1 1497 0 discriminator 1
	cmp	r3, r2
	beq	.L88
.L87:
	.loc 1 1538 0
	ldrb	r3, [r4, #26]	@ zero_extendqisi2
	lsls	r1, r3, #31
	bpl	.L89
	.loc 1 1538 0 is_stmt 0 discriminator 1
	bic	r3, r3, #1
.L164:
	.loc 1 1707 0 is_stmt 1
	orr	r3, r3, #2
	b	.L165
.LVL75:
.L75:
	.loc 1 1436 0
	ldrh	r0, [ip, #12]	@ unaligned
	bl	lwip_htons
.LVL76:
	lsls	r1, r0, #31
	bpl	.L72
	.loc 1 1437 0 discriminator 1
	ldr	r3, [r5, #12]
	ldrh	r0, [r3, #12]	@ unaligned
	bl	lwip_htons
.LVL77:
	.loc 1 1436 0 discriminator 1
	lsls	r2, r0, #30
	bmi	.L72
	.loc 1 1438 0
	ldr	r10, [r5, #12]
	movs	r0, #1
	ldrh	r9, [r10, #12]	@ unaligned
	bl	lwip_htons
.LVL78:
	.loc 1 1439 0
	ldr	r3, [r5, #12]
	.loc 1 1438 0
	orr	r0, r9, r0
	strh	r0, [r10, #12]	@ unaligned
	.loc 1 1439 0
	ldrh	r0, [r3, #12]	@ unaligned
	ldrh	r9, [r5, #8]
	bl	lwip_htons
.LVL79:
	ands	r0, r0, #3
	it	ne
	movne	r0, #1
	add	r9, r9, r0
	strh	r9, [r7]	@ movhi
.L72:
.LVL80:
	.loc 1 1442 0
	ldr	r9, [r8]
.LVL81:
	.loc 1 1443 0
	mov	r0, r8
	bl	tcp_seg_free
.LVL82:
	.loc 1 1442 0
	mov	r8, r9
.LVL83:
	b	.L70
.LVL84:
.L88:
	.loc 1 1501 0
	str	r3, [r6]
	.loc 1 1503 0
	ldrh	r0, [r1, #12]	@ unaligned
	ldrh	r10, [r5, #8]
	bl	lwip_htons
.LVL85:
	ands	r0, r0, #3
	it	ne
	movne	r0, #1
	ldr	r3, [r4, #36]
	add	r3, r3, r10
	add	r0, r0, r3
	.loc 1 1504 0
	ldr	r3, [r5, #12]
	.loc 1 1503 0
	str	r0, [r4, #36]
	.loc 1 1504 0
	ldrh	r0, [r3, #12]	@ unaligned
	bl	lwip_htons
.LVL86:
	.loc 1 1506 0
	ldr	r3, [r5, #12]
	ldrh	r10, [r5, #8]
	ldrh	r0, [r3, #12]	@ unaligned
	bl	lwip_htons
.LVL87:
	ands	r0, r0, #3
	it	ne
	movne	r0, #1
	ldrh	r3, [r4, #40]
	add	r0, r0, r10
	subs	r0, r3, r0
	strh	r0, [r4, #40]	@ movhi
	.loc 1 1508 0
	mov	r0, r4
	bl	tcp_update_rcv_ann_wnd
.LVL88:
	.loc 1 1510 0
	ldr	r1, [r5, #4]
	ldrh	r3, [r1, #8]
	cbz	r3, .L81
	.loc 1 1516 0
	ldr	r0, [r7]
	cbz	r0, .L82
	.loc 1 1517 0
	bl	pbuf_cat
.LVL89:
.L83:
	.loc 1 1521 0
	str	r9, [r5, #4]
.L81:
	.loc 1 1523 0
	ldr	r3, [r5, #12]
	ldrh	r0, [r3, #12]	@ unaligned
	bl	lwip_htons
.LVL90:
	lsls	r0, r0, #31
	bpl	.L85
	.loc 1 1525 0
	ldrb	r3, [r8]	@ zero_extendqisi2
	orr	r3, r3, #32
	strb	r3, [r8]
	.loc 1 1526 0
	ldrb	r3, [r4, #20]	@ zero_extendqisi2
	cmp	r3, #4
	.loc 1 1527 0
	itt	eq
	moveq	r3, #7
	strbeq	r3, [r4, #20]
.L85:
	.loc 1 1531 0
	ldr	r3, [r5]
	.loc 1 1532 0
	mov	r0, r5
	.loc 1 1531 0
	str	r3, [r4, #112]
	.loc 1 1532 0
	bl	tcp_seg_free
.LVL91:
	b	.L80
.L82:
	.loc 1 1519 0
	str	r1, [r7]
	b	.L83
.LVL92:
.L89:
	.loc 1 1538 0 discriminator 2
	orr	r3, r3, #1
.L165:
	.loc 1 1707 0
	strb	r3, [r4, #26]
	.loc 1 1710 0
	pop	{r4, r5, r6, r7, r8, r9, r10, pc}
.LVL93:
.L60:
	.loc 1 1549 0
	mov	r0, r4
	bl	tcp_send_empty_ack
.LVL94:
	.loc 1 1552 0
	ldr	r5, [r4, #112]
	cbnz	r5, .L91
	.loc 1 1553 0
	ldr	r0, .L168+12
	bl	tcp_seg_copy
.LVL95:
	str	r0, [r4, #112]
	pop	{r4, r5, r6, r7, r8, r9, r10, pc}
.LVL96:
.L91:
	.loc 1 1569 0
	mov	r8, #0
	ldr	r3, [r6]
	add	ip, r3, #-1
	add	lr, r3, #1
.L100:
.LVL97:
	ldr	r0, [r5, #12]
	ldr	r2, [r0, #4]	@ unaligned
	cmp	r2, r3
	bne	.L92
	.loc 1 1574 0
	ldr	r0, .L168+12
	ldrh	r3, [r5, #8]
	ldrh	r2, [r0, #8]
	cmp	r2, r3
	bls	.L19
	.loc 1 1578 0
	bl	tcp_seg_copy
.LVL98:
	.loc 1 1579 0
	cmp	r0, #0
	beq	.L19
	.loc 1 1580 0
	cmp	r8, #0
	beq	.L95
	.loc 1 1581 0
	str	r0, [r8]
.L162:
	.loc 1 1604 0
	mov	r1, r5
.LVL99:
.L163:
	.loc 1 1710 0
	pop	{r4, r5, r6, r7, r8, r9, r10, lr}
	.cfi_remember_state
	.cfi_restore 14
	.cfi_restore 10
	.cfi_restore 9
	.cfi_restore 8
	.cfi_restore 7
	.cfi_restore 6
	.cfi_restore 5
	.cfi_restore 4
	.cfi_def_cfa_offset 0
.LVL100:
	.loc 1 1604 0
	b	tcp_oos_insert_segment
.LVL101:
.L106:
	.cfi_restore_state
	mov	r5, r1
.LVL102:
	b	.L100
.LVL103:
.L95:
	.loc 1 1583 0
	str	r0, [r4, #112]
	b	.L162
.LVL104:
.L92:
	.loc 1 1595 0
	cmp	r8, #0
	bne	.L97
	.loc 1 1596 0
	subs	r1, r3, r2
	cmp	r1, #0
	bge	.L98
	.loc 1 1601 0
	ldr	r0, .L168+12
	bl	tcp_seg_copy
.LVL105:
	.loc 1 1602 0
	cmp	r0, #0
	beq	.L19
	.loc 1 1603 0
	str	r0, [r4, #112]
	b	.L162
.LVL106:
.L97:
	.loc 1 1611 0
	ldr	r1, [r8, #12]
	ldr	r1, [r1, #4]	@ unaligned
	sub	r1, ip, r1
	cmp	r1, #0
	blt	.L98
	.loc 1 1611 0 is_stmt 0 discriminator 1
	sub	r1, lr, r2
	cmp	r1, #0
	bgt	.L98
	.loc 1 1617 0 is_stmt 1
	ldr	r0, .L168+12
	bl	tcp_seg_copy
.LVL107:
	.loc 1 1618 0
	mov	r4, r0
.LVL108:
	cmp	r0, #0
	beq	.L19
	.loc 1 1619 0
	ldr	r3, [r8, #12]
	ldr	r1, [r6]
	ldr	r2, [r3, #4]	@ unaligned
	ldrh	r3, [r8, #8]
	add	r3, r3, r2
	subs	r3, r3, r1
	cmp	r3, #0
	ble	.L99
	.loc 1 1621 0
	subs	r1, r1, r2
	uxth	r1, r1
	strh	r1, [r8, #8]	@ movhi
	.loc 1 1622 0
	ldr	r0, [r8, #4]
.LVL109:
	bl	pbuf_realloc
.LVL110:
.L99:
	.loc 1 1624 0
	str	r4, [r8]
	.loc 1 1625 0
	mov	r1, r5
	mov	r0, r4
	b	.L163
.L169:
	.align	2
.L168:
	.word	tcp_ticks
	.word	.LANCHOR7
	.word	.LANCHOR8
	.word	.LANCHOR6
.LVL111:
.L98:
	.loc 1 1633 0
	ldr	r1, [r5]
	mov	r8, r5
.LVL112:
	cmp	r1, #0
	bne	.L106
	.loc 1 1634 0 discriminator 1
	subs	r3, r3, r2
	.loc 1 1633 0 discriminator 1
	cmp	r3, #0
	ble	.L19
	.loc 1 1635 0
	ldrh	r0, [r0, #12]	@ unaligned
	bl	lwip_htons
.LVL113:
	lsls	r2, r0, #31
	bmi	.L19
	.loc 1 1639 0
	ldr	r0, .L170
	bl	tcp_seg_copy
.LVL114:
	str	r0, [r5]
	.loc 1 1640 0
	cmp	r0, #0
	beq	.L19
	.loc 1 1641 0
	ldr	r3, [r5, #12]
	ldr	r1, [r6]
	ldr	r2, [r3, #4]	@ unaligned
	ldrh	r3, [r5, #8]
	add	r3, r3, r2
	subs	r3, r3, r1
	cmp	r3, #0
	ble	.L101
	.loc 1 1643 0
	subs	r1, r1, r2
	uxth	r1, r1
	strh	r1, [r5, #8]	@ movhi
	.loc 1 1644 0
	ldr	r0, [r5, #4]
	bl	pbuf_realloc
.LVL115:
.L101:
	.loc 1 1647 0
	ldr	r2, [r6]
	ldrh	r3, [r7]
	add	r3, r3, r2
	ldr	r2, [r4, #36]
	subs	r3, r3, r2
	ldrh	r2, [r4, #40]
	subs	r3, r3, r2
	cmp	r3, #0
	ble	.L19
	.loc 1 1652 0
	ldr	r3, [r5]
	ldr	r3, [r3, #12]
	ldrh	r0, [r3, #12]	@ unaligned
	bl	lwip_htons
.LVL116:
	lsls	r3, r0, #31
	bpl	.L102
	.loc 1 1656 0
	ldr	r3, [r5]
	ldr	r9, [r3, #12]
	ldrh	r8, [r9, #12]	@ unaligned
	mov	r0, r8
	bl	lwip_htons
.LVL117:
	and	r0, r0, #62
	bl	lwip_htons
.LVL118:
	bic	r8, r8, #16128
	orr	r8, r0, r8
	strh	r8, [r9, #12]	@ unaligned
.L102:
	.loc 1 1659 0
	ldrh	r1, [r4, #40]
	ldr	r2, [r6]
	ldr	r3, [r5]
	subs	r1, r1, r2
	ldr	r2, [r4, #36]
	.loc 1 1660 0
	ldr	r0, [r3, #4]
	.loc 1 1659 0
	add	r1, r1, r2
	uxth	r1, r1
	strh	r1, [r3, #8]	@ movhi
	.loc 1 1660 0
	bl	pbuf_realloc
.LVL119:
	.loc 1 1661 0
	ldr	r3, [r5]
	ldrh	r4, [r3, #8]
.LVL120:
	ldr	r3, [r3, #12]
	ldrh	r0, [r3, #12]	@ unaligned
	bl	lwip_htons
.LVL121:
	ands	r0, r0, #3
	it	ne
	movne	r0, #1
	add	r4, r4, r0
	strh	r4, [r7]	@ movhi
	pop	{r4, r5, r6, r7, r8, r9, r10, pc}
.LVL122:
.L59:
	.loc 1 1701 0
	mov	r0, r4
	.loc 1 1710 0
	pop	{r4, r5, r6, r7, r8, r9, r10, lr}
	.cfi_remember_state
	.cfi_restore 14
	.cfi_restore 10
	.cfi_restore 9
	.cfi_restore 8
	.cfi_restore 7
	.cfi_restore 6
	.cfi_restore 5
	.cfi_restore 4
	.cfi_def_cfa_offset 0
.LVL123:
	.loc 1 1701 0
	b	tcp_send_empty_ack
.LVL124:
.L52:
	.cfi_restore_state
	.loc 1 1706 0
	ldr	r3, [r6]
	subs	r1, r3, r2
	cmp	r1, #0
	blt	.L103
	.loc 1 1706 0 is_stmt 0 discriminator 1
	adds	r3, r3, #1
	subs	r3, r3, r2
	ldrh	r2, [r4, #40]
	subs	r3, r3, r2
	cmp	r3, #0
	ble	.L19
.L103:
	.loc 1 1707 0 is_stmt 1
	ldrb	r3, [r4, #26]	@ zero_extendqisi2
	b	.L164
.LVL125:
.L30:
	.loc 1 1122 0
	movs	r3, #0
	strb	r3, [r4, #67]
	b	.L104
.LVL126:
.L19:
	pop	{r4, r5, r6, r7, r8, r9, r10, pc}
.L171:
	.align	2
.L170:
	.word	.LANCHOR6
	.cfi_endproc
.LFE7:
	.size	tcp_receive, .-tcp_receive
	.section	.text.tcp_getoptbyte,"ax",%progbits
	.align	1
	.syntax unified
	.thumb
	.thumb_func
	.fpu softvfp
	.type	tcp_getoptbyte, %function
tcp_getoptbyte:
.LFB8:
	.loc 1 1714 0
	.cfi_startproc
	@ args = 0, pretend = 0, frame = 0
	@ frame_needed = 0, uses_anonymous_args = 0
	.loc 1 1715 0
	ldr	r3, .L179
	.loc 1 1714 0
	push	{r4, lr}
	.cfi_def_cfa_offset 8
	.cfi_offset 4, -8
	.cfi_offset 14, -4
	.loc 1 1715 0
	ldr	r1, [r3]
	ldr	r2, .L179+4
	cbz	r1, .L173
	.loc 1 1715 0 discriminator 1
	ldr	r0, .L179+8
	ldrh	r3, [r2]
	ldrh	r0, [r0]
	cmp	r3, r0
	bcs	.L174
.L173:
.LBB15:
	.loc 1 1716 0
	ldr	r3, .L179+12
	.loc 1 1717 0
	ldrh	r1, [r2]
	.loc 1 1716 0
	ldr	r3, [r3]
.LVL127:
	.loc 1 1717 0
	adds	r0, r1, #1
	add	r3, r3, r1
.LVL128:
	strh	r0, [r2]	@ movhi
	ldrb	r0, [r3, #20]	@ zero_extendqisi2
.LVL129:
	pop	{r4, pc}
.L174:
.LBE15:
.LBB16:
	.loc 1 1719 0
	adds	r4, r3, #1
	subs	r3, r3, r0
	.loc 1 1720 0
	uxtb	r3, r3
	.loc 1 1719 0
	strh	r4, [r2]	@ movhi
	.loc 1 1720 0
	ldrb	r0, [r1, r3]	@ zero_extendqisi2
.LBE16:
	.loc 1 1722 0
	pop	{r4, pc}
.L180:
	.align	2
.L179:
	.word	.LANCHOR9
	.word	.LANCHOR10
	.word	.LANCHOR11
	.word	.LANCHOR3
	.cfi_endproc
.LFE8:
	.size	tcp_getoptbyte, .-tcp_getoptbyte
	.section	.text.tcp_parseopt.isra.1.part.2,"ax",%progbits
	.align	1
	.syntax unified
	.thumb
	.thumb_func
	.fpu softvfp
	.type	tcp_parseopt.isra.1.part.2, %function
tcp_parseopt.isra.1.part.2:
.LFB13:
	.loc 1 1733 0
	.cfi_startproc
	@ args = 0, pretend = 0, frame = 0
	@ frame_needed = 0, uses_anonymous_args = 0
	push	{r3, r4, r5, r6, r7, r8, r9, lr}
	.cfi_def_cfa_offset 32
	.cfi_offset 3, -32
	.cfi_offset 4, -28
	.cfi_offset 5, -24
	.cfi_offset 6, -20
	.cfi_offset 7, -16
	.cfi_offset 8, -12
	.cfi_offset 9, -8
	.cfi_offset 14, -4
	.loc 1 1743 0
	movs	r3, #0
	.loc 1 1733 0
	mov	r7, r0
.LBB17:
	.loc 1 1765 0
	movw	r8, #1459
	movw	r9, #1460
.LBE17:
	.loc 1 1743 0
	ldr	r5, .L195
	ldr	r6, .L195+4
	strh	r3, [r5]	@ movhi
.L184:
	ldrh	r4, [r6]
	ldrh	r3, [r5]
	cmp	r3, r4
	bcc	.L191
.L181:
	pop	{r3, r4, r5, r6, r7, r8, r9, pc}
.L191:
.LBB18:
	.loc 1 1744 0
	bl	tcp_getoptbyte
.LVL130:
	.loc 1 1745 0
	cmp	r0, #1
	beq	.L184
	bcc	.L181
	cmp	r0, #2
	bne	.L194
	.loc 1 1756 0
	bl	tcp_getoptbyte
.LVL131:
	cmp	r0, #4
	bne	.L181
	ldrh	r3, [r5]
	adds	r3, r3, #1
	cmp	r3, r4
	bge	.L181
	.loc 1 1762 0
	bl	tcp_getoptbyte
.LVL132:
	lsls	r0, r0, #8
	uxth	r4, r0
.LVL133:
	.loc 1 1763 0
	bl	tcp_getoptbyte
.LVL134:
	orrs	r0, r0, r4
	uxth	r0, r0
.LVL135:
	.loc 1 1765 0
	subs	r3, r0, #1
	uxth	r3, r3
	cmp	r3, r8
	it	hi
	movhi	r0, r9
.LVL136:
	strh	r0, [r7]	@ movhi
	b	.L184
.LVL137:
.L194:
	.loc 1 1820 0
	bl	tcp_getoptbyte
.LVL138:
	.loc 1 1821 0
	cmp	r0, #1
	bls	.L181
	.loc 1 1829 0
	ldrh	r3, [r5]
	subs	r3, r3, #2
	add	r0, r0, r3
.LVL139:
	strh	r0, [r5]	@ movhi
	b	.L184
.L196:
	.align	2
.L195:
	.word	.LANCHOR10
	.word	.LANCHOR12
.LBE18:
	.cfi_endproc
.LFE13:
	.size	tcp_parseopt.isra.1.part.2, .-tcp_parseopt.isra.1.part.2
	.section	.text.unlikely.tcp_input_delayed_close,"ax",%progbits
	.align	1
	.syntax unified
	.thumb
	.thumb_func
	.fpu softvfp
	.type	tcp_input_delayed_close, %function
tcp_input_delayed_close:
.LFB2:
	.loc 1 537 0
	.cfi_startproc
	@ args = 0, pretend = 0, frame = 0
	@ frame_needed = 0, uses_anonymous_args = 0
.LVL140:
	push	{r4, lr}
	.cfi_def_cfa_offset 8
	.cfi_offset 4, -8
	.cfi_offset 14, -4
	.loc 1 538 0
	ldr	r3, .L204
	.loc 1 537 0
	mov	r4, r0
	.loc 1 538 0
	ldrb	r0, [r3]	@ zero_extendqisi2
.LVL141:
	ands	r0, r0, #16
	beq	.L197
.LVL142:
.LBB21:
.LBB22:
	.loc 1 541 0
	ldrb	r3, [r4, #26]	@ zero_extendqisi2
	lsls	r3, r3, #27
	bmi	.L199
	.loc 1 545 0
	ldr	r3, [r4, #140]
	cbz	r3, .L199
	.loc 1 545 0
	mvn	r1, #14
	ldr	r0, [r4, #16]
	blx	r3
.LVL143:
.L199:
	.loc 1 547 0
	mov	r1, r4
	ldr	r0, .L204+4
	bl	tcp_pcb_remove
.LVL144:
	.loc 1 548 0
	movs	r0, #2
	mov	r1, r4
	bl	memp_free
.LVL145:
	movs	r0, #1
.L197:
.LBE22:
.LBE21:
	.loc 1 552 0
	pop	{r4, pc}
.LVL146:
.L205:
	.align	2
.L204:
	.word	.LANCHOR8
	.word	tcp_active_pcbs
	.cfi_endproc
.LFE2:
	.size	tcp_input_delayed_close, .-tcp_input_delayed_close
	.section	.text.tcp_input,"ax",%progbits
	.align	1
	.global	tcp_input
	.syntax unified
	.thumb
	.thumb_func
	.fpu softvfp
	.type	tcp_input, %function
tcp_input:
.LFB1:
	.loc 1 105 0
	.cfi_startproc
	@ args = 0, pretend = 0, frame = 24
	@ frame_needed = 0, uses_anonymous_args = 0
.LVL147:
	push	{r4, r5, r6, r7, r8, r9, r10, fp, lr}
	.cfi_def_cfa_offset 36
	.cfi_offset 4, -36
	.cfi_offset 5, -32
	.cfi_offset 6, -28
	.cfi_offset 7, -24
	.cfi_offset 8, -20
	.cfi_offset 9, -16
	.cfi_offset 10, -12
	.cfi_offset 11, -8
	.cfi_offset 14, -4
	.loc 1 122 0
	ldr	r3, [r0, #4]
	ldr	r5, .L422
	.loc 1 105 0
	sub	sp, sp, #36
	.cfi_def_cfa_offset 72
	.loc 1 122 0
	str	r3, [r5]
	.loc 1 129 0
	ldrh	r3, [r0, #10]
	.loc 1 105 0
	mov	r9, r0
	.loc 1 129 0
	cmp	r3, #19
	bls	.L207
	.loc 1 137 0
	ldr	r6, .L422+4
	ldr	r1, [r6]
.LVL148:
	ldr	r0, [r6, #20]
.LVL149:
	bl	ip4_addr_isbroadcast_u32
.LVL150:
	cmp	r0, #0
	bne	.L207
	.loc 1 138 0 discriminator 1
	ldr	r3, [r6, #20]
	and	r3, r3, #240
	.loc 1 137 0 discriminator 1
	cmp	r3, #224
	beq	.L207
.LBB40:
	.loc 1 146 0
	add	r3, r6, #20
	ldrh	r2, [r9, #8]
	movs	r1, #6
	str	r3, [sp]
	mov	r0, r9
	add	r3, r6, #16
	bl	ip_chksum_pseudo
.LVL151:
	.loc 1 148 0
	mov	r8, r0
	cmp	r0, #0
	bne	.L207
.LBE40:
	.loc 1 159 0
	ldr	r3, [r5]
	ldrh	r0, [r3, #12]	@ unaligned
.LVL152:
	bl	lwip_htons
.LVL153:
	lsrs	r1, r0, #10
	and	r1, r1, #252
.LVL154:
	.loc 1 160 0
	cmp	r1, #19
	bls	.L207
	.loc 1 160 0 is_stmt 0 discriminator 1
	ldrh	r3, [r9, #8]
	uxth	r1, r1
.LVL155:
	cmp	r3, r1
	bcc	.L207
	.loc 1 170 0 is_stmt 1
	ldrh	r2, [r9, #10]
	.loc 1 168 0
	sub	r3, r1, #20
	ldr	r4, .L422+8
	.loc 1 169 0
	ldr	r7, .L422+12
	.loc 1 168 0
	uxth	r3, r3
	.loc 1 170 0
	cmp	r2, r1
	.loc 1 169 0
	str	r8, [r7]
	.loc 1 168 0
	strh	r3, [r4]	@ movhi
	ldr	r8, .L422+56
	.loc 1 170 0
	bcc	.L208
	.loc 1 173 0
	negs	r1, r1
	mov	r0, r9
.LVL156:
	.loc 1 172 0
	strh	r3, [r8]	@ movhi
	.loc 1 173 0
	bl	pbuf_header
.LVL157:
.L209:
	.loc 1 212 0
	ldr	r4, [r5]
	.loc 1 214 0
	ldr	r10, .L422+60
	.loc 1 212 0
	ldrh	r0, [r4]	@ unaligned
	bl	lwip_htons
.LVL158:
	strh	r0, [r4]	@ unaligned
	.loc 1 213 0
	ldr	r4, [r5]
	.loc 1 215 0
	ldr	r8, .L422+64
	.loc 1 213 0
	ldrh	r0, [r4, #2]	@ unaligned
	bl	lwip_htons
.LVL159:
	strh	r0, [r4, #2]	@ unaligned
	.loc 1 214 0
	ldr	r4, [r5]
	ldr	r0, [r4, #4]	@ unaligned
	bl	lwip_htonl
.LVL160:
	str	r0, [r4, #4]	@ unaligned
	.loc 1 215 0
	ldr	r4, [r5]
	.loc 1 214 0
	str	r0, [r10]
	.loc 1 215 0
	ldr	r0, [r4, #8]	@ unaligned
	bl	lwip_htonl
.LVL161:
	str	r0, [r4, #8]	@ unaligned
	.loc 1 216 0
	ldr	r4, [r5]
	.loc 1 215 0
	str	r0, [r8]
	.loc 1 216 0
	ldrh	r0, [r4, #14]	@ unaligned
	bl	lwip_htons
.LVL162:
	.loc 1 218 0
	ldr	r3, [r5]
	.loc 1 216 0
	strh	r0, [r4, #14]	@ unaligned
	.loc 1 218 0
	ldrh	r0, [r3, #12]	@ unaligned
	bl	lwip_htons
.LVL163:
	ldr	r3, .L422+16
	uxtb	r2, r0
	and	r1, r2, #63
	strb	r1, [r3]
	.loc 1 219 0
	ands	fp, r2, #3
	.loc 1 225 0
	ldr	r3, .L422+20
	.loc 1 219 0
	it	ne
	movne	fp, #1
	.loc 1 225 0
	ldr	lr, [r3]
	.loc 1 232 0
	ldr	r0, [r6, #20]
	.loc 1 225 0
	mov	r4, lr
	.loc 1 232 0
	str	r0, [sp, #20]
	.loc 1 223 0
	movs	r0, #0
	.loc 1 219 0
	ldrh	ip, [r9, #8]
	ldr	r1, .L422+24
	add	fp, fp, ip
	.loc 1 231 0
	ldr	r3, [r6, #16]
	.loc 1 219 0
	uxth	fp, fp
	.loc 1 229 0
	ldr	r7, [r5]
	.loc 1 219 0
	strh	fp, [r1]	@ movhi
.LVL164:
	.loc 1 231 0
	str	r3, [sp, #12]
	str	r8, [sp, #16]
	str	r1, [sp, #24]
.LVL165:
.L210:
	.loc 1 225 0 discriminator 1
	cbnz	r4, .L213
	.loc 1 253 0
	ldr	r1, .L422+28
	ldr	r0, [r1]
.LVL166:
	b	.L297
.LVL167:
.L208:
.LBB41:
	.loc 1 181 0
	mvn	r1, #19
	mov	r0, r9
.LVL168:
	bl	pbuf_header
.LVL169:
	.loc 1 184 0
	ldrh	r1, [r9, #10]
	.loc 1 185 0
	ldrh	r4, [r4]
	.loc 1 184 0
	strh	r1, [r8]	@ movhi
	.loc 1 185 0
	subs	r4, r4, r1
	.loc 1 189 0
	negs	r1, r1
	sxth	r1, r1
	mov	r0, r9
	bl	pbuf_header
.LVL170:
	.loc 1 192 0
	ldr	r0, [r9]
	.loc 1 185 0
	uxth	r4, r4
.LVL171:
	.loc 1 192 0
	ldrh	r3, [r0, #10]
	cmp	r3, r4
	bcc	.L207
	.loc 1 200 0
	ldr	r3, [r0, #4]
	.loc 1 204 0
	negs	r1, r4
	sxth	r1, r1
	.loc 1 200 0
	str	r3, [r7]
	.loc 1 204 0
	bl	pbuf_header
.LVL172:
	.loc 1 205 0
	ldrh	r3, [r9, #8]
	subs	r4, r3, r4
.LVL173:
	strh	r4, [r9, #8]	@ movhi
	b	.L209
.LVL174:
.L213:
.LBE41:
	.loc 1 229 0
	ldrh	r8, [r4, #24]
	ldrh	r1, [r7]	@ unaligned
	cmp	r8, r1
	bne	.L211
	.loc 1 229 0 is_stmt 0 discriminator 1
	ldrh	r8, [r4, #22]
	ldrh	r1, [r7, #2]	@ unaligned
	cmp	r8, r1
	bne	.L211
	.loc 1 230 0 is_stmt 1
	ldr	r1, [r4, #4]
	ldr	r3, [sp, #12]
	cmp	r1, r3
	bne	.L211
	.loc 1 231 0
	ldr	r1, [r4]
	ldr	r3, [sp, #20]
	cmp	r1, r3
	bne	.L211
	.loc 1 236 0
	ldr	r1, [r4, #12]
	.loc 1 237 0
	cbz	r0, .L212
	.loc 1 238 0
	str	r1, [r0, #12]
	.loc 1 240 0
	ldr	r1, .L422+20
	.loc 1 239 0
	str	lr, [r4, #12]
	.loc 1 240 0
	str	r4, [r1]
.L212:
	.loc 1 342 0
	movs	r1, #0
	ldr	r0, .L422+32
	.loc 1 348 0
	ldr	r6, .L422+36
	.loc 1 345 0
	str	r7, [r0, #12]
	.loc 1 349 0
	ldr	r8, .L422+68
	.loc 1 347 0
	ldr	r7, .L422+40
	.loc 1 351 0
	tst	r2, #8
	.loc 1 347 0
	str	r1, [r7]
	str	r7, [sp, #12]
	.loc 1 342 0
	str	r1, [r0]
	.loc 1 343 0
	strh	ip, [r0, #8]	@ movhi
	.loc 1 344 0
	str	r9, [r0, #4]
	.loc 1 348 0
	strb	r1, [r6]
	.loc 1 349 0
	strh	r1, [r8]	@ movhi
	mov	r7, r0
	.loc 1 351 0
	beq	.L299
	.loc 1 352 0
	ldrb	r2, [r9, #13]	@ zero_extendqisi2
	orr	r2, r2, #1
	strb	r2, [r9, #13]
.L299:
	.loc 1 356 0
	ldr	r2, [r4, #116]
	ldr	fp, .L422+72
	cmp	r2, #0
	beq	.L232
	.loc 1 357 0
	mov	r0, r4
	bl	tcp_process_refused_data
.LVL175:
	adds	r0, r0, #13
	beq	.L233
	.loc 1 357 0 is_stmt 0 discriminator 1
	ldr	r2, [r4, #116]
	cmp	r2, #0
	beq	.L232
	.loc 1 358 0 is_stmt 1
	ldr	r2, .L422+24
	ldrh	r2, [r2]
	cmp	r2, #0
	beq	.L232
.L233:
	.loc 1 361 0
	ldrh	r3, [r4, #42]
	cbnz	r3, .L235
	.loc 1 364 0
	mov	r0, r4
	bl	tcp_send_empty_ack
.LVL176:
.L235:
	.loc 1 498 0
	movs	r4, #0
.LVL177:
	.loc 1 499 0
	ldr	r3, [sp, #12]
	.loc 1 502 0
	ldr	r0, [r7, #4]
	.loc 1 498 0
	str	r4, [fp]
	.loc 1 499 0
	str	r4, [r3]
	.loc 1 502 0
	cbz	r0, .L206
	.loc 1 504 0
	bl	pbuf_free
.LVL178:
	.loc 1 505 0
	str	r4, [r7, #4]
.L206:
	.loc 1 528 0
	add	sp, sp, #36
	.cfi_remember_state
	.cfi_def_cfa_offset 36
	@ sp needed
	pop	{r4, r5, r6, r7, r8, r9, r10, fp, pc}
.LVL179:
.L211:
	.cfi_restore_state
	.loc 1 225 0 discriminator 2
	mov	r0, r4
	ldr	r4, [r4, #12]
.LVL180:
	b	.L210
.LVL181:
.L221:
	.loc 1 255 0
	ldrh	r1, [r0, #24]
	ldrh	ip, [r7]	@ unaligned
	cmp	ip, r1
	bne	.L215
	.loc 1 256 0 discriminator 1
	ldrh	r1, [r0, #22]
	.loc 1 255 0 discriminator 1
	ldrh	r4, [r7, #2]	@ unaligned
	cmp	r4, r1
	bne	.L215
	.loc 1 256 0
	ldr	r1, [r0, #4]
	ldr	r3, [sp, #12]
	cmp	r3, r1
	bne	.L215
	.loc 1 257 0
	ldr	r1, [r0]
	ldr	r3, [sp, #20]
	cmp	r3, r1
	bne	.L215
.LVL182:
.LBB42:
.LBB43:
	.loc 1 670 0
	lsls	r6, r2, #29
	bmi	.L207
	.loc 1 674 0
	lsls	r5, r2, #30
	bpl	.L218
	.loc 1 677 0
	ldr	r1, [r10]
	ldr	r3, [r0, #36]
	subs	r3, r1, r3
	bmi	.L219
	ldrh	r2, [r0, #40]
	subs	r3, r3, r2
	cmp	r3, #0
	bgt	.L219
	.loc 1 679 0
	stm	sp, {r4, ip}
.LVL183:
.L410:
.LBE43:
.LBE42:
.LBB45:
.LBB46:
	.loc 1 581 0
	ldr	r3, .L422+44
	add	r1, r1, fp
	adds	r2, r3, #4
.L411:
	ldr	r0, [sp, #16]
	ldr	r0, [r0]
	bl	tcp_rst
.LVL184:
	b	.L207
.LVL185:
.L218:
.LBE46:
.LBE45:
.LBB51:
.LBB44:
	.loc 1 683 0
	lsls	r4, r2, #31
	.loc 1 686 0
	ittt	mi
	ldrmi	r3, .L422+48
	ldrmi	r3, [r3]
	strmi	r3, [r0, #32]
.L219:
	.loc 1 689 0
	cmp	fp, #0
	beq	.L207
	.loc 1 691 0
	ldrb	r3, [r0, #26]	@ zero_extendqisi2
	orr	r3, r3, #2
	strb	r3, [r0, #26]
.LVL186:
.L412:
	.loc 1 692 0
	bl	tcp_output
.LVL187:
.L207:
.LDL1:
.LBE44:
.LBE51:
	.loc 1 527 0
	mov	r0, r9
	.loc 1 528 0
	add	sp, sp, #36
	.cfi_remember_state
	.cfi_def_cfa_offset 36
	@ sp needed
	pop	{r4, r5, r6, r7, r8, r9, r10, fp, lr}
	.cfi_restore 14
	.cfi_restore 11
	.cfi_restore 10
	.cfi_restore 9
	.cfi_restore 8
	.cfi_restore 7
	.cfi_restore 6
	.cfi_restore 5
	.cfi_restore 4
	.cfi_def_cfa_offset 0
.LVL188:
	.loc 1 527 0
	b	pbuf_free
.LVL189:
.L215:
	.cfi_restore_state
	.loc 1 253 0 discriminator 2
	ldr	r0, [r0, #12]
.LVL190:
.L297:
	.loc 1 253 0 discriminator 1
	cmp	r0, #0
	bne	.L221
.LVL191:
	.loc 1 272 0
	ldr	r1, .L422+52
	.loc 1 110 0
	mov	r4, r0
	.loc 1 272 0
	ldr	lr, [r1]
.LVL192:
	.loc 1 109 0
	str	r0, [sp, #12]
	.loc 1 272 0
	mov	r1, lr
.LVL193:
.L222:
	.loc 1 272 0 is_stmt 0 discriminator 1
	cmp	r1, #0
	bne	.L225
.LVL194:
	.loc 1 307 0 is_stmt 1
	cmp	r4, #0
	bne	.L224
.LVL195:
	.loc 1 512 0
	ldrh	r0, [r7, #12]	@ unaligned
	bl	lwip_htons
.LVL196:
	lsls	r3, r0, #29
	bmi	.L207
	.loc 1 516 0
	ldr	r2, [r5]
	.loc 1 515 0
	ldr	r3, [sp, #24]
	ldr	r1, [r10]
	ldrh	r0, [r3]
	ldrh	r3, [r2]	@ unaligned
	add	r1, r1, r0
	str	r3, [sp, #4]
	ldrh	r3, [r2, #2]	@ unaligned
	str	r3, [sp]
	ldr	r3, .L422+44
	adds	r2, r3, #4
	b	.L411
.L423:
	.align	2
.L422:
	.word	.LANCHOR3
	.word	ip_data
	.word	.LANCHOR12
	.word	.LANCHOR9
	.word	.LANCHOR1
	.word	tcp_active_pcbs
	.word	.LANCHOR4
	.word	tcp_tw_pcbs
	.word	.LANCHOR6
	.word	.LANCHOR8
	.word	.LANCHOR7
	.word	ip_data+16
	.word	tcp_ticks
	.word	tcp_listen_pcbs
	.word	.LANCHOR11
	.word	.LANCHOR0
	.word	.LANCHOR2
	.word	.LANCHOR5
	.word	tcp_input_pcb
.LVL197:
.L225:
	.loc 1 273 0
	ldrh	ip, [r1, #22]
	ldrh	r8, [r7, #2]	@ unaligned
	cmp	ip, r8
	bne	.L223
	.loc 1 283 0
	ldr	r8, [r1]
	ldr	r3, [sp, #20]
	cmp	r3, r8
	beq	.L301
	cmp	r8, #0
	ldr	r3, [sp, #12]
	itt	eq
	moveq	r3, r0
	moveq	r4, r1
	str	r3, [sp, #12]
.L223:
.LVL198:
	mov	r0, r1
	.loc 1 272 0 discriminator 2
	ldr	r1, [r1, #12]
.LVL199:
	b	.L222
.L301:
.LVL200:
	mov	r4, r1
.LVL201:
	str	r0, [sp, #12]
.LVL202:
.L224:
	.loc 1 311 0
	ldr	r3, [sp, #12]
	cbz	r3, .L227
	.loc 1 312 0
	ldr	r1, [r4, #12]
	str	r1, [r3, #12]
	.loc 1 316 0
	ldr	r1, .L424
	.loc 1 314 0
	str	lr, [r4, #12]
	.loc 1 316 0
	str	r4, [r1]
.L227:
.LVL203:
.LBB52:
.LBB50:
	.loc 1 570 0
	lsls	r1, r2, #29
	bmi	.L207
	.loc 1 577 0
	lsls	r3, r2, #27
	bpl	.L228
	.loc 1 581 0
	ldrh	r3, [r7]	@ unaligned
	ldr	r1, [r10]
	str	r3, [sp, #4]
	ldrh	r3, [r7, #2]	@ unaligned
	str	r3, [sp]
	b	.L410
.L228:
	.loc 1 583 0
	lsls	r7, r2, #30
	bpl	.L207
	.loc 1 591 0
	ldrb	r0, [r4, #21]	@ zero_extendqisi2
	bl	tcp_alloc
.LVL204:
	.loc 1 595 0
	mov	r7, r0
	cbnz	r0, .L229
.LBB47:
	.loc 1 599 0
	ldr	r3, [r4, #24]
	cmp	r3, #0
	beq	.L207
	.loc 1 599 0
	mov	r1, r0
	mov	r2, #-1
	ldr	r0, [r4, #16]
.LVL205:
	blx	r3
.LVL206:
	b	.L207
.LVL207:
.L229:
.LBE47:
	.loc 1 608 0
	ldr	r2, [r6, #20]
	.loc 1 611 0
	ldr	r1, [r5]
	.loc 1 608 0
	str	r2, [r0]
	.loc 1 609 0
	ldr	r2, [r6, #16]
	str	r2, [r0, #4]
	.loc 1 610 0
	ldrh	r2, [r4, #22]
	strh	r2, [r0, #22]	@ movhi
	.loc 1 611 0
	ldrb	r2, [r1]	@ zero_extendqisi2
	ldrb	r1, [r1, #1]	@ zero_extendqisi2
	orr	r2, r2, r1, lsl #8
	strh	r2, [r0, #24]	@ movhi
	.loc 1 612 0
	movs	r2, #3
	strb	r2, [r0, #20]
	.loc 1 613 0
	ldr	r2, [r10]
	adds	r2, r2, #1
	str	r2, [r0, #36]
	.loc 1 614 0
	str	r2, [r0, #44]
	.loc 1 615 0
	bl	tcp_next_iss
.LVL208:
	.loc 1 620 0
	ldr	r3, [r10]
	.loc 1 616 0
	str	r0, [r7, #84]
	.loc 1 620 0
	subs	r3, r3, #1
	str	r3, [r7, #80]
	.loc 1 621 0
	ldr	r3, [r4, #16]
	.loc 1 617 0
	str	r0, [r7, #76]
	.loc 1 618 0
	str	r0, [r7, #68]
	.loc 1 619 0
	str	r0, [r7, #88]
	.loc 1 621 0
	str	r3, [r7, #16]
	.loc 1 623 0
	str	r4, [r7, #120]
	.loc 1 626 0
	ldrb	r3, [r4, #8]	@ zero_extendqisi2
	and	r3, r3, #12
	strb	r3, [r7, #8]
	.loc 1 629 0
	ldr	r3, .L424+4
	ldr	r2, [r3]
	str	r7, [r3]
	str	r2, [r7, #12]
	bl	tcp_timer_needed
.LVL209:
	movs	r2, #1
	ldr	r3, .L424+8
	add	r0, r7, #50
.LVL210:
	strb	r2, [r3]
.LBB48:
.LBB49:
	.loc 1 1742 0
	ldr	r3, .L424+12
	ldrh	r3, [r3]
	cbz	r3, .L230
	bl	tcp_parseopt.isra.1.part.2
.LVL211:
.L230:
.LBE49:
.LBE48:
	.loc 1 633 0
	ldr	r3, [r5]
	.loc 1 637 0
	adds	r1, r7, #4
	.loc 1 633 0
	ldrh	r3, [r3, #14]	@ unaligned
	.loc 1 637 0
	ldrh	r0, [r7, #50]
	.loc 1 633 0
	strh	r3, [r7, #92]	@ movhi
	.loc 1 634 0
	strh	r3, [r7, #94]	@ movhi
	.loc 1 637 0
	bl	tcp_eff_send_mss_impl
.LVL212:
	.loc 1 643 0
	movs	r1, #18
	.loc 1 637 0
	strh	r0, [r7, #50]	@ movhi
	.loc 1 643 0
	mov	r0, r7
	bl	tcp_enqueue_flags
.LVL213:
	.loc 1 644 0
	cbz	r0, .L231
	.loc 1 645 0
	movs	r1, #0
	mov	r0, r7
.LVL214:
	bl	tcp_abandon
.LVL215:
	b	.L207
.LVL216:
.L231:
	.loc 1 648 0
	mov	r0, r7
.LVL217:
	b	.L412
.LVL218:
.L232:
.LBE50:
.LBE52:
.LBB53:
.LBB54:
	.loc 1 718 0
	ldr	r1, .L424+16
.LBE54:
.LBE53:
	.loc 1 371 0
	str	r4, [fp]
.LVL219:
.LBB65:
.LBB62:
	.loc 1 718 0
	ldrb	r2, [r1]	@ zero_extendqisi2
	mov	r9, r1
.LVL220:
	tst	r2, #4
	beq	.L236
.LVL221:
	.loc 1 720 0
	ldrb	r3, [r4, #20]	@ zero_extendqisi2
	cmp	r3, #2
	bne	.L237
	.loc 1 723 0
	ldr	r3, .L424+20
	ldr	r2, [r4, #76]
	ldr	r3, [r3]
	cmp	r2, r3
	bne	.L239
.L238:
.LVL222:
	.loc 1 744 0
	ldrb	r3, [r6]	@ zero_extendqisi2
	orr	r3, r3, #8
	strb	r3, [r6]
	.loc 1 745 0
	ldrb	r3, [r4, #26]	@ zero_extendqisi2
	bic	r3, r3, #1
	b	.L414
.LVL223:
.L237:
	.loc 1 729 0
	ldr	r3, .L424+24
	ldr	r2, [r4, #36]
	ldr	r3, [r3]
	cmp	r2, r3
	beq	.L238
	.loc 1 731 0
	subs	r3, r3, r2
	bmi	.L239
	ldrh	r2, [r4, #40]
	subs	r3, r3, r2
	cmp	r3, #0
	bgt	.L239
.LVL224:
.L259:
	.loc 1 824 0
	ldrb	r3, [r4, #26]	@ zero_extendqisi2
	orr	r3, r3, #2
.LVL225:
.L414:
	.loc 1 745 0
	strb	r3, [r4, #26]
	b	.L239
.LVL226:
.L236:
	.loc 1 756 0
	ands	r1, r2, #2
	beq	.L241
	ldrb	r0, [r4, #20]	@ zero_extendqisi2
	subs	r0, r0, #2
	cmp	r0, #1
	bhi	.L259
.L241:
	.loc 1 762 0
	ldrb	r0, [r4, #26]	@ zero_extendqisi2
	lsls	r0, r0, #27
	.loc 1 764 0
	ittt	pl
	ldrpl	r0, .L424+28
	ldrpl	r0, [r0]
	strpl	r0, [r4, #32]
	.loc 1 766 0
	movs	r0, #0
	strb	r0, [r4, #158]
.LVL227:
.LBB55:
.LBB56:
	.loc 1 1742 0
	ldr	r0, .L424+12
	ldrh	r0, [r0]
	cbz	r0, .L243
	add	r0, r4, #50
	str	r1, [sp, #28]
	str	r2, [sp, #20]
	bl	tcp_parseopt.isra.1.part.2
.LVL228:
	ldr	r1, [sp, #28]
	ldr	r2, [sp, #20]
.L243:
.LBE56:
.LBE55:
	.loc 1 771 0
	ldrb	r0, [r4, #20]	@ zero_extendqisi2
	subs	r0, r0, #2
	cmp	r0, #7
	bhi	.L239
	tbh	[pc, r0, lsl #1]
.L245:
	.2byte	(.L244-.L245)/2
	.2byte	(.L246-.L245)/2
	.2byte	(.L247-.L245)/2
	.2byte	(.L248-.L245)/2
	.2byte	(.L249-.L245)/2
	.2byte	(.L247-.L245)/2
	.2byte	(.L250-.L245)/2
	.2byte	(.L251-.L245)/2
	.p2align 1
.L244:
	.loc 1 776 0
	and	r1, r2, #18
	cmp	r1, #18
	bne	.L252
	.loc 1 777 0
	ldr	r0, .L424+20
	ldr	r1, [r4, #68]
	ldr	r0, [r0]
	adds	r1, r1, #1
	cmp	r1, r0
	bne	.L252
	.loc 1 778 0
	ldr	r3, [r10]
	.loc 1 780 0
	str	r1, [r4, #68]
	.loc 1 778 0
	adds	r2, r3, #1
	str	r2, [r4, #36]
	.loc 1 779 0
	str	r2, [r4, #44]
	.loc 1 781 0
	ldr	r2, [r5]
	.loc 1 783 0
	subs	r3, r3, #1
	.loc 1 781 0
	ldrh	r2, [r2, #14]	@ unaligned
	.loc 1 783 0
	str	r3, [r4, #80]
	.loc 1 784 0
	movs	r3, #4
	.loc 1 781 0
	strh	r2, [r4, #92]	@ movhi
	.loc 1 782 0
	strh	r2, [r4, #94]	@ movhi
	.loc 1 784 0
	strb	r3, [r4, #20]
	.loc 1 787 0
	adds	r1, r4, r3
	ldrh	r0, [r4, #50]
	bl	tcp_eff_send_mss_impl
.LVL229:
	.loc 1 790 0
	movw	r2, #4380
	lsls	r3, r0, #1
	cmp	r3, r2
	it	cc
	movcc	r3, r2
	.loc 1 787 0
	strh	r0, [r4, #50]	@ movhi
	.loc 1 790 0
	lsls	r0, r0, #2
	cmp	r3, r0
	it	cs
	movcs	r3, r0
	strh	r3, [r4, #72]	@ movhi
	.loc 1 795 0
	ldrh	r3, [r4, #98]
	.loc 1 797 0
	ldr	r0, [r4, #108]
.LVL230:
	.loc 1 795 0
	subs	r3, r3, #1
	strh	r3, [r4, #98]	@ movhi
	.loc 1 798 0
	cbnz	r0, .L253
	.loc 1 801 0
	ldr	r0, [r4, #104]
.LVL231:
	.loc 1 803 0
	ldr	r3, [r0]
	str	r3, [r4, #104]
.L254:
	.loc 1 807 0
	bl	tcp_seg_free
.LVL232:
	.loc 1 811 0
	ldr	r3, [r4, #108]
	cbnz	r3, .L255
	.loc 1 812 0
	movw	r3, #65535
	strh	r3, [r4, #48]	@ movhi
.L256:
	.loc 1 820 0
	ldr	r3, [r4, #132]
	cmp	r3, #0
	beq	.L259
	.loc 1 820 0
	movs	r2, #0
	mov	r1, r4
	ldr	r0, [r4, #16]
	blx	r3
.LVL233:
	.loc 1 821 0
	adds	r0, r0, #13
.LVL234:
	bne	.L259
	b	.L235
.LVL235:
.L253:
	.loc 1 805 0
	ldr	r3, [r0]
	str	r3, [r4, #108]
	b	.L254
.LVL236:
.L255:
	.loc 1 814 0
	movs	r3, #0
	strh	r3, [r4, #48]	@ movhi
	.loc 1 815 0
	strb	r3, [r4, #66]
	b	.L256
.L252:
	.loc 1 827 0
	lsls	r3, r2, #27
	bpl	.L239
	.loc 1 830 0
	ldr	r2, [r5]
	.loc 1 829 0
	ldr	r3, [sp, #24]
	ldr	r1, [r10]
	ldrh	r0, [r3]
	ldrh	r3, [r2]	@ unaligned
	add	r1, r1, r0
	str	r3, [sp, #4]
	ldrh	r3, [r2, #2]	@ unaligned
	ldr	r0, [sp, #16]
	str	r3, [sp]
	ldr	r3, .L424+32
	ldr	r0, [r0]
	adds	r2, r3, #4
	bl	tcp_rst
.LVL237:
	.loc 1 834 0
	ldrb	r3, [r4, #66]	@ zero_extendqisi2
	cmp	r3, #5
	bhi	.L239
	.loc 1 835 0
	movs	r3, #0
	.loc 1 836 0
	mov	r0, r4
	.loc 1 835 0
	strh	r3, [r4, #48]	@ movhi
	.loc 1 836 0
	bl	tcp_rexmit_rto
.LVL238:
.L239:
.LBE62:
.LBE65:
	.loc 1 376 0
	ldrb	r3, [r6]	@ zero_extendqisi2
	lsls	r1, r3, #28
	bpl	.L280
	.loc 1 381 0
	ldr	r3, [r4, #140]
	cbz	r3, .L281
	.loc 1 381 0 discriminator 1
	mvn	r1, #13
	ldr	r0, [r4, #16]
	blx	r3
.LVL239:
.L281:
	.loc 1 382 0
	mov	r1, r4
	ldr	r0, .L424+4
	bl	tcp_pcb_remove
.LVL240:
	.loc 1 383 0
	mov	r1, r4
	movs	r0, #2
	bl	memp_free
.LVL241:
	b	.L235
.L425:
	.align	2
.L424:
	.word	tcp_listen_pcbs
	.word	tcp_active_pcbs
	.word	tcp_active_pcbs_changed
	.word	.LANCHOR12
	.word	.LANCHOR1
	.word	.LANCHOR2
	.word	.LANCHOR0
	.word	tcp_ticks
	.word	ip_data+16
.LVL242:
.L246:
.LBB66:
.LBB63:
	.loc 1 841 0
	lsls	r0, r2, #27
	bpl	.L260
	.loc 1 843 0
	ldr	r2, .L426
	ldr	r0, [r2]
	ldr	r2, [r4, #68]
	mvns	r2, r2
	cmn	r2, r0
	bmi	.L261
	ldr	r2, [r4, #76]
	subs	r2, r0, r2
	cmp	r2, #0
	bgt	.L261
	.loc 1 844 0
	movs	r3, #4
	strb	r3, [r4, #20]
	.loc 1 848 0
	ldr	r3, [r4, #120]
	.loc 1 851 0
	cbnz	r3, .L262
.LVL243:
.L416:
.LBE63:
.LBE66:
	.loc 1 430 0
	mov	r0, r4
	bl	tcp_abort
.LVL244:
	.loc 1 431 0
	b	.L235
.LVL245:
.L262:
.LBB67:
.LBB64:
	.loc 1 859 0
	ldr	r3, [r3, #24]
	cmp	r3, #0
	beq	.L416
	.loc 1 859 0
	movs	r2, #0
	mov	r1, r4
	ldr	r0, [r4, #16]
	blx	r3
.LVL246:
	.loc 1 861 0
	cbz	r0, .L264
	.loc 1 865 0
	adds	r0, r0, #13
.LVL247:
	bne	.L416
	b	.L235
.LVL248:
.L264:
	.loc 1 872 0
	mov	r0, r4
.LVL249:
	bl	tcp_receive
.LVL250:
	.loc 1 875 0
	ldrh	r3, [r8]
	cbz	r3, .L265
	.loc 1 876 0
	subs	r3, r3, #1
	strh	r3, [r8]	@ movhi
.L265:
	.loc 1 879 0
	movw	r1, #4380
	ldrh	r2, [r4, #50]
	lsls	r3, r2, #1
	cmp	r3, r1
	it	cc
	movcc	r3, r1
	lsls	r2, r2, #2
	cmp	r3, r2
	it	cs
	movcs	r3, r2
	strh	r3, [r4, #72]	@ movhi
.L421:
	.loc 1 902 0
	ldrb	r3, [r6]	@ zero_extendqisi2
	lsls	r1, r3, #26
	bpl	.L239
	.loc 1 903 0
	ldrb	r3, [r4, #26]	@ zero_extendqisi2
	orr	r3, r3, #2
	strb	r3, [r4, #26]
	.loc 1 904 0
	movs	r3, #7
.L415:
	.loc 1 921 0
	strb	r3, [r4, #20]
	b	.L239
.LVL251:
.L261:
	.loc 1 891 0
	ldr	r2, [r5]
	.loc 1 890 0
	ldr	r3, [sp, #24]
	ldr	r1, [r10]
	ldrh	r5, [r3]
	ldrh	r3, [r2]	@ unaligned
	add	r1, r1, r5
	str	r3, [sp, #4]
	ldrh	r3, [r2, #2]	@ unaligned
	str	r3, [sp]
	ldr	r3, .L426+4
	adds	r2, r3, #4
	bl	tcp_rst
.LVL252:
	b	.L239
.L260:
	.loc 1 893 0
	cmp	r1, #0
	beq	.L239
	ldr	r2, .L426+8
	ldr	r3, [r4, #36]
	ldr	r2, [r2]
	subs	r3, r3, #1
	cmp	r3, r2
	bne	.L239
	.loc 1 895 0
	mov	r0, r4
	bl	tcp_rexmit
.LVL253:
	b	.L239
.L247:
	.loc 1 901 0
	mov	r0, r4
	bl	tcp_receive
.LVL254:
	b	.L421
.L248:
	.loc 1 908 0
	mov	r0, r4
	bl	tcp_receive
.LVL255:
	.loc 1 909 0
	ldrb	r3, [r6]	@ zero_extendqisi2
	tst	r3, #32
	.loc 1 910 0
	ldrb	r3, [r9]	@ zero_extendqisi2
	.loc 1 909 0
	beq	.L266
	.loc 1 910 0
	tst	r3, #16
	ldrb	r3, [r4, #26]	@ zero_extendqisi2
	beq	.L267
	ldr	r2, .L426
	ldr	r1, [r4, #76]
	ldr	r2, [r2]
	cmp	r1, r2
	bne	.L267
	ldr	r2, [r4, #104]
	cbnz	r2, .L267
	.loc 1 914 0
	orr	r3, r3, #2
	strb	r3, [r4, #26]
	.loc 1 915 0
	mov	r0, r4
	bl	tcp_pcb_purge
.LVL256:
	.loc 1 916 0
	ldr	r2, .L426+12
	ldr	r3, [r2]
	cmp	r4, r3
	bne	.L270
.L418:
	.loc 1 944 0
	ldr	r3, [r4, #12]
	str	r3, [r2]
	b	.L277
.LVL257:
.L271:
.LBB57:
	.loc 1 916 0
	ldr	r2, [r3, #12]
	cmp	r4, r2
	bne	.L303
.LVL258:
.L419:
.LBE57:
.LBB58:
	.loc 1 944 0
	ldr	r2, [r4, #12]
	str	r2, [r3, #12]
	b	.L277
.LVL259:
.L303:
.LBE58:
.LBB59:
	.loc 1 916 0
	mov	r3, r2
.LVL260:
.L270:
	.loc 1 916 0
	cmp	r3, #0
	bne	.L271
.LVL261:
.L277:
.LBE59:
	.loc 1 944 0
	movs	r2, #1
	ldr	r3, .L426+16
	strb	r2, [r3]
	.loc 1 945 0
	movs	r3, #10
	strb	r3, [r4, #20]
	.loc 1 946 0
	ldr	r3, .L426+20
	ldr	r2, [r3]
	str	r4, [r3]
	str	r2, [r4, #12]
	bl	tcp_timer_needed
.LVL262:
	b	.L239
.L267:
	.loc 1 920 0
	orr	r3, r3, #2
	strb	r3, [r4, #26]
	.loc 1 921 0
	movs	r3, #8
	b	.L415
.L266:
	.loc 1 923 0
	lsls	r2, r3, #27
	bpl	.L239
	ldr	r3, .L426
	ldr	r2, [r4, #76]
	ldr	r3, [r3]
	cmp	r2, r3
	bne	.L239
	ldr	r3, [r4, #104]
	cmp	r3, #0
	bne	.L239
	.loc 1 925 0
	movs	r3, #6
	b	.L415
.L249:
	.loc 1 929 0
	mov	r0, r4
	bl	tcp_receive
.LVL263:
	.loc 1 930 0
	ldrb	r3, [r6]	@ zero_extendqisi2
	lsls	r3, r3, #26
	bpl	.L239
	.loc 1 932 0
	ldrb	r3, [r4, #26]	@ zero_extendqisi2
	.loc 1 933 0
	mov	r0, r4
	.loc 1 932 0
	orr	r3, r3, #2
	strb	r3, [r4, #26]
	.loc 1 933 0
	bl	tcp_pcb_purge
.LVL264:
	.loc 1 934 0
	ldr	r2, .L426+12
	ldr	r3, [r2]
	cmp	r4, r3
	beq	.L418
.L274:
.LVL265:
.LBB60:
	cmp	r3, #0
	beq	.L277
	.loc 1 934 0
	ldr	r2, [r3, #12]
	cmp	r4, r2
	beq	.L419
	mov	r3, r2
.LVL266:
	b	.L274
.L250:
.LBE60:
	.loc 1 940 0
	mov	r0, r4
	bl	tcp_receive
.LVL267:
	.loc 1 941 0
	ldrb	r3, [r9]	@ zero_extendqisi2
	lsls	r5, r3, #27
	bpl	.L239
	ldr	r3, .L426
	ldr	r2, [r4, #76]
	ldr	r3, [r3]
	cmp	r2, r3
	bne	.L239
	ldr	r3, [r4, #104]
	cmp	r3, #0
	bne	.L239
	.loc 1 943 0
	mov	r0, r4
	bl	tcp_pcb_purge
.LVL268:
	.loc 1 944 0
	ldr	r2, .L426+12
	ldr	r3, [r2]
	cmp	r4, r3
	beq	.L418
.L278:
.LVL269:
.LBB61:
	cmp	r3, #0
	beq	.L277
	.loc 1 944 0
	ldr	r2, [r3, #12]
	cmp	r4, r2
	beq	.L419
	mov	r3, r2
.LVL270:
	b	.L278
.L251:
.LBE61:
	.loc 1 950 0
	mov	r0, r4
	bl	tcp_receive
.LVL271:
	.loc 1 951 0
	ldrb	r3, [r9]	@ zero_extendqisi2
	lsls	r0, r3, #27
	bpl	.L239
	ldr	r3, .L426
	ldr	r2, [r4, #76]
	ldr	r3, [r3]
	cmp	r2, r3
	bne	.L239
	ldr	r3, [r4, #104]
	cmp	r3, #0
	bne	.L239
	.loc 1 954 0
	ldrb	r3, [r6]	@ zero_extendqisi2
	orr	r3, r3, #16
	strb	r3, [r6]
	b	.L239
.LVL272:
.L280:
.LBE64:
.LBE67:
	.loc 1 389 0
	ldrh	r2, [r8]
	cbz	r2, .L282
.LVL273:
.LBB68:
	.loc 1 402 0
	ldr	r3, [r4, #124]
	cbnz	r3, .L283
.LVL274:
.L284:
	.loc 1 407 0
	movs	r3, #0
	strh	r3, [r8]	@ movhi
.L282:
.LBE68:
	.loc 1 409 0
	mov	r0, r4
	bl	tcp_input_delayed_close
.LVL275:
	cmp	r0, #0
	bne	.L235
	.loc 1 417 0
	ldr	r3, [sp, #12]
	ldr	r2, [r3]
	cbz	r2, .L286
	.loc 1 421 0
	ldrb	r3, [r4, #26]	@ zero_extendqisi2
	ands	r3, r3, #16
	beq	.L287
	.loc 1 424 0
	mov	r0, r2
	bl	pbuf_free
.LVL276:
	b	.L416
.LVL277:
.L283:
.LBB69:
	.loc 1 402 0 discriminator 1
	mov	r1, r4
	ldr	r0, [r4, #16]
	blx	r3
.LVL278:
	.loc 1 403 0 discriminator 1
	adds	r0, r0, #13
.LVL279:
	bne	.L284
	b	.L235
.L287:
.LBE69:
	.loc 1 435 0
	ldr	r5, [r4, #128]
	cbz	r5, .L288
	.loc 1 435 0 discriminator 1
	mov	r1, r4
	ldr	r0, [r4, #16]
	blx	r5
.LVL280:
.L289:
	.loc 1 436 0
	cmn	r0, #13
	beq	.L235
	.loc 1 446 0
	cbz	r0, .L286
	.loc 1 452 0
	ldr	r3, [sp, #12]
	ldr	r3, [r3]
	str	r3, [r4, #116]
.LVL281:
.L286:
	.loc 1 465 0
	ldrb	r3, [r6]	@ zero_extendqisi2
	lsls	r2, r3, #26
	bpl	.L292
	.loc 1 466 0
	ldr	r3, [r4, #116]
	cbz	r3, .L293
	.loc 1 468 0
	ldrb	r2, [r3, #13]	@ zero_extendqisi2
	orr	r2, r2, #32
	strb	r2, [r3, #13]
.L292:
	.loc 1 482 0
	movs	r3, #0
	.loc 1 483 0
	mov	r0, r4
	.loc 1 482 0
	str	r3, [fp]
	.loc 1 483 0
	bl	tcp_input_delayed_close
.LVL282:
	cmp	r0, #0
	bne	.L235
	.loc 1 487 0
	mov	r0, r4
	bl	tcp_output
.LVL283:
	b	.L235
.L288:
	.loc 1 435 0 discriminator 2
	mov	r3, r5
	mov	r1, r4
	bl	tcp_recv_null
.LVL284:
	b	.L289
.L427:
	.align	2
.L426:
	.word	.LANCHOR2
	.word	ip_data+16
	.word	.LANCHOR0
	.word	tcp_active_pcbs
	.word	tcp_active_pcbs_changed
	.word	tcp_tw_pcbs
.LVL285:
.L293:
	.loc 1 472 0
	movw	r2, #5840
	ldrh	r3, [r4, #40]
	.loc 1 475 0
	ldr	r5, [r4, #128]
	.loc 1 472 0
	cmp	r3, r2
	.loc 1 473 0
	itt	ne
	addne	r3, r3, #1
	strhne	r3, [r4, #40]	@ movhi
	.loc 1 475 0
	cmp	r5, #0
	beq	.L292
	.loc 1 475 0 discriminator 1
	movs	r3, #0
	mov	r1, r4
	mov	r2, r3
	ldr	r0, [r4, #16]
	blx	r5
.LVL286:
	.loc 1 476 0 discriminator 1
	adds	r0, r0, #13
.LVL287:
	bne	.L292
	b	.L235
	.cfi_endproc
.LFE1:
	.size	tcp_input, .-tcp_input
	.section	.text.tcp_trigger_input_pcb_close,"ax",%progbits
	.align	1
	.global	tcp_trigger_input_pcb_close
	.syntax unified
	.thumb
	.thumb_func
	.fpu softvfp
	.type	tcp_trigger_input_pcb_close, %function
tcp_trigger_input_pcb_close:
.LFB10:
	.loc 1 1837 0
	.cfi_startproc
	@ args = 0, pretend = 0, frame = 0
	@ frame_needed = 0, uses_anonymous_args = 0
	@ link register save eliminated.
	.loc 1 1838 0
	ldr	r2, .L429
	ldrb	r3, [r2]	@ zero_extendqisi2
	orr	r3, r3, #16
	strb	r3, [r2]
	bx	lr
.L430:
	.align	2
.L429:
	.word	.LANCHOR8
	.cfi_endproc
.LFE10:
	.size	tcp_trigger_input_pcb_close, .-tcp_trigger_input_pcb_close
	.comm	tcp_input_pcb,4,4
	.section	.bss.ackno,"aw",%nobits
	.align	2
	.set	.LANCHOR2,. + 0
	.type	ackno, %object
	.size	ackno, 4
ackno:
	.space	4
	.section	.bss.flags,"aw",%nobits
	.set	.LANCHOR1,. + 0
	.type	flags, %object
	.size	flags, 1
flags:
	.space	1
	.section	.bss.inseg,"aw",%nobits
	.align	2
	.set	.LANCHOR6,. + 0
	.type	inseg, %object
	.size	inseg, 16
inseg:
	.space	16
	.section	.bss.recv_acked,"aw",%nobits
	.align	1
	.set	.LANCHOR5,. + 0
	.type	recv_acked, %object
	.size	recv_acked, 2
recv_acked:
	.space	2
	.section	.bss.recv_data,"aw",%nobits
	.align	2
	.set	.LANCHOR7,. + 0
	.type	recv_data, %object
	.size	recv_data, 4
recv_data:
	.space	4
	.section	.bss.recv_flags,"aw",%nobits
	.set	.LANCHOR8,. + 0
	.type	recv_flags, %object
	.size	recv_flags, 1
recv_flags:
	.space	1
	.section	.bss.seqno,"aw",%nobits
	.align	2
	.set	.LANCHOR0,. + 0
	.type	seqno, %object
	.size	seqno, 4
seqno:
	.space	4
	.section	.bss.tcp_optidx,"aw",%nobits
	.align	1
	.set	.LANCHOR10,. + 0
	.type	tcp_optidx, %object
	.size	tcp_optidx, 2
tcp_optidx:
	.space	2
	.section	.bss.tcphdr,"aw",%nobits
	.align	2
	.set	.LANCHOR3,. + 0
	.type	tcphdr, %object
	.size	tcphdr, 4
tcphdr:
	.space	4
	.section	.bss.tcphdr_opt1len,"aw",%nobits
	.align	1
	.set	.LANCHOR11,. + 0
	.type	tcphdr_opt1len, %object
	.size	tcphdr_opt1len, 2
tcphdr_opt1len:
	.space	2
	.section	.bss.tcphdr_opt2,"aw",%nobits
	.align	2
	.set	.LANCHOR9,. + 0
	.type	tcphdr_opt2, %object
	.size	tcphdr_opt2, 4
tcphdr_opt2:
	.space	4
	.section	.bss.tcphdr_optlen,"aw",%nobits
	.align	1
	.set	.LANCHOR12,. + 0
	.type	tcphdr_optlen, %object
	.size	tcphdr_optlen, 2
tcphdr_optlen:
	.space	2
	.section	.bss.tcplen,"aw",%nobits
	.align	1
	.set	.LANCHOR4,. + 0
	.type	tcplen, %object
	.size	tcplen, 2
tcplen:
	.space	2
	.text
.Letext0:
	.file 2 "/home/ls/samba_share/sdk-ameba-v7.1d/tools/arm-none-eabi-gcc/asdk/linux/newlib/arm-none-eabi/include/sys/lock.h"
	.file 3 "/home/ls/samba_share/sdk-ameba-v7.1d/tools/arm-none-eabi-gcc/asdk/linux/newlib/arm-none-eabi/include/sys/_types.h"
	.file 4 "/home/ls/samba_share/sdk-ameba-v7.1d/tools/arm-none-eabi-gcc/asdk/linux/newlib/lib/gcc/arm-none-eabi/6.5.0/include/stddef.h"
	.file 5 "/home/ls/samba_share/sdk-ameba-v7.1d/tools/arm-none-eabi-gcc/asdk/linux/newlib/arm-none-eabi/include/sys/reent.h"
	.file 6 "/home/ls/samba_share/sdk-ameba-v7.1d/tools/arm-none-eabi-gcc/asdk/linux/newlib/arm-none-eabi/include/time.h"
	.file 7 "/home/ls/samba_share/sdk-ameba-v7.1d/tools/arm-none-eabi-gcc/asdk/linux/newlib/arm-none-eabi/include/stdlib.h"
	.file 8 "../../../component/common/network/lwip/lwip_v2.0.2/port/realtek/arch/cc.h"
	.file 9 "../../../component/common/network/lwip/lwip_v2.0.2/src/include/lwip/err.h"
	.file 10 "../../../component/common/network/lwip/lwip_v2.0.2/src/include/lwip/pbuf.h"
	.file 11 "../../../component/common/network/lwip/lwip_v2.0.2/src/include/lwip/ip4_addr.h"
	.file 12 "../../../component/common/network/lwip/lwip_v2.0.2/src/include/lwip/ip_addr.h"
	.file 13 "../../../component/common/network/lwip/lwip_v2.0.2/src/include/lwip/memp.h"
	.file 14 "../../../component/common/network/lwip/lwip_v2.0.2/src/include/lwip/priv/memp_priv.h"
	.file 15 "../../../component/common/network/lwip/lwip_v2.0.2/src/include/lwip/netif.h"
	.file 16 "../../../component/common/network/lwip/lwip_v2.0.2/src/include/lwip/prot/ip4.h"
	.file 17 "../../../component/common/network/lwip/lwip_v2.0.2/src/include/lwip/ip.h"
	.file 18 "../../../component/common/network/lwip/lwip_v2.0.2/src/include/lwip/tcp.h"
	.file 19 "../../../component/common/network/lwip/lwip_v2.0.2/src/include/lwip/priv/tcp_priv.h"
	.file 20 "../../../component/common/network/lwip/lwip_v2.0.2/src/include/lwip/prot/tcp.h"
	.file 21 "../../../component/common/network/lwip/lwip_v2.0.2/src/include/lwip/def.h"
	.file 22 "../../../component/common/network/lwip/lwip_v2.0.2/src/include/lwip/inet_chksum.h"