	.arch armv8-m.main
	.arch_extension dsp
	.eabi_attribute 20, 1
	.eabi_attribute 21, 1
	.eabi_attribute 23, 3
	.eabi_attribute 24, 1
	.eabi_attribute 25, 1
	.eabi_attribute 26, 1
	.eabi_attribute 30, 4
	.eabi_attribute 34, 1
	.eabi_attribute 18, 4
	.file	"timers.c"
	.text
.Ltext0:
	.cfi_sections	.debug_frame
	.section	.text.prvCheckForValidListAndQueue,"ax",%progbits
	.align	1
	.syntax unified
	.thumb
	.thumb_func
	.fpu softvfp
	.type	prvCheckForValidListAndQueue, %function
prvCheckForValidListAndQueue:
.LFB162:
	.file 1 "../../../component/os/freertos/freertos_v10.0.1/Source/timers.c"
	.loc 1 994 0
	.cfi_startproc
	@ args = 0, pretend = 0, frame = 0
	@ frame_needed = 0, uses_anonymous_args = 0
	push	{r3, r4, r5, r6, r7, lr}
	.cfi_def_cfa_offset 24
	.cfi_offset 3, -24
	.cfi_offset 4, -20
	.cfi_offset 5, -16
	.cfi_offset 6, -12
	.cfi_offset 7, -8
	.cfi_offset 14, -4
	.loc 1 1000 0
	ldr	r4, .L3
	.loc 1 998 0
	bl	vPortEnterCritical
.LVL0:
	.loc 1 1000 0
	ldr	r5, [r4]
	cbnz	r5, .L2
	.loc 1 1002 0
	ldr	r7, .L3+4
	.loc 1 1003 0
	ldr	r6, .L3+8
	.loc 1 1002 0
	mov	r0, r7
	bl	vListInitialise
.LVL1:
	.loc 1 1003 0
	mov	r0, r6
	bl	vListInitialise
.LVL2:
	.loc 1 1004 0
	ldr	r3, .L3+12
	.loc 1 1018 0
	mov	r2, r5
	.loc 1 1004 0
	str	r7, [r3]
	.loc 1 1005 0
	ldr	r3, .L3+16
	.loc 1 1018 0
	movs	r1, #16
	movs	r0, #42
	.loc 1 1005 0
	str	r6, [r3]
	.loc 1 1018 0
	bl	xQueueGenericCreate
.LVL3:
	str	r0, [r4]
.L2:
	.loc 1 1041 0
	pop	{r3, r4, r5, r6, r7, lr}
	.cfi_restore 14
	.cfi_restore 7
	.cfi_restore 6
	.cfi_restore 5
	.cfi_restore 4
	.cfi_restore 3
	.cfi_def_cfa_offset 0
	.loc 1 1040 0
	b	vPortExitCritical
.LVL4:
.L4:
	.align	2
.L3:
	.word	.LANCHOR0
	.word	.LANCHOR1
	.word	.LANCHOR2
	.word	.LANCHOR3
	.word	.LANCHOR4
	.cfi_endproc
.LFE162:
	.size	prvCheckForValidListAndQueue, .-prvCheckForValidListAndQueue
	.section	.text.prvInsertTimerInActiveList,"ax",%progbits
	.align	1
	.syntax unified
	.thumb
	.thumb_func
	.fpu softvfp
	.type	prvInsertTimerInActiveList, %function
prvInsertTimerInActiveList:
.LFB158:
	.loc 1 690 0
	.cfi_startproc
	@ args = 0, pretend = 0, frame = 0
	@ frame_needed = 0, uses_anonymous_args = 0
.LVL5:
	.loc 1 696 0
	cmp	r1, r2
	.loc 1 690 0
	push	{r3, lr}
	.cfi_def_cfa_offset 8
	.cfi_offset 3, -8
	.cfi_offset 14, -4
	.loc 1 693 0
	str	r1, [r0, #4]
	.loc 1 694 0
	str	r0, [r0, #16]
	.loc 1 696 0
	bhi	.L6
	.loc 1 700 0
	subs	r2, r2, r3
.LVL6:
	ldr	r3, [r0, #24]
.LVL7:
	cmp	r2, r3
	bcs	.L10
.LVL8:
.LBB85:
.LBB86:
	.loc 1 708 0
	ldr	r3, .L12
	adds	r1, r0, #4
.LVL9:
.L11:
.LBE86:
.LBE85:
	.loc 1 722 0
	ldr	r0, [r3]
.LVL10:
	bl	vListInsert
.LVL11:
	.loc 1 691 0
	movs	r0, #0
	pop	{r3, pc}
.LVL12:
.L6:
	.loc 1 713 0
	cmp	r2, r3
	bcs	.L8
	.loc 1 713 0 is_stmt 0 discriminator 1
	cmp	r1, r3
	bcs	.L10
.L8:
	.loc 1 722 0 is_stmt 1
	adds	r1, r0, #4
.LVL13:
	ldr	r3, .L12+4
.LVL14:
	b	.L11
.LVL15:
.L10:
	.loc 1 704 0
	movs	r0, #1
.LVL16:
	.loc 1 727 0
	pop	{r3, pc}
.L13:
	.align	2
.L12:
	.word	.LANCHOR4
	.word	.LANCHOR3
	.cfi_endproc
.LFE158:
	.size	prvInsertTimerInActiveList, .-prvInsertTimerInActiveList
	.section	.text.xTimerCreateTimerTask,"ax",%progbits
	.align	1
	.global	xTimerCreateTimerTask
	.syntax unified
	.thumb
	.thumb_func
	.fpu softvfp
	.type	xTimerCreateTimerTask, %function
xTimerCreateTimerTask:
.LFB145:
	.loc 1 224 0
	.cfi_startproc
	@ args = 0, pretend = 0, frame = 0
	@ frame_needed = 0, uses_anonymous_args = 0
.LVL17:
	push	{r0, r1, r4, lr}
	.cfi_def_cfa_offset 16
	.cfi_offset 4, -8
	.cfi_offset 14, -4
	.loc 1 231 0
	bl	prvCheckForValidListAndQueue
.LVL18:
	.loc 1 233 0
	ldr	r3, .L29
	ldr	r3, [r3]
	cbnz	r3, .L15
.LVL19:
.L18:
.LBB87:
.LBB88:
.LBB89:
	.file 2 "../../../component/soc/realtek/8710c/cmsis/cmsis-core/include/cmsis_gcc.h"
	.loc 2 209 0
	.syntax unified
@ 209 "../../../component/soc/realtek/8710c/cmsis/cmsis-core/include/cmsis_gcc.h" 1
	MRS r4, ipsr
@ 0 "" 2
	.thumb
	.syntax unified
.LBE89:
.LBE88:
	.loc 1 281 0
	cbnz	r4, .L17
	.loc 1 281 0 is_stmt 0 discriminator 2
	bl	xTaskGetSchedulerState
.LVL20:
	cmp	r0, #1
	beq	.L17
	.loc 1 281 0 discriminator 4
	mov	r0, r4
	bl	pcTaskGetName
.LVL21:
	mov	r1, r0
.LVL22:
	b	.L20
.LVL23:
.L15:
.LBE87:
	.loc 1 258 0 is_stmt 1
	ldr	r3, .L29+4
	mov	r2, #512
	str	r3, [sp, #4]
	movs	r3, #10
	ldr	r1, .L29+8
	str	r3, [sp]
	ldr	r0, .L29+12
	movs	r3, #0
	bl	xTaskCreate
.LVL24:
	.loc 1 281 0
	cmp	r0, #0
	beq	.L18
	.loc 1 283 0
	add	sp, sp, #8
	.cfi_remember_state
	.cfi_def_cfa_offset 8
	@ sp needed
	pop	{r4, pc}
.LVL25:
.L17:
	.cfi_restore_state
.LBB92:
	.loc 1 281 0
	ldr	r1, .L29+16
.LVL26:
.L20:
	.loc 1 281 0 discriminator 6
	ldr	r4, .L29+20
	ldr	r3, .L29+24
	movw	r2, #281
	ldr	r4, [r4, #28]
	ldr	r0, .L29+28
	blx	r4
.LVL27:
.LBB90:
.LBB91:
	.file 3 "../../../component/os/freertos/freertos_v10.0.1/Source/portable/GCC/ARM_RTL8710C/portmacro.h"
	.loc 3 195 0 discriminator 6
	.syntax unified
@ 195 "../../../component/os/freertos/freertos_v10.0.1/Source/portable/GCC/ARM_RTL8710C/portmacro.h" 1
		mov r3, #64												
	cpsid i													
	msr basepri, r3											
	isb														
	dsb														
	cpsie i													

@ 0 "" 2
.LVL28:
	.thumb
	.syntax unified
.L21:
	b	.L21
.L30:
	.align	2
.L29:
	.word	.LANCHOR0
	.word	.LANCHOR5
	.word	.LC1
	.word	prvTimerTask
	.word	.LC0
	.word	stdio_printf_stubs
	.word	.LC2
	.word	.LC3
.LBE91:
.LBE90:
.LBE92:
	.cfi_endproc
.LFE145:
	.size	xTimerCreateTimerTask, .-xTimerCreateTimerTask
	.section	.text.xTimerCreate,"ax",%progbits
	.align	1
	.global	xTimerCreate
	.syntax unified
	.thumb
	.thumb_func
	.fpu softvfp
	.type	xTimerCreate, %function
xTimerCreate:
.LFB146:
	.loc 1 293 0
	.cfi_startproc
	@ args = 4, pretend = 0, frame = 0
	@ frame_needed = 0, uses_anonymous_args = 0
.LVL29:
	push	{r4, r5, r6, r7, r8, lr}
	.cfi_def_cfa_offset 24
	.cfi_offset 4, -24
	.cfi_offset 5, -20
	.cfi_offset 6, -16
	.cfi_offset 7, -12
	.cfi_offset 8, -8
	.cfi_offset 14, -4
	.loc 1 293 0
	mov	r8, r0
	.loc 1 296 0
	movs	r0, #40
.LVL30:
	.loc 1 293 0
	mov	r5, r1
	mov	r7, r2
	mov	r6, r3
	.loc 1 296 0
	bl	pvPortMalloc
.LVL31:
	.loc 1 298 0
	mov	r4, r0
	cbz	r0, .L32
.LVL32:
.LBB100:
.LBB101:
	.loc 1 379 0
	cbnz	r5, .L33
.LVL33:
.LBB102:
.LBB103:
.LBB104:
	.loc 2 209 0
	.syntax unified
@ 209 "../../../component/soc/realtek/8710c/cmsis/cmsis-core/include/cmsis_gcc.h" 1
	MRS r4, ipsr
@ 0 "" 2
	.thumb
	.syntax unified
.LBE104:
.LBE103:
	.loc 1 379 0
	cbz	r4, .L34
.LVL34:
.L36:
	ldr	r1, .L44
.LVL35:
.L35:
	.loc 1 379 0
	ldr	r4, .L44+4
	ldr	r3, .L44+8
	movw	r2, #379
	ldr	r4, [r4, #28]
	ldr	r0, .L44+12
	blx	r4
.LVL36:
.LBB105:
.LBB106:
	.loc 3 195 0
	.syntax unified
@ 195 "../../../component/os/freertos/freertos_v10.0.1/Source/portable/GCC/ARM_RTL8710C/portmacro.h" 1
		mov r3, #64												
	cpsid i													
	msr basepri, r3											
	isb														
	dsb														
	cpsie i													

@ 0 "" 2
.LVL37:
	.thumb
	.syntax unified
.L37:
	b	.L37
.LVL38:
.L34:
.LBE106:
.LBE105:
	.loc 1 379 0
	bl	xTaskGetSchedulerState
.LVL39:
	cmp	r0, #1
	beq	.L36
	mov	r0, r4
	bl	pcTaskGetName
.LVL40:
	mov	r1, r0
.LVL41:
	b	.L35
.LVL42:
.L33:
.LBE102:
	.loc 1 385 0
	bl	prvCheckForValidListAndQueue
.LVL43:
	.loc 1 393 0
	ldr	r3, [sp, #24]
	.loc 1 389 0
	str	r8, [r4]
	.loc 1 390 0
	str	r5, [r4, #24]
	.loc 1 391 0
	str	r7, [r4, #28]
	.loc 1 392 0
	str	r6, [r4, #32]
	.loc 1 393 0
	str	r3, [r4, #36]
	.loc 1 394 0
	adds	r0, r4, #4
	bl	vListInitialiseItem
.LVL44:
.L32:
.LBE101:
.LBE100:
	.loc 1 313 0
	mov	r0, r4
	pop	{r4, r5, r6, r7, r8, pc}
.LVL45:
.L45:
	.align	2
.L44:
	.word	.LC0
	.word	stdio_printf_stubs
	.word	.LC2
	.word	.LC4
	.cfi_endproc
.LFE146:
	.size	xTimerCreate, .-xTimerCreate
	.section	.text.xTimerGenericCommand,"ax",%progbits
	.align	1
	.global	xTimerGenericCommand
	.syntax unified
	.thumb
	.thumb_func
	.fpu softvfp
	.type	xTimerGenericCommand, %function
xTimerGenericCommand:
.LFB148:
	.loc 1 402 0
	.cfi_startproc
	@ args = 4, pretend = 0, frame = 16
	@ frame_needed = 0, uses_anonymous_args = 0
.LVL46:
	push	{r0, r1, r2, r3, r4, r5, r6, r7, r8, lr}
	.cfi_def_cfa_offset 40
	.cfi_offset 4, -24
	.cfi_offset 5, -20
	.cfi_offset 6, -16
	.cfi_offset 7, -12
	.cfi_offset 8, -8
	.cfi_offset 14, -4
	.loc 1 402 0
	mov	r5, r1
	mov	r7, r2
	mov	r8, r3
	.loc 1 406 0
	mov	r4, r0
	cbnz	r0, .L47
.LVL47:
.LBB114:
.LBB115:
.LBB116:
	.loc 2 209 0 discriminator 1
	.syntax unified
@ 209 "../../../component/soc/realtek/8710c/cmsis/cmsis-core/include/cmsis_gcc.h" 1
	MRS r4, ipsr
@ 0 "" 2
	.thumb
	.syntax unified
.LBE116:
.LBE115:
	.loc 1 406 0 discriminator 1
	cbz	r4, .L48
.LVL48:
.L50:
	.loc 1 406 0 is_stmt 0
	ldr	r1, .L69
.LVL49:
.L49:
	.loc 1 406 0 is_stmt 1 discriminator 6
	ldr	r4, .L69+4
	ldr	r3, .L69+8
	mov	r2, #406
	ldr	r4, [r4, #28]
	ldr	r0, .L69+12
	blx	r4
.LVL50:
.LBB117:
.LBB118:
	.loc 3 195 0 discriminator 6
	.syntax unified
@ 195 "../../../component/os/freertos/freertos_v10.0.1/Source/portable/GCC/ARM_RTL8710C/portmacro.h" 1
		mov r3, #64												
	cpsid i													
	msr basepri, r3											
	isb														
	dsb														
	cpsie i													

@ 0 "" 2
.LVL51:
	.thumb
	.syntax unified
.L51:
	b	.L51
.LVL52:
.L48:
.LBE118:
.LBE117:
	.loc 1 406 0 discriminator 2
	bl	xTaskGetSchedulerState
.LVL53:
	cmp	r0, #1
	beq	.L50
	.loc 1 406 0 is_stmt 0 discriminator 4
	mov	r0, r4
	bl	pcTaskGetName
.LVL54:
	mov	r1, r0
.LVL55:
	b	.L49
.LVL56:
.L47:
.LBE114:
	.loc 1 409 0 is_stmt 1
	bl	xTaskGetCurrentTaskHandle
.LVL57:
	ldr	r3, .L69+16
	ldr	r3, [r3]
	cmp	r3, r0
	bne	.L52
	.loc 1 409 0 is_stmt 0 discriminator 1
	subs	r3, r5, #3
	cmp	r3, #2
	bhi	.L52
.LVL58:
.LBB119:
.LBB120:
	.loc 1 880 0 is_stmt 1
	bl	xTaskGetTickCount
.LVL59:
	.loc 1 882 0
	ldr	r3, [r4, #20]
	.loc 1 880 0
	mov	r6, r0
.LVL60:
	.loc 1 882 0
	cbz	r3, .L53
	.loc 1 885 0
	adds	r0, r4, #4
.LVL61:
	bl	uxListRemove
.LVL62:
.L53:
	.loc 1 888 0
	cmp	r5, #4
	beq	.L55
	cmp	r5, #5
	beq	.L56
.L67:
.LBE120:
.LBE119:
	.loc 1 412 0
	movs	r0, #1
	b	.L46
.L55:
.LBB122:
.LBB121:
	.loc 1 896 0
	str	r7, [r4, #24]
	.loc 1 897 0
	mov	r3, r6
	mov	r2, r6
	adds	r1, r7, r6
	mov	r0, r4
	bl	prvInsertTimerInActiveList
.LVL63:
	b	.L67
.L56:
	.loc 1 908 0
	mov	r0, r4
	bl	vPortFree
.LVL64:
	b	.L67
.LVL65:
.L52:
.LBE121:
.LBE122:
	.loc 1 417 0
	ldr	r6, .L69+20
	ldr	r0, [r6]
	cbz	r0, .L46
	.loc 1 424 0
	cmp	r5, #5
	.loc 1 421 0
	stm	sp, {r5, r7}
	.loc 1 422 0
	str	r4, [sp, #8]
	.loc 1 424 0
	bgt	.L57
	.loc 1 426 0
	bl	xTaskGetSchedulerState
.LVL66:
	.loc 1 428 0
	movs	r3, #0
	.loc 1 426 0
	cmp	r0, #2
	.loc 1 428 0
	ite	eq
	ldreq	r2, [sp, #40]
	.loc 1 432 0
	movne	r2, r3
	mov	r1, sp
	ldr	r0, [r6]
	bl	xQueueGenericSend
.LVL67:
.L46:
	.loc 1 448 0
	add	sp, sp, #16
	.cfi_remember_state
	.cfi_def_cfa_offset 24
	@ sp needed
	pop	{r4, r5, r6, r7, r8, pc}
.LVL68:
.L57:
	.cfi_restore_state
	.loc 1 437 0
	movs	r3, #0
	mov	r2, r8
	mov	r1, sp
	bl	xQueueGenericSendFromISR
.LVL69:
	b	.L46
.L70:
	.align	2
.L69:
	.word	.LC0
	.word	stdio_printf_stubs
	.word	.LC2
	.word	.LC5
	.word	.LANCHOR5
	.word	.LANCHOR0
	.cfi_endproc
.LFE148:
	.size	xTimerGenericCommand, .-xTimerGenericCommand
	.section	.text.prvSwitchTimerLists,"ax",%progbits
	.align	1
	.syntax unified
	.thumb
	.thumb_func
	.fpu softvfp
	.type	prvSwitchTimerLists, %function
prvSwitchTimerLists:
.LFB161:
	.loc 1 935 0
	.cfi_startproc
	@ args = 0, pretend = 0, frame = 0
	@ frame_needed = 0, uses_anonymous_args = 0
	push	{r0, r1, r4, r5, r6, r7, r8, lr}
	.cfi_def_cfa_offset 32
	.cfi_offset 4, -24
	.cfi_offset 5, -20
	.cfi_offset 6, -16
	.cfi_offset 7, -12
	.cfi_offset 8, -8
	.cfi_offset 14, -4
	.loc 1 976 0
	mov	r8, #0
	.loc 1 945 0
	ldr	r5, .L85
.L73:
	ldr	r3, [r5]
	ldr	r2, [r3]
	cbnz	r2, .L80
.LVL70:
	.loc 1 988 0
	ldr	r2, .L85+4
	ldr	r1, [r2]
	.loc 1 989 0
	str	r3, [r2]
	.loc 1 988 0
	str	r1, [r5]
	.loc 1 990 0
	add	sp, sp, #8
	.cfi_remember_state
	.cfi_def_cfa_offset 24
	@ sp needed
	pop	{r4, r5, r6, r7, r8, pc}
.LVL71:
.L80:
	.cfi_restore_state
	.loc 1 947 0
	ldr	r3, [r3, #12]
	.loc 1 950 0
	ldr	r4, [r3, #12]
	.loc 1 947 0
	ldr	r6, [r3]
.LVL72:
	.loc 1 951 0
	adds	r7, r4, #4
	mov	r0, r7
	bl	uxListRemove
.LVL73:
	.loc 1 957 0
	ldr	r3, [r4, #36]
	mov	r0, r4
	blx	r3
.LVL74:
	.loc 1 959 0
	ldr	r3, [r4, #28]
	cmp	r3, #1
	bne	.L73
	.loc 1 967 0
	ldr	r3, [r4, #24]
	add	r3, r3, r6
.LVL75:
	.loc 1 968 0
	cmp	r6, r3
	bcs	.L74
	.loc 1 970 0
	str	r3, [r4, #4]
	.loc 1 971 0
	str	r4, [r4, #16]
	.loc 1 972 0
	mov	r1, r7
	ldr	r0, [r5]
	bl	vListInsert
.LVL76:
	b	.L73
.LVL77:
.L74:
	.loc 1 976 0
	movs	r3, #0
.LVL78:
	str	r8, [sp]
.LVL79:
	mov	r2, r6
	mov	r1, r3
	mov	r0, r4
	bl	xTimerGenericCommand
.LVL80:
	.loc 1 977 0
	cmp	r0, #0
	bne	.L73
.LVL81:
.LBB123:
.LBB124:
.LBB125:
	.loc 2 209 0 discriminator 1
	.syntax unified
@ 209 "../../../component/soc/realtek/8710c/cmsis/cmsis-core/include/cmsis_gcc.h" 1
	MRS r4, ipsr
@ 0 "" 2
.LVL82:
	.thumb
	.syntax unified
.LBE125:
.LBE124:
	.loc 1 977 0 discriminator 1
	cbz	r4, .L76
.LVL83:
.L78:
	.loc 1 977 0 is_stmt 0
	ldr	r1, .L85+8
.LVL84:
.L77:
	.loc 1 977 0 is_stmt 1 discriminator 6
	ldr	r4, .L85+12
	ldr	r3, .L85+16
	movw	r2, #977
	ldr	r4, [r4, #28]
	ldr	r0, .L85+20
	blx	r4
.LVL85:
.LBB126:
.LBB127:
	.loc 3 195 0 discriminator 6
	.syntax unified
@ 195 "../../../component/os/freertos/freertos_v10.0.1/Source/portable/GCC/ARM_RTL8710C/portmacro.h" 1
		mov r3, #64												
	cpsid i													
	msr basepri, r3											
	isb														
	dsb														
	cpsie i													

@ 0 "" 2
.LVL86:
	.thumb
	.syntax unified
.L79:
	b	.L79
.LVL87:
.L76:
.LBE127:
.LBE126:
	.loc 1 977 0 discriminator 2
	bl	xTaskGetSchedulerState
.LVL88:
	cmp	r0, #1
	beq	.L78
	.loc 1 977 0 is_stmt 0 discriminator 4
	mov	r0, r4
	bl	pcTaskGetName
.LVL89:
	mov	r1, r0
.LVL90:
	b	.L77
.L86:
	.align	2
.L85:
	.word	.LANCHOR3
	.word	.LANCHOR4
	.word	.LC0
	.word	stdio_printf_stubs
	.word	.LC2
	.word	.LC6
.LBE123:
	.cfi_endproc
.LFE161:
	.size	prvSwitchTimerLists, .-prvSwitchTimerLists
	.section	.text.prvTimerTask,"ax",%progbits
	.align	1
	.syntax unified
	.thumb
	.thumb_func
	.fpu softvfp
	.type	prvTimerTask, %function
prvTimerTask:
.LFB154:
	.loc 1 545 0 is_stmt 1
	.cfi_startproc
	@ args = 0, pretend = 0, frame = 24
	@ frame_needed = 0, uses_anonymous_args = 0
.LVL91:
	push	{r4, r5, r6, r7, r8, r9, r10, fp, lr}
	.cfi_def_cfa_offset 36
	.cfi_offset 4, -36
	.cfi_offset 5, -32
	.cfi_offset 6, -28
	.cfi_offset 7, -24
	.cfi_offset 8, -20
	.cfi_offset 9, -16
	.cfi_offset 10, -12
	.cfi_offset 11, -8
	.cfi_offset 14, -4
.LBB156:
.LBB157:
	.loc 1 651 0
	ldr	r5, .L141
.LBE157:
.LBE156:
.LBB160:
.LBB161:
	.loc 1 624 0
	ldr	r8, .L141+36
	mov	r7, r5
.LBE161:
.LBE160:
	.loc 1 545 0
	sub	sp, sp, #36
	.cfi_def_cfa_offset 72
.LVL92:
.L121:
.LBB179:
.LBB158:
	.loc 1 651 0 discriminator 1
	ldr	r3, [r5]
	ldr	fp, [r3]
.LVL93:
	.loc 1 652 0 discriminator 1
	cmp	fp, #0
	beq	.L122
	.loc 1 654 0
	ldr	r3, [r3, #12]
	ldr	r9, [r3]
.LVL94:
.L88:
.LBE158:
.LBE179:
.LBB180:
.LBB176:
	.loc 1 585 0
	bl	vTaskSuspendAll
.LVL95:
.LBB162:
.LBB163:
	.loc 1 671 0
	bl	xTaskGetTickCount
.LVL96:
	.loc 1 673 0
	ldr	r3, .L141+4
	.loc 1 671 0
	mov	r10, r0
.LVL97:
	.loc 1 673 0
	ldr	r2, [r3]
	mov	r6, r3
	cmp	r0, r2
	bcs	.L123
	.loc 1 676 0
	movs	r4, #1
	str	r3, [sp, #12]
	.loc 1 675 0
	bl	prvSwitchTimerLists
.LVL98:
	ldr	r3, [sp, #12]
.LVL99:
.L89:
	.loc 1 683 0
	str	r10, [r3]
.LVL100:
.LBE163:
.LBE162:
	.loc 1 593 0
	cmp	r4, #0
	bne	.L90
.LVL101:
	.loc 1 596 0
	cmp	fp, #0
	beq	.L91
	cmp	r9, r10
	bhi	.L124
	.loc 1 598 0
	bl	xTaskResumeAll
.LVL102:
.LBB165:
.LBB166:
	.loc 1 507 0
	ldr	r3, [r7]
	ldr	r3, [r3, #12]
	ldr	fp, [r3, #12]
.LVL103:
	.loc 1 511 0
	add	r0, fp, #4
	bl	uxListRemove
.LVL104:
	.loc 1 516 0
	ldr	r3, [fp, #28]
	cmp	r3, #1
	bne	.L93
	.loc 1 521 0
	ldr	r1, [fp, #24]
	mov	r3, r9
	mov	r2, r10
	add	r1, r1, r9
	mov	r0, fp
	bl	prvInsertTimerInActiveList
.LVL105:
	cbz	r0, .L93
	.loc 1 525 0
	str	r4, [sp]
	mov	r3, r4
	mov	r2, r9
	mov	r1, r4
	mov	r0, fp
	bl	xTimerGenericCommand
.LVL106:
	.loc 1 526 0
	cbnz	r0, .L93
.LVL107:
.LBB167:
.LBB168:
.LBB169:
	.loc 2 209 0
	.syntax unified
@ 209 "../../../component/soc/realtek/8710c/cmsis/cmsis-core/include/cmsis_gcc.h" 1
	MRS r3, ipsr
@ 0 "" 2
	.thumb
	.syntax unified
.LBE169:
.LBE168:
	.loc 1 526 0
	cbz	r3, .L94
.LVL108:
.L96:
	ldr	r1, .L141+8
.LVL109:
.L95:
	.loc 1 526 0
	ldr	r4, .L141+12
	ldr	r3, .L141+16
	movw	r2, #526
	ldr	r4, [r4, #28]
	ldr	r0, .L141+20
	blx	r4
.LVL110:
.LBB170:
.LBB171:
	.loc 3 195 0
	.syntax unified
@ 195 "../../../component/os/freertos/freertos_v10.0.1/Source/portable/GCC/ARM_RTL8710C/portmacro.h" 1
		mov r3, #64												
	cpsid i													
	msr basepri, r3											
	isb														
	dsb														
	cpsie i													

@ 0 "" 2
.LVL111:
	.thumb
	.syntax unified
.L97:
	b	.L97
.LVL112:
.L122:
.LBE171:
.LBE170:
.LBE167:
.LBE166:
.LBE165:
.LBE176:
.LBE180:
.LBB181:
.LBB159:
	.loc 1 659 0
	mov	r9, fp
	b	.L88
.LVL113:
.L123:
.LBE159:
.LBE181:
.LBB182:
.LBB177:
.LBB174:
.LBB164:
	.loc 1 680 0
	movs	r4, #0
	b	.L89
.LVL114:
.L94:
.LBE164:
.LBE174:
.LBB175:
.LBB173:
.LBB172:
	.loc 1 526 0
	bl	xTaskGetSchedulerState
.LVL115:
	cmp	r0, #1
	beq	.L96
	mov	r0, r4
	bl	pcTaskGetName
.LVL116:
	mov	r1, r0
.LVL117:
	b	.L95
.LVL118:
.L93:
.LBE172:
	.loc 1 540 0
	ldr	r3, [fp, #36]
	mov	r0, fp
	blx	r3
.LVL119:
.L99:
.LBE173:
.LBE175:
.LBE177:
.LBE182:
.LBB183:
.LBB184:
	.loc 1 737 0
	ldr	r9, .L141+28
.L101:
	movs	r2, #0
	add	r1, sp, #16
	ldr	r0, [r9]
	bl	xQueueReceive
.LVL120:
	cmp	r0, #0
	beq	.L121
	.loc 1 743 0
	ldr	r3, [sp, #16]
	cmp	r3, #0
	bge	.L100
.LVL121:
.LBB185:
	.loc 1 752 0
	ldr	r1, [sp, #28]
	ldr	r0, [sp, #24]
	ldr	r3, [sp, #20]
	blx	r3
.LVL122:
.L100:
.LBE185:
	.loc 1 763 0
	ldr	r3, [sp, #16]
	cmp	r3, #0
	blt	.L101
	.loc 1 767 0
	ldr	r4, [sp, #24]
.LVL123:
	.loc 1 769 0
	ldr	r3, [r4, #20]
	cbz	r3, .L102
	.loc 1 772 0
	adds	r0, r4, #4
	bl	uxListRemove
.LVL124:
.L102:
.LBB186:
.LBB187:
	.loc 1 671 0
	bl	xTaskGetTickCount
.LVL125:
	.loc 1 673 0
	ldr	r3, [r6]
	.loc 1 671 0
	mov	fp, r0
.LVL126:
	.loc 1 673 0
	cmp	r0, r3
	bcs	.L103
	.loc 1 675 0
	bl	prvSwitchTimerLists
.LVL127:
.L103:
	ldr	r2, [sp, #16]
	.loc 1 683 0
	str	fp, [r6]
.LVL128:
	cmp	r2, #9
	bhi	.L101
	movs	r3, #1
	lsls	r3, r3, r2
	ands	r10, r3, #528
	bne	.L105
	tst	r3, #199
	bne	.L106
	lsls	r3, r3, #26
	bpl	.L101
.LBE187:
.LBE186:
	.loc 1 849 0
	mov	r0, r4
	bl	vPortFree
.LVL129:
	b	.L101
.LVL130:
.L91:
.LBE184:
.LBE183:
.LBB199:
.LBB178:
	.loc 1 613 0
	ldr	r3, .L141+24
	ldr	r3, [r3]
	ldr	r2, [r3]
	clz	r2, r2
	lsrs	r2, r2, #5
.LVL131:
.L92:
	.loc 1 616 0
	ldr	r3, .L141+28
	sub	r1, r9, r10
	ldr	r0, [r3]
	bl	vQueueWaitForMessageRestricted
.LVL132:
	.loc 1 618 0
	bl	xTaskResumeAll
.LVL133:
	cmp	r0, #0
	bne	.L99
	.loc 1 624 0
	mov	r3, #268435456
	str	r3, [r8]
	.syntax unified
@ 624 "../../../component/os/freertos/freertos_v10.0.1/Source/timers.c" 1
	dsb
@ 0 "" 2
@ 624 "../../../component/os/freertos/freertos_v10.0.1/Source/timers.c" 1
	isb
@ 0 "" 2
	.thumb
	.syntax unified
	b	.L99
.LVL134:
.L124:
	.loc 1 596 0
	mov	r2, r4
	b	.L92
.LVL135:
.L90:
	.loc 1 634 0
	bl	xTaskResumeAll
.LVL136:
	b	.L99
.LVL137:
.L106:
.LBE178:
.LBE199:
.LBB200:
.LBB198:
	.loc 1 797 0
	ldr	r1, [r4, #24]
	ldr	r3, [sp, #20]
	mov	r2, fp
	add	r1, r1, r3
	mov	r0, r4
	bl	prvInsertTimerInActiveList
.LVL138:
	cmp	r0, #0
	beq	.L101
	.loc 1 801 0
	ldr	r3, [r4, #36]
	mov	r0, r4
	blx	r3
.LVL139:
	.loc 1 804 0
	ldr	r3, [r4, #28]
	cmp	r3, #1
	bne	.L101
	.loc 1 806 0
	ldr	r2, [r4, #24]
	ldr	r1, [sp, #20]
	str	r10, [sp]
	add	r2, r2, r1
	mov	r3, r10
	mov	r1, r10
	mov	r0, r4
	bl	xTimerGenericCommand
.LVL140:
	.loc 1 807 0
	cmp	r0, #0
	bne	.L101
.LVL141:
.LBB188:
.LBB189:
.LBB190:
	.loc 2 209 0
	.syntax unified
@ 209 "../../../component/soc/realtek/8710c/cmsis/cmsis-core/include/cmsis_gcc.h" 1
	MRS r4, ipsr
@ 0 "" 2
.LVL142:
	.thumb
	.syntax unified
.LBE190:
.LBE189:
	.loc 1 807 0
	cbz	r4, .L111
.LVL143:
.L113:
	ldr	r1, .L141+8
.LVL144:
.L112:
	.loc 1 807 0
	ldr	r4, .L141+12
	ldr	r3, .L141+16
	movw	r2, #807
	ldr	r4, [r4, #28]
	ldr	r0, .L141+20
	blx	r4
.LVL145:
.LBB191:
.LBB192:
	.loc 3 195 0
	.syntax unified
@ 195 "../../../component/os/freertos/freertos_v10.0.1/Source/portable/GCC/ARM_RTL8710C/portmacro.h" 1
		mov r3, #64												
	cpsid i													
	msr basepri, r3											
	isb														
	dsb														
	cpsie i													

@ 0 "" 2
.LVL146:
	.thumb
	.syntax unified
.L114:
	b	.L114
.LVL147:
.L111:
.LBE192:
.LBE191:
	.loc 1 807 0
	bl	xTaskGetSchedulerState
.LVL148:
	cmp	r0, #1
	beq	.L113
	mov	r0, r4
	bl	pcTaskGetName
.LVL149:
	mov	r1, r0
.LVL150:
	b	.L112
.LVL151:
.L105:
.LBE188:
	.loc 1 829 0
	ldr	r1, [sp, #20]
	str	r1, [r4, #24]
	.loc 1 830 0
	cbnz	r1, .L115
.LVL152:
.LBB193:
.LBB194:
.LBB195:
	.loc 2 209 0
	.syntax unified
@ 209 "../../../component/soc/realtek/8710c/cmsis/cmsis-core/include/cmsis_gcc.h" 1
	MRS r4, ipsr
@ 0 "" 2
.LVL153:
	.thumb
	.syntax unified
.LBE195:
.LBE194:
	.loc 1 830 0
	cbz	r4, .L116
.L118:
	ldr	r1, .L141+8
.LVL154:
.L117:
	.loc 1 830 0
	ldr	r4, .L141+12
	ldr	r3, .L141+16
	movw	r2, #830
	ldr	r4, [r4, #28]
	ldr	r0, .L141+32
	blx	r4
.LVL155:
.LBB196:
.LBB197:
	.loc 3 195 0
	.syntax unified
@ 195 "../../../component/os/freertos/freertos_v10.0.1/Source/portable/GCC/ARM_RTL8710C/portmacro.h" 1
		mov r3, #64												
	cpsid i													
	msr basepri, r3											
	isb														
	dsb														
	cpsie i													

@ 0 "" 2
.LVL156:
	.thumb
	.syntax unified
.L119:
	b	.L119
.LVL157:
.L116:
.LBE197:
.LBE196:
	.loc 1 830 0
	bl	xTaskGetSchedulerState
.LVL158:
	cmp	r0, #1
	beq	.L118
	mov	r0, r4
	bl	pcTaskGetName
.LVL159:
	mov	r1, r0
.LVL160:
	b	.L117
.LVL161:
.L115:
.LBE193:
	.loc 1 838 0
	mov	r3, fp
	mov	r2, fp
	add	r1, r1, fp
	mov	r0, r4
	bl	prvInsertTimerInActiveList
.LVL162:
	b	.L101
.L142:
	.align	2
.L141:
	.word	.LANCHOR3
	.word	.LANCHOR6
	.word	.LC0
	.word	stdio_printf_stubs
	.word	.LC2
	.word	.LC6
	.word	.LANCHOR4
	.word	.LANCHOR0
	.word	.LC7
	.word	-536810236
.LBE198:
.LBE200:
	.cfi_endproc
.LFE154:
	.size	prvTimerTask, .-prvTimerTask
	.section	.text.xTimerGetTimerDaemonTaskHandle,"ax",%progbits
	.align	1
	.global	xTimerGetTimerDaemonTaskHandle
	.syntax unified
	.thumb
	.thumb_func
	.fpu softvfp
	.type	xTimerGetTimerDaemonTaskHandle, %function
xTimerGetTimerDaemonTaskHandle:
.LFB149:
	.loc 1 467 0
	.cfi_startproc
	@ args = 0, pretend = 0, frame = 0
	@ frame_needed = 0, uses_anonymous_args = 0
	.loc 1 470 0
	ldr	r3, .L152
	.loc 1 467 0
	push	{r4, lr}
	.cfi_def_cfa_offset 8
	.cfi_offset 4, -8
	.cfi_offset 14, -4
	.loc 1 470 0
	ldr	r0, [r3]
	.loc 1 470 0
	cbnz	r0, .L143
.LVL163:
.LBB201:
.LBB202:
.LBB203:
	.loc 2 209 0 discriminator 1
	.syntax unified
@ 209 "../../../component/soc/realtek/8710c/cmsis/cmsis-core/include/cmsis_gcc.h" 1
	MRS r4, ipsr
@ 0 "" 2
	.thumb
	.syntax unified
.LBE203:
.LBE202:
	.loc 1 470 0 discriminator 1
	cbz	r4, .L145
.L147:
	.loc 1 470 0 is_stmt 0
	ldr	r1, .L152+4
.LVL164:
.L146:
	.loc 1 470 0 is_stmt 1 discriminator 6
	ldr	r4, .L152+8
	ldr	r3, .L152+12
	mov	r2, #470
	ldr	r4, [r4, #28]
	ldr	r0, .L152+16
	blx	r4
.LVL165:
.LBB204:
.LBB205:
	.loc 3 195 0 discriminator 6
	.syntax unified
@ 195 "../../../component/os/freertos/freertos_v10.0.1/Source/portable/GCC/ARM_RTL8710C/portmacro.h" 1
		mov r3, #64												
	cpsid i													
	msr basepri, r3											
	isb														
	dsb														
	cpsie i													

@ 0 "" 2
.LVL166:
	.thumb
	.syntax unified
.L148:
	b	.L148
.LVL167:
.L145:
.LBE205:
.LBE204:
	.loc 1 470 0 discriminator 2
	bl	xTaskGetSchedulerState
.LVL168:
	cmp	r0, #1
	beq	.L147
	.loc 1 470 0 is_stmt 0 discriminator 4
	mov	r0, r4
	bl	pcTaskGetName
.LVL169:
	mov	r1, r0
.LVL170:
	b	.L146
.LVL171:
.L143:
.LBE201:
	.loc 1 472 0 is_stmt 1
	pop	{r4, pc}
.L153:
	.align	2
.L152:
	.word	.LANCHOR5
	.word	.LC0
	.word	stdio_printf_stubs
	.word	.LC2
	.word	.LC8
	.cfi_endproc
.LFE149:
	.size	xTimerGetTimerDaemonTaskHandle, .-xTimerGetTimerDaemonTaskHandle
	.section	.text.xTimerGetPeriod,"ax",%progbits
	.align	1
	.global	xTimerGetPeriod
	.syntax unified
	.thumb
	.thumb_func
	.fpu softvfp
	.type	xTimerGetPeriod, %function
xTimerGetPeriod:
.LFB150:
	.loc 1 476 0
	.cfi_startproc
	@ args = 0, pretend = 0, frame = 0
	@ frame_needed = 0, uses_anonymous_args = 0
.LVL172:
	push	{r4, lr}
	.cfi_def_cfa_offset 8
	.cfi_offset 4, -8
	.cfi_offset 14, -4
	.loc 1 479 0
	cbnz	r0, .L155
.LVL173:
.LBB206:
.LBB207:
.LBB208:
	.loc 2 209 0 discriminator 1
	.syntax unified
@ 209 "../../../component/soc/realtek/8710c/cmsis/cmsis-core/include/cmsis_gcc.h" 1
	MRS r4, ipsr
@ 0 "" 2
	.thumb
	.syntax unified
.LBE208:
.LBE207:
	.loc 1 479 0 discriminator 1
	cbz	r4, .L156
.LVL174:
.L158:
	.loc 1 479 0 is_stmt 0
	ldr	r1, .L163
.LVL175:
.L157:
	.loc 1 479 0 is_stmt 1 discriminator 6
	ldr	r4, .L163+4
	ldr	r3, .L163+8
	movw	r2, #479
	ldr	r4, [r4, #28]
	ldr	r0, .L163+12
	blx	r4
.LVL176:
.LBB209:
.LBB210:
	.loc 3 195 0 discriminator 6
	.syntax unified
@ 195 "../../../component/os/freertos/freertos_v10.0.1/Source/portable/GCC/ARM_RTL8710C/portmacro.h" 1
		mov r3, #64												
	cpsid i													
	msr basepri, r3											
	isb														
	dsb														
	cpsie i													

@ 0 "" 2
.LVL177:
	.thumb
	.syntax unified
.L159:
	b	.L159
.LVL178:
.L156:
.LBE210:
.LBE209:
	.loc 1 479 0 discriminator 2
	bl	xTaskGetSchedulerState
.LVL179:
	cmp	r0, #1
	beq	.L158
	.loc 1 479 0 is_stmt 0 discriminator 4
	mov	r0, r4
	bl	pcTaskGetName
.LVL180:
	mov	r1, r0
.LVL181:
	b	.L157
.LVL182:
.L155:
.LBE206:
	.loc 1 481 0 is_stmt 1
	ldr	r0, [r0, #24]
.LVL183:
	pop	{r4, pc}
.L164:
	.align	2
.L163:
	.word	.LC0
	.word	stdio_printf_stubs
	.word	.LC2
	.word	.LC5
	.cfi_endproc
.LFE150:
	.size	xTimerGetPeriod, .-xTimerGetPeriod
	.section	.text.xTimerGetExpiryTime,"ax",%progbits
	.align	1
	.global	xTimerGetExpiryTime
	.syntax unified
	.thumb
	.thumb_func
	.fpu softvfp
	.type	xTimerGetExpiryTime, %function
xTimerGetExpiryTime:
.LFB151:
	.loc 1 485 0
	.cfi_startproc
	@ args = 0, pretend = 0, frame = 0
	@ frame_needed = 0, uses_anonymous_args = 0
.LVL184:
	push	{r4, lr}
	.cfi_def_cfa_offset 8
	.cfi_offset 4, -8
	.cfi_offset 14, -4
	.loc 1 489 0
	cbnz	r0, .L166
.LVL185:
.LBB211:
.LBB212:
.LBB213:
	.loc 2 209 0 discriminator 1
	.syntax unified
@ 209 "../../../component/soc/realtek/8710c/cmsis/cmsis-core/include/cmsis_gcc.h" 1
	MRS r4, ipsr
@ 0 "" 2
	.thumb
	.syntax unified
.LBE213:
.LBE212:
	.loc 1 489 0 discriminator 1
	cbz	r4, .L167
.LVL186:
.L169:
	.loc 1 489 0 is_stmt 0
	ldr	r1, .L174
.LVL187:
.L168:
	.loc 1 489 0 is_stmt 1 discriminator 6
	ldr	r4, .L174+4
	ldr	r3, .L174+8
	movw	r2, #489
	ldr	r4, [r4, #28]
	ldr	r0, .L174+12
	blx	r4
.LVL188:
.LBB214:
.LBB215:
	.loc 3 195 0 discriminator 6
	.syntax unified
@ 195 "../../../component/os/freertos/freertos_v10.0.1/Source/portable/GCC/ARM_RTL8710C/portmacro.h" 1
		mov r3, #64												
	cpsid i													
	msr basepri, r3											
	isb														
	dsb														
	cpsie i													

@ 0 "" 2
.LVL189:
	.thumb
	.syntax unified
.L170:
	b	.L170
.LVL190:
.L167:
.LBE215:
.LBE214:
	.loc 1 489 0 discriminator 2
	bl	xTaskGetSchedulerState
.LVL191:
	cmp	r0, #1
	beq	.L169
	.loc 1 489 0 is_stmt 0 discriminator 4
	mov	r0, r4
	bl	pcTaskGetName
.LVL192:
	mov	r1, r0
.LVL193:
	b	.L168
.LVL194:
.L166:
.LBE211:
	.loc 1 492 0 is_stmt 1
	ldr	r0, [r0, #4]
.LVL195:
	pop	{r4, pc}
.L175:
	.align	2
.L174:
	.word	.LC0
	.word	stdio_printf_stubs
	.word	.LC2
	.word	.LC5
	.cfi_endproc
.LFE151:
	.size	xTimerGetExpiryTime, .-xTimerGetExpiryTime
	.section	.text.pcTimerGetName,"ax",%progbits
	.align	1
	.global	pcTimerGetName
	.syntax unified
	.thumb
	.thumb_func
	.fpu softvfp
	.type	pcTimerGetName, %function
pcTimerGetName:
.LFB152:
	.loc 1 496 0
	.cfi_startproc
	@ args = 0, pretend = 0, frame = 0
	@ frame_needed = 0, uses_anonymous_args = 0
.LVL196:
	push	{r4, lr}
	.cfi_def_cfa_offset 8
	.cfi_offset 4, -8
	.cfi_offset 14, -4
	.loc 1 499 0
	cbnz	r0, .L177
.LVL197:
.LBB216:
.LBB217:
.LBB218:
	.loc 2 209 0 discriminator 1
	.syntax unified
@ 209 "../../../component/soc/realtek/8710c/cmsis/cmsis-core/include/cmsis_gcc.h" 1
	MRS r4, ipsr
@ 0 "" 2
	.thumb
	.syntax unified
.LBE218:
.LBE217:
	.loc 1 499 0 discriminator 1
	cbz	r4, .L178
.LVL198:
.L180:
	.loc 1 499 0 is_stmt 0
	ldr	r1, .L185
.LVL199:
.L179:
	.loc 1 499 0 is_stmt 1 discriminator 6
	ldr	r4, .L185+4
	ldr	r3, .L185+8
	movw	r2, #499
	ldr	r4, [r4, #28]
	ldr	r0, .L185+12
	blx	r4
.LVL200:
.LBB219:
.LBB220:
	.loc 3 195 0 discriminator 6
	.syntax unified
@ 195 "../../../component/os/freertos/freertos_v10.0.1/Source/portable/GCC/ARM_RTL8710C/portmacro.h" 1
		mov r3, #64												
	cpsid i													
	msr basepri, r3											
	isb														
	dsb														
	cpsie i													

@ 0 "" 2
.LVL201:
	.thumb
	.syntax unified
.L181:
	b	.L181
.LVL202:
.L178:
.LBE220:
.LBE219:
	.loc 1 499 0 discriminator 2
	bl	xTaskGetSchedulerState
.LVL203:
	cmp	r0, #1
	beq	.L180
	.loc 1 499 0 is_stmt 0 discriminator 4
	mov	r0, r4
	bl	pcTaskGetName
.LVL204:
	mov	r1, r0
.LVL205:
	b	.L179
.LVL206:
.L177:
.LBE216:
	.loc 1 501 0 is_stmt 1
	ldr	r0, [r0]
.LVL207:
	pop	{r4, pc}
.L186:
	.align	2
.L185:
	.word	.LC0
	.word	stdio_printf_stubs
	.word	.LC2
	.word	.LC5
	.cfi_endproc
.LFE152:
	.size	pcTimerGetName, .-pcTimerGetName
	.section	.text.xTimerIsTimerActive,"ax",%progbits
	.align	1
	.global	xTimerIsTimerActive
	.syntax unified
	.thumb
	.thumb_func
	.fpu softvfp
	.type	xTimerIsTimerActive, %function
xTimerIsTimerActive:
.LFB163:
	.loc 1 1045 0
	.cfi_startproc
	@ args = 0, pretend = 0, frame = 0
	@ frame_needed = 0, uses_anonymous_args = 0
.LVL208:
	push	{r4, lr}
	.cfi_def_cfa_offset 8
	.cfi_offset 4, -8
	.cfi_offset 14, -4
	.loc 1 1049 0
	mov	r4, r0
	cbnz	r0, .L188
.LVL209:
.LBB221:
.LBB222:
.LBB223:
	.loc 2 209 0 discriminator 1
	.syntax unified
@ 209 "../../../component/soc/realtek/8710c/cmsis/cmsis-core/include/cmsis_gcc.h" 1
	MRS r4, ipsr
@ 0 "" 2
	.thumb
	.syntax unified
.LBE223:
.LBE222:
	.loc 1 1049 0 discriminator 1
	cbz	r4, .L189
.LVL210:
.L191:
	.loc 1 1049 0 is_stmt 0
	ldr	r1, .L196
.LVL211:
.L190:
	.loc 1 1049 0 is_stmt 1 discriminator 6
	ldr	r4, .L196+4
	ldr	r3, .L196+8
	movw	r2, #1049
	ldr	r4, [r4, #28]
	ldr	r0, .L196+12
	blx	r4
.LVL212:
.LBB224:
.LBB225:
	.loc 3 195 0 discriminator 6
	.syntax unified
@ 195 "../../../component/os/freertos/freertos_v10.0.1/Source/portable/GCC/ARM_RTL8710C/portmacro.h" 1
		mov r3, #64												
	cpsid i													
	msr basepri, r3											
	isb														
	dsb														
	cpsie i													

@ 0 "" 2
.LVL213:
	.thumb
	.syntax unified
.L192:
	b	.L192
.LVL214:
.L189:
.LBE225:
.LBE224:
	.loc 1 1049 0 discriminator 2
	bl	xTaskGetSchedulerState
.LVL215:
	cmp	r0, #1
	beq	.L191
	.loc 1 1049 0 is_stmt 0 discriminator 4
	mov	r0, r4
	bl	pcTaskGetName
.LVL216:
	mov	r1, r0
.LVL217:
	b	.L190
.LVL218:
.L188:
.LBE221:
	.loc 1 1052 0 is_stmt 1
	bl	vPortEnterCritical
.LVL219:
	.loc 1 1057 0
	ldr	r4, [r4, #20]
.LVL220:
	adds	r4, r4, #0
	it	ne
	movne	r4, #1
.LVL221:
	.loc 1 1059 0
	bl	vPortExitCritical
.LVL222:
	.loc 1 1062 0
	mov	r0, r4
	pop	{r4, pc}
.LVL223:
.L197:
	.align	2
.L196:
	.word	.LC0
	.word	stdio_printf_stubs
	.word	.LC2
	.word	.LC5
	.cfi_endproc
.LFE163:
	.size	xTimerIsTimerActive, .-xTimerIsTimerActive
	.section	.text.pvTimerGetTimerID,"ax",%progbits
	.align	1
	.global	pvTimerGetTimerID
	.syntax unified
	.thumb
	.thumb_func
	.fpu softvfp
	.type	pvTimerGetTimerID, %function
pvTimerGetTimerID:
.LFB164:
	.loc 1 1066 0
	.cfi_startproc
	@ args = 0, pretend = 0, frame = 0
	@ frame_needed = 0, uses_anonymous_args = 0
.LVL224:
	push	{r4, lr}
	.cfi_def_cfa_offset 8
	.cfi_offset 4, -8
	.cfi_offset 14, -4
	.loc 1 1070 0
	mov	r4, r0
	cbnz	r0, .L199
.LVL225:
.LBB226:
.LBB227:
.LBB228:
	.loc 2 209 0 discriminator 1
	.syntax unified
@ 209 "../../../component/soc/realtek/8710c/cmsis/cmsis-core/include/cmsis_gcc.h" 1
	MRS r4, ipsr
@ 0 "" 2
	.thumb
	.syntax unified
.LBE228:
.LBE227:
	.loc 1 1070 0 discriminator 1
	cbz	r4, .L200
.LVL226:
.L202:
	.loc 1 1070 0 is_stmt 0
	ldr	r1, .L207
.LVL227:
.L201:
	.loc 1 1070 0 is_stmt 1 discriminator 6
	ldr	r4, .L207+4
	ldr	r3, .L207+8
	movw	r2, #1070
	ldr	r4, [r4, #28]
	ldr	r0, .L207+12
	blx	r4
.LVL228:
.LBB229:
.LBB230:
	.loc 3 195 0 discriminator 6
	.syntax unified
@ 195 "../../../component/os/freertos/freertos_v10.0.1/Source/portable/GCC/ARM_RTL8710C/portmacro.h" 1
		mov r3, #64												
	cpsid i													
	msr basepri, r3											
	isb														
	dsb														
	cpsie i													

@ 0 "" 2
.LVL229:
	.thumb
	.syntax unified
.L203:
	b	.L203
.LVL230:
.L200:
.LBE230:
.LBE229:
	.loc 1 1070 0 discriminator 2
	bl	xTaskGetSchedulerState
.LVL231:
	cmp	r0, #1
	beq	.L202
	.loc 1 1070 0 is_stmt 0 discriminator 4
	mov	r0, r4
	bl	pcTaskGetName
.LVL232:
	mov	r1, r0
.LVL233:
	b	.L201
.LVL234:
.L199:
.LBE226:
	.loc 1 1072 0 is_stmt 1
	bl	vPortEnterCritical
.LVL235:
	.loc 1 1074 0
	ldr	r4, [r4, #32]
.LVL236:
	.loc 1 1076 0
	bl	vPortExitCritical
.LVL237:
	.loc 1 1079 0
	mov	r0, r4
	pop	{r4, pc}
.LVL238:
.L208:
	.align	2
.L207:
	.word	.LC0
	.word	stdio_printf_stubs
	.word	.LC2
	.word	.LC5
	.cfi_endproc
.LFE164:
	.size	pvTimerGetTimerID, .-pvTimerGetTimerID
	.section	.text.vTimerSetTimerID,"ax",%progbits
	.align	1
	.global	vTimerSetTimerID
	.syntax unified
	.thumb
	.thumb_func
	.fpu softvfp
	.type	vTimerSetTimerID, %function
vTimerSetTimerID:
.LFB165:
	.loc 1 1083 0
	.cfi_startproc
	@ args = 0, pretend = 0, frame = 0
	@ frame_needed = 0, uses_anonymous_args = 0
.LVL239:
	push	{r3, r4, r5, lr}
	.cfi_def_cfa_offset 16
	.cfi_offset 3, -16
	.cfi_offset 4, -12
	.cfi_offset 5, -8
	.cfi_offset 14, -4
	.loc 1 1083 0
	mov	r5, r1
	.loc 1 1086 0
	mov	r4, r0
	cbnz	r0, .L210
.LVL240:
.LBB231:
.LBB232:
.LBB233:
	.loc 2 209 0 discriminator 1
	.syntax unified
@ 209 "../../../component/soc/realtek/8710c/cmsis/cmsis-core/include/cmsis_gcc.h" 1
	MRS r4, ipsr
@ 0 "" 2
	.thumb
	.syntax unified
.LBE233:
.LBE232:
	.loc 1 1086 0 discriminator 1
	cbz	r4, .L211
.LVL241:
.L213:
	.loc 1 1086 0 is_stmt 0
	ldr	r1, .L218
.LVL242:
.L212:
	.loc 1 1086 0 is_stmt 1 discriminator 6
	ldr	r4, .L218+4
	ldr	r3, .L218+8
	movw	r2, #1086
	ldr	r4, [r4, #28]
	ldr	r0, .L218+12
	blx	r4
.LVL243:
.LBB234:
.LBB235:
	.loc 3 195 0 discriminator 6
	.syntax unified
@ 195 "../../../component/os/freertos/freertos_v10.0.1/Source/portable/GCC/ARM_RTL8710C/portmacro.h" 1
		mov r3, #64												
	cpsid i													
	msr basepri, r3											
	isb														
	dsb														
	cpsie i													

@ 0 "" 2
.LVL244:
	.thumb
	.syntax unified
.L214:
	b	.L214
.LVL245:
.L211:
.LBE235:
.LBE234:
	.loc 1 1086 0 discriminator 2
	bl	xTaskGetSchedulerState
.LVL246:
	cmp	r0, #1
	beq	.L213
	.loc 1 1086 0 is_stmt 0 discriminator 4
	mov	r0, r4
	bl	pcTaskGetName
.LVL247:
	mov	r1, r0
.LVL248:
	b	.L212
.LVL249:
.L210:
.LBE231:
	.loc 1 1088 0 is_stmt 1
	bl	vPortEnterCritical
.LVL250:
	.loc 1 1090 0
	str	r5, [r4, #32]
	.loc 1 1093 0
	pop	{r3, r4, r5, lr}
	.cfi_restore 14
	.cfi_restore 5
	.cfi_restore 4
	.cfi_restore 3
	.cfi_def_cfa_offset 0
.LVL251:
	.loc 1 1092 0
	b	vPortExitCritical
.LVL252:
.L219:
	.align	2
.L218:
	.word	.LC0
	.word	stdio_printf_stubs
	.word	.LC2
	.word	.LC5
	.cfi_endproc
.LFE165:
	.size	vTimerSetTimerID, .-vTimerSetTimerID
	.section	.text.xTimerPendFunctionCallFromISR,"ax",%progbits
	.align	1
	.global	xTimerPendFunctionCallFromISR
	.syntax unified
	.thumb
	.thumb_func
	.fpu softvfp
	.type	xTimerPendFunctionCallFromISR, %function
xTimerPendFunctionCallFromISR:
.LFB166:
	.loc 1 1099 0
	.cfi_startproc
	@ args = 0, pretend = 0, frame = 16
	@ frame_needed = 0, uses_anonymous_args = 0
.LVL253:
	push	{r0, r1, r2, r3, r4, lr}
	.cfi_def_cfa_offset 24
	.cfi_offset 4, -8
	.cfi_offset 14, -4
	.loc 1 1099 0
	mov	r4, r3
	.loc 1 1105 0
	mvn	r3, #1
.LVL254:
	.loc 1 1106 0
	str	r0, [sp, #4]
	.loc 1 1110 0
	ldr	r0, .L221
.LVL255:
	.loc 1 1105 0
	str	r3, [sp]
	.loc 1 1107 0
	str	r1, [sp, #8]
	.loc 1 1108 0
	str	r2, [sp, #12]
	.loc 1 1110 0
	movs	r3, #0
	mov	r2, r4
.LVL256:
	mov	r1, sp
.LVL257:
	ldr	r0, [r0]
	bl	xQueueGenericSendFromISR
.LVL258:
	.loc 1 1115 0
	add	sp, sp, #16
	.cfi_def_cfa_offset 8
	@ sp needed
	pop	{r4, pc}
.LVL259:
.L222:
	.align	2
.L221:
	.word	.LANCHOR0
	.cfi_endproc
.LFE166:
	.size	xTimerPendFunctionCallFromISR, .-xTimerPendFunctionCallFromISR
	.section	.text.xTimerPendFunctionCall,"ax",%progbits
	.align	1
	.global	xTimerPendFunctionCall
	.syntax unified
	.thumb
	.thumb_func
	.fpu softvfp
	.type	xTimerPendFunctionCall, %function
xTimerPendFunctionCall:
.LFB167:
	.loc 1 1123 0
	.cfi_startproc
	@ args = 0, pretend = 0, frame = 16
	@ frame_needed = 0, uses_anonymous_args = 0
.LVL260:
	push	{r4, r5, lr}
	.cfi_def_cfa_offset 12
	.cfi_offset 4, -12
	.cfi_offset 5, -8
	.cfi_offset 14, -4
	mov	r4, r2
	mov	r2, r3
.LVL261:
	.loc 1 1130 0
	ldr	r3, .L232
.LVL262:
	.loc 1 1123 0
	mov	r5, r0
	.loc 1 1130 0
	ldr	r0, [r3]
.LVL263:
	.loc 1 1123 0
	sub	sp, sp, #20
	.cfi_def_cfa_offset 32
	.loc 1 1130 0
	cbnz	r0, .L224
.LVL264:
.LBB236:
.LBB237:
.LBB238:
	.loc 2 209 0 discriminator 1
	.syntax unified
@ 209 "../../../component/soc/realtek/8710c/cmsis/cmsis-core/include/cmsis_gcc.h" 1
	MRS r4, ipsr
@ 0 "" 2
.LVL265:
	.thumb
	.syntax unified
.LBE238:
.LBE237:
	.loc 1 1130 0 discriminator 1
	cbz	r4, .L225
.LVL266:
.L227:
	.loc 1 1130 0 is_stmt 0
	ldr	r1, .L232+4
.LVL267:
.L226:
	.loc 1 1130 0 is_stmt 1 discriminator 6
	ldr	r4, .L232+8
	ldr	r3, .L232+12
	movw	r2, #1130
	ldr	r4, [r4, #28]
	ldr	r0, .L232+16
	blx	r4
.LVL268:
.LBB239:
.LBB240:
	.loc 3 195 0 discriminator 6
	.syntax unified
@ 195 "../../../component/os/freertos/freertos_v10.0.1/Source/portable/GCC/ARM_RTL8710C/portmacro.h" 1
		mov r3, #64												
	cpsid i													
	msr basepri, r3											
	isb														
	dsb														
	cpsie i													

@ 0 "" 2
.LVL269:
	.thumb
	.syntax unified
.L228:
	b	.L228
.LVL270:
.L225:
.LBE240:
.LBE239:
	.loc 1 1130 0 discriminator 2
	bl	xTaskGetSchedulerState
.LVL271:
	cmp	r0, #1
	beq	.L227
	.loc 1 1130 0 is_stmt 0 discriminator 4
	mov	r0, r4
	bl	pcTaskGetName
.LVL272:
	mov	r1, r0
.LVL273:
	b	.L226
.LVL274:
.L224:
.LBE236:
	.loc 1 1134 0 is_stmt 1
	mov	r3, #-1
	.loc 1 1136 0
	str	r1, [sp, #8]
	.loc 1 1135 0
	stm	sp, {r3, r5}
	.loc 1 1139 0
	mov	r1, sp
.LVL275:
	movs	r3, #0
	.loc 1 1137 0
	str	r4, [sp, #12]
	.loc 1 1139 0
	bl	xQueueGenericSend
.LVL276:
	.loc 1 1144 0
	add	sp, sp, #20
	.cfi_def_cfa_offset 12
	@ sp needed
	pop	{r4, r5, pc}
.LVL277:
.L233:
	.align	2
.L232:
	.word	.LANCHOR0
	.word	.LC0
	.word	stdio_printf_stubs
	.word	.LC2
	.word	.LC9
	.cfi_endproc
.LFE167:
	.size	xTimerPendFunctionCall, .-xTimerPendFunctionCall
	.section	.bss.pxCurrentTimerList,"aw",%nobits
	.align	2
	.set	.LANCHOR3,. + 0
	.type	pxCurrentTimerList, %object
	.size	pxCurrentTimerList, 4
pxCurrentTimerList:
	.space	4
	.section	.bss.pxOverflowTimerList,"aw",%nobits
	.align	2
	.set	.LANCHOR4,. + 0
	.type	pxOverflowTimerList, %object
	.size	pxOverflowTimerList, 4
pxOverflowTimerList:
	.space	4
	.section	.bss.xActiveTimerList1,"aw",%nobits
	.align	2
	.set	.LANCHOR1,. + 0
	.type	xActiveTimerList1, %object
	.size	xActiveTimerList1, 20
xActiveTimerList1:
	.space	20
	.section	.bss.xActiveTimerList2,"aw",%nobits
	.align	2
	.set	.LANCHOR2,. + 0
	.type	xActiveTimerList2, %object
	.size	xActiveTimerList2, 20
xActiveTimerList2:
	.space	20
	.section	.bss.xLastTime.6386,"aw",%nobits
	.align	2
	.set	.LANCHOR6,. + 0
	.type	xLastTime.6386, %object
	.size	xLastTime.6386, 4
xLastTime.6386:
	.space	4
	.section	.bss.xTimerQueue,"aw",%nobits
	.align	2
	.set	.LANCHOR0,. + 0
	.type	xTimerQueue, %object
	.size	xTimerQueue, 4
xTimerQueue:
	.space	4
	.section	.bss.xTimerTaskHandle,"aw",%nobits
	.align	2
	.set	.LANCHOR5,. + 0
	.type	xTimerTaskHandle, %object
	.size	xTimerTaskHandle, 4
xTimerTaskHandle:
	.space	4
	.section	.rodata.prvSwitchTimerLists.str1.1,"aMS",%progbits,1
.LC6:
	.ascii	"\012\015[%s]Assert(xResult) failed on line %d in fi"
	.ascii	"le %s\015\012\000"
	.section	.rodata.prvTimerTask.str1.1,"aMS",%progbits,1
.LC7:
	.ascii	"\012\015[%s]Assert(( pxTimer->xTimerPeriodInTicks >"
	.ascii	" 0 )) failed on line %d in file %s\015\012\000"
	.section	.rodata.xTimerCreate.str1.1,"aMS",%progbits,1
.LC4:
	.ascii	"\012\015[%s]Assert(( xTimerPeriodInTicks > 0 )) fai"
	.ascii	"led on line %d in file %s\015\012\000"
	.section	.rodata.xTimerCreateTimerTask.str1.1,"aMS",%progbits,1
.LC0:
	.ascii	"ISR\000"
.LC1:
	.ascii	"Tmr Svc\000"
.LC2:
	.ascii	"../../../component/os/freertos/freertos_v10.0.1/Sou"
	.ascii	"rce/timers.c\000"
.LC3:
	.ascii	"\012\015[%s]Assert(xReturn) failed on line %d in fi"
	.ascii	"le %s\015\012\000"
	.section	.rodata.xTimerGenericCommand.str1.1,"aMS",%progbits,1
.LC5:
	.ascii	"\012\015[%s]Assert(xTimer) failed on line %d in fil"
	.ascii	"e %s\015\012\000"
	.section	.rodata.xTimerGetTimerDaemonTaskHandle.str1.1,"aMS",%progbits,1
.LC8:
	.ascii	"\012\015[%s]Assert(( xTimerTaskHandle != NULL )) fa"
	.ascii	"iled on line %d in file %s\015\012\000"
	.section	.rodata.xTimerPendFunctionCall.str1.1,"aMS",%progbits,1
.LC9:
	.ascii	"\012\015[%s]Assert(xTimerQueue) failed on line %d i"
	.ascii	"n file %s\015\012\000"
	.text
.Letext0:
	.file 4 "/home/ls/8720cf/sdk-ameba-v7.1d/tools/arm-none-eabi-gcc/asdk/linux/newlib/arm-none-eabi/include/machine/_default_types.h"
	.file 5 "/home/ls/8720cf/sdk-ameba-v7.1d/tools/arm-none-eabi-gcc/asdk/linux/newlib/lib/gcc/arm-none-eabi/6.5.0/include/stddef.h"
	.file 6 "/home/ls/8720cf/sdk-ameba-v7.1d/tools/arm-none-eabi-gcc/asdk/linux/newlib/arm-none-eabi/include/sys/lock.h"
	.file 7 "/home/ls/8720cf/sdk-ameba-v7.1d/tools/arm-none-eabi-gcc/asdk/linux/newlib/arm-none-eabi/include/sys/_types.h"
	.file 8 "/home/ls/8720cf/sdk-ameba-v7.1d/tools/arm-none-eabi-gcc/asdk/linux/newlib/arm-none-eabi/include/sys/reent.h"
	.file 9 "<built-in>"
	.file 10 "/home/ls/8720cf/sdk-ameba-v7.1d/tools/arm-none-eabi-gcc/asdk/linux/newlib/arm-none-eabi/include/sys/_stdint.h"
	.file 11 "/home/ls/8720cf/sdk-ameba-v7.1d/tools/arm-none-eabi-gcc/asdk/linux/newlib/arm-none-eabi/include/time.h"
	.file 12 "/home/ls/8720cf/sdk-ameba-v7.1d/tools/arm-none-eabi-gcc/asdk/linux/newlib/arm-none-eabi/include/stdlib.h"
	.file 13 "../inc/FreeRTOSConfig.h"
	.file 14 "../../../component/soc/realtek/8710c/cmsis/rtl8710c/include/basic_types.h"
	.file 15 "/home/ls/8720cf/sdk-ameba-v7.1d/tools/arm-none-eabi-gcc/asdk/linux/newlib/lib/gcc/arm-none-eabi/6.5.0/include/stdarg.h"
	.file 16 "../../../component/soc/realtek/8710c/app/rtl_printf/include/log_buf.h"
	.file 17 "../../../component/soc/realtek/8710c/app/stdio_port/stdio_port.h"
	.file 18 "../../../component/soc/realtek/8710c/app/rtl_printf/include/printf_entry.h"
	.file 19 "../../../component/soc/realtek/8710c/app/rtl_printf/include/rt_printf.h"
	.file 20 "../../../component/soc/realtek/8710c/misc/utilities/include/utility.h"
	.file 21 "../../../component/os/freertos/freertos_v10.0.1/Source/include/list.h"
	.file 22 "../../../component/os/freertos/freertos_v10.0.1/Source/include/task.h"
	.file 23 "../../../component/os/freertos/freertos_v10.0.1/Source/include/queue.h"
	.file 24 "../../../component/os/freertos/freertos_v10.0.1/Source/include/timers.h"
	.file 25 "../../../component/os/freertos/freertos_v10.0.1/Source/include/portable.h"