	.arch armv8-m.main
	.arch_extension dsp
	.eabi_attribute 20, 1
	.eabi_attribute 21, 1
	.eabi_attribute 23, 3
	.eabi_attribute 24, 1
	.eabi_attribute 25, 1
	.eabi_attribute 26, 1
	.eabi_attribute 30, 4
	.eabi_attribute 34, 1
	.eabi_attribute 18, 4
	.file	"udp.c"
	.text
.Ltext0:
	.cfi_sections	.debug_frame
	.section	.text.udp_init,"ax",%progbits
	.align	1
	.global	udp_init
	.syntax unified
	.thumb
	.thumb_func
	.fpu softvfp
	.type	udp_init, %function
udp_init:
.LFB1:
	.file 1 "../../../component/common/network/lwip/lwip_v2.0.2/src/core/udp.c"
	.loc 1 88 0
	.cfi_startproc
	@ args = 0, pretend = 0, frame = 0
	@ frame_needed = 0, uses_anonymous_args = 0
	push	{r3, lr}
	.cfi_def_cfa_offset 8
	.cfi_offset 3, -8
	.cfi_offset 14, -4
	.loc 1 90 0
	bl	rand
.LVL0:
	mvn	r0, r0, lsl #18
	mvn	r0, r0, lsr #18
	ldr	r3, .L2
	strh	r0, [r3]	@ movhi
	pop	{r3, pc}
.L3:
	.align	2
.L2:
	.word	.LANCHOR0
	.cfi_endproc
.LFE1:
	.size	udp_init, .-udp_init
	.section	.text.udp_randomize_local_port,"ax",%progbits
	.align	1
	.global	udp_randomize_local_port
	.syntax unified
	.thumb
	.thumb_func
	.fpu softvfp
	.type	udp_randomize_local_port, %function
udp_randomize_local_port:
.LFB3:
	.loc 1 128 0
	.cfi_startproc
	@ args = 0, pretend = 0, frame = 0
	@ frame_needed = 0, uses_anonymous_args = 0
	push	{r3, lr}
	.cfi_def_cfa_offset 8
	.cfi_offset 3, -8
	.cfi_offset 14, -4
	.loc 1 131 0
	ldr	r3, .L6
	ldr	r2, [r3]
	cbnz	r2, .L4
	.loc 1 132 0
	movs	r2, #1
	str	r2, [r3]
	.loc 1 133 0
	bl	sys_now
.LVL1:
	bl	srand
.LVL2:
	.loc 1 134 0
	bl	rand
.LVL3:
	movw	r3, #16383
	sdiv	r3, r0, r3
	rsb	r3, r3, r3, lsl #14
	subs	r0, r0, r3
	ldr	r3, .L6+4
	sub	r0, r0, #16384
	strh	r0, [r3]	@ movhi
.L4:
	pop	{r3, pc}
.L7:
	.align	2
.L6:
	.word	.LANCHOR1
	.word	.LANCHOR0
	.cfi_endproc
.LFE3:
	.size	udp_randomize_local_port, .-udp_randomize_local_port
	.section	.text.udp_input,"ax",%progbits
	.align	1
	.global	udp_input
	.syntax unified
	.thumb
	.thumb_func
	.fpu softvfp
	.type	udp_input, %function
udp_input:
.LFB5:
	.loc 1 205 0
	.cfi_startproc
	@ args = 0, pretend = 0, frame = 8
	@ frame_needed = 0, uses_anonymous_args = 0
.LVL4:
	push	{r4, r5, r6, r7, r8, r9, r10, fp, lr}
	.cfi_def_cfa_offset 36
	.cfi_offset 4, -36
	.cfi_offset 5, -32
	.cfi_offset 6, -28
	.cfi_offset 7, -24
	.cfi_offset 8, -20
	.cfi_offset 9, -16
	.cfi_offset 10, -12
	.cfi_offset 11, -8
	.cfi_offset 14, -4
	.loc 1 220 0
	ldrh	r3, [r0, #10]
	.loc 1 205 0
	sub	sp, sp, #20
	.cfi_def_cfa_offset 56
	.loc 1 220 0
	cmp	r3, #7
	.loc 1 205 0
	mov	r5, r0
	mov	r10, r1
	.loc 1 220 0
	bhi	.L9
.LVL5:
.L24:
	.loc 1 448 0
	mov	r0, r5
	.loc 1 451 0
	add	sp, sp, #20
	.cfi_remember_state
	.cfi_def_cfa_offset 36
	@ sp needed
	pop	{r4, r5, r6, r7, r8, r9, r10, fp, lr}
	.cfi_restore 14
	.cfi_restore 11
	.cfi_restore 10
	.cfi_restore 9
	.cfi_restore 8
	.cfi_restore 7
	.cfi_restore 6
	.cfi_restore 5
	.cfi_restore 4
	.cfi_def_cfa_offset 0
.LVL6:
	.loc 1 448 0
	b	pbuf_free
.LVL7:
.L9:
	.cfi_restore_state
	.loc 1 234 0
	ldr	r6, .L55
	.loc 1 231 0
	ldr	r7, [r0, #4]
.LVL8:
	.loc 1 234 0
	ldr	r1, [r6]
.LVL9:
	ldr	r0, [r6, #20]
.LVL10:
	bl	ip4_addr_isbroadcast_u32
.LVL11:
	mov	r8, r0
.LVL12:
	.loc 1 239 0
	ldrh	r0, [r7]	@ unaligned
	bl	lwip_htons
.LVL13:
	mov	r9, r0
.LVL14:
	.loc 1 240 0
	ldrh	r0, [r7, #2]	@ unaligned
	bl	lwip_htons
.LVL15:
	.loc 1 253 0
	movs	r4, #0
	.loc 1 258 0
	ldr	r3, .L55+4
	.loc 1 240 0
	mov	lr, r0
.LVL16:
	.loc 1 258 0
	ldr	ip, [r3]
.LVL17:
	.loc 1 283 0
	ldr	r3, [r6, #16]
	.loc 1 252 0
	mov	r0, r4
	.loc 1 283 0
	str	r3, [sp, #12]
	.loc 1 258 0
	mov	r3, ip
.LBB4:
.LBB5:
	.loc 1 183 0
	ldr	r2, [r6, #20]
	str	r6, [sp, #8]
.LVL18:
.L10:
.LBE5:
.LBE4:
	.loc 1 258 0 discriminator 1
	cbnz	r3, .L19
.LVL19:
	.loc 1 306 0
	cbnz	r4, .L17
.LVL20:
	.loc 1 321 0
	ldr	r3, [r10, #4]
	cmp	r3, r2
	bne	.L24
	b	.L17
.LVL21:
.L19:
	.loc 1 267 0
	ldrh	r1, [r3, #18]
	cmp	r1, lr
	bne	.L11
.LVL22:
	ldr	r1, [r3]
.LBB8:
.LBB6:
	.loc 1 169 0
	cmp	r8, #0
	beq	.L12
	.loc 1 174 0
	cbz	r1, .L13
	adds	r6, r2, #1
	beq	.L13
	.loc 1 176 0
	eor	fp, r1, r2
	ldr	r1, [r10, #8]
	.loc 1 175 0
	tst	fp, r1
	bne	.L11
.L27:
.L13:
.LVL23:
.LBE6:
.LBE8:
	.loc 1 269 0
	ldrb	r1, [r3, #16]	@ zero_extendqisi2
	lsls	r1, r1, #29
	bmi	.L14
	.loc 1 269 0 is_stmt 0 discriminator 1
	cbz	r4, .L30
	.loc 1 273 0 is_stmt 1
	ldr	r1, [r3]
	cmp	r1, #0
	it	ne
	movne	r4, r3
.LVL24:
.L14:
	.loc 1 281 0
	ldrh	r1, [r3, #20]
	cmp	r1, r9
	bne	.L11
	.loc 1 282 0 discriminator 1
	ldr	r1, [r3, #4]
	.loc 1 281 0 discriminator 1
	cbnz	r1, .L15
.L18:
	.loc 1 285 0
	cbnz	r0, .L16
.L54:
	mov	r4, r3
.LVL25:
.L17:
	.loc 1 348 0
	ldrh	r3, [r7, #6]	@ unaligned
	cbnz	r3, .L22
.LVL26:
.L25:
	.loc 1 358 0
	mvn	r1, #7
	mov	r0, r5
	bl	pbuf_header
.LVL27:
	cmp	r0, #0
	bne	.L24
	.loc 1 367 0
	cbz	r4, .L26
	.loc 1 410 0
	ldr	r6, [r4, #32]
	cmp	r6, #0
	beq	.L24
	.loc 1 412 0
	str	r9, [sp]
	ldr	r3, .L55+8
	mov	r2, r5
	mov	r1, r4
	ldr	r0, [r4, #36]
	blx	r6
.LVL28:
	.loc 1 451 0
	add	sp, sp, #20
	.cfi_remember_state
	.cfi_def_cfa_offset 36
	@ sp needed
	pop	{r4, r5, r6, r7, r8, r9, r10, fp, pc}
.LVL29:
.L12:
	.cfi_restore_state
.LBB9:
.LBB7:
	.loc 1 183 0
	cmp	r1, #0
	beq	.L13
	cmp	r1, r2
	beq	.L13
.LVL30:
.L11:
.LBE7:
.LBE9:
	.loc 1 258 0 discriminator 2
	mov	r0, r3
	ldr	r3, [r3, #12]
.LVL31:
	b	.L10
.LVL32:
.L30:
	mov	r4, r3
.LVL33:
	b	.L14
.LVL34:
.L15:
	.loc 1 282 0
	ldr	r6, [sp, #12]
	cmp	r1, r6
	bne	.L11
	b	.L18
.L16:
	.loc 1 288 0
	ldr	r2, [r3, #12]
	str	r2, [r0, #12]
	.loc 1 290 0
	ldr	r2, .L55+4
	.loc 1 289 0
	str	ip, [r3, #12]
	.loc 1 290 0
	str	r3, [r2]
	b	.L54
.LVL35:
.L22:
	.loc 1 349 0
	ldr	r3, .L55+12
	ldrh	r2, [r5, #8]
	str	r3, [sp]
	movs	r1, #17
	subs	r3, r3, #4
	mov	r0, r5
	bl	ip_chksum_pseudo
.LVL36:
	cmp	r0, #0
	beq	.L25
	b	.L24
.L26:
	.loc 1 424 0
	cmp	r8, #0
	bne	.L24
	.loc 1 424 0 is_stmt 0 discriminator 1
	ldr	r3, [sp, #8]
	ldr	r3, [r3, #20]
	and	r3, r3, #240
	cmp	r3, #224
	beq	.L24
	.loc 1 426 0 is_stmt 1
	ldr	r3, [sp, #8]
	mov	r0, r5
	ldrh	r1, [r3, #12]
	adds	r1, r1, #8
	sxth	r1, r1
	bl	pbuf_header_force
.LVL37:
	.loc 1 427 0
	movs	r1, #3
	mov	r0, r5
	bl	icmp_dest_unreach
.LVL38:
	b	.L24
.L56:
	.align	2
.L55:
	.word	ip_data
	.word	udp_pcbs
	.word	ip_data+16
	.word	ip_data+20
	.cfi_endproc
.LFE5:
	.size	udp_input, .-udp_input
	.section	.text.udp_bind,"ax",%progbits
	.align	1
	.global	udp_bind
	.syntax unified
	.thumb
	.thumb_func
	.fpu softvfp
	.type	udp_bind, %function
udp_bind:
.LFB10:
	.loc 1 902 0
	.cfi_startproc
	@ args = 0, pretend = 0, frame = 0
	@ frame_needed = 0, uses_anonymous_args = 0
.LVL39:
	.loc 1 909 0
	ldr	r3, .L86
	.loc 1 902 0
	push	{r4, r5, r6, r7, r8, lr}
	.cfi_def_cfa_offset 24
	.cfi_offset 4, -24
	.cfi_offset 5, -20
	.cfi_offset 6, -16
	.cfi_offset 7, -12
	.cfi_offset 8, -8
	.cfi_offset 14, -4
	.loc 1 909 0
	cmp	r1, #0
	it	eq
	moveq	r1, r3
.LVL40:
	.loc 1 914 0
	cmp	r0, #0
	beq	.L80
.LVL41:
	.loc 1 924 0
	ldr	r6, .L86+4
	ldr	ip, [r6]
.LVL42:
	mov	r5, ip
.LVL43:
.L60:
	.loc 1 924 0 is_stmt 0 discriminator 1
	cbnz	r5, .L62
.LVL44:
.L61:
	.loc 1 933 0 is_stmt 1
	cbz	r2, .L63
	mov	r3, ip
.L64:
.LVL45:
	.loc 1 941 0 discriminator 1
	cbz	r3, .L71
	.loc 1 942 0
	cmp	r3, r0
	beq	.L72
	.loc 1 947 0
	ldrb	r4, [r0, #8]	@ zero_extendqisi2
	lsls	r7, r4, #29
	bpl	.L73
	.loc 1 947 0 is_stmt 0 discriminator 1
	ldrb	r4, [r3, #8]	@ zero_extendqisi2
	lsls	r4, r4, #29
	bmi	.L72
.L73:
	.loc 1 952 0 is_stmt 1
	ldrh	r4, [r3, #18]
	cmp	r4, r2
	bne	.L72
	.loc 1 952 0 is_stmt 0 discriminator 1
	ldr	r7, [r3]
	ldr	r4, [r1]
	cmp	r7, r4
	beq	.L74
.L72:
	.loc 1 941 0 is_stmt 1 discriminator 2
	ldr	r3, [r3, #12]
.LVL46:
	b	.L64
.LVL47:
.L62:
	.loc 1 926 0
	cmp	r5, r0
	beq	.L77
	.loc 1 924 0 discriminator 2
	ldr	r5, [r5, #12]
.LVL48:
	b	.L60
.L77:
	.loc 1 927 0
	movs	r5, #1
.LVL49:
	b	.L61
.LVL50:
.L63:
	.loc 1 933 0
	mov	r4, #16384
.LBB12:
.LBB13:
	.loc 1 106 0
	movw	lr, #65535
	ldr	r3, .L86+8
	ldrh	r2, [r3]
.LVL51:
.L68:
	cmp	r2, lr
	.loc 1 107 0
	it	eq
	moveq	r2, #49152
.LVL52:
	.loc 1 110 0
	mov	r7, ip
	.loc 1 106 0
	itt	ne
	addne	r2, r2, #1
	uxthne	r2, r2
.LVL53:
.L66:
	.loc 1 110 0
	cbnz	r7, .L70
	strh	r2, [r3]	@ movhi
.LVL54:
.L71:
.LBE13:
.LBE12:
	.loc 1 965 0
	ldr	r3, [r1]
	.loc 1 967 0
	strh	r2, [r0, #18]	@ movhi
	.loc 1 965 0
	str	r3, [r0]
	.loc 1 970 0
	cbnz	r5, .L79
	.loc 1 972 0
	str	ip, [r0, #12]
	.loc 1 973 0
	str	r0, [r6]
.L79:
	.loc 1 978 0
	movs	r0, #0
.LVL55:
	pop	{r4, r5, r6, r7, r8, pc}
.LVL56:
.L70:
.LBB16:
.LBB14:
	.loc 1 111 0
	ldrh	r8, [r7, #18]
	cmp	r8, r2
	bne	.L67
.LVL57:
	subs	r4, r4, #1
.LVL58:
	uxth	r4, r4
	.loc 1 112 0
	cmp	r4, #0
	bne	.L68
	strh	r2, [r3]	@ movhi
.LVL59:
.L74:
.LBE14:
.LBE16:
	.loc 1 938 0
	mvn	r0, #7
.LVL60:
	pop	{r4, r5, r6, r7, r8, pc}
.LVL61:
.L67:
.LBB17:
.LBB15:
	.loc 1 110 0
	ldr	r7, [r7, #12]
.LVL62:
	b	.L66
.LVL63:
.L80:
.LBE15:
.LBE17:
	.loc 1 915 0
	mvn	r0, #5
.LVL64:
	.loc 1 979 0
	pop	{r4, r5, r6, r7, r8, pc}
.L87:
	.align	2
.L86:
	.word	ip_addr_any
	.word	udp_pcbs
	.word	.LANCHOR0
	.cfi_endproc
.LFE10:
	.size	udp_bind, .-udp_bind
	.section	.text.udp_sendto_if_src,"ax",%progbits
	.align	1
	.global	udp_sendto_if_src
	.syntax unified
	.thumb
	.thumb_func
	.fpu softvfp
	.type	udp_sendto_if_src, %function
udp_sendto_if_src:
.LFB9:
	.loc 1 682 0
	.cfi_startproc
	@ args = 8, pretend = 0, frame = 0
	@ frame_needed = 0, uses_anonymous_args = 0
.LVL65:
	push	{r4, r5, r6, r7, r8, r9, lr}
	.cfi_def_cfa_offset 28
	.cfi_offset 4, -28
	.cfi_offset 5, -24
	.cfi_offset 6, -20
	.cfi_offset 7, -16
	.cfi_offset 8, -12
	.cfi_offset 9, -8
	.cfi_offset 14, -4
	mov	r7, r1
	sub	sp, sp, #20
	.cfi_def_cfa_offset 48
	.loc 1 682 0
	mov	r8, r2
	mov	r9, r3
	.loc 1 700 0
	mov	r5, r0
	cmp	r0, #0
	beq	.L100
	.loc 1 700 0 discriminator 1
	cmp	r2, #0
	beq	.L100
	.loc 1 719 0
	ldrh	r2, [r0, #18]
.LVL66:
	cmp	r2, #0
	beq	.L90
.LVL67:
.L93:
	.loc 1 729 0
	movs	r1, #8
	mov	r0, r7
	bl	pbuf_header
.LVL68:
	cmp	r0, #0
	bne	.L91
	mov	r4, r7
.L92:
.LVL69:
	.loc 1 754 0
	ldrh	r0, [r5, #18]
	.loc 1 753 0
	ldr	r6, [r4, #4]
.LVL70:
	.loc 1 754 0
	bl	lwip_htons
.LVL71:
	strh	r0, [r6]	@ unaligned
	.loc 1 755 0
	mov	r0, r9
	bl	lwip_htons
.LVL72:
	.loc 1 757 0
	movs	r3, #0
	.loc 1 755 0
	strh	r0, [r6, #2]	@ unaligned
	.loc 1 757 0
	strb	r3, [r6, #6]
	strb	r3, [r6, #7]
	.loc 1 761 0
	ldrb	r3, [r5, #16]	@ zero_extendqisi2
	lsls	r2, r3, #28
	bpl	.L94
	.loc 1 761 0 is_stmt 0 discriminator 1
	ldr	r3, [r8]
	and	r3, r3, #240
	cmp	r3, #224
	.loc 1 762 0 is_stmt 1 discriminator 1
	ittt	eq
	ldrbeq	r3, [r4, #13]	@ zero_extendqisi2
	orreq	r3, r3, #4
	strbeq	r3, [r4, #13]
.L94:
	.loc 1 819 0
	ldrh	r0, [r4, #8]
	bl	lwip_htons
.LVL73:
	strh	r0, [r6, #4]	@ unaligned
	.loc 1 824 0
	ldrb	r3, [r5, #16]	@ zero_extendqisi2
	lsls	r3, r3, #31
	bmi	.L95
.LBB18:
	.loc 1 836 0
	ldrh	r2, [r4, #8]
	ldr	r3, [sp, #52]
	str	r8, [sp]
	movs	r1, #17
	mov	r0, r4
	bl	ip_chksum_pseudo
.LVL74:
	.loc 1 844 0
	movw	r3, #65535
	cmp	r0, #0
	it	eq
	moveq	r0, r3
.LVL75:
	strh	r0, [r6, #6]	@ unaligned
.LVL76:
.L95:
.LBE18:
	.loc 1 853 0
	ldr	r3, [r8]
	.loc 1 862 0
	ldr	r2, [sp, #48]
	.loc 1 853 0
	and	r3, r3, #240
	cmp	r3, #224
	ite	eq
	ldrbeq	r3, [r5, #28]	@ zero_extendqisi2
	ldrbne	r3, [r5, #10]	@ zero_extendqisi2
.LVL77:
	.loc 1 862 0
	str	r2, [sp, #8]
	movs	r2, #17
	str	r2, [sp, #4]
	ldrb	r2, [r5, #9]	@ zero_extendqisi2
	ldr	r1, [sp, #52]
	str	r2, [sp]
	mov	r0, r4
	mov	r2, r8
	bl	ip4_output_if_src
.LVL78:
	.loc 1 869 0
	cmp	r4, r7
	.loc 1 862 0
	mov	r6, r0
.LVL79:
	.loc 1 869 0
	beq	.L89
	.loc 1 871 0
	mov	r0, r4
	bl	pbuf_free
.LVL80:
	b	.L89
.LVL81:
.L90:
	.loc 1 721 0
	mov	r1, r0
.LVL82:
	bl	udp_bind
.LVL83:
	.loc 1 722 0
	mov	r6, r0
	cmp	r0, #0
	beq	.L93
.LVL84:
.L89:
	.loc 1 878 0
	mov	r0, r6
	add	sp, sp, #20
	.cfi_remember_state
	.cfi_def_cfa_offset 28
	@ sp needed
	pop	{r4, r5, r6, r7, r8, r9, pc}
.LVL85:
.L91:
	.cfi_restore_state
	.loc 1 731 0
	movs	r2, #0
	movs	r1, #8
	movs	r0, #1
	bl	pbuf_alloc
.LVL86:
	.loc 1 733 0
	mov	r4, r0
	cbz	r0, .L101
	.loc 1 737 0
	ldrh	r3, [r7, #8]
	cmp	r3, #0
	beq	.L92
	.loc 1 739 0
	mov	r1, r7
	bl	pbuf_chain
.LVL87:
	b	.L92
.LVL88:
.L100:
	.loc 1 702 0
	mvn	r6, #5
	b	.L89
.LVL89:
.L101:
	.loc 1 735 0
	mov	r6, #-1
	b	.L89
	.cfi_endproc
.LFE9:
	.size	udp_sendto_if_src, .-udp_sendto_if_src
	.section	.text.udp_sendto_if,"ax",%progbits
	.align	1
	.global	udp_sendto_if
	.syntax unified
	.thumb
	.thumb_func
	.fpu softvfp
	.type	udp_sendto_if, %function
udp_sendto_if:
.LFB8:
	.loc 1 613 0
	.cfi_startproc
	@ args = 4, pretend = 0, frame = 0
	@ frame_needed = 0, uses_anonymous_args = 0
.LVL90:
	push	{r0, r1, r4, r5, r6, lr}
	.cfi_def_cfa_offset 24
	.cfi_offset 4, -16
	.cfi_offset 5, -12
	.cfi_offset 6, -8
	.cfi_offset 14, -4
	.loc 1 613 0
	ldr	r4, [sp, #24]
	.loc 1 627 0
	cbz	r0, .L114
	.loc 1 627 0 discriminator 1
	cbz	r2, .L114
	.loc 1 654 0
	ldr	r5, [r0]
	cbz	r5, .L110
	.loc 1 655 0 discriminator 2
	and	r6, r5, #240
	.loc 1 654 0 discriminator 2
	cmp	r6, #224
	bne	.L111
.L110:
	.loc 1 658 0
	adds	r5, r4, #4
.LVL91:
.L112:
	.loc 1 673 0
	stm	sp, {r4, r5}
	bl	udp_sendto_if_src
.LVL92:
.L109:
	.loc 1 675 0
	add	sp, sp, #8
	.cfi_remember_state
	.cfi_def_cfa_offset 16
	@ sp needed
	pop	{r4, r5, r6, pc}
.LVL93:
.L111:
	.cfi_restore_state
	.loc 1 662 0
	ldr	r6, [r4, #4]
	cmp	r5, r6
	bne	.L115
	.loc 1 654 0
	mov	r5, r0
	b	.L112
.L114:
	.loc 1 628 0
	mvn	r0, #5
.LVL94:
	b	.L109
.LVL95:
.L115:
	.loc 1 664 0
	mvn	r0, #3
.LVL96:
	b	.L109
	.cfi_endproc
.LFE8:
	.size	udp_sendto_if, .-udp_sendto_if
	.section	.text.udp_sendto,"ax",%progbits
	.align	1
	.global	udp_sendto
	.syntax unified
	.thumb
	.thumb_func
	.fpu softvfp
	.type	udp_sendto, %function
udp_sendto:
.LFB7:
	.loc 1 523 0
	.cfi_startproc
	@ args = 0, pretend = 0, frame = 0
	@ frame_needed = 0, uses_anonymous_args = 0
.LVL97:
	push	{r0, r1, r2, r4, r5, r6, r7, lr}
	.cfi_def_cfa_offset 32
	.cfi_offset 4, -20
	.cfi_offset 5, -16
	.cfi_offset 6, -12
	.cfi_offset 7, -8
	.cfi_offset 14, -4
	.loc 1 523 0
	mov	r6, r1
	mov	r4, r2
	mov	r7, r3
	.loc 1 538 0
	mov	r5, r0
	cbz	r0, .L123
	.loc 1 538 0 discriminator 1
	cbz	r2, .L123
	.loc 1 545 0
	ldr	r2, [r2]
.LVL98:
	and	r2, r2, #240
	cmp	r2, #224
	bne	.L126
	.loc 1 558 0
	ldr	r2, [r0, #24]
	cbz	r2, .L126
	.loc 1 559 0 discriminator 1
	ldr	r3, .L128
.LVL99:
	.loc 1 558 0 discriminator 1
	ldr	r3, [r3]
	cmp	r2, r3
	beq	.L126
	.loc 1 560 0
	adds	r0, r0, #24
.LVL100:
.L121:
	.loc 1 572 0
	bl	ip4_route
.LVL101:
	.loc 1 576 0
	cbz	r0, .L127
	.loc 1 586 0
	str	r0, [sp]
	mov	r3, r7
	mov	r2, r4
	mov	r1, r6
	mov	r0, r5
.LVL102:
	bl	udp_sendto_if
.LVL103:
.L120:
	.loc 1 588 0
	add	sp, sp, #12
	.cfi_remember_state
	.cfi_def_cfa_offset 20
	@ sp needed
	pop	{r4, r5, r6, r7, pc}
.LVL104:
.L126:
	.cfi_restore_state
	mov	r0, r4
.LVL105:
	b	.L121
.LVL106:
.L123:
	.loc 1 539 0
	mvn	r0, #5
.LVL107:
	b	.L120
.LVL108:
.L127:
	.loc 1 581 0
	mvn	r0, #3
.LVL109:
	b	.L120
.L129:
	.align	2
.L128:
	.word	ip_addr_broadcast
	.cfi_endproc
.LFE7:
	.size	udp_sendto, .-udp_sendto
	.section	.text.udp_send,"ax",%progbits
	.align	1
	.global	udp_send
	.syntax unified
	.thumb
	.thumb_func
	.fpu softvfp
	.type	udp_send, %function
udp_send:
.LFB6:
	.loc 1 475 0
	.cfi_startproc
	@ args = 0, pretend = 0, frame = 0
	@ frame_needed = 0, uses_anonymous_args = 0
	@ link register save eliminated.
.LVL110:
	.loc 1 476 0
	mov	r2, r0
	cbz	r0, .L131
	.loc 1 481 0
	ldrh	r3, [r0, #20]
	adds	r2, r2, #4
	b	udp_sendto
.LVL111:
.L131:
	.loc 1 482 0
	mvn	r0, #5
.LVL112:
	bx	lr
	.cfi_endproc
.LFE6:
	.size	udp_send, .-udp_send
	.section	.text.udp_connect,"ax",%progbits
	.align	1
	.global	udp_connect
	.syntax unified
	.thumb
	.thumb_func
	.fpu softvfp
	.type	udp_connect, %function
udp_connect:
.LFB11:
	.loc 1 1001 0
	.cfi_startproc
	@ args = 0, pretend = 0, frame = 0
	@ frame_needed = 0, uses_anonymous_args = 0
.LVL113:
	push	{r4, r5, r6, lr}
	.cfi_def_cfa_offset 16
	.cfi_offset 4, -16
	.cfi_offset 5, -12
	.cfi_offset 6, -8
	.cfi_offset 14, -4
	.loc 1 1001 0
	mov	r5, r1
	mov	r6, r2
	.loc 1 1004 0
	mov	r4, r0
	cbz	r0, .L139
	.loc 1 1004 0 discriminator 1
	cbz	r1, .L139
	.loc 1 1008 0
	ldrh	r2, [r0, #18]
.LVL114:
	cbz	r2, .L134
.LVL115:
.L136:
	.loc 1 1015 0
	ldr	r3, [r5]
	.loc 1 1016 0
	strh	r6, [r4, #20]	@ movhi
	.loc 1 1015 0
	str	r3, [r4, #4]
	.loc 1 1017 0
	ldrb	r3, [r4, #16]	@ zero_extendqisi2
	orr	r3, r3, #4
	strb	r3, [r4, #16]
	.loc 1 1025 0
	ldr	r3, .L141
	ldr	r2, [r3]
.LVL116:
	mov	r0, r2
.LVL117:
.L135:
	.loc 1 1025 0 is_stmt 0 discriminator 1
	cbnz	r0, .L137
	.loc 1 1032 0 is_stmt 1
	str	r2, [r4, #12]
	.loc 1 1033 0
	str	r4, [r3]
	.loc 1 1034 0
	pop	{r4, r5, r6, pc}
.LVL118:
.L134:
.LBB19:
	.loc 1 1009 0
	mov	r1, r0
.LVL119:
	bl	udp_bind
.LVL120:
	.loc 1 1010 0
	cmp	r0, #0
	beq	.L136
	pop	{r4, r5, r6, pc}
.LVL121:
.L137:
.LBE19:
	.loc 1 1026 0
	cmp	r0, r4
	beq	.L140
	.loc 1 1025 0 discriminator 2
	ldr	r0, [r0, #12]
.LVL122:
	b	.L135
.LVL123:
.L139:
	.loc 1 1005 0
	mvn	r0, #5
.LVL124:
	pop	{r4, r5, r6, pc}
.LVL125:
.L140:
	.loc 1 1028 0
	movs	r0, #0
.LVL126:
	.loc 1 1035 0
	pop	{r4, r5, r6, pc}
.LVL127:
.L142:
	.align	2
.L141:
	.word	udp_pcbs
	.cfi_endproc
.LFE11:
	.size	udp_connect, .-udp_connect
	.section	.text.udp_disconnect,"ax",%progbits
	.align	1
	.global	udp_disconnect
	.syntax unified
	.thumb
	.thumb_func
	.fpu softvfp
	.type	udp_disconnect, %function
udp_disconnect:
.LFB12:
	.loc 1 1045 0
	.cfi_startproc
	@ args = 0, pretend = 0, frame = 0
	@ frame_needed = 0, uses_anonymous_args = 0
	@ link register save eliminated.
.LVL128:
	.loc 1 1052 0
	movs	r3, #0
	str	r3, [r0, #4]
	.loc 1 1056 0
	strh	r3, [r0, #20]	@ movhi
	.loc 1 1058 0
	ldrb	r3, [r0, #16]	@ zero_extendqisi2
	bic	r3, r3, #4
	strb	r3, [r0, #16]
	bx	lr
	.cfi_endproc
.LFE12:
	.size	udp_disconnect, .-udp_disconnect
	.section	.text.udp_recv,"ax",%progbits
	.align	1
	.global	udp_recv
	.syntax unified
	.thumb
	.thumb_func
	.fpu softvfp
	.type	udp_recv, %function
udp_recv:
.LFB13:
	.loc 1 1073 0
	.cfi_startproc
	@ args = 0, pretend = 0, frame = 0
	@ frame_needed = 0, uses_anonymous_args = 0
	@ link register save eliminated.
.LVL129:
	.loc 1 1075 0
	str	r1, [r0, #32]
	.loc 1 1076 0
	str	r2, [r0, #36]
	bx	lr
	.cfi_endproc
.LFE13:
	.size	udp_recv, .-udp_recv
	.section	.text.udp_remove,"ax",%progbits
	.align	1
	.global	udp_remove
	.syntax unified
	.thumb
	.thumb_func
	.fpu softvfp
	.type	udp_remove, %function
udp_remove:
.LFB14:
	.loc 1 1090 0
	.cfi_startproc
	@ args = 0, pretend = 0, frame = 0
	@ frame_needed = 0, uses_anonymous_args = 0
	@ link register save eliminated.
.LVL130:
	.loc 1 1095 0
	ldr	r2, .L153
	.loc 1 1090 0
	mov	r1, r0
	.loc 1 1095 0
	ldr	r3, [r2]
	cmp	r3, r0
	bne	.L149
	.loc 1 1097 0
	ldr	r3, [r0, #12]
	str	r3, [r2]
.L147:
	.loc 1 1109 0
	movs	r0, #1
.LVL131:
	b	memp_free
.LVL132:
.L149:
	.loc 1 1090 0 discriminator 1
	mov	r2, r3
.LVL133:
	.loc 1 1100 0 discriminator 1
	cmp	r3, #0
	beq	.L147
	.loc 1 1102 0
	ldr	r3, [r3, #12]
	cmp	r3, #0
	beq	.L147
	.loc 1 1102 0 discriminator 1
	cmp	r1, r3
	bne	.L149
	.loc 1 1104 0
	ldr	r3, [r1, #12]
	str	r3, [r2, #12]
	.loc 1 1105 0
	b	.L147
.L154:
	.align	2
.L153:
	.word	udp_pcbs
	.cfi_endproc
.LFE14:
	.size	udp_remove, .-udp_remove
	.section	.text.udp_new,"ax",%progbits
	.align	1
	.global	udp_new
	.syntax unified
	.thumb
	.thumb_func
	.fpu softvfp
	.type	udp_new, %function
udp_new:
.LFB15:
	.loc 1 1123 0
	.cfi_startproc
	@ args = 0, pretend = 0, frame = 0
	@ frame_needed = 0, uses_anonymous_args = 0
	push	{r4, lr}
	.cfi_def_cfa_offset 8
	.cfi_offset 4, -8
	.cfi_offset 14, -4
	.loc 1 1125 0
	movs	r0, #1
	bl	memp_malloc
.LVL134:
	.loc 1 1127 0
	mov	r4, r0
	cbz	r0, .L155
	.loc 1 1132 0
	movs	r2, #40
	movs	r1, #0
	bl	memset
.LVL135:
	.loc 1 1133 0
	movs	r3, #255
	strb	r3, [r4, #10]
	.loc 1 1135 0
	strb	r3, [r4, #28]
.L155:
	.loc 1 1139 0
	mov	r0, r4
	pop	{r4, pc}
	.cfi_endproc
.LFE15:
	.size	udp_new, .-udp_new
	.section	.text.udp_new_ip_type,"ax",%progbits
	.align	1
	.global	udp_new_ip_type
	.syntax unified
	.thumb
	.thumb_func
	.fpu softvfp
	.type	udp_new_ip_type, %function
udp_new_ip_type:
.LFB16:
	.loc 1 1155 0
	.cfi_startproc
	@ args = 0, pretend = 0, frame = 0
	@ frame_needed = 0, uses_anonymous_args = 0
	@ link register save eliminated.
.LVL136:
	.loc 1 1157 0
	b	udp_new
.LVL137:
	.cfi_endproc
.LFE16:
	.size	udp_new_ip_type, .-udp_new_ip_type
	.section	.text.udp_netif_ip_addr_changed,"ax",%progbits
	.align	1
	.global	udp_netif_ip_addr_changed
	.syntax unified
	.thumb
	.thumb_func
	.fpu softvfp
	.type	udp_netif_ip_addr_changed, %function
udp_netif_ip_addr_changed:
.LFB17:
	.loc 1 1175 0
	.cfi_startproc
	@ args = 0, pretend = 0, frame = 0
	@ frame_needed = 0, uses_anonymous_args = 0
.LVL138:
	push	{r4, lr}
	.cfi_def_cfa_offset 8
	.cfi_offset 4, -8
	.cfi_offset 14, -4
	.loc 1 1178 0
	cbz	r0, .L161
	.loc 1 1178 0 is_stmt 0 discriminator 1
	ldr	r3, [r0]
	cbz	r3, .L161
	.loc 1 1178 0 is_stmt 1 discriminator 2
	cbz	r1, .L161
	.loc 1 1178 0 is_stmt 0 discriminator 3
	ldr	r3, [r1]
	cbz	r3, .L161
	.loc 1 1179 0 is_stmt 1
	ldr	r3, .L176
	ldr	r3, [r3]
.LVL139:
.L164:
	.loc 1 1179 0 is_stmt 0 discriminator 1
	cbnz	r3, .L166
.LVL140:
.L161:
	pop	{r4, pc}
.LVL141:
.L166:
	.loc 1 1181 0 is_stmt 1
	ldr	r4, [r3]
	ldr	r2, [r0]
	cmp	r4, r2
	.loc 1 1184 0
	itt	eq
	ldreq	r2, [r1]
	streq	r2, [r3]
	.loc 1 1179 0
	ldr	r3, [r3, #12]
.LVL142:
	b	.L164
.L177:
	.align	2
.L176:
	.word	udp_pcbs
	.cfi_endproc
.LFE17:
	.size	udp_netif_ip_addr_changed, .-udp_netif_ip_addr_changed
	.comm	udp_pcbs,4,4
	.section	.bss.done.6513,"aw",%nobits
	.align	2
	.set	.LANCHOR1,. + 0
	.type	done.6513, %object
	.size	done.6513, 4
done.6513:
	.space	4
	.section	.data.udp_port,"aw",%progbits
	.align	1
	.set	.LANCHOR0,. + 0
	.type	udp_port, %object
	.size	udp_port, 2
udp_port:
	.short	-16384
	.text
.Letext0:
	.file 2 "/home/ls/8720cf/sdk-ameba-v7.1d/tools/arm-none-eabi-gcc/asdk/linux/newlib/arm-none-eabi/include/sys/lock.h"
	.file 3 "/home/ls/8720cf/sdk-ameba-v7.1d/tools/arm-none-eabi-gcc/asdk/linux/newlib/arm-none-eabi/include/sys/_types.h"
	.file 4 "/home/ls/8720cf/sdk-ameba-v7.1d/tools/arm-none-eabi-gcc/asdk/linux/newlib/lib/gcc/arm-none-eabi/6.5.0/include/stddef.h"
	.file 5 "/home/ls/8720cf/sdk-ameba-v7.1d/tools/arm-none-eabi-gcc/asdk/linux/newlib/arm-none-eabi/include/sys/reent.h"
	.file 6 "/home/ls/8720cf/sdk-ameba-v7.1d/tools/arm-none-eabi-gcc/asdk/linux/newlib/arm-none-eabi/include/time.h"
	.file 7 "/home/ls/8720cf/sdk-ameba-v7.1d/tools/arm-none-eabi-gcc/asdk/linux/newlib/arm-none-eabi/include/stdlib.h"
	.file 8 "../../../component/common/network/lwip/lwip_v2.0.2/port/realtek/arch/cc.h"
	.file 9 "../../../component/common/network/lwip/lwip_v2.0.2/src/include/lwip/err.h"
	.file 10 "../../../component/common/network/lwip/lwip_v2.0.2/src/include/lwip/pbuf.h"
	.file 11 "../../../component/common/network/lwip/lwip_v2.0.2/src/include/lwip/ip4_addr.h"
	.file 12 "../../../component/common/network/lwip/lwip_v2.0.2/src/include/lwip/ip_addr.h"
	.file 13 "../../../component/common/network/lwip/lwip_v2.0.2/src/include/lwip/memp.h"
	.file 14 "../../../component/common/network/lwip/lwip_v2.0.2/src/include/lwip/priv/memp_priv.h"
	.file 15 "../../../component/common/network/lwip/lwip_v2.0.2/src/include/lwip/netif.h"
	.file 16 "../../../component/common/network/lwip/lwip_v2.0.2/src/include/lwip/prot/ip4.h"
	.file 17 "../../../component/common/network/lwip/lwip_v2.0.2/src/include/lwip/ip.h"
	.file 18 "../../../component/common/network/lwip/lwip_v2.0.2/src/include/lwip/prot/udp.h"
	.file 19 "../../../component/common/network/lwip/lwip_v2.0.2/src/include/lwip/udp.h"
	.file 20 "../../../component/common/network/lwip/lwip_v2.0.2/src/include/lwip/icmp.h"
	.file 21 "../../../component/common/network/lwip/lwip_v2.0.2/src/include/lwip/inet_chksum.h"
	.file 22 "../../../component/common/network/lwip/lwip_v2.0.2/src/include/lwip/def.h"
	.file 23 "../../../component/common/network/lwip/lwip_v2.0.2/src/include/lwip/ip4.h"
	.file 24 "../../../component/common/api/network/include/lwipopts.h"