	.arch armv8-m.main
	.arch_extension dsp
	.eabi_attribute 20, 1
	.eabi_attribute 21, 1
	.eabi_attribute 23, 3
	.eabi_attribute 24, 1
	.eabi_attribute 25, 1
	.eabi_attribute 26, 1
	.eabi_attribute 30, 4
	.eabi_attribute 34, 1
	.eabi_attribute 18, 4
	.file	"wechat_airsync_protocol.c"
	.text
.Ltext0:
	.cfi_sections	.debug_frame
	.section	.text.set_data_complete_callback,"ax",%progbits
	.align	1
	.global	set_data_complete_callback
	.syntax unified
	.thumb
	.thumb_func
	.fpu softvfp
	.type	set_data_complete_callback, %function
set_data_complete_callback:
.LFB13:
	.file 1 "../../../component/common/application/airsync/1.0.4/wechat_airsync_protocol.c"
	.loc 1 43 0
	.cfi_startproc
	@ args = 0, pretend = 0, frame = 0
	@ frame_needed = 0, uses_anonymous_args = 0
	@ link register save eliminated.
.LVL0:
	.loc 1 44 0
	ldr	r3, .L2
	str	r1, [r3, #4]
	.loc 1 45 0
	strh	r0, [r3]	@ movhi
	bx	lr
.L3:
	.align	2
.L2:
	.word	.LANCHOR0
	.cfi_endproc
.LFE13:
	.size	set_data_complete_callback, .-set_data_complete_callback
	.section	.text.airsync_send_stream,"ax",%progbits
	.align	1
	.global	airsync_send_stream
	.syntax unified
	.thumb
	.thumb_func
	.fpu softvfp
	.type	airsync_send_stream, %function
airsync_send_stream:
.LFB15:
	.loc 1 56 0
	.cfi_startproc
	@ args = 0, pretend = 0, frame = 0
	@ frame_needed = 0, uses_anonymous_args = 0
.LVL1:
	push	{r0, r1, r4, r5, r6, lr}
	.cfi_def_cfa_offset 24
	.cfi_offset 4, -16
	.cfi_offset 5, -12
	.cfi_offset 6, -8
	.cfi_offset 14, -4
	.loc 1 56 0
	mov	r4, r1
.LBB26:
	.loc 1 59 0
	mov	r3, r1
.LBE26:
	.loc 1 56 0
	mov	r5, r0
.LVL2:
.LBB27:
	.loc 1 59 0
	movs	r2, #1
	ldr	r1, .L8
.LVL3:
	ldr	r0, .L8+4
.LVL4:
	bl	trace_log_buffer
.LVL5:
.LBE27:
	.loc 1 70 0
	ldr	r3, .L8+8
	.loc 1 61 0
	cmp	r4, #20
	.loc 1 70 0
	ldrb	r1, [r3]	@ zero_extendqisi2
	ldr	r3, .L8+12
	.loc 1 61 0
	mov	r6, r4
	.loc 1 70 0
	ldrb	r0, [r3]	@ zero_extendqisi2
	.loc 1 61 0
	it	cs
	movcs	r6, #20
.LVL6:
	.loc 1 70 0
	movs	r3, #2
	movs	r2, #4
	str	r3, [sp, #4]
	str	r6, [sp]
	mov	r3, r5
	bl	server_send_data
.LVL7:
	.loc 1 72 0
	subs	r1, r4, r6
	uxth	r1, r1
.LVL8:
	ldr	r2, .L8+16
	.loc 1 75 0
	cbz	r1, .L5
.LVL9:
	.loc 1 73 0
	add	r5, r5, r6
.LVL10:
.LBB28:
.LBB29:
	.loc 1 44 0
	str	r5, [r2, #4]
.LVL11:
.L7:
.LBE29:
.LBE28:
.LBB30:
.LBB31:
	.loc 1 45 0
	strh	r1, [r2]	@ movhi
.LBE31:
.LBE30:
	.loc 1 83 0
	add	sp, sp, #8
	.cfi_remember_state
	.cfi_def_cfa_offset 16
	@ sp needed
	pop	{r4, r5, r6, pc}
.LVL12:
.L5:
	.cfi_restore_state
.LBB33:
.LBB32:
	.loc 1 44 0
	str	r1, [r2, #4]
	b	.L7
.L9:
	.align	2
.L8:
	.word	.LANCHOR1
	.word	1058025474
	.word	bt_airsync_config_srv_id
	.word	bt_airsync_config_conn_id
	.word	.LANCHOR0
.LBE32:
.LBE33:
	.cfi_endproc
.LFE15:
	.size	airsync_send_stream, .-airsync_send_stream
	.section	.text.airsync_tx_complete,"ax",%progbits
	.align	1
	.global	airsync_tx_complete
	.syntax unified
	.thumb
	.thumb_func
	.fpu softvfp
	.type	airsync_tx_complete, %function
airsync_tx_complete:
.LFB14:
	.loc 1 48 0
	.cfi_startproc
	@ args = 0, pretend = 0, frame = 0
	@ frame_needed = 0, uses_anonymous_args = 0
	@ link register save eliminated.
	.loc 1 49 0
	ldr	r3, .L12
	ldrh	r1, [r3]
	cbz	r1, .L10
	.loc 1 51 0
	ldr	r0, [r3, #4]
	b	airsync_send_stream
.LVL13:
.L10:
	bx	lr
.L13:
	.align	2
.L12:
	.word	.LANCHOR0
	.cfi_endproc
.LFE14:
	.size	airsync_tx_complete, .-airsync_tx_complete
	.section	.text.airsync_auth_request,"ax",%progbits
	.align	1
	.global	airsync_auth_request
	.syntax unified
	.thumb
	.thumb_func
	.fpu softvfp
	.type	airsync_auth_request, %function
airsync_auth_request:
.LFB16:
	.loc 1 88 0
	.cfi_startproc
	@ args = 0, pretend = 0, frame = 112
	@ frame_needed = 0, uses_anonymous_args = 0
	push	{r4, r5, lr}
	.cfi_def_cfa_offset 12
	.cfi_offset 4, -12
	.cfi_offset 5, -8
	.cfi_offset 14, -4
.LBB34:
	.loc 1 89 0
	ldr	r1, .L20
.LBE34:
	.loc 1 88 0
	sub	sp, sp, #116
	.cfi_def_cfa_offset 128
.LBB35:
	.loc 1 89 0
	movs	r2, #0
	ldr	r0, .L20+4
	bl	trace_log_buffer
.LVL14:
.LBE35:
	.loc 1 90 0
	ldr	r0, .L20+8
	bl	__wrap_printf
.LVL15:
	.loc 1 93 0
	movs	r5, #1
	.loc 1 92 0
	movs	r3, #0
	.loc 1 93 0
	movs	r2, #254
	movw	r0, #10001
	.loc 1 92 0
	str	r3, [sp]
	.loc 1 93 0
	strb	r2, [sp, #20]
	strh	r3, [sp, #22]	@ movhi
	strb	r5, [sp, #21]
	bl	htons
.LVL16:
	ldr	r4, .L20+12
	strh	r0, [sp, #24]	@ movhi
	ldr	r0, [r4]
	adds	r3, r0, r5
	uxth	r0, r0
	str	r3, [r4]
	bl	htons
.LVL17:
	.loc 1 94 0
	ldr	r3, [r4]
	.loc 1 93 0
	strh	r0, [sp, #26]	@ movhi
	.loc 1 94 0
	cbnz	r3, .L15
	.loc 1 96 0
	str	r5, [r4]
.L15:
	.loc 1 101 0
	add	r1, sp, #4
	mov	r0, #512
	bl	gap_get_param
.LVL18:
.LBB36:
	.loc 1 103 0
	movs	r2, #0
	add	r3, sp, #10
	.loc 1 105 0
	add	r0, sp, #12
.LVL19:
.L16:
	.loc 1 105 0 is_stmt 0 discriminator 3
	ldrb	r1, [r3, #-1]!	@ zero_extendqisi2
	strb	r1, [r2, r0]
	.loc 1 103 0 is_stmt 1 discriminator 3
	adds	r2, r2, #1
.LVL20:
	cmp	r2, #6
	bne	.L16
.LBE36:
	.loc 1 107 0
	movs	r3, #0
	ldr	r1, .L20+16
	strb	r3, [sp, #32]
	str	r3, [sp, #36]
	str	r3, [sp, #40]
	strb	r3, [sp, #53]
	str	r3, [sp, #56]
	str	r3, [sp, #60]
	strb	r3, [sp, #76]
	str	r3, [sp, #80]
	str	r3, [sp, #84]
	strb	r3, [sp, #88]
	str	r3, [sp, #92]
	str	r3, [sp, #96]
	ldr	r3, .L20+20
	str	r1, [sp, #44]
	movs	r4, #2
	movs	r1, #1
	str	r3, [sp, #104]
	movs	r3, #9
	str	r0, [sp, #68]
	.loc 1 126 0
	add	r0, sp, #28
	.loc 1 107 0
	str	r1, [sp, #48]
	strb	r4, [sp, #52]
	strb	r1, [sp, #64]
	str	r2, [sp, #72]
	strb	r1, [sp, #100]
	str	r3, [sp, #108]
	str	sp, [sp, #28]
	.loc 1 126 0
	bl	epb_auth_request_pack_size
.LVL21:
	.loc 1 127 0
	ldr	r5, .L20+24
	.loc 1 126 0
	adds	r0, r0, #8
	uxth	r4, r0
.LVL22:
	.loc 1 127 0
	sub	r2, r4, #8
	mov	r1, r5
	add	r0, sp, #28
	bl	epb_pack_auth_request
.LVL23:
	cmp	r0, #0
	blt	.L14
	.loc 1 131 0
	mov	r0, r4
	bl	htons
.LVL24:
	.loc 1 132 0
	sub	r2, r5, #8
	.loc 1 131 0
	strh	r0, [sp, #22]	@ movhi
	.loc 1 132 0
	add	r3, sp, #20
	ldmia	r3!, {r0, r1}
	str	r0, [r5, #-8]	@ unaligned
	str	r1, [r5, #-4]	@ unaligned
	.loc 1 133 0
	mov	r0, r2
	mov	r1, r4
	bl	airsync_send_stream
.LVL25:
.L14:
	.loc 1 134 0
	add	sp, sp, #116
	.cfi_def_cfa_offset 12
	@ sp needed
	pop	{r4, r5, pc}
.LVL26:
.L21:
	.align	2
.L20:
	.word	.LANCHOR1+28
	.word	1058025474
	.word	.LC0
	.word	.LANCHOR2
	.word	65540
	.word	.LC1
	.word	gAirSyncSendBuf+8
	.cfi_endproc
.LFE16:
	.size	airsync_auth_request, .-airsync_auth_request
	.section	.text.airsync_init_request,"ax",%progbits
	.align	1
	.global	airsync_init_request
	.syntax unified
	.thumb
	.thumb_func
	.fpu softvfp
	.type	airsync_init_request, %function
airsync_init_request:
.LFB17:
	.loc 1 138 0
	.cfi_startproc
	@ args = 0, pretend = 0, frame = 40
	@ frame_needed = 0, uses_anonymous_args = 0
	push	{r4, r5, lr}
	.cfi_def_cfa_offset 12
	.cfi_offset 4, -12
	.cfi_offset 5, -8
	.cfi_offset 14, -4
.LBB37:
	.loc 1 139 0
	ldr	r1, .L26
.LBE37:
	.loc 1 138 0
	sub	sp, sp, #44
	.cfi_def_cfa_offset 56
.LBB38:
	.loc 1 139 0
	movs	r2, #0
	ldr	r0, .L26+4
	bl	trace_log_buffer
.LVL27:
.LBE38:
	.loc 1 140 0
	ldr	r0, .L26+8
	bl	__wrap_printf
.LVL28:
	.loc 1 143 0
	movs	r3, #0
	add	r2, sp, #40
	str	r3, [r2, #-40]!
	.loc 1 144 0
	str	r2, [sp, #12]
	ldr	r2, .L26+12
	movs	r5, #1
	str	r2, [sp, #32]
	movs	r2, #4
	str	r2, [sp, #36]
	.loc 1 145 0
	movs	r2, #254
	movw	r0, #10003
	.loc 1 144 0
	strb	r3, [sp, #16]
	str	r3, [sp, #20]
	str	r3, [sp, #24]
	.loc 1 145 0
	strb	r2, [sp, #4]
	strh	r3, [sp, #6]	@ movhi
	.loc 1 144 0
	strb	r5, [sp, #28]
	.loc 1 145 0
	strb	r5, [sp, #5]
	bl	htons
.LVL29:
	ldr	r4, .L26+16
	strh	r0, [sp, #8]	@ movhi
	ldr	r0, [r4]
	adds	r3, r0, r5
	uxth	r0, r0
	str	r3, [r4]
	bl	htons
.LVL30:
	.loc 1 146 0
	ldr	r3, [r4]
	.loc 1 145 0
	strh	r0, [sp, #10]	@ movhi
	.loc 1 146 0
	cbnz	r3, .L23
	.loc 1 148 0
	str	r5, [r4]
.L23:
	.loc 1 151 0
	add	r0, sp, #12
	bl	epb_init_request_pack_size
.LVL31:
	.loc 1 153 0
	ldr	r5, .L26+20
	.loc 1 151 0
	adds	r0, r0, #8
	uxth	r4, r0
.LVL32:
	.loc 1 153 0
	sub	r2, r4, #8
	mov	r1, r5
	add	r0, sp, #12
	bl	epb_pack_init_request
.LVL33:
	cmp	r0, #0
	blt	.L22
	.loc 1 157 0
	mov	r0, r4
	bl	htons
.LVL34:
	.loc 1 158 0
	sub	r2, r5, #8
	.loc 1 157 0
	strh	r0, [sp, #6]	@ movhi
	.loc 1 158 0
	add	r3, sp, #4
	ldmia	r3!, {r0, r1}
	str	r0, [r5, #-8]	@ unaligned
	str	r1, [r5, #-4]	@ unaligned
	.loc 1 159 0
	mov	r0, r2
	mov	r1, r4
	bl	airsync_send_stream
.LVL35:
.L22:
	.loc 1 160 0
	add	sp, sp, #44
	.cfi_def_cfa_offset 12
	@ sp needed
	pop	{r4, r5, pc}
.LVL36:
.L27:
	.align	2
.L26:
	.word	.LANCHOR1+56
	.word	1058025474
	.word	.LC2
	.word	.LANCHOR3
	.word	.LANCHOR2
	.word	gAirSyncSendBuf+8
	.cfi_endproc
.LFE17:
	.size	airsync_init_request, .-airsync_init_request
	.section	.text.airsync_wristband_request,"ax",%progbits
	.align	1
	.global	airsync_wristband_request
	.syntax unified
	.thumb
	.thumb_func
	.fpu softvfp
	.type	airsync_wristband_request, %function
airsync_wristband_request:
.LFB18:
	.loc 1 164 0
	.cfi_startproc
	@ args = 0, pretend = 0, frame = 32
	@ frame_needed = 0, uses_anonymous_args = 0
	push	{r4, r5, r6, r7, lr}
	.cfi_def_cfa_offset 20
	.cfi_offset 4, -20
	.cfi_offset 5, -16
	.cfi_offset 6, -12
	.cfi_offset 7, -8
	.cfi_offset 14, -4
.LBB39:
	.loc 1 165 0
	ldr	r1, .L33
.LBE39:
	.loc 1 164 0
	sub	sp, sp, #36
	.cfi_def_cfa_offset 56
.LBB40:
	.loc 1 165 0
	movs	r2, #0
	ldr	r0, .L33+4
	bl	trace_log_buffer
.LVL37:
.LBE40:
	.loc 1 166 0
	ldr	r0, .L33+8
	bl	__wrap_printf
.LVL38:
	.loc 1 169 0
	movs	r5, #1
	.loc 1 168 0
	movs	r3, #0
	.loc 1 169 0
	movs	r2, #254
	movw	r0, #10002
	.loc 1 168 0
	str	r3, [sp, #4]
	.loc 1 169 0
	strb	r2, [sp, #8]
	strh	r3, [sp, #10]	@ movhi
	strb	r5, [sp, #9]
	bl	htons
.LVL39:
	ldr	r4, .L33+12
	strh	r0, [sp, #12]	@ movhi
	ldr	r0, [r4]
	adds	r3, r0, r5
	uxth	r0, r0
	str	r3, [r4]
	bl	htons
.LVL40:
	.loc 1 170 0
	ldr	r3, [r4]
	.loc 1 169 0
	strh	r0, [sp, #14]	@ movhi
	.loc 1 170 0
	cbnz	r3, .L29
	.loc 1 172 0
	str	r5, [r4]
.L29:
	.loc 1 175 0
	movs	r3, #176
	ldr	r2, .L33+16
	movs	r1, #20
	movs	r0, #0
	bl	os_mem_alloc_intern
.LVL41:
	.loc 1 178 0
	movs	r4, #1
	.loc 1 175 0
	mov	r5, r0
.LVL42:
	.loc 1 177 0
	movs	r2, #20
	movs	r1, #0
	bl	memset
.LVL43:
	.loc 1 179 0
	movs	r3, #180
	.loc 1 178 0
	str	r4, [r5]
	.loc 1 179 0
	ldr	r2, .L33+16
	movs	r1, #60
	movs	r0, #0
	bl	os_mem_alloc_intern
.LVL44:
	.loc 1 181 0
	movs	r1, #0
	movs	r2, #60
	.loc 1 179 0
	str	r0, [r5, #4]
	.loc 1 181 0
	bl	memset
.LVL45:
	.loc 1 185 0
	movw	r2, #10000
	.loc 1 183 0
	ldr	r3, [r5, #4]
.LVL46:
	.loc 1 200 0
	movs	r7, #0
	.loc 1 185 0
	str	r2, [r3]
	.loc 1 193 0
	mov	r2, #2000
	.loc 1 186 0
	strb	r4, [r3, #12]
	.loc 1 187 0
	strb	r4, [r3, #20]
	.loc 1 188 0
	strb	r4, [r3, #28]
	.loc 1 189 0
	strb	r4, [r3, #36]
	.loc 1 190 0
	strb	r4, [r3, #44]
	.loc 1 191 0
	strb	r4, [r3, #52]
	.loc 1 193 0
	str	r2, [r3, #16]
	.loc 1 194 0
	str	r4, [r3, #24]
	.loc 1 195 0
	str	r4, [r3, #32]
	.loc 1 196 0
	str	r4, [r3, #40]
	.loc 1 197 0
	str	r4, [r3, #48]
	.loc 1 198 0
	str	r4, [r3, #56]
	.loc 1 202 0
	mov	r0, r5
	.loc 1 200 0
	strb	r7, [r5, #8]
	.loc 1 202 0
	bl	epb_mmopen_wristband_request_pack_size
.LVL47:
	.loc 1 204 0
	movs	r3, #204
	.loc 1 202 0
	mov	r6, r0
.LVL48:
	.loc 1 204 0
	mov	r1, r0
	ldr	r2, .L33+16
	mov	r0, r7
.LVL49:
	bl	os_mem_alloc_intern
.LVL50:
	mov	r7, r0
.LVL51:
	.loc 1 205 0
	mov	r2, r6
	mov	r1, r0
	mov	r0, r5
.LVL52:
	bl	epb_mmopen_pack_wristband_request
.LVL53:
.LBB41:
	.loc 1 206 0
	mov	r2, r4
	mov	r3, r6
	ldr	r1, .L33+20
	ldr	r0, .L33+4
	bl	trace_log_buffer
.LVL54:
.LBE41:
	.loc 1 208 0
	add	r3, sp, #4
	.loc 1 215 0
	add	r0, sp, #16
	.loc 1 208 0
	str	r3, [sp, #16]
	str	r6, [sp, #24]
	strb	r4, [sp, #28]
	strh	r4, [sp, #30]	@ movhi
	str	r7, [sp, #20]
	.loc 1 215 0
	bl	epb_send_data_request_pack_size
.LVL55:
	adds	r0, r0, #8
	uxth	r6, r0
.LVL56:
.LBB42:
	.loc 1 217 0
	mov	r2, r4
.LBE42:
	.loc 1 219 0
	ldr	r4, .L33+24
.LBB43:
	.loc 1 217 0
	mov	r3, r6
	ldr	r1, .L33+28
	ldr	r0, .L33+4
	bl	trace_log_buffer
.LVL57:
.LBE43:
	.loc 1 219 0
	sub	r2, r6, #8
	mov	r1, r4
	add	r0, sp, #16
	bl	epb_pack_send_data_request
.LVL58:
	cmp	r0, #0
	bge	.L30
.L32:
	.loc 1 231 0
	ldr	r0, [r5, #4]
	bl	os_mem_free
.LVL59:
	.loc 1 232 0
	mov	r0, r5
	bl	os_mem_free
.LVL60:
	.loc 1 233 0
	mov	r0, r7
	bl	os_mem_free
.LVL61:
	.loc 1 234 0
	add	sp, sp, #36
	.cfi_remember_state
	.cfi_def_cfa_offset 20
	@ sp needed
	pop	{r4, r5, r6, r7, pc}
.LVL62:
.L30:
	.cfi_restore_state
	.loc 1 227 0
	mov	r0, r6
	bl	htons
.LVL63:
	.loc 1 228 0
	sub	r2, r4, #8
	.loc 1 227 0
	strh	r0, [sp, #10]	@ movhi
	.loc 1 228 0
	add	r3, sp, #8
	ldmia	r3!, {r0, r1}
	str	r0, [r4, #-8]	@ unaligned
	str	r1, [r4, #-4]	@ unaligned
	.loc 1 229 0
	mov	r0, r2
	mov	r1, r6
	bl	airsync_send_stream
.LVL64:
	b	.L32
.L34:
	.align	2
.L33:
	.word	.LANCHOR1+84
	.word	1058025474
	.word	.LC3
	.word	.LANCHOR2
	.word	.LANCHOR4
	.word	.LANCHOR1+116
	.word	gAirSyncSendBuf+8
	.word	.LANCHOR1+164
	.cfi_endproc
.LFE18:
	.size	airsync_wristband_request, .-airsync_wristband_request
	.section	.text.airsync_send_data,"ax",%progbits
	.align	1
	.global	airsync_send_data
	.syntax unified
	.thumb
	.thumb_func
	.fpu softvfp
	.type	airsync_send_data, %function
airsync_send_data:
.LFB19:
	.loc 1 238 0
	.cfi_startproc
	@ args = 0, pretend = 0, frame = 32
	@ frame_needed = 0, uses_anonymous_args = 0
.LVL65:
	push	{r4, r5, r6, r7, lr}
	.cfi_def_cfa_offset 20
	.cfi_offset 4, -20
	.cfi_offset 5, -16
	.cfi_offset 6, -12
	.cfi_offset 7, -8
	.cfi_offset 14, -4
.LBB44:
	.loc 1 239 0
	movs	r2, #0
.LBE44:
	.loc 1 238 0
	sub	sp, sp, #36
	.cfi_def_cfa_offset 56
	.loc 1 238 0
	mov	r7, r0
	mov	r6, r1
.LBB45:
	.loc 1 239 0
	ldr	r0, .L39
.LVL66:
	ldr	r1, .L39+4
.LVL67:
	bl	trace_log_buffer
.LVL68:
.LBE45:
	.loc 1 250 0
	movs	r5, #1
	.loc 1 249 0
	movs	r3, #0
	.loc 1 250 0
	movs	r2, #254
	movw	r0, #10002
	.loc 1 249 0
	str	r3, [sp, #4]
	.loc 1 250 0
	strb	r2, [sp, #8]
	strh	r3, [sp, #10]	@ movhi
	strb	r5, [sp, #9]
	bl	htons
.LVL69:
	ldr	r4, .L39+8
	strh	r0, [sp, #12]	@ movhi
	ldr	r0, [r4]
	adds	r3, r0, r5
	uxth	r0, r0
	str	r3, [r4]
	bl	htons
.LVL70:
	.loc 1 251 0
	ldr	r3, [r4]
	.loc 1 250 0
	strh	r0, [sp, #14]	@ movhi
	.loc 1 251 0
	cbnz	r3, .L36
	.loc 1 253 0
	str	r5, [r4]
.L36:
	.loc 1 256 0
	add	r3, sp, #4
	movs	r5, #1
	str	r3, [sp, #16]
	movs	r3, #0
	.loc 1 263 0
	add	r0, sp, #16
	.loc 1 256 0
	strb	r5, [sp, #28]
	strh	r3, [sp, #30]	@ movhi
	str	r7, [sp, #20]
	str	r6, [sp, #24]
	.loc 1 263 0
	bl	epb_send_data_request_pack_size
.LVL71:
	adds	r0, r0, #8
	uxth	r4, r0
.LVL72:
.LBB46:
	.loc 1 265 0
	mov	r2, r5
.LBE46:
	.loc 1 267 0
	ldr	r5, .L39+12
.LBB47:
	.loc 1 265 0
	mov	r3, r4
	ldr	r1, .L39+16
	ldr	r0, .L39
	bl	trace_log_buffer
.LVL73:
.LBE47:
	.loc 1 267 0
	sub	r2, r4, #8
	mov	r1, r5
	add	r0, sp, #16
	bl	epb_pack_send_data_request
.LVL74:
	cmp	r0, #0
	blt	.L35
	.loc 1 272 0
	mov	r0, r4
	bl	htons
.LVL75:
	.loc 1 273 0
	sub	r2, r5, #8
	.loc 1 272 0
	strh	r0, [sp, #10]	@ movhi
	.loc 1 273 0
	add	r3, sp, #8
	ldmia	r3!, {r0, r1}
	str	r0, [r5, #-8]	@ unaligned
	str	r1, [r5, #-4]	@ unaligned
	.loc 1 274 0
	mov	r0, r2
	mov	r1, r4
	bl	airsync_send_stream
.LVL76:
.L35:
	.loc 1 275 0
	add	sp, sp, #36
	.cfi_def_cfa_offset 20
	@ sp needed
	pop	{r4, r5, r6, r7, pc}
.LVL77:
.L40:
	.align	2
.L39:
	.word	1058025474
	.word	.LANCHOR1+216
	.word	.LANCHOR2
	.word	gAirSyncSendBuf+8
	.word	.LANCHOR1+244
	.cfi_endproc
.LFE19:
	.size	airsync_send_data, .-airsync_send_data
	.section	.text.airsync_receive_data_handle,"ax",%progbits
	.align	1
	.global	airsync_receive_data_handle
	.syntax unified
	.thumb
	.thumb_func
	.fpu softvfp
	.type	airsync_receive_data_handle, %function
airsync_receive_data_handle:
.LFB20:
	.loc 1 321 0
	.cfi_startproc
	@ args = 0, pretend = 0, frame = 0
	@ frame_needed = 0, uses_anonymous_args = 0
.LVL78:
	push	{r3, r4, r5, lr}
	.cfi_def_cfa_offset 16
	.cfi_offset 3, -16
	.cfi_offset 4, -12
	.cfi_offset 5, -8
	.cfi_offset 14, -4
	.loc 1 322 0
	ldrb	r2, [r0, #4]	@ zero_extendqisi2
	ldrb	r3, [r0, #5]	@ zero_extendqisi2
	.loc 1 321 0
	mov	r4, r0
	.loc 1 322 0
	orr	r3, r3, r2, lsl #8
	.loc 1 324 0
	movw	r2, #20002
	sxth	r3, r3
	cmp	r3, r2
	.loc 1 321 0
	mov	r5, r1
	.loc 1 324 0
	beq	.L43
	bgt	.L44
	movw	r2, #20001
	cmp	r3, r2
	beq	.L45
.LVL79:
.L54:
	.loc 1 449 0
	movs	r0, #0
	pop	{r3, r4, r5, pc}
.LVL80:
.L44:
	.loc 1 324 0
	movw	r2, #20003
	cmp	r3, r2
	beq	.L46
	movw	r2, #30001
	cmp	r3, r2
	bne	.L54
.LBB48:
.LBB49:
	.loc 1 406 0
	movs	r2, #0
	ldr	r1, .L63
.LVL81:
	ldr	r0, .L63+4
.LVL82:
	bl	trace_log_buffer
.LVL83:
.LBE49:
	.loc 1 411 0
	add	r0, r4, #8
	sub	r1, r5, #8
	bl	epb_unpack_recv_data_push
.LVL84:
	.loc 1 412 0
	mov	r4, r0
.LVL85:
	cmp	r0, #0
	bne	.L53
.LBB50:
	.loc 1 414 0
	mov	r2, r0
	ldr	r1, .L63+8
	ldr	r0, .L63+4
.LVL86:
	bl	trace_log_buffer
.LVL87:
.LBE50:
	.loc 1 418 0
	movw	r0, #39316
	pop	{r3, r4, r5, pc}
.LVL88:
.L45:
.LBE48:
.LBB52:
.LBB53:
	.loc 1 330 0
	movs	r2, #0
	ldr	r1, .L63+12
.LVL89:
	ldr	r0, .L63+4
.LVL90:
	bl	trace_log_buffer
.LVL91:
.LBE53:
	.loc 1 331 0
	ldr	r0, .L63+16
	bl	__wrap_printf
.LVL92:
	.loc 1 333 0
	sub	r1, r5, #8
	add	r0, r4, #8
	bl	epb_unpack_auth_response
.LVL93:
	.loc 1 334 0
	mov	r5, r0
	cmp	r0, #0
	beq	.L55
	.loc 1 338 0
	ldr	r3, [r0]
	ldr	r4, [r3]
.LVL94:
	cbnz	r4, .L48
.LBB54:
	.loc 1 341 0
	mov	r2, r4
	ldr	r1, .L63+20
	ldr	r0, .L63+4
.LVL95:
	bl	trace_log_buffer
.LVL96:
.LBE54:
	.loc 1 342 0
	ldr	r0, .L63+24
	bl	__wrap_printf
.LVL97:
.LBB55:
.LBB56:
	.loc 1 524 0
	bl	airsync_init_request
.LVL98:
.LBE56:
.LBE55:
	.loc 1 358 0
	mov	r0, r5
	bl	epb_unpack_auth_response_free
.LVL99:
	b	.L54
.LVL100:
.L48:
.LBB57:
	.loc 1 348 0
	mov	r3, r4
	movs	r2, #1
	ldr	r1, .L63+28
	ldr	r0, .L63+4
.LVL101:
	bl	trace_log_buffer
.LVL102:
.LBE57:
	.loc 1 349 0
	ldr	r3, [r5]
	ldr	r0, .L63+32
	ldr	r1, [r3]
	bl	__wrap_printf
.LVL103:
	.loc 1 350 0
	ldr	r3, [r5]
	ldrb	r3, [r3, #4]	@ zero_extendqisi2
	cbz	r3, .L49
.LBB58:
	.loc 1 352 0
	movs	r2, #0
	ldr	r1, .L63+36
	ldr	r0, .L63+4
	bl	trace_log_buffer
.LVL104:
.L49:
.LBE58:
	.loc 1 355 0
	mov	r0, r5
	bl	epb_unpack_auth_response_free
.LVL105:
	.loc 1 356 0
	ldr	r3, [r5]
.LVL106:
.L62:
.LBE52:
.LBB59:
	.loc 1 387 0
	ldr	r0, [r3]
	pop	{r3, r4, r5, pc}
.LVL107:
.L46:
.LBB60:
	.loc 1 363 0
	movs	r2, #0
	ldr	r1, .L63+40
.LVL108:
	ldr	r0, .L63+4
.LVL109:
	bl	trace_log_buffer
.LVL110:
.LBE60:
	.loc 1 364 0
	ldr	r0, .L63+44
	bl	__wrap_printf
.LVL111:
	.loc 1 365 0
	add	r0, r4, #8
	sub	r1, r5, #8
	bl	epb_unpack_init_response
.LVL112:
	.loc 1 366 0
	mov	r4, r0
.LVL113:
	cbnz	r0, .L50
	.loc 1 368 0
	bl	epb_unpack_init_response_free
.LVL114:
	.loc 1 369 0
	movw	r0, #39313
	pop	{r3, r4, r5, pc}
.LVL115:
.L50:
	.loc 1 371 0
	ldr	r3, [r0]
	cbz	r3, .L51
	.loc 1 373 0
	ldr	r3, [r3]
	cbnz	r3, .L52
.LBB61:
	.loc 1 375 0
	mov	r2, r3
	ldr	r1, .L63+48
	ldr	r0, .L63+4
.LVL116:
	bl	trace_log_buffer
.LVL117:
.LBE61:
	.loc 1 376 0
	ldr	r0, .L63+52
	bl	__wrap_printf
.LVL118:
.LBB62:
.LBB63:
	.loc 1 514 0
	bl	airsync_wristband_request
.LVL119:
.L51:
.LBE63:
.LBE62:
	.loc 1 390 0
	mov	r0, r4
	bl	epb_unpack_init_response_free
.LVL120:
	b	.L54
.LVL121:
.L52:
.LBB64:
	.loc 1 384 0
	movs	r2, #1
	ldr	r1, .L63+56
	ldr	r0, .L63+4
.LVL122:
	bl	trace_log_buffer
.LVL123:
.LBE64:
	.loc 1 385 0
	ldr	r3, [r4]
	ldr	r0, .L63+60
	ldr	r1, [r3]
	bl	__wrap_printf
.LVL124:
	.loc 1 386 0
	mov	r0, r4
	bl	epb_unpack_init_response_free
.LVL125:
	.loc 1 387 0
	ldr	r3, [r4]
	b	.L62
.LVL126:
.L43:
.LBE59:
.LBB65:
.LBB66:
	.loc 1 395 0
	movs	r2, #0
	ldr	r1, .L63+64
.LVL127:
	ldr	r0, .L63+4
.LVL128:
	bl	trace_log_buffer
.LVL129:
.LBE66:
	.loc 1 400 0
	sub	r1, r5, #8
	add	r0, r4, #8
	bl	epb_unpack_send_data_response
.LVL130:
	.loc 1 401 0
	bl	epb_unpack_send_data_response_free
.LVL131:
	b	.L54
.LVL132:
.L53:
.LBE65:
.LBB67:
.LBB51:
	.loc 1 420 0
	ldr	r3, [r0, #8]
	movs	r2, #1
	ldr	r1, .L63+68
	ldr	r0, .L63+4
.LVL133:
	bl	trace_log_buffer
.LVL134:
.LBE51:
	.loc 1 431 0
	mov	r0, r4
	bl	epb_unpack_recv_data_push_free
.LVL135:
	b	.L54
.LVL136:
.L55:
.LBE67:
.LBB68:
	.loc 1 336 0
	movw	r0, #39312
.LVL137:
.LBE68:
	.loc 1 450 0
	pop	{r3, r4, r5, pc}
.LVL138:
.L64:
	.align	2
.L63:
	.word	.LANCHOR1+576
	.word	1058025474
	.word	.LANCHOR1+600
	.word	.LANCHOR1+296
	.word	.LC4
	.word	.LANCHOR1+328
	.word	.LC5
	.word	.LANCHOR1+364
	.word	.LC6
	.word	.LANCHOR1+404
	.word	.LANCHOR1+444
	.word	.LC7
	.word	.LANCHOR1+476
	.word	.LC8
	.word	.LANCHOR1+512
	.word	.LC9
	.word	.LANCHOR1+552
	.word	.LANCHOR1+636
	.cfi_endproc
.LFE20:
	.size	airsync_receive_data_handle, .-airsync_receive_data_handle
	.section	.text.airsync_receive_data,"ax",%progbits
	.align	1
	.global	airsync_receive_data
	.syntax unified
	.thumb
	.thumb_func
	.fpu softvfp
	.type	airsync_receive_data, %function
airsync_receive_data:
.LFB21:
	.loc 1 453 0
	.cfi_startproc
	@ args = 0, pretend = 0, frame = 0
	@ frame_needed = 0, uses_anonymous_args = 0
.LVL139:
	push	{r4, r5, r6, lr}
	.cfi_def_cfa_offset 16
	.cfi_offset 4, -16
	.cfi_offset 5, -12
	.cfi_offset 6, -8
	.cfi_offset 14, -4
	.loc 1 461 0
	ldr	r4, .L70
	.loc 1 453 0
	mov	r6, r1
	.loc 1 461 0
	ldrb	r3, [r4, #8]	@ zero_extendqisi2
	cbnz	r3, .L66
	.loc 1 463 0
	ldrb	r3, [r0]	@ zero_extendqisi2
	ldr	r2, .L70+4
	cmp	r3, #254
	bne	.L67
	.loc 1 463 0 is_stmt 0 discriminator 1
	ldrb	r3, [r0, #1]	@ zero_extendqisi2
	cmp	r3, #1
	bne	.L67
	.loc 1 466 0 is_stmt 1
	strb	r3, [r4, #8]
	.loc 1 467 0
	ldrb	r1, [r0, #2]	@ zero_extendqisi2
.LVL140:
	ldrb	r3, [r0, #3]	@ zero_extendqisi2
	.loc 1 468 0
	str	r2, [r4, #4]
	.loc 1 467 0
	orr	r3, r3, r1, lsl #8
	strh	r3, [r4]	@ movhi
.L66:
	.loc 1 479 0
	ldr	r3, [r4, #4]
	mov	r1, r0
	mov	r2, r6
	mov	r0, r3
.LVL141:
	bl	memcpy
.LVL142:
	mov	r3, r0
	.loc 1 480 0
	ldrh	r5, [r4]
	.loc 1 481 0
	add	r3, r3, r6
	.loc 1 480 0
	subs	r5, r5, r6
	uxth	r5, r5
	strh	r5, [r4]	@ movhi
	.loc 1 481 0
	str	r3, [r4, #4]
	.loc 1 482 0
	cbnz	r5, .L69
.LVL143:
.LBB69:
	.loc 1 485 0
	ldr	r6, .L70+4
	ldrb	r1, [r6, #2]	@ zero_extendqisi2
	ldrb	r3, [r6, #3]	@ zero_extendqisi2
	.loc 1 486 0
	mov	r0, r6
	orr	r1, r3, r1, lsl #8
	bl	airsync_receive_data_handle
.LVL144:
	.loc 1 487 0
	strb	r5, [r4, #8]
	.loc 1 488 0
	strh	r5, [r4]	@ movhi
	.loc 1 489 0
	str	r6, [r4, #4]
.LBE69:
	pop	{r4, r5, r6, pc}
.LVL145:
.L67:
	.loc 1 474 0
	movs	r3, #0
	.loc 1 475 0
	str	r2, [r4, #4]
	.loc 1 474 0
	strh	r3, [r4]	@ movhi
	.loc 1 476 0
	pop	{r4, r5, r6, pc}
.LVL146:
.L69:
.LBB70:
	.loc 1 493 0
	mov	r3, r5
.LBE70:
	.loc 1 507 0
	pop	{r4, r5, r6, lr}
	.cfi_restore 14
	.cfi_restore 6
	.cfi_restore 5
	.cfi_restore 4
	.cfi_def_cfa_offset 0
.LBB71:
	.loc 1 493 0
	movs	r2, #1
	ldr	r1, .L70+8
	ldr	r0, .L70+12
	b	trace_log_buffer
.LVL147:
.L71:
	.align	2
.L70:
	.word	.LANCHOR5
	.word	.LANCHOR6
	.word	.LANCHOR1+660
	.word	1058025474
.LBE71:
	.cfi_endproc
.LFE21:
	.size	airsync_receive_data, .-airsync_receive_data
	.section	.text.airsync_send_data_event,"ax",%progbits
	.align	1
	.global	airsync_send_data_event
	.syntax unified
	.thumb
	.thumb_func
	.fpu softvfp
	.type	airsync_send_data_event, %function
airsync_send_data_event:
.LFB22:
	.loc 1 509 0
	.cfi_startproc
	@ args = 0, pretend = 0, frame = 0
	@ frame_needed = 0, uses_anonymous_args = 0
	@ link register save eliminated.
.LVL148:
	.loc 1 510 0
	cmp	r0, #1
	beq	.L74
	bcc	.L75
	cmp	r0, #2
	beq	.L76
	bx	lr
.L75:
	.loc 1 514 0
	b	airsync_wristband_request
.LVL149:
.L74:
	.loc 1 519 0
	b	airsync_auth_request
.LVL150:
.L76:
	.loc 1 524 0
	b	airsync_init_request
.LVL151:
	.cfi_endproc
.LFE22:
	.size	airsync_send_data_event, .-airsync_send_data_event
	.section	.BTTRACE,"a",%progbits
	.align	2
	.set	.LANCHOR1,. + 0
	.type	format.7657, %object
	.size	format.7657, 27
format.7657:
	.ascii	"!**airsync send length: %d\000"
	.space	1
	.type	format.7661, %object
	.size	format.7661, 27
format.7661:
	.ascii	"!**Airsync Auth request...\000"
	.space	1
	.type	format.7675, %object
	.size	format.7675, 27
format.7675:
	.ascii	"!**Airsync Init request...\000"
	.space	1
	.type	format.7684, %object
	.size	format.7684, 32
format.7684:
	.ascii	"!**AirSync_Wristband request...\000"
	.type	format.7692, %object
	.size	format.7692, 46
format.7692:
	.ascii	"!**epb_mmopen_pack_wristband_request len = %d\000"
	.space	2
	.type	format.7695, %object
	.size	format.7695, 49
format.7695:
	.ascii	"!**epb_send_data_request_pack_size data_len = %d\000"
	.space	3
	.type	format.7700, %object
	.size	format.7700, 26
format.7700:
	.ascii	"!**Airsync Senddata >>>>>\000"
	.space	2
	.type	format.7705, %object
	.size	format.7705, 49
format.7705:
	.ascii	"!**epb_send_data_request_pack_size data_len = %d\000"
	.space	3
	.type	format.7714, %object
	.size	format.7714, 31
format.7714:
	.ascii	"!**Airsync Auth Response <<<<<\000"
	.space	1
	.type	format.7716, %object
	.size	format.7716, 34
format.7716:
	.ascii	"!**Airsync Auth Successfull <<<<<\000"
	.space	2
	.type	format.7717, %object
	.size	format.7717, 39
format.7717:
	.ascii	"!**Airsync Auth failed, error code: %d\000"
	.space	1
	.type	format.7718, %object
	.size	format.7718, 38
format.7718:
	.ascii	"!**Airsync Auth failed, error message\000"
	.space	2
	.type	format.7720, %object
	.size	format.7720, 31
format.7720:
	.ascii	"!**Airsync Init Response <<<<<\000"
	.space	1
	.type	format.7722, %object
	.size	format.7722, 34
format.7722:
	.ascii	"!**Airsync Init Successfull <<<<<\000"
	.space	2
	.type	format.7723, %object
	.size	format.7723, 39
format.7723:
	.ascii	"!**Airsync Init failed, error code: %d\000"
	.space	1
	.type	format.7725, %object
	.size	format.7725, 22
format.7725:
	.ascii	"!**SendDataResp <<<<<\000"
	.space	2
	.type	format.7728, %object
	.size	format.7728, 23
format.7728:
	.ascii	"!**Push_RecvData <<<<<\000"
	.space	1
	.type	format.7730, %object
	.size	format.7730, 34
format.7730:
	.ascii	"!**ECI_push_recvData unpack Fail!\000"
	.space	2
	.type	format.7731, %object
	.size	format.7731, 23
format.7731:
	.ascii	"!**payload length = %d\000"
	.space	1
	.type	format.7741, %object
	.size	format.7741, 50
format.7741:
	.ascii	"!** more data for AirSync ReceiveData length = %d\000"
	.space	2
	.type	format.7742, %object
	.size	format.7742, 39
format.7742:
	.ascii	"!** error data for AirSync ReceiveData\000"
	.section	.bss.gAirSyncReceiveContent,"aw",%nobits
	.align	2
	.set	.LANCHOR5,. + 0
	.type	gAirSyncReceiveContent, %object
	.size	gAirSyncReceiveContent, 12
gAirSyncReceiveContent:
	.space	12
	.section	.bss.gAirSyncRevBuf,"aw",%nobits
	.set	.LANCHOR6,. + 0
	.type	gAirSyncRevBuf, %object
	.size	gAirSyncRevBuf, 255
gAirSyncRevBuf:
	.space	255
	.section	.bss.gAirSyncSendBuf,"aw",%nobits
	.type	gAirSyncSendBuf, %object
	.size	gAirSyncSendBuf, 4095
gAirSyncSendBuf:
	.space	4095
	.section	.bss.gAirSyncSendContent,"aw",%nobits
	.align	2
	.set	.LANCHOR0,. + 0
	.type	gAirSyncSendContent, %object
	.size	gAirSyncSendContent, 12
gAirSyncSendContent:
	.space	12
	.section	.data.airsync_sequence_id,"aw",%progbits
	.align	2
	.set	.LANCHOR2,. + 0
	.type	airsync_sequence_id, %object
	.size	airsync_sequence_id, 4
airsync_sequence_id:
	.word	1
	.section	.data.challeange.7676,"aw",%progbits
	.set	.LANCHOR3,. + 0
	.type	challeange.7676, %object
	.size	challeange.7676, 4
challeange.7676:
	.byte	17
	.byte	34
	.byte	51
	.byte	68
	.section	.rodata.__func__.7688,"a",%progbits
	.set	.LANCHOR4,. + 0
	.type	__func__.7688, %object
	.size	__func__.7688, 26
__func__.7688:
	.ascii	"airsync_wristband_request\000"
	.section	.rodata.airsync_auth_request.str1.1,"aMS",%progbits,1
.LC0:
	.ascii	"Airsync Auth request...\015\012\000"
.LC1:
	.ascii	"WeChat08\000"
	.section	.rodata.airsync_init_request.str1.1,"aMS",%progbits,1
.LC2:
	.ascii	"Airsync Init request...\015\012\000"
	.section	.rodata.airsync_receive_data_handle.str1.1,"aMS",%progbits,1
.LC4:
	.ascii	"Airsync Auth Response <<<<<\015\012\000"
.LC5:
	.ascii	"Airsync Auth Successfull <<<<<\015\012\000"
.LC6:
	.ascii	"Airsync Auth failed, error code: %d\015\012\000"
.LC7:
	.ascii	"Airsync Init Response <<<<<\015\012\000"
.LC8:
	.ascii	"Airsync Init Successfull <<<<<\015\012\000"
.LC9:
	.ascii	"Airsync Init failed, error code: %d\015\012\000"
	.section	.rodata.airsync_wristband_request.str1.1,"aMS",%progbits,1
.LC3:
	.ascii	"AirSync_Wristband request...\015\012\000"
	.text
.Letext0:
	.file 2 "/home/ls/8720cf/sdk-ameba-v7.1d/tools/arm-none-eabi-gcc/asdk/linux/newlib/arm-none-eabi/include/machine/_default_types.h"
	.file 3 "/home/ls/8720cf/sdk-ameba-v7.1d/tools/arm-none-eabi-gcc/asdk/linux/newlib/arm-none-eabi/include/sys/lock.h"
	.file 4 "/home/ls/8720cf/sdk-ameba-v7.1d/tools/arm-none-eabi-gcc/asdk/linux/newlib/arm-none-eabi/include/sys/_types.h"
	.file 5 "/home/ls/8720cf/sdk-ameba-v7.1d/tools/arm-none-eabi-gcc/asdk/linux/newlib/lib/gcc/arm-none-eabi/6.5.0/include/stddef.h"
	.file 6 "/home/ls/8720cf/sdk-ameba-v7.1d/tools/arm-none-eabi-gcc/asdk/linux/newlib/arm-none-eabi/include/sys/reent.h"
	.file 7 "/home/ls/8720cf/sdk-ameba-v7.1d/tools/arm-none-eabi-gcc/asdk/linux/newlib/arm-none-eabi/include/sys/_stdint.h"
	.file 8 "/home/ls/8720cf/sdk-ameba-v7.1d/tools/arm-none-eabi-gcc/asdk/linux/newlib/arm-none-eabi/include/time.h"
	.file 9 "../../../component/common/application/airsync/1.0.4/epb.h"
	.file 10 "../../../component/common/application/airsync/1.0.4/epb_MmBp.h"
	.file 11 "../../../component/common/application/airsync/1.0.4/wechat_airsync_protocol.h"
	.file 12 "../../../component/common/bluetooth/realtek/sdk/inc/bluetooth/gap/gap.h"
	.file 13 "../../../component/common/bluetooth/realtek/sdk/inc/bluetooth/gap/gap_storage_le.h"
	.file 14 "../../../component/common/bluetooth/realtek/sdk/inc/bluetooth/profile/profile_server.h"
	.file 15 "../../../component/common/bluetooth/realtek/sdk/inc/platform/trace.h"
	.file 16 "../../../component/common/application/airsync/1.0.4/epb_WristBand.h"
	.file 17 "/home/ls/8720cf/sdk-ameba-v7.1d/tools/arm-none-eabi-gcc/asdk/linux/newlib/arm-none-eabi/include/stdlib.h"
	.file 18 "../../../component/common/bluetooth/realtek/sdk/inc/platform/mem_types.h"
	.file 19 "../../../component/common/api/platform/platform_stdlib_rtl8710c.h"
	.file 20 "../../../component/common/application/airsync/1.0.4/check_endian.h"
	.file 21 "../../../component/common/bluetooth/realtek/sdk/inc/os/os_mem.h"