	.arch armv8-m.main
	.arch_extension dsp
	.eabi_attribute 20, 1
	.eabi_attribute 21, 1
	.eabi_attribute 23, 3
	.eabi_attribute 24, 1
	.eabi_attribute 25, 1
	.eabi_attribute 26, 1
	.eabi_attribute 30, 4
	.eabi_attribute 34, 1
	.eabi_attribute 18, 4
	.file	"x509.c"
	.text
.Ltext0:
	.cfi_sections	.debug_frame
	.section	.text.x509_parse_int,"ax",%progbits
	.align	1
	.syntax unified
	.thumb
	.thumb_func
	.fpu softvfp
	.type	x509_parse_int, %function
x509_parse_int:
.LFB15:
	.file 1 "../../../component/common/network/ssl/mbedtls-2.4.0/library/x509.c"
	.loc 1 483 0
	.cfi_startproc
	@ args = 0, pretend = 0, frame = 0
	@ frame_needed = 0, uses_anonymous_args = 0
.LVL0:
	.loc 1 484 0
	movs	r3, #0
	.loc 1 483 0
	push	{r4, r5, r6, lr}
	.cfi_def_cfa_offset 16
	.cfi_offset 4, -16
	.cfi_offset 5, -12
	.cfi_offset 6, -8
	.cfi_offset 14, -4
	.loc 1 487 0
	movs	r6, #10
	.loc 1 484 0
	str	r3, [r2]
.L2:
	.loc 1 485 0 discriminator 1
	cbnz	r1, .L4
	.loc 1 490 0
	mov	r0, r1
.LVL1:
	pop	{r4, r5, r6, pc}
.LVL2:
.L4:
	.loc 1 486 0
	ldr	r5, [r0]
	ldrb	r3, [r5]	@ zero_extendqisi2
	subs	r3, r3, #48
	cmp	r3, #9
	bhi	.L5
	.loc 1 487 0
	ldr	r3, [r2]
	.loc 1 485 0
	subs	r1, r1, #1
.LVL3:
	.loc 1 487 0
	mul	r4, r6, r3
	.loc 1 488 0
	adds	r3, r5, #1
	.loc 1 487 0
	str	r4, [r2]
	.loc 1 488 0
	str	r3, [r0]
	ldrb	r3, [r5]	@ zero_extendqisi2
	subs	r3, r3, #48
	add	r3, r3, r4
	str	r3, [r2]
	b	.L2
.L5:
	.loc 1 486 0
	ldr	r0, .L6
.LVL4:
	.loc 1 491 0
	pop	{r4, r5, r6, pc}
.L7:
	.align	2
.L6:
	.word	-9216
	.cfi_endproc
.LFE15:
	.size	x509_parse_int, .-x509_parse_int
	.section	.text.x509_date_is_valid,"ax",%progbits
	.align	1
	.syntax unified
	.thumb
	.thumb_func
	.fpu softvfp
	.type	x509_date_is_valid, %function
x509_date_is_valid:
.LFB16:
	.loc 1 494 0
	.cfi_startproc
	@ args = 0, pretend = 0, frame = 0
	@ frame_needed = 0, uses_anonymous_args = 0
	@ link register save eliminated.
.LVL5:
	.loc 1 497 0
	movw	r3, #9999
	ldr	r2, [r0]
	cmp	r2, r3
	bhi	.L21
	.loc 1 498 0
	ldr	r3, [r0, #12]
	cmp	r3, #23
	bhi	.L21
	.loc 1 499 0
	ldr	r3, [r0, #16]
	cmp	r3, #59
	bhi	.L21
	.loc 1 500 0
	ldr	r3, [r0, #20]
	cmp	r3, #59
	bhi	.L21
	ldr	r1, [r0, #4]
	cmp	r1, #12
	bhi	.L21
	movs	r3, #1
	lsls	r3, r3, r1
	movw	r1, #5546
	tst	r3, r1
	bne	.L10
	tst	r3, #2640
	bne	.L11
	lsls	r3, r3, #29
	bmi	.L12
.L21:
	.loc 1 497 0
	ldr	r0, .L25
.LVL6:
	.loc 1 518 0
	bx	lr
.LVL7:
.L10:
	.loc 1 505 0
	ldr	r3, [r0, #8]
	subs	r3, r3, #1
	.loc 1 497 0
	cmp	r3, #31
.L24:
	ldr	r0, .L25
.LVL8:
	it	cc
	movcc	r0, #0
	bx	lr
.LVL9:
.L11:
	.loc 1 508 0
	ldr	r3, [r0, #8]
	subs	r3, r3, #1
	.loc 1 497 0
	cmp	r3, #30
	b	.L24
.L12:
	.loc 1 511 0
	ldr	r3, [r0, #8]
	cmp	r3, #0
	ble	.L21
	.loc 1 511 0 is_stmt 0 discriminator 2
	tst	r2, #3
	ite	eq
	moveq	r2, #29
	movne	r2, #28
	.loc 1 497 0 is_stmt 1 discriminator 2
	ldr	r0, .L25
.LVL10:
	cmp	r2, r3
	it	ge
	movge	r0, #0
	bx	lr
.L26:
	.align	2
.L25:
	.word	-9216
	.cfi_endproc
.LFE16:
	.size	x509_date_is_valid, .-x509_date_is_valid
	.section	.text.mbedtls_x509_get_serial,"ax",%progbits
	.align	1
	.global	mbedtls_x509_get_serial
	.syntax unified
	.thumb
	.thumb_func
	.fpu softvfp
	.type	mbedtls_x509_get_serial, %function
mbedtls_x509_get_serial:
.LFB10:
	.loc 1 90 0
	.cfi_startproc
	@ args = 0, pretend = 0, frame = 0
	@ frame_needed = 0, uses_anonymous_args = 0
.LVL11:
	push	{r3, r4, r5, lr}
	.cfi_def_cfa_offset 16
	.cfi_offset 3, -16
	.cfi_offset 4, -12
	.cfi_offset 5, -8
	.cfi_offset 14, -4
	.loc 1 93 0
	ldr	r3, [r0]
	.loc 1 90 0
	mov	r5, r2
	.loc 1 93 0
	subs	r2, r1, r3
.LVL12:
	cmp	r2, #0
	.loc 1 90 0
	mov	r4, r0
	.loc 1 93 0
	ble	.L30
	.loc 1 97 0
	ldrb	r2, [r3]	@ zero_extendqisi2
	and	r2, r2, #127
	cmp	r2, #2
	bne	.L31
	.loc 1 102 0
	adds	r2, r3, #1
	str	r2, [r0]
	mov	r2, r5
	ldrb	r3, [r3]	@ zero_extendqisi2
	str	r3, [r2], #4
	.loc 1 104 0
	bl	mbedtls_asn1_get_len
.LVL13:
	cbz	r0, .L29
	.loc 1 105 0
	sub	r0, r0, #8832
.LVL14:
	pop	{r3, r4, r5, pc}
.LVL15:
.L29:
	.loc 1 107 0
	ldr	r3, [r4]
	.loc 1 108 0
	ldr	r2, [r5, #4]
	.loc 1 107 0
	str	r3, [r5, #8]
	.loc 1 108 0
	ldr	r3, [r4]
	add	r3, r3, r2
	str	r3, [r4]
	.loc 1 110 0
	pop	{r3, r4, r5, pc}
.LVL16:
.L30:
	.loc 1 94 0
	ldr	r0, .L32
.LVL17:
	pop	{r3, r4, r5, pc}
.LVL18:
.L31:
	.loc 1 99 0
	ldr	r0, .L32+4
.LVL19:
	.loc 1 111 0
	pop	{r3, r4, r5, pc}
.LVL20:
.L33:
	.align	2
.L32:
	.word	-8928
	.word	-8930
	.cfi_endproc
.LFE10:
	.size	mbedtls_x509_get_serial, .-mbedtls_x509_get_serial
	.section	.text.mbedtls_x509_get_alg_null,"ax",%progbits
	.align	1
	.global	mbedtls_x509_get_alg_null
	.syntax unified
	.thumb
	.thumb_func
	.fpu softvfp
	.type	mbedtls_x509_get_alg_null, %function
mbedtls_x509_get_alg_null:
.LFB11:
	.loc 1 121 0
	.cfi_startproc
	@ args = 0, pretend = 0, frame = 0
	@ frame_needed = 0, uses_anonymous_args = 0
.LVL21:
	push	{r3, lr}
	.cfi_def_cfa_offset 8
	.cfi_offset 3, -8
	.cfi_offset 14, -4
	.loc 1 124 0
	bl	mbedtls_asn1_get_alg_null
.LVL22:
	cbz	r0, .L34
	.loc 1 125 0
	sub	r0, r0, #8960
.LVL23:
.L34:
	.loc 1 128 0
	pop	{r3, pc}
	.cfi_endproc
.LFE11:
	.size	mbedtls_x509_get_alg_null, .-mbedtls_x509_get_alg_null
	.section	.text.mbedtls_x509_get_alg,"ax",%progbits
	.align	1
	.global	mbedtls_x509_get_alg
	.syntax unified
	.thumb
	.thumb_func
	.fpu softvfp
	.type	mbedtls_x509_get_alg, %function
mbedtls_x509_get_alg:
.LFB12:
	.loc 1 135 0
	.cfi_startproc
	@ args = 0, pretend = 0, frame = 0
	@ frame_needed = 0, uses_anonymous_args = 0
.LVL24:
	push	{r3, lr}
	.cfi_def_cfa_offset 8
	.cfi_offset 3, -8
	.cfi_offset 14, -4
	.loc 1 138 0
	bl	mbedtls_asn1_get_alg
.LVL25:
	cbz	r0, .L39
	.loc 1 139 0
	sub	r0, r0, #8960
.LVL26:
.L39:
	.loc 1 142 0
	pop	{r3, pc}
	.cfi_endproc
.LFE12:
	.size	mbedtls_x509_get_alg, .-mbedtls_x509_get_alg
	.section	.text.mbedtls_x509_get_name,"ax",%progbits
	.align	1
	.global	mbedtls_x509_get_name
	.syntax unified
	.thumb
	.thumb_func
	.fpu softvfp
	.type	mbedtls_x509_get_name, %function
mbedtls_x509_get_name:
.LFB14:
	.loc 1 432 0
	.cfi_startproc
	@ args = 0, pretend = 0, frame = 8
	@ frame_needed = 0, uses_anonymous_args = 0
.LVL27:
	push	{r0, r1, r2, r4, r5, r6, r7, r8, r9, lr}
	.cfi_def_cfa_offset 40
	.cfi_offset 4, -28
	.cfi_offset 5, -24
	.cfi_offset 6, -20
	.cfi_offset 7, -16
	.cfi_offset 8, -12
	.cfi_offset 9, -8
	.cfi_offset 14, -4
	.loc 1 432 0
	mov	r5, r0
	mov	r8, r1
	mov	r4, r2
.LBB4:
.LBB5:
	.loc 1 388 0
	ldr	r9, .L67+16
.LBE5:
.LBE4:
	.loc 1 460 0
	ldr	r7, .L67
.LVL28:
.L57:
	.loc 1 443 0
	movs	r3, #49
	mov	r2, sp
	mov	r1, r8
	mov	r0, r5
	bl	mbedtls_asn1_get_tag
.LVL29:
	cbz	r0, .L45
	.loc 1 445 0
	sub	r0, r0, #9088
.LVL30:
.L44:
	.loc 1 481 0
	add	sp, sp, #12
	.cfi_remember_state
	.cfi_def_cfa_offset 28
	@ sp needed
	pop	{r4, r5, r6, r7, r8, r9, pc}
.LVL31:
.L45:
	.cfi_restore_state
	.loc 1 447 0
	ldr	r6, [r5]
	ldr	r3, [sp]
	add	r6, r6, r3
.LVL32:
.L55:
.LBB9:
.LBB6:
	.loc 1 365 0
	movs	r3, #48
	add	r2, sp, #4
	mov	r1, r6
	mov	r0, r5
	bl	mbedtls_asn1_get_tag
.LVL33:
	cbz	r0, .L47
.L66:
	.loc 1 397 0
	sub	r0, r0, #9088
.LVL34:
.LBE6:
.LBE9:
	.loc 1 451 0
	cmp	r0, #0
	bne	.L44
.L53:
	.loc 1 454 0
	ldr	r3, [r5]
	cmp	r6, r3
	beq	.L54
	.loc 1 458 0
	movs	r0, #1
	.loc 1 460 0
	ldr	r3, [r7]
	.loc 1 458 0
	strb	r0, [r4, #28]
	.loc 1 460 0
	movs	r1, #32
	blx	r3
.LVL35:
	str	r0, [r4, #24]
	.loc 1 462 0
	mov	r4, r0
.LVL36:
	cmp	r0, #0
	bne	.L55
.L56:
	.loc 1 463 0
	ldr	r0, .L67+4
	b	.L44
.LVL37:
.L47:
.LBB10:
.LBB7:
	.loc 1 369 0
	ldr	r3, [r5]
	subs	r2, r6, r3
	cmp	r2, #0
	ble	.L49
.LVL38:
	.loc 1 374 0
	mov	r2, r4
	ldrb	r3, [r3]	@ zero_extendqisi2
	.loc 1 376 0
	mov	r1, r6
	.loc 1 374 0
	str	r3, [r2], #4
	.loc 1 376 0
	mov	r0, r5
.LVL39:
	movs	r3, #6
	bl	mbedtls_asn1_get_tag
.LVL40:
	cmp	r0, #0
	bne	.L66
	.loc 1 379 0
	ldr	r3, [r5]
	.loc 1 380 0
	ldr	r1, [r4, #4]
	.loc 1 379 0
	str	r3, [r4, #8]
	.loc 1 380 0
	ldr	r0, [r5]
.LVL41:
	adds	r3, r0, r1
	.loc 1 382 0
	subs	r2, r6, r3
	cmp	r2, #0
	.loc 1 380 0
	str	r3, [r5]
	.loc 1 382 0
	ble	.L49
	.loc 1 386 0
	ldrb	r2, [r0, r1]	@ zero_extendqisi2
	.loc 1 388 0
	cmp	r2, #30
	bhi	.L59
	lsr	r2, r9, r2
	lsls	r2, r2, #31
	bpl	.L59
.LVL42:
	.loc 1 394 0
	adds	r3, r3, #1
	str	r3, [r5]
	ldrb	r3, [r0, r1]	@ zero_extendqisi2
	.loc 1 396 0
	add	r2, r4, #16
	.loc 1 394 0
	str	r3, [r4, #12]
	.loc 1 396 0
	mov	r1, r6
	mov	r0, r5
	bl	mbedtls_asn1_get_len
.LVL43:
	cmp	r0, #0
	bne	.L66
	.loc 1 399 0
	ldr	r3, [r5]
	.loc 1 400 0
	ldr	r2, [r4, #16]
	.loc 1 399 0
	str	r3, [r4, #20]
	.loc 1 400 0
	ldr	r3, [r5]
	add	r3, r3, r2
	str	r3, [r5]
	.loc 1 402 0
	str	r0, [r4, #24]
.LVL44:
	b	.L53
.LVL45:
.L54:
.LBE7:
.LBE10:
	.loc 1 471 0
	cmp	r8, r6
	beq	.L60
	.loc 1 474 0
	ldr	r3, [r7]
	movs	r1, #32
	movs	r0, #1
	blx	r3
.LVL46:
	str	r0, [r4, #24]
	.loc 1 476 0
	mov	r4, r0
.LVL47:
	cmp	r0, #0
	bne	.L57
	b	.L56
.LVL48:
.L60:
	.loc 1 472 0
	movs	r0, #0
	b	.L44
.LVL49:
.L49:
.LBB11:
.LBB8:
	.loc 1 370 0
	ldr	r0, .L67+8
	b	.L44
.LVL50:
.L59:
	.loc 1 390 0
	ldr	r0, .L67+12
.LVL51:
	b	.L44
.L68:
	.align	2
.L67:
	.word	mbedtls_calloc
	.word	-10368
	.word	-9184
	.word	-9186
	.word	1347948552
.LBE8:
.LBE11:
	.cfi_endproc
.LFE14:
	.size	mbedtls_x509_get_name, .-mbedtls_x509_get_name
	.section	.text.mbedtls_x509_get_time,"ax",%progbits
	.align	1
	.global	mbedtls_x509_get_time
	.syntax unified
	.thumb
	.thumb_func
	.fpu softvfp
	.type	mbedtls_x509_get_time, %function
mbedtls_x509_get_time:
.LFB17:
	.loc 1 527 0
	.cfi_startproc
	@ args = 0, pretend = 0, frame = 8
	@ frame_needed = 0, uses_anonymous_args = 0
.LVL52:
	.loc 1 532 0
	ldr	r3, [r0]
	.loc 1 527 0
	push	{r0, r1, r4, r5, r6, lr}
	.cfi_def_cfa_offset 24
	.cfi_offset 4, -16
	.cfi_offset 5, -12
	.cfi_offset 6, -8
	.cfi_offset 14, -4
	.loc 1 527 0
	mov	r6, r2
	.loc 1 532 0
	subs	r2, r1, r3
.LVL53:
	cmp	r2, #0
	.loc 1 527 0
	mov	r5, r0
	.loc 1 532 0
	ble	.L85
	.loc 1 536 0
	ldrb	r2, [r3]	@ zero_extendqisi2
.LVL54:
	.loc 1 538 0
	cmp	r2, #23
	bne	.L71
	.loc 1 540 0
	adds	r3, r3, #1
	str	r3, [r0]
	.loc 1 541 0
	add	r2, sp, #4
.LVL55:
	bl	mbedtls_asn1_get_len
.LVL56:
	.loc 1 543 0
	cbz	r0, .L72
.L92:
	.loc 1 569 0
	sub	r4, r0, #9216
	b	.L69
.L72:
	.loc 1 546 0
	mov	r2, r6
	movs	r1, #2
	mov	r0, r5
.LVL57:
	bl	x509_parse_int
.LVL58:
	mov	r4, r0
	cmp	r0, #0
	bne	.L69
.LVL59:
	.loc 1 547 0
	adds	r2, r6, #4
.LVL60:
	movs	r1, #2
	mov	r0, r5
.LVL61:
	bl	x509_parse_int
.LVL62:
	mov	r4, r0
	cmp	r0, #0
	bne	.L69
	.loc 1 548 0
	add	r2, r6, #8
	movs	r1, #2
	mov	r0, r5
.LVL63:
	bl	x509_parse_int
.LVL64:
	mov	r4, r0
	cbnz	r0, .L69
	.loc 1 549 0
	add	r2, r6, #12
	movs	r1, #2
	mov	r0, r5
.LVL65:
	bl	x509_parse_int
.LVL66:
	mov	r4, r0
	cbnz	r0, .L69
	.loc 1 550 0
	add	r2, r6, #16
	movs	r1, #2
	mov	r0, r5
.LVL67:
	bl	x509_parse_int
.LVL68:
	mov	r4, r0
	cbnz	r0, .L69
	.loc 1 551 0
	ldr	r3, [sp, #4]
	cmp	r3, #10
	bhi	.L73
.L76:
	.loc 1 553 0
	ldr	r3, [sp, #4]
	cmp	r3, #12
	bhi	.L74
.L75:
	.loc 1 556 0
	ldr	r0, [r6]
.LVL69:
	cmp	r0, #49
	it	le
	movle	r4, #100
	add	r0, r0, r4
	.loc 1 557 0
	addw	r0, r0, #1900
	str	r0, [r6]
.L82:
	.loc 1 581 0
	mov	r0, r6
	bl	x509_date_is_valid
.LVL70:
	b	.L86
.LVL71:
.L73:
	.loc 1 552 0
	add	r2, r6, #20
	movs	r1, #2
	mov	r0, r5
.LVL72:
	bl	x509_parse_int
.LVL73:
	cmp	r0, #0
	beq	.L76
.LVL74:
.L86:
	mov	r4, r0
	b	.L69
.LVL75:
.L74:
	.loc 1 553 0 discriminator 1
	ldr	r3, [r5]
	adds	r2, r3, #1
	str	r2, [r5]
	ldrb	r3, [r3]	@ zero_extendqisi2
	cmp	r3, #90
	beq	.L75
.L84:
	.loc 1 554 0
	ldr	r4, .L93
.LVL76:
.L69:
	.loc 1 588 0
	mov	r0, r4
	add	sp, sp, #8
	.cfi_remember_state
	.cfi_def_cfa_offset 16
	@ sp needed
	pop	{r4, r5, r6, pc}
.LVL77:
.L71:
	.cfi_restore_state
	.loc 1 563 0
	cmp	r2, #24
	bne	.L88
	.loc 1 565 0
	adds	r3, r3, #1
	str	r3, [r0]
	.loc 1 566 0
	add	r2, sp, #4
.LVL78:
	bl	mbedtls_asn1_get_len
.LVL79:
	.loc 1 568 0
	cmp	r0, #0
	bne	.L92
	.loc 1 571 0
	mov	r2, r6
	movs	r1, #4
	mov	r0, r5
.LVL80:
	bl	x509_parse_int
.LVL81:
	mov	r4, r0
	cmp	r0, #0
	bne	.L69
.LVL82:
	.loc 1 572 0
	adds	r2, r6, #4
.LVL83:
	movs	r1, #2
	mov	r0, r5
.LVL84:
	bl	x509_parse_int
.LVL85:
	mov	r4, r0
	cmp	r0, #0
	bne	.L69
	.loc 1 573 0
	add	r2, r6, #8
	movs	r1, #2
	mov	r0, r5
.LVL86:
	bl	x509_parse_int
.LVL87:
	mov	r4, r0
	cmp	r0, #0
	bne	.L69
	.loc 1 574 0
	add	r2, r6, #12
	movs	r1, #2
	mov	r0, r5
.LVL88:
	bl	x509_parse_int
.LVL89:
	mov	r4, r0
	cmp	r0, #0
	bne	.L69
	.loc 1 575 0
	add	r2, r6, #16
	movs	r1, #2
	mov	r0, r5
.LVL90:
	bl	x509_parse_int
.LVL91:
	mov	r4, r0
	cmp	r0, #0
	bne	.L69
	.loc 1 576 0
	ldr	r3, [sp, #4]
	cmp	r3, #12
	bhi	.L80
.L83:
	.loc 1 578 0
	ldr	r3, [sp, #4]
	cmp	r3, #14
	bls	.L82
	.loc 1 578 0 is_stmt 0 discriminator 1
	ldr	r3, [r5]
	adds	r2, r3, #1
	str	r2, [r5]
	ldrb	r3, [r3]	@ zero_extendqisi2
	cmp	r3, #90
	beq	.L82
	b	.L84
.L80:
	.loc 1 577 0 is_stmt 1
	add	r2, r6, #20
	movs	r1, #2
	mov	r0, r5
.LVL92:
	bl	x509_parse_int
.LVL93:
	mov	r4, r0
	cmp	r0, #0
	beq	.L83
	b	.L69
.LVL94:
.L85:
	.loc 1 533 0
	ldr	r4, .L93+4
	b	.L69
.LVL95:
.L88:
	.loc 1 586 0
	ldr	r4, .L93+8
	b	.L69
.L94:
	.align	2
.L93:
	.word	-9216
	.word	-9312
	.word	-9314
	.cfi_endproc
.LFE17:
	.size	mbedtls_x509_get_time, .-mbedtls_x509_get_time
	.section	.text.mbedtls_x509_get_sig,"ax",%progbits
	.align	1
	.global	mbedtls_x509_get_sig
	.syntax unified
	.thumb
	.thumb_func
	.fpu softvfp
	.type	mbedtls_x509_get_sig, %function
mbedtls_x509_get_sig:
.LFB18:
	.loc 1 591 0
	.cfi_startproc
	@ args = 0, pretend = 0, frame = 8
	@ frame_needed = 0, uses_anonymous_args = 0
.LVL96:
	.loc 1 596 0
	ldr	r3, [r0]
	.loc 1 591 0
	push	{r0, r1, r4, r5, r6, lr}
	.cfi_def_cfa_offset 24
	.cfi_offset 4, -16
	.cfi_offset 5, -12
	.cfi_offset 6, -8
	.cfi_offset 14, -4
	.loc 1 591 0
	mov	r5, r2
	.loc 1 596 0
	subs	r2, r1, r3
.LVL97:
	cmp	r2, #0
	.loc 1 591 0
	mov	r4, r0
	.loc 1 596 0
	ble	.L98
	.loc 1 602 0
	add	r2, sp, #4
	.loc 1 600 0
	ldrb	r6, [r3]	@ zero_extendqisi2
.LVL98:
	.loc 1 602 0
	bl	mbedtls_asn1_get_bitstring_null
.LVL99:
	cbz	r0, .L97
	.loc 1 603 0
	sub	r0, r0, #9344
.LVL100:
.L95:
	.loc 1 612 0
	add	sp, sp, #8
	.cfi_remember_state
	.cfi_def_cfa_offset 16
	@ sp needed
	pop	{r4, r5, r6, pc}
.LVL101:
.L97:
	.cfi_restore_state
	.loc 1 607 0
	ldr	r3, [r4]
	.loc 1 606 0
	ldr	r2, [sp, #4]
	.loc 1 607 0
	str	r3, [r5, #8]
	.loc 1 609 0
	ldr	r3, [r4]
	.loc 1 600 0
	str	r6, [r5]
	.loc 1 609 0
	add	r3, r3, r2
	.loc 1 606 0
	str	r2, [r5, #4]
	.loc 1 609 0
	str	r3, [r4]
	.loc 1 611 0
	b	.L95
.LVL102:
.L98:
	.loc 1 597 0
	ldr	r0, .L99
.LVL103:
	b	.L95
.L100:
	.align	2
.L99:
	.word	-9440
	.cfi_endproc
.LFE18:
	.size	mbedtls_x509_get_sig, .-mbedtls_x509_get_sig
	.section	.text.mbedtls_x509_get_sig_alg,"ax",%progbits
	.align	1
	.global	mbedtls_x509_get_sig_alg
	.syntax unified
	.thumb
	.thumb_func
	.fpu softvfp
	.type	mbedtls_x509_get_sig_alg, %function
mbedtls_x509_get_sig_alg:
.LFB19:
	.loc 1 620 0
	.cfi_startproc
	@ args = 4, pretend = 0, frame = 0
	@ frame_needed = 0, uses_anonymous_args = 0
.LVL104:
	push	{r4, lr}
	.cfi_def_cfa_offset 8
	.cfi_offset 4, -8
	.cfi_offset 14, -4
	.loc 1 620 0
	mov	r4, r1
	mov	r1, r2
.LVL105:
	.loc 1 623 0
	ldr	r2, [sp, #8]
.LVL106:
	ldr	r2, [r2]
	cbnz	r2, .L105
	.loc 1 626 0
	mov	r2, r3
	bl	mbedtls_oid_get_sig_alg
.LVL107:
	cbz	r0, .L103
	.loc 1 627 0
	sub	r0, r0, #9728
.LVL108:
	pop	{r4, pc}
.LVL109:
.L103:
	.loc 1 654 0
	ldr	r3, [r4]
	cmp	r3, #5
	beq	.L104
	.loc 1 654 0 is_stmt 0 discriminator 1
	cbnz	r3, .L106
.L104:
	.loc 1 654 0 discriminator 3
	ldr	r2, [r4, #4]
	.loc 1 656 0 is_stmt 1 discriminator 3
	ldr	r3, .L111
	cmp	r2, #0
	it	ne
	movne	r0, r3
.LVL110:
	pop	{r4, pc}
.LVL111:
.L105:
	.loc 1 624 0
	ldr	r0, .L111+4
.LVL112:
	pop	{r4, pc}
.LVL113:
.L106:
	.loc 1 656 0
	ldr	r0, .L111
.LVL114:
	.loc 1 660 0
	pop	{r4, pc}
.LVL115:
.L112:
	.align	2
.L111:
	.word	-8960
	.word	-10240
	.cfi_endproc
.LFE19:
	.size	mbedtls_x509_get_sig_alg, .-mbedtls_x509_get_sig_alg
	.section	.text.mbedtls_x509_get_ext,"ax",%progbits
	.align	1
	.global	mbedtls_x509_get_ext
	.syntax unified
	.thumb
	.thumb_func
	.fpu softvfp
	.type	mbedtls_x509_get_ext, %function
mbedtls_x509_get_ext:
.LFB20:
	.loc 1 668 0
	.cfi_startproc
	@ args = 0, pretend = 0, frame = 8
	@ frame_needed = 0, uses_anonymous_args = 0
.LVL116:
	push	{r0, r1, r4, r5, r6, lr}
	.cfi_def_cfa_offset 24
	.cfi_offset 4, -16
	.cfi_offset 5, -12
	.cfi_offset 6, -8
	.cfi_offset 14, -4
	.loc 1 668 0
	mov	r6, r2
	.loc 1 672 0
	ldr	r2, [r0]
.LVL117:
	.loc 1 668 0
	mov	r4, r0
	.loc 1 672 0
	cmp	r2, r1
	beq	.L114
	.loc 1 675 0
	ldrb	r5, [r2]	@ zero_extendqisi2
	mov	r2, r6
	.loc 1 677 0
	orr	r3, r3, #160
.LVL118:
	.loc 1 675 0
	str	r5, [r2], #4
	.loc 1 677 0
	bl	mbedtls_asn1_get_tag
.LVL119:
	cbnz	r0, .L113
	.loc 1 681 0
	ldr	r3, [r4]
	.loc 1 692 0
	add	r2, sp, #4
	.loc 1 681 0
	str	r3, [r6, #8]
	.loc 1 682 0
	ldr	r5, [r4]
	ldr	r3, [r6, #4]
	.loc 1 692 0
	mov	r0, r4
.LVL120:
	.loc 1 682 0
	add	r5, r5, r3
.LVL121:
	.loc 1 692 0
	mov	r1, r5
	movs	r3, #48
	bl	mbedtls_asn1_get_tag
.LVL122:
	cbz	r0, .L116
	.loc 1 694 0
	sub	r0, r0, #9472
.LVL123:
.L113:
	.loc 1 701 0
	add	sp, sp, #8
	.cfi_remember_state
	.cfi_def_cfa_offset 16
	@ sp needed
	pop	{r4, r5, r6, pc}
.LVL124:
.L116:
	.cfi_restore_state
	.loc 1 696 0
	ldr	r3, [r4]
	ldr	r2, [sp, #4]
	add	r3, r3, r2
	cmp	r5, r3
	bne	.L117
.LVL125:
.L114:
	.loc 1 700 0
	movs	r0, #0
	b	.L113
.LVL126:
.L117:
	.loc 1 697 0
	ldr	r0, .L118
.LVL127:
	b	.L113
.L119:
	.align	2
.L118:
	.word	-9574
	.cfi_endproc
.LFE20:
	.size	mbedtls_x509_get_ext, .-mbedtls_x509_get_ext
	.section	.text.mbedtls_x509_dn_gets,"ax",%progbits
	.align	1
	.global	mbedtls_x509_dn_gets
	.syntax unified
	.thumb
	.thumb_func
	.fpu softvfp
	.type	mbedtls_x509_dn_gets, %function
mbedtls_x509_dn_gets:
.LFB21:
	.loc 1 708 0
	.cfi_startproc
	@ args = 0, pretend = 0, frame = 264
	@ frame_needed = 0, uses_anonymous_args = 0
.LVL128:
	push	{r4, r5, r6, r7, r8, r9, r10, fp, lr}
	.cfi_def_cfa_offset 36
	.cfi_offset 4, -36
	.cfi_offset 5, -32
	.cfi_offset 6, -28
	.cfi_offset 7, -24
	.cfi_offset 8, -20
	.cfi_offset 9, -16
	.cfi_offset 10, -12
	.cfi_offset 11, -8
	.cfi_offset 14, -4
	mov	r7, r1
	mov	r9, r2
	.loc 1 713 0
	mov	r10, #0
	.loc 1 718 0
	mov	r5, r9
	.loc 1 720 0
	mov	r4, r7
	.loc 1 751 0
	mov	fp, #63
	.loc 1 708 0
	sub	sp, sp, #268
	.cfi_def_cfa_offset 304
	.loc 1 716 0
	add	r8, sp, #8
	mov	r2, #256
.LVL129:
	mov	r1, r10
.LVL130:
	.loc 1 708 0
	mov	r6, r0
	.loc 1 716 0
	mov	r0, r8
.LVL131:
	.loc 1 713 0
	str	r10, [sp, #4]
	.loc 1 716 0
	bl	memset
.LVL132:
	.loc 1 711 0
	mov	r2, r10
	.loc 1 755 0
	ldr	r10, .L146+20
.LVL133:
.L121:
	.loc 1 722 0
	cbnz	r5, .L139
	.loc 1 762 0
	subs	r0, r7, r4
	b	.L120
.L139:
	.loc 1 724 0
	ldr	r3, [r5, #8]
	cbnz	r3, .L122
.LVL134:
.L145:
	.loc 1 759 0 discriminator 4
	ldr	r5, [r5, #24]
.LVL135:
	b	.L121
.L122:
	.loc 1 730 0
	cmp	r5, r9
	beq	.L124
	.loc 1 732 0
	ldr	r3, .L146
	ldr	r1, .L146+4
	mov	r0, r6
	cmp	r2, #0
	ite	ne
	movne	r2, r1
	moveq	r2, r3
.LVL136:
	mov	r1, r4
	bl	snprintf
.LVL137:
	.loc 1 733 0
	cmp	r0, #0
	bge	.L126
.L128:
	ldr	r0, .L146+8
.LVL138:
.L120:
	.loc 1 763 0
	add	sp, sp, #268
	.cfi_remember_state
	.cfi_def_cfa_offset 36
	@ sp needed
	pop	{r4, r5, r6, r7, r8, r9, r10, fp, pc}
.LVL139:
.L126:
	.cfi_restore_state
	.loc 1 733 0 discriminator 2
	cmp	r4, r0
	bls	.L128
	.loc 1 733 0 is_stmt 0 discriminator 4
	subs	r4, r4, r0
.LVL140:
	add	r6, r6, r0
.LVL141:
.L124:
	.loc 1 736 0 is_stmt 1
	add	r1, sp, #4
	mov	r0, r5
	bl	mbedtls_oid_get_attr_short_name
.LVL142:
	.loc 1 738 0
	cbnz	r0, .L129
	.loc 1 739 0
	ldr	r3, [sp, #4]
	ldr	r2, .L146+12
	mov	r1, r4
	mov	r0, r6
.LVL143:
	bl	snprintf
.LVL144:
.L130:
	.loc 1 742 0
	cmp	r0, #0
	blt	.L128
	.loc 1 742 0 is_stmt 0 discriminator 2
	cmp	r4, r0
	bls	.L128
	.loc 1 744 0 is_stmt 1 discriminator 4
	movs	r3, #0
	.loc 1 742 0 discriminator 4
	subs	r4, r4, r0
.LVL145:
	add	r6, r6, r0
.LVL146:
.L131:
	.loc 1 744 0 discriminator 1
	ldr	r2, [r5, #16]
	cmp	r3, r2
	bcs	.L138
	.loc 1 746 0
	cmp	r3, #255
	bne	.L132
.L138:
	.loc 1 754 0
	movs	r2, #0
	.loc 1 755 0
	mov	r1, r4
	.loc 1 754 0
	strb	r2, [r8, r3]
	.loc 1 755 0
	mov	r0, r6
.LVL147:
	mov	r3, r8
.LVL148:
	mov	r2, r10
	bl	snprintf
.LVL149:
	.loc 1 756 0
	cmp	r0, #0
	blt	.L128
	.loc 1 756 0 is_stmt 0 discriminator 2
	cmp	r4, r0
	bls	.L128
	.loc 1 756 0 discriminator 4
	subs	r4, r4, r0
.LVL150:
	add	r6, r6, r0
.LVL151:
	.loc 1 758 0 is_stmt 1 discriminator 4
	ldrb	r2, [r5, #28]	@ zero_extendqisi2
	b	.L145
.L129:
	.loc 1 741 0
	ldr	r2, .L146+16
	mov	r1, r4
	mov	r0, r6
.LVL152:
	bl	snprintf
.LVL153:
	b	.L130
.LVL154:
.L132:
	.loc 1 749 0
	ldr	r2, [r5, #20]
	ldrb	r2, [r2, r3]	@ zero_extendqisi2
.LVL155:
	.loc 1 750 0
	cmp	r2, #31
	bls	.L134
	.loc 1 750 0 is_stmt 0 discriminator 1
	cmp	r2, #127
	beq	.L134
	.loc 1 750 0 discriminator 2
	add	r1, r2, #127
	uxtb	r1, r1
	cmp	r1, #30
	bhi	.L135
.L134:
	.loc 1 751 0 is_stmt 1
	strb	fp, [r8, r3]
.L136:
	.loc 1 744 0 discriminator 2
	adds	r3, r3, #1
.LVL156:
	b	.L131
.L135:
	.loc 1 752 0
	strb	r2, [r8, r3]
	b	.L136
.L147:
	.align	2
.L146:
	.word	.LC1
	.word	.LC0
	.word	-10624
	.word	.LC2
	.word	.LC3
	.word	.LC4
	.cfi_endproc
.LFE21:
	.size	mbedtls_x509_dn_gets, .-mbedtls_x509_dn_gets
	.section	.text.mbedtls_x509_serial_gets,"ax",%progbits
	.align	1
	.global	mbedtls_x509_serial_gets
	.syntax unified
	.thumb
	.thumb_func
	.fpu softvfp
	.type	mbedtls_x509_serial_gets, %function
mbedtls_x509_serial_gets:
.LFB22:
	.loc 1 770 0
	.cfi_startproc
	@ args = 0, pretend = 0, frame = 0
	@ frame_needed = 0, uses_anonymous_args = 0
.LVL157:
	push	{r0, r1, r2, r4, r5, r6, r7, r8, r9, r10, fp, lr}
	.cfi_def_cfa_offset 48
	.cfi_offset 4, -36
	.cfi_offset 5, -32
	.cfi_offset 6, -28
	.cfi_offset 7, -24
	.cfi_offset 8, -20
	.cfi_offset 9, -16
	.cfi_offset 10, -12
	.cfi_offset 11, -8
	.cfi_offset 14, -4
	.loc 1 778 0
	ldr	r6, [r2, #4]
	.loc 1 770 0
	mov	r8, r0
	.loc 1 779 0
	cmp	r6, #32
	.loc 1 770 0
	mov	r7, r1
	mov	r9, r2
	.loc 1 779 0
	it	hi
	movhi	r6, #28
.LVL158:
	.loc 1 776 0
	mov	r4, r1
	.loc 1 781 0
	movs	r5, #0
	.loc 1 786 0
	ldr	r10, .L167+12
	ldr	fp, .L167+16
.LVL159:
.L150:
	.loc 1 781 0 discriminator 1
	cmp	r5, r6
	bne	.L157
	.loc 1 791 0
	ldr	r3, [r9, #4]
	cmp	r5, r3
	beq	.L158
	.loc 1 793 0
	ldr	r2, .L167
	mov	r1, r4
	mov	r0, r8
	bl	snprintf
.LVL160:
	.loc 1 794 0
	cmp	r0, #0
	blt	.L156
	.loc 1 794 0 is_stmt 0 discriminator 2
	cmp	r4, r0
	bls	.L156
	.loc 1 794 0 discriminator 4
	subs	r4, r4, r0
.LVL161:
.L158:
	.loc 1 797 0 is_stmt 1
	subs	r0, r7, r4
	b	.L148
.LVL162:
.L157:
	ldr	r3, [r9, #8]
	.loc 1 783 0
	cbnz	r5, .L151
.LVL163:
	.loc 1 783 0 is_stmt 0 discriminator 1
	cmp	r6, #1
	beq	.L151
	.loc 1 783 0 discriminator 2
	ldrb	r2, [r3]	@ zero_extendqisi2
	cbz	r2, .L152
.LVL164:
.L151:
	.loc 1 786 0 is_stmt 1
	ldr	r1, .L167+4
	.loc 1 787 0
	subs	r2, r6, #1
	.loc 1 786 0
	cmp	r5, r2
	it	cs
	movcs	r1, r10
	ldrb	r3, [r3, r5]	@ zero_extendqisi2
	mov	r2, fp
	str	r1, [sp]
	mov	r0, r8
	mov	r1, r4
	bl	snprintf
.LVL165:
	.loc 1 788 0
	cmp	r0, #0
	bge	.L154
.L156:
	ldr	r0, .L167+8
.LVL166:
.L148:
	.loc 1 798 0
	add	sp, sp, #12
	.cfi_remember_state
	.cfi_def_cfa_offset 36
	@ sp needed
	pop	{r4, r5, r6, r7, r8, r9, r10, fp, pc}
.LVL167:
.L154:
	.cfi_restore_state
	.loc 1 788 0 discriminator 2
	cmp	r4, r0
	bls	.L156
	.loc 1 788 0 is_stmt 0 discriminator 4
	subs	r4, r4, r0
.LVL168:
	add	r8, r8, r0
.LVL169:
.L152:
	.loc 1 781 0 is_stmt 1 discriminator 2
	adds	r5, r5, #1
.LVL170:
	b	.L150
.L168:
	.align	2
.L167:
	.word	.LC8
	.word	.LC5
	.word	-10624
	.word	.LC6
	.word	.LC7
	.cfi_endproc
.LFE22:
	.size	mbedtls_x509_serial_gets, .-mbedtls_x509_serial_gets
	.section	.text.mbedtls_x509_sig_alg_gets,"ax",%progbits
	.align	1
	.global	mbedtls_x509_sig_alg_gets
	.syntax unified
	.thumb
	.thumb_func
	.fpu softvfp
	.type	mbedtls_x509_sig_alg_gets, %function
mbedtls_x509_sig_alg_gets:
.LFB23:
	.loc 1 806 0
	.cfi_startproc
	@ args = 8, pretend = 0, frame = 8
	@ frame_needed = 0, uses_anonymous_args = 0
.LVL171:
	.loc 1 810 0
	movs	r3, #0
.LVL172:
	.loc 1 806 0
	push	{r0, r1, r2, r4, r5, lr}
	.cfi_def_cfa_offset 24
	.cfi_offset 4, -12
	.cfi_offset 5, -8
	.cfi_offset 14, -4
	.loc 1 806 0
	mov	r4, r1
	.loc 1 810 0
	add	r1, sp, #8
.LVL173:
	.loc 1 806 0
	mov	r5, r0
.LVL174:
	.loc 1 810 0
	str	r3, [r1, #-4]!
	.loc 1 812 0
	mov	r0, r2
.LVL175:
	bl	mbedtls_oid_get_sig_alg_desc
.LVL176:
	.loc 1 813 0
	cbz	r0, .L170
	.loc 1 814 0
	ldr	r2, .L175
	mov	r1, r4
	mov	r0, r5
.LVL177:
	bl	snprintf
.LVL178:
.L171:
	.loc 1 817 0
	cmp	r0, #0
	blt	.L173
	.loc 1 817 0 is_stmt 0 discriminator 2
	ldr	r3, .L175+4
	cmp	r4, r0
	it	ls
	movls	r0, r3
.LVL179:
.L169:
	.loc 1 843 0 is_stmt 1
	add	sp, sp, #12
	.cfi_remember_state
	.cfi_def_cfa_offset 12
	@ sp needed
	pop	{r4, r5, pc}
.LVL180:
.L170:
	.cfi_restore_state
	.loc 1 816 0
	ldr	r3, [sp, #4]
	ldr	r2, .L175+8
	mov	r1, r4
	mov	r0, r5
.LVL181:
	bl	snprintf
.LVL182:
	b	.L171
.L173:
	.loc 1 817 0
	ldr	r0, .L175+4
.LVL183:
	b	.L169
.L176:
	.align	2
.L175:
	.word	.LC9
	.word	-10624
	.word	.LC4
	.cfi_endproc
.LFE23:
	.size	mbedtls_x509_sig_alg_gets, .-mbedtls_x509_sig_alg_gets
	.section	.text.mbedtls_x509_key_size_helper,"ax",%progbits
	.align	1
	.global	mbedtls_x509_key_size_helper
	.syntax unified
	.thumb
	.thumb_func
	.fpu softvfp
	.type	mbedtls_x509_key_size_helper, %function
mbedtls_x509_key_size_helper:
.LFB24:
	.loc 1 849 0
	.cfi_startproc
	@ args = 0, pretend = 0, frame = 0
	@ frame_needed = 0, uses_anonymous_args = 0
.LVL184:
	.loc 1 854 0
	mov	r3, r2
	.loc 1 849 0
	push	{r4, lr}
	.cfi_def_cfa_offset 8
	.cfi_offset 4, -8
	.cfi_offset 14, -4
	.loc 1 854 0
	ldr	r2, .L181
.LVL185:
	.loc 1 849 0
	mov	r4, r1
.LVL186:
	.loc 1 854 0
	bl	snprintf
.LVL187:
	.loc 1 855 0
	subs	r3, r0, #0
	ldr	r0, .L181+4
.LVL188:
	blt	.L179
	.loc 1 857 0 discriminator 2
	cmp	r4, r3
	it	hi
	movhi	r0, #0
	pop	{r4, pc}
.LVL189:
.L179:
	.loc 1 858 0
	pop	{r4, pc}
.LVL190:
.L182:
	.align	2
.L181:
	.word	.LC10
	.word	-10624
	.cfi_endproc
.LFE24:
	.size	mbedtls_x509_key_size_helper, .-mbedtls_x509_key_size_helper
	.section	.text.mbedtls_x509_time_is_past,"ax",%progbits
	.align	1
	.global	mbedtls_x509_time_is_past
	.syntax unified
	.thumb
	.thumb_func
	.fpu softvfp
	.type	mbedtls_x509_time_is_past, %function
mbedtls_x509_time_is_past:
.LFB28:
	.cfi_startproc
	@ args = 0, pretend = 0, frame = 0
	@ frame_needed = 0, uses_anonymous_args = 0
	@ link register save eliminated.
	movs	r0, #0
	bx	lr
	.cfi_endproc
.LFE28:
	.size	mbedtls_x509_time_is_past, .-mbedtls_x509_time_is_past
	.section	.text.mbedtls_x509_time_is_future,"ax",%progbits
	.align	1
	.global	mbedtls_x509_time_is_future
	.syntax unified
	.thumb
	.thumb_func
	.fpu softvfp
	.type	mbedtls_x509_time_is_future, %function
mbedtls_x509_time_is_future:
.LFB26:
	.loc 1 987 0
	.cfi_startproc
	@ args = 0, pretend = 0, frame = 0
	@ frame_needed = 0, uses_anonymous_args = 0
	@ link register save eliminated.
.LVL191:
	.loc 1 990 0
	movs	r0, #0
.LVL192:
	bx	lr
	.cfi_endproc
.LFE26:
	.size	mbedtls_x509_time_is_future, .-mbedtls_x509_time_is_future
	.section	.rodata.mbedtls_x509_dn_gets.str1.1,"aMS",%progbits,1
.LC0:
	.ascii	" + \000"
.LC1:
	.ascii	", \000"
.LC2:
	.ascii	"%s=\000"
.LC3:
	.ascii	"??=\000"
.LC4:
	.ascii	"%s\000"
	.section	.rodata.mbedtls_x509_key_size_helper.str1.1,"aMS",%progbits,1
.LC10:
	.ascii	"%s key size\000"
	.section	.rodata.mbedtls_x509_serial_gets.str1.1,"aMS",%progbits,1
.LC5:
	.ascii	":\000"
.LC6:
	.ascii	"\000"
.LC7:
	.ascii	"%02X%s\000"
.LC8:
	.ascii	"....\000"
	.section	.rodata.mbedtls_x509_sig_alg_gets.str1.1,"aMS",%progbits,1
.LC9:
	.ascii	"???\000"
	.text
.Letext0:
	.file 2 "/home/ls/samba_share/sdk-ameba-v7.1d/tools/arm-none-eabi-gcc/asdk/linux/newlib/arm-none-eabi/include/machine/_default_types.h"
	.file 3 "/home/ls/samba_share/sdk-ameba-v7.1d/tools/arm-none-eabi-gcc/asdk/linux/newlib/lib/gcc/arm-none-eabi/6.5.0/include/stddef.h"
	.file 4 "/home/ls/samba_share/sdk-ameba-v7.1d/tools/arm-none-eabi-gcc/asdk/linux/newlib/arm-none-eabi/include/sys/lock.h"
	.file 5 "/home/ls/samba_share/sdk-ameba-v7.1d/tools/arm-none-eabi-gcc/asdk/linux/newlib/arm-none-eabi/include/sys/_types.h"
	.file 6 "/home/ls/samba_share/sdk-ameba-v7.1d/tools/arm-none-eabi-gcc/asdk/linux/newlib/arm-none-eabi/include/sys/reent.h"
	.file 7 "/home/ls/samba_share/sdk-ameba-v7.1d/tools/arm-none-eabi-gcc/asdk/linux/newlib/arm-none-eabi/include/sys/_stdint.h"
	.file 8 "/home/ls/samba_share/sdk-ameba-v7.1d/tools/arm-none-eabi-gcc/asdk/linux/newlib/arm-none-eabi/include/time.h"
	.file 9 "../../../component/common/network/ssl/ssl_ram_map/rom/rom_ssl_ram_map.h"
	.file 10 "/home/ls/samba_share/sdk-ameba-v7.1d/tools/arm-none-eabi-gcc/asdk/linux/newlib/arm-none-eabi/include/stdlib.h"
	.file 11 "../../../component/common/network/ssl/mbedtls-2.4.0/include/mbedtls/asn1.h"
	.file 12 "../../../component/common/network/ssl/mbedtls-2.4.0/include/mbedtls/md.h"
	.file 13 "../../../component/common/network/ssl/mbedtls-2.4.0/include/mbedtls/pk.h"
	.file 14 "../../../component/common/network/ssl/mbedtls-2.4.0/include/mbedtls/x509.h"
	.file 15 "../../../component/common/network/ssl/mbedtls-2.4.0/include/mbedtls/platform.h"
	.file 16 "/home/ls/samba_share/sdk-ameba-v7.1d/tools/arm-none-eabi-gcc/asdk/linux/newlib/arm-none-eabi/include/stdio.h"
	.file 17 "../../../component/common/network/ssl/mbedtls-2.4.0/include/mbedtls/oid.h"